
supp/complex-updates.riscv:     file format elf64-littleriscv


Disassembly of section .text:

00000000000100b0 <_start>:
   100b0:	00002197          	auipc	gp,0x2
   100b4:	eb018193          	addi	gp,gp,-336 # 11f60 <__global_pointer$>
   100b8:	81818513          	addi	a0,gp,-2024 # 11778 <completed.5212>
   100bc:	a5018613          	addi	a2,gp,-1456 # 119b0 <_end>
   100c0:	40a60633          	sub	a2,a2,a0
   100c4:	00000593          	li	a1,0
   100c8:	690000ef          	jal	ra,10758 <memset>
   100cc:	00000517          	auipc	a0,0x0
   100d0:	57850513          	addi	a0,a0,1400 # 10644 <__libc_fini_array>
   100d4:	528000ef          	jal	ra,105fc <atexit>
   100d8:	5e0000ef          	jal	ra,106b8 <__libc_init_array>
   100dc:	00012503          	lw	a0,0(sp)
   100e0:	00810593          	addi	a1,sp,8
   100e4:	00000613          	li	a2,0
   100e8:	4e0000ef          	jal	ra,105c8 <main>
   100ec:	5240006f          	j	10610 <exit>

00000000000100f0 <_fini>:
   100f0:	00008067          	ret

00000000000100f4 <deregister_tm_clones>:
   100f4:	00011537          	lui	a0,0x11
   100f8:	000117b7          	lui	a5,0x11
   100fc:	76050713          	addi	a4,a0,1888 # 11760 <__TMC_END__>
   10100:	76078793          	addi	a5,a5,1888 # 11760 <__TMC_END__>
   10104:	00e78c63          	beq	a5,a4,1011c <deregister_tm_clones+0x28>
   10108:	00000337          	lui	t1,0x0
   1010c:	00030313          	mv	t1,t1
   10110:	00030663          	beqz	t1,1011c <deregister_tm_clones+0x28>
   10114:	76050513          	addi	a0,a0,1888
   10118:	00030067          	jr	t1 # 0 <_start-0x100b0>
   1011c:	00008067          	ret

0000000000010120 <register_tm_clones>:
   10120:	000117b7          	lui	a5,0x11
   10124:	00011537          	lui	a0,0x11
   10128:	76078593          	addi	a1,a5,1888 # 11760 <__TMC_END__>
   1012c:	76050793          	addi	a5,a0,1888 # 11760 <__TMC_END__>
   10130:	40f585b3          	sub	a1,a1,a5
   10134:	4035d593          	srai	a1,a1,0x3
   10138:	00200793          	li	a5,2
   1013c:	02f5c5b3          	div	a1,a1,a5
   10140:	00058c63          	beqz	a1,10158 <register_tm_clones+0x38>
   10144:	00000337          	lui	t1,0x0
   10148:	00030313          	mv	t1,t1
   1014c:	00030663          	beqz	t1,10158 <register_tm_clones+0x38>
   10150:	76050513          	addi	a0,a0,1888
   10154:	00030067          	jr	t1 # 0 <_start-0x100b0>
   10158:	00008067          	ret

000000000001015c <__do_global_dtors_aux>:
   1015c:	8181c703          	lbu	a4,-2024(gp) # 11778 <completed.5212>
   10160:	04071663          	bnez	a4,101ac <__do_global_dtors_aux+0x50>
   10164:	ff010113          	addi	sp,sp,-16
   10168:	00813023          	sd	s0,0(sp)
   1016c:	00113423          	sd	ra,8(sp)
   10170:	00078413          	mv	s0,a5
   10174:	f81ff0ef          	jal	ra,100f4 <deregister_tm_clones>
   10178:	000007b7          	lui	a5,0x0
   1017c:	00078793          	mv	a5,a5
   10180:	00078a63          	beqz	a5,10194 <__do_global_dtors_aux+0x38>
   10184:	00011537          	lui	a0,0x11
   10188:	00050513          	mv	a0,a0
   1018c:	ffff0097          	auipc	ra,0xffff0
   10190:	e74080e7          	jalr	-396(ra) # 0 <_start-0x100b0>
   10194:	00100793          	li	a5,1
   10198:	80f18c23          	sb	a5,-2024(gp) # 11778 <completed.5212>
   1019c:	00813083          	ld	ra,8(sp)
   101a0:	00013403          	ld	s0,0(sp)
   101a4:	01010113          	addi	sp,sp,16
   101a8:	00008067          	ret
   101ac:	00008067          	ret

00000000000101b0 <frame_dummy>:
   101b0:	000007b7          	lui	a5,0x0
   101b4:	00078793          	mv	a5,a5
   101b8:	02078663          	beqz	a5,101e4 <frame_dummy+0x34>
   101bc:	000115b7          	lui	a1,0x11
   101c0:	00011537          	lui	a0,0x11
   101c4:	ff010113          	addi	sp,sp,-16
   101c8:	78058593          	addi	a1,a1,1920 # 11780 <object.5217>
   101cc:	00050513          	mv	a0,a0
   101d0:	00113423          	sd	ra,8(sp)
   101d4:	ffff0097          	auipc	ra,0xffff0
   101d8:	e2c080e7          	jalr	-468(ra) # 0 <_start-0x100b0>
   101dc:	00813083          	ld	ra,8(sp)
   101e0:	01010113          	addi	sp,sp,16
   101e4:	f3dff06f          	j	10120 <register_tm_clones>

00000000000101e8 <complex_updates_init>:
   101e8:	fe010113          	addi	sp,sp,-32
   101ec:	00113c23          	sd	ra,24(sp)
   101f0:	00813823          	sd	s0,16(sp)
   101f4:	02010413          	addi	s0,sp,32
   101f8:	fe042423          	sw	zero,-24(s0)
   101fc:	000117b7          	lui	a5,0x11
   10200:	7b078693          	addi	a3,a5,1968 # 117b0 <complex_updates_D>
   10204:	8d018613          	addi	a2,gp,-1840 # 11830 <complex_updates_C>
   10208:	9d018593          	addi	a1,gp,-1584 # 11930 <complex_updates_B>
   1020c:	95018513          	addi	a0,gp,-1712 # 118b0 <complex_updates_A>
   10210:	104000ef          	jal	ra,10314 <complex_updates_pin_down>
   10214:	fe042623          	sw	zero,-20(s0)
   10218:	0d80006f          	j	102f0 <complex_updates_init+0x108>
   1021c:	fe842707          	flw	fa4,-24(s0)
   10220:	fec42703          	lw	a4,-20(s0)
   10224:	00271713          	slli	a4,a4,0x2
   10228:	95018793          	addi	a5,gp,-1712 # 118b0 <complex_updates_A>
   1022c:	00f707b3          	add	a5,a4,a5
   10230:	0007a787          	flw	fa5,0(a5)
   10234:	00f777d3          	fadd.s	fa5,fa4,fa5
   10238:	fec42703          	lw	a4,-20(s0)
   1023c:	00271713          	slli	a4,a4,0x2
   10240:	95018793          	addi	a5,gp,-1712 # 118b0 <complex_updates_A>
   10244:	00f707b3          	add	a5,a4,a5
   10248:	00f7a027          	fsw	fa5,0(a5)
   1024c:	fe842707          	flw	fa4,-24(s0)
   10250:	fec42703          	lw	a4,-20(s0)
   10254:	00271713          	slli	a4,a4,0x2
   10258:	9d018793          	addi	a5,gp,-1584 # 11930 <complex_updates_B>
   1025c:	00f707b3          	add	a5,a4,a5
   10260:	0007a787          	flw	fa5,0(a5)
   10264:	00f777d3          	fadd.s	fa5,fa4,fa5
   10268:	fec42703          	lw	a4,-20(s0)
   1026c:	00271713          	slli	a4,a4,0x2
   10270:	9d018793          	addi	a5,gp,-1584 # 11930 <complex_updates_B>
   10274:	00f707b3          	add	a5,a4,a5
   10278:	00f7a027          	fsw	fa5,0(a5)
   1027c:	fe842707          	flw	fa4,-24(s0)
   10280:	fec42703          	lw	a4,-20(s0)
   10284:	00271713          	slli	a4,a4,0x2
   10288:	8d018793          	addi	a5,gp,-1840 # 11830 <complex_updates_C>
   1028c:	00f707b3          	add	a5,a4,a5
   10290:	0007a787          	flw	fa5,0(a5)
   10294:	00f777d3          	fadd.s	fa5,fa4,fa5
   10298:	fec42703          	lw	a4,-20(s0)
   1029c:	00271713          	slli	a4,a4,0x2
   102a0:	8d018793          	addi	a5,gp,-1840 # 11830 <complex_updates_C>
   102a4:	00f707b3          	add	a5,a4,a5
   102a8:	00f7a027          	fsw	fa5,0(a5)
   102ac:	fe842707          	flw	fa4,-24(s0)
   102b0:	000117b7          	lui	a5,0x11
   102b4:	fec42703          	lw	a4,-20(s0)
   102b8:	00271713          	slli	a4,a4,0x2
   102bc:	7b078793          	addi	a5,a5,1968 # 117b0 <complex_updates_D>
   102c0:	00f707b3          	add	a5,a4,a5
   102c4:	0007a787          	flw	fa5,0(a5)
   102c8:	00f777d3          	fadd.s	fa5,fa4,fa5
   102cc:	000117b7          	lui	a5,0x11
   102d0:	fec42703          	lw	a4,-20(s0)
   102d4:	00271713          	slli	a4,a4,0x2
   102d8:	7b078793          	addi	a5,a5,1968 # 117b0 <complex_updates_D>
   102dc:	00f707b3          	add	a5,a4,a5
   102e0:	00f7a027          	fsw	fa5,0(a5)
   102e4:	fec42783          	lw	a5,-20(s0)
   102e8:	0017879b          	addiw	a5,a5,1
   102ec:	fef42623          	sw	a5,-20(s0)
   102f0:	fec42783          	lw	a5,-20(s0)
   102f4:	0007871b          	sext.w	a4,a5
   102f8:	00f00793          	li	a5,15
   102fc:	f2e7d0e3          	bge	a5,a4,1021c <complex_updates_init+0x34>
   10300:	00000013          	nop
   10304:	01813083          	ld	ra,24(sp)
   10308:	01013403          	ld	s0,16(sp)
   1030c:	02010113          	addi	sp,sp,32
   10310:	00008067          	ret

0000000000010314 <complex_updates_pin_down>:
   10314:	fd010113          	addi	sp,sp,-48
   10318:	02813423          	sd	s0,40(sp)
   1031c:	02913023          	sd	s1,32(sp)
   10320:	03010413          	addi	s0,sp,48
   10324:	fea43423          	sd	a0,-24(s0)
   10328:	feb43023          	sd	a1,-32(s0)
   1032c:	fcc43c23          	sd	a2,-40(s0)
   10330:	fcd43823          	sd	a3,-48(s0)
   10334:	00000493          	li	s1,0
   10338:	0bc0006f          	j	103f4 <complex_updates_pin_down+0xe0>
   1033c:	fe843783          	ld	a5,-24(s0)
   10340:	00478713          	addi	a4,a5,4
   10344:	fee43423          	sd	a4,-24(s0)
   10348:	00011737          	lui	a4,0x11
   1034c:	a2072787          	flw	fa5,-1504(a4) # 10a20 <__errno+0x8>
   10350:	00f7a027          	fsw	fa5,0(a5)
   10354:	fe843783          	ld	a5,-24(s0)
   10358:	00478713          	addi	a4,a5,4
   1035c:	fee43423          	sd	a4,-24(s0)
   10360:	00011737          	lui	a4,0x11
   10364:	a2472787          	flw	fa5,-1500(a4) # 10a24 <__errno+0xc>
   10368:	00f7a027          	fsw	fa5,0(a5)
   1036c:	fe043783          	ld	a5,-32(s0)
   10370:	00478713          	addi	a4,a5,4
   10374:	fee43023          	sd	a4,-32(s0)
   10378:	00011737          	lui	a4,0x11
   1037c:	a2072787          	flw	fa5,-1504(a4) # 10a20 <__errno+0x8>
   10380:	00f7a027          	fsw	fa5,0(a5)
   10384:	fe043783          	ld	a5,-32(s0)
   10388:	00478713          	addi	a4,a5,4
   1038c:	fee43023          	sd	a4,-32(s0)
   10390:	00011737          	lui	a4,0x11
   10394:	a2872787          	flw	fa5,-1496(a4) # 10a28 <__errno+0x10>
   10398:	00f7a027          	fsw	fa5,0(a5)
   1039c:	fd843783          	ld	a5,-40(s0)
   103a0:	00478713          	addi	a4,a5,4
   103a4:	fce43c23          	sd	a4,-40(s0)
   103a8:	00011737          	lui	a4,0x11
   103ac:	a2c72787          	flw	fa5,-1492(a4) # 10a2c <__errno+0x14>
   103b0:	00f7a027          	fsw	fa5,0(a5)
   103b4:	fd843783          	ld	a5,-40(s0)
   103b8:	00478713          	addi	a4,a5,4
   103bc:	fce43c23          	sd	a4,-40(s0)
   103c0:	00011737          	lui	a4,0x11
   103c4:	a3072787          	flw	fa5,-1488(a4) # 10a30 <__errno+0x18>
   103c8:	00f7a027          	fsw	fa5,0(a5)
   103cc:	fd043783          	ld	a5,-48(s0)
   103d0:	00478713          	addi	a4,a5,4
   103d4:	fce43823          	sd	a4,-48(s0)
   103d8:	0007a023          	sw	zero,0(a5)
   103dc:	fd043783          	ld	a5,-48(s0)
   103e0:	00478713          	addi	a4,a5,4
   103e4:	fce43823          	sd	a4,-48(s0)
   103e8:	0007a023          	sw	zero,0(a5)
   103ec:	0014879b          	addiw	a5,s1,1
   103f0:	0007849b          	sext.w	s1,a5
   103f4:	00048713          	mv	a4,s1
   103f8:	00f00793          	li	a5,15
   103fc:	f4e7d0e3          	bge	a5,a4,1033c <complex_updates_pin_down+0x28>
   10400:	00000013          	nop
   10404:	02813403          	ld	s0,40(sp)
   10408:	02013483          	ld	s1,32(sp)
   1040c:	03010113          	addi	sp,sp,48
   10410:	00008067          	ret

0000000000010414 <complex_updates_return>:
   10414:	fe010113          	addi	sp,sp,-32
   10418:	00813c23          	sd	s0,24(sp)
   1041c:	02010413          	addi	s0,sp,32
   10420:	fe042623          	sw	zero,-20(s0)
   10424:	fe042423          	sw	zero,-24(s0)
   10428:	0340006f          	j	1045c <complex_updates_return+0x48>
   1042c:	000117b7          	lui	a5,0x11
   10430:	fe842703          	lw	a4,-24(s0)
   10434:	00271713          	slli	a4,a4,0x2
   10438:	7b078793          	addi	a5,a5,1968 # 117b0 <complex_updates_D>
   1043c:	00f707b3          	add	a5,a4,a5
   10440:	0007a787          	flw	fa5,0(a5)
   10444:	fec42707          	flw	fa4,-20(s0)
   10448:	00f777d3          	fadd.s	fa5,fa4,fa5
   1044c:	fef42627          	fsw	fa5,-20(s0)
   10450:	fe842783          	lw	a5,-24(s0)
   10454:	0017879b          	addiw	a5,a5,1
   10458:	fef42423          	sw	a5,-24(s0)
   1045c:	fe842783          	lw	a5,-24(s0)
   10460:	0007871b          	sext.w	a4,a5
   10464:	00f00793          	li	a5,15
   10468:	fce7d2e3          	bge	a5,a4,1042c <complex_updates_return+0x18>
   1046c:	fec42707          	flw	fa4,-20(s0)
   10470:	000117b7          	lui	a5,0x11
   10474:	a347a787          	flw	fa5,-1484(a5) # 10a34 <__errno+0x1c>
   10478:	a0f727d3          	feq.s	a5,fa4,fa5
   1047c:	0017b793          	seqz	a5,a5
   10480:	0ff7f793          	zext.b	a5,a5
   10484:	0007879b          	sext.w	a5,a5
   10488:	00078513          	mv	a0,a5
   1048c:	01813403          	ld	s0,24(sp)
   10490:	02010113          	addi	sp,sp,32
   10494:	00008067          	ret

0000000000010498 <complex_updates_main>:
   10498:	fc010113          	addi	sp,sp,-64
   1049c:	02813c23          	sd	s0,56(sp)
   104a0:	02913823          	sd	s1,48(sp)
   104a4:	03213423          	sd	s2,40(sp)
   104a8:	03313023          	sd	s3,32(sp)
   104ac:	01413c23          	sd	s4,24(sp)
   104b0:	04010413          	addi	s0,sp,64
   104b4:	95018493          	addi	s1,gp,-1712 # 118b0 <complex_updates_A>
   104b8:	9d018913          	addi	s2,gp,-1584 # 11930 <complex_updates_B>
   104bc:	8d018a13          	addi	s4,gp,-1840 # 11830 <complex_updates_C>
   104c0:	000117b7          	lui	a5,0x11
   104c4:	7b078993          	addi	s3,a5,1968 # 117b0 <complex_updates_D>
   104c8:	fc042623          	sw	zero,-52(s0)
   104cc:	0cc0006f          	j	10598 <complex_updates_main+0x100>
   104d0:	000a0793          	mv	a5,s4
   104d4:	00478a13          	addi	s4,a5,4
   104d8:	0007a707          	flw	fa4,0(a5)
   104dc:	00048793          	mv	a5,s1
   104e0:	00478493          	addi	s1,a5,4
   104e4:	0007a687          	flw	fa3,0(a5)
   104e8:	00090793          	mv	a5,s2
   104ec:	00478913          	addi	s2,a5,4
   104f0:	0007a787          	flw	fa5,0(a5)
   104f4:	10f6f7d3          	fmul.s	fa5,fa3,fa5
   104f8:	00f777d3          	fadd.s	fa5,fa4,fa5
   104fc:	00f9a027          	fsw	fa5,0(s3)
   10500:	0004a707          	flw	fa4,0(s1)
   10504:	00090793          	mv	a5,s2
   10508:	ffc78913          	addi	s2,a5,-4
   1050c:	0007a787          	flw	fa5,0(a5)
   10510:	10f777d3          	fmul.s	fa5,fa4,fa5
   10514:	00098793          	mv	a5,s3
   10518:	00478993          	addi	s3,a5,4
   1051c:	0007a707          	flw	fa4,0(a5)
   10520:	08f777d3          	fsub.s	fa5,fa4,fa5
   10524:	00f7a027          	fsw	fa5,0(a5)
   10528:	000a0793          	mv	a5,s4
   1052c:	00478a13          	addi	s4,a5,4
   10530:	0007a707          	flw	fa4,0(a5)
   10534:	00048793          	mv	a5,s1
   10538:	ffc78493          	addi	s1,a5,-4
   1053c:	0007a687          	flw	fa3,0(a5)
   10540:	00090793          	mv	a5,s2
   10544:	00478913          	addi	s2,a5,4
   10548:	0007a787          	flw	fa5,0(a5)
   1054c:	10f6f7d3          	fmul.s	fa5,fa3,fa5
   10550:	00f777d3          	fadd.s	fa5,fa4,fa5
   10554:	00f9a027          	fsw	fa5,0(s3)
   10558:	00048793          	mv	a5,s1
   1055c:	00478493          	addi	s1,a5,4
   10560:	0007a707          	flw	fa4,0(a5)
   10564:	00090793          	mv	a5,s2
   10568:	00478913          	addi	s2,a5,4
   1056c:	0007a787          	flw	fa5,0(a5)
   10570:	10f77753          	fmul.s	fa4,fa4,fa5
   10574:	00098793          	mv	a5,s3
   10578:	00478993          	addi	s3,a5,4
   1057c:	0007a787          	flw	fa5,0(a5)
   10580:	00f777d3          	fadd.s	fa5,fa4,fa5
   10584:	00f7a027          	fsw	fa5,0(a5)
   10588:	fcc42783          	lw	a5,-52(s0)
   1058c:	0017879b          	addiw	a5,a5,1
   10590:	fcf42623          	sw	a5,-52(s0)
   10594:	00448493          	addi	s1,s1,4
   10598:	fcc42783          	lw	a5,-52(s0)
   1059c:	0007871b          	sext.w	a4,a5
   105a0:	00f00793          	li	a5,15
   105a4:	f2e7d6e3          	bge	a5,a4,104d0 <complex_updates_main+0x38>
   105a8:	00000013          	nop
   105ac:	03813403          	ld	s0,56(sp)
   105b0:	03013483          	ld	s1,48(sp)
   105b4:	02813903          	ld	s2,40(sp)
   105b8:	02013983          	ld	s3,32(sp)
   105bc:	01813a03          	ld	s4,24(sp)
   105c0:	04010113          	addi	sp,sp,64
   105c4:	00008067          	ret

00000000000105c8 <main>:
   105c8:	ff010113          	addi	sp,sp,-16
   105cc:	00113423          	sd	ra,8(sp)
   105d0:	00813023          	sd	s0,0(sp)
   105d4:	01010413          	addi	s0,sp,16
   105d8:	c11ff0ef          	jal	ra,101e8 <complex_updates_init>
   105dc:	ebdff0ef          	jal	ra,10498 <complex_updates_main>
   105e0:	e35ff0ef          	jal	ra,10414 <complex_updates_return>
   105e4:	00050793          	mv	a5,a0
   105e8:	00078513          	mv	a0,a5
   105ec:	00813083          	ld	ra,8(sp)
   105f0:	00013403          	ld	s0,0(sp)
   105f4:	01010113          	addi	sp,sp,16
   105f8:	00008067          	ret

00000000000105fc <atexit>:
   105fc:	00050593          	mv	a1,a0
   10600:	00000693          	li	a3,0
   10604:	00000613          	li	a2,0
   10608:	00000513          	li	a0,0
   1060c:	2280006f          	j	10834 <__register_exitproc>

0000000000010610 <exit>:
   10610:	ff010113          	addi	sp,sp,-16
   10614:	00000593          	li	a1,0
   10618:	00813023          	sd	s0,0(sp)
   1061c:	00113423          	sd	ra,8(sp)
   10620:	00050413          	mv	s0,a0
   10624:	298000ef          	jal	ra,108bc <__call_exitprocs>
   10628:	000117b7          	lui	a5,0x11
   1062c:	7687b503          	ld	a0,1896(a5) # 11768 <_global_impure_ptr>
   10630:	05853783          	ld	a5,88(a0) # 11058 <impure_data+0x40>
   10634:	00078463          	beqz	a5,1063c <exit+0x2c>
   10638:	000780e7          	jalr	a5
   1063c:	00040513          	mv	a0,s0
   10640:	394000ef          	jal	ra,109d4 <_exit>

0000000000010644 <__libc_fini_array>:
   10644:	fd010113          	addi	sp,sp,-48
   10648:	000117b7          	lui	a5,0x11
   1064c:	00011737          	lui	a4,0x11
   10650:	02813023          	sd	s0,32(sp)
   10654:	01070713          	addi	a4,a4,16 # 11010 <__do_global_dtors_aux_fini_array_entry>
   10658:	01878413          	addi	s0,a5,24 # 11018 <impure_data>
   1065c:	40e40433          	sub	s0,s0,a4
   10660:	00913c23          	sd	s1,24(sp)
   10664:	01213823          	sd	s2,16(sp)
   10668:	01313423          	sd	s3,8(sp)
   1066c:	02113423          	sd	ra,40(sp)
   10670:	40345413          	srai	s0,s0,0x3
   10674:	00000493          	li	s1,0
   10678:	01878913          	addi	s2,a5,24
   1067c:	ff800993          	li	s3,-8
   10680:	02941063          	bne	s0,s1,106a0 <__libc_fini_array+0x5c>
   10684:	02013403          	ld	s0,32(sp)
   10688:	02813083          	ld	ra,40(sp)
   1068c:	01813483          	ld	s1,24(sp)
   10690:	01013903          	ld	s2,16(sp)
   10694:	00813983          	ld	s3,8(sp)
   10698:	03010113          	addi	sp,sp,48
   1069c:	a55ff06f          	j	100f0 <_fini>
   106a0:	033487b3          	mul	a5,s1,s3
   106a4:	00148493          	addi	s1,s1,1
   106a8:	00f907b3          	add	a5,s2,a5
   106ac:	ff87b783          	ld	a5,-8(a5)
   106b0:	000780e7          	jalr	a5
   106b4:	fcdff06f          	j	10680 <__libc_fini_array+0x3c>

00000000000106b8 <__libc_init_array>:
   106b8:	fe010113          	addi	sp,sp,-32
   106bc:	00813823          	sd	s0,16(sp)
   106c0:	00913423          	sd	s1,8(sp)
   106c4:	00011437          	lui	s0,0x11
   106c8:	000114b7          	lui	s1,0x11
   106cc:	00448793          	addi	a5,s1,4 # 11004 <__preinit_array_end>
   106d0:	00440413          	addi	s0,s0,4 # 11004 <__preinit_array_end>
   106d4:	40f40433          	sub	s0,s0,a5
   106d8:	01213023          	sd	s2,0(sp)
   106dc:	00113c23          	sd	ra,24(sp)
   106e0:	40345413          	srai	s0,s0,0x3
   106e4:	00448493          	addi	s1,s1,4
   106e8:	00000913          	li	s2,0
   106ec:	04891263          	bne	s2,s0,10730 <__libc_init_array+0x78>
   106f0:	000114b7          	lui	s1,0x11
   106f4:	9fdff0ef          	jal	ra,100f0 <_fini>
   106f8:	00011437          	lui	s0,0x11
   106fc:	00848793          	addi	a5,s1,8 # 11008 <__frame_dummy_init_array_entry>
   10700:	01040413          	addi	s0,s0,16 # 11010 <__do_global_dtors_aux_fini_array_entry>
   10704:	40f40433          	sub	s0,s0,a5
   10708:	40345413          	srai	s0,s0,0x3
   1070c:	00848493          	addi	s1,s1,8
   10710:	00000913          	li	s2,0
   10714:	02891863          	bne	s2,s0,10744 <__libc_init_array+0x8c>
   10718:	01813083          	ld	ra,24(sp)
   1071c:	01013403          	ld	s0,16(sp)
   10720:	00813483          	ld	s1,8(sp)
   10724:	00013903          	ld	s2,0(sp)
   10728:	02010113          	addi	sp,sp,32
   1072c:	00008067          	ret
   10730:	0004b783          	ld	a5,0(s1)
   10734:	00190913          	addi	s2,s2,1
   10738:	00848493          	addi	s1,s1,8
   1073c:	000780e7          	jalr	a5
   10740:	fadff06f          	j	106ec <__libc_init_array+0x34>
   10744:	0004b783          	ld	a5,0(s1)
   10748:	00190913          	addi	s2,s2,1
   1074c:	00848493          	addi	s1,s1,8
   10750:	000780e7          	jalr	a5
   10754:	fc1ff06f          	j	10714 <__libc_init_array+0x5c>

0000000000010758 <memset>:
   10758:	00f00313          	li	t1,15
   1075c:	00050713          	mv	a4,a0
   10760:	02c37a63          	bgeu	t1,a2,10794 <memset+0x3c>
   10764:	00f77793          	andi	a5,a4,15
   10768:	0a079063          	bnez	a5,10808 <memset+0xb0>
   1076c:	06059e63          	bnez	a1,107e8 <memset+0x90>
   10770:	ff067693          	andi	a3,a2,-16
   10774:	00f67613          	andi	a2,a2,15
   10778:	00e686b3          	add	a3,a3,a4
   1077c:	00b73023          	sd	a1,0(a4)
   10780:	00b73423          	sd	a1,8(a4)
   10784:	01070713          	addi	a4,a4,16
   10788:	fed76ae3          	bltu	a4,a3,1077c <memset+0x24>
   1078c:	00061463          	bnez	a2,10794 <memset+0x3c>
   10790:	00008067          	ret
   10794:	40c306b3          	sub	a3,t1,a2
   10798:	00269693          	slli	a3,a3,0x2
   1079c:	00000297          	auipc	t0,0x0
   107a0:	005686b3          	add	a3,a3,t0
   107a4:	00c68067          	jr	12(a3)
   107a8:	00b70723          	sb	a1,14(a4)
   107ac:	00b706a3          	sb	a1,13(a4)
   107b0:	00b70623          	sb	a1,12(a4)
   107b4:	00b705a3          	sb	a1,11(a4)
   107b8:	00b70523          	sb	a1,10(a4)
   107bc:	00b704a3          	sb	a1,9(a4)
   107c0:	00b70423          	sb	a1,8(a4)
   107c4:	00b703a3          	sb	a1,7(a4)
   107c8:	00b70323          	sb	a1,6(a4)
   107cc:	00b702a3          	sb	a1,5(a4)
   107d0:	00b70223          	sb	a1,4(a4)
   107d4:	00b701a3          	sb	a1,3(a4)
   107d8:	00b70123          	sb	a1,2(a4)
   107dc:	00b700a3          	sb	a1,1(a4)
   107e0:	00b70023          	sb	a1,0(a4)
   107e4:	00008067          	ret
   107e8:	0ff5f593          	zext.b	a1,a1
   107ec:	00859693          	slli	a3,a1,0x8
   107f0:	00d5e5b3          	or	a1,a1,a3
   107f4:	01059693          	slli	a3,a1,0x10
   107f8:	00d5e5b3          	or	a1,a1,a3
   107fc:	02059693          	slli	a3,a1,0x20
   10800:	00d5e5b3          	or	a1,a1,a3
   10804:	f6dff06f          	j	10770 <memset+0x18>
   10808:	00279693          	slli	a3,a5,0x2
   1080c:	00000297          	auipc	t0,0x0
   10810:	005686b3          	add	a3,a3,t0
   10814:	00008293          	mv	t0,ra
   10818:	f98680e7          	jalr	-104(a3)
   1081c:	00028093          	mv	ra,t0
   10820:	ff078793          	addi	a5,a5,-16
   10824:	40f70733          	sub	a4,a4,a5
   10828:	00f60633          	add	a2,a2,a5
   1082c:	f6c374e3          	bgeu	t1,a2,10794 <memset+0x3c>
   10830:	f3dff06f          	j	1076c <memset+0x14>

0000000000010834 <__register_exitproc>:
   10834:	000117b7          	lui	a5,0x11
   10838:	7687b703          	ld	a4,1896(a5) # 11768 <_global_impure_ptr>
   1083c:	00050313          	mv	t1,a0
   10840:	1f873783          	ld	a5,504(a4)
   10844:	00079663          	bnez	a5,10850 <__register_exitproc+0x1c>
   10848:	20070793          	addi	a5,a4,512
   1084c:	1ef73c23          	sd	a5,504(a4)
   10850:	0087a703          	lw	a4,8(a5)
   10854:	01f00813          	li	a6,31
   10858:	fff00513          	li	a0,-1
   1085c:	04e84e63          	blt	a6,a4,108b8 <__register_exitproc+0x84>
   10860:	02030e63          	beqz	t1,1089c <__register_exitproc+0x68>
   10864:	00371813          	slli	a6,a4,0x3
   10868:	01078833          	add	a6,a5,a6
   1086c:	10c83823          	sd	a2,272(a6)
   10870:	3107a883          	lw	a7,784(a5)
   10874:	00100613          	li	a2,1
   10878:	00e6163b          	sllw	a2,a2,a4
   1087c:	00c8e8b3          	or	a7,a7,a2
   10880:	3117a823          	sw	a7,784(a5)
   10884:	20d83823          	sd	a3,528(a6)
   10888:	00200693          	li	a3,2
   1088c:	00d31863          	bne	t1,a3,1089c <__register_exitproc+0x68>
   10890:	3147a683          	lw	a3,788(a5)
   10894:	00c6e633          	or	a2,a3,a2
   10898:	30c7aa23          	sw	a2,788(a5)
   1089c:	0017069b          	addiw	a3,a4,1
   108a0:	00270713          	addi	a4,a4,2
   108a4:	00371713          	slli	a4,a4,0x3
   108a8:	00d7a423          	sw	a3,8(a5)
   108ac:	00e787b3          	add	a5,a5,a4
   108b0:	00b7b023          	sd	a1,0(a5)
   108b4:	00000513          	li	a0,0
   108b8:	00008067          	ret

00000000000108bc <__call_exitprocs>:
   108bc:	fb010113          	addi	sp,sp,-80
   108c0:	000117b7          	lui	a5,0x11
   108c4:	03313423          	sd	s3,40(sp)
   108c8:	7687b983          	ld	s3,1896(a5) # 11768 <_global_impure_ptr>
   108cc:	03413023          	sd	s4,32(sp)
   108d0:	01513c23          	sd	s5,24(sp)
   108d4:	01613823          	sd	s6,16(sp)
   108d8:	04113423          	sd	ra,72(sp)
   108dc:	04813023          	sd	s0,64(sp)
   108e0:	02913c23          	sd	s1,56(sp)
   108e4:	03213823          	sd	s2,48(sp)
   108e8:	01713423          	sd	s7,8(sp)
   108ec:	00050a93          	mv	s5,a0
   108f0:	00058a13          	mv	s4,a1
   108f4:	00100b13          	li	s6,1
   108f8:	1f89b403          	ld	s0,504(s3)
   108fc:	00040c63          	beqz	s0,10914 <__call_exitprocs+0x58>
   10900:	00842483          	lw	s1,8(s0)
   10904:	fff4849b          	addiw	s1,s1,-1
   10908:	00349913          	slli	s2,s1,0x3
   1090c:	01240933          	add	s2,s0,s2
   10910:	0204d863          	bgez	s1,10940 <__call_exitprocs+0x84>
   10914:	04813083          	ld	ra,72(sp)
   10918:	04013403          	ld	s0,64(sp)
   1091c:	03813483          	ld	s1,56(sp)
   10920:	03013903          	ld	s2,48(sp)
   10924:	02813983          	ld	s3,40(sp)
   10928:	02013a03          	ld	s4,32(sp)
   1092c:	01813a83          	ld	s5,24(sp)
   10930:	01013b03          	ld	s6,16(sp)
   10934:	00813b83          	ld	s7,8(sp)
   10938:	05010113          	addi	sp,sp,80
   1093c:	00008067          	ret
   10940:	000a0c63          	beqz	s4,10958 <__call_exitprocs+0x9c>
   10944:	21093783          	ld	a5,528(s2)
   10948:	01478863          	beq	a5,s4,10958 <__call_exitprocs+0x9c>
   1094c:	fff4849b          	addiw	s1,s1,-1
   10950:	ff890913          	addi	s2,s2,-8
   10954:	fbdff06f          	j	10910 <__call_exitprocs+0x54>
   10958:	00842783          	lw	a5,8(s0)
   1095c:	01093683          	ld	a3,16(s2)
   10960:	fff7879b          	addiw	a5,a5,-1
   10964:	02979e63          	bne	a5,s1,109a0 <__call_exitprocs+0xe4>
   10968:	00942423          	sw	s1,8(s0)
   1096c:	fe0680e3          	beqz	a3,1094c <__call_exitprocs+0x90>
   10970:	31042703          	lw	a4,784(s0)
   10974:	009b163b          	sllw	a2,s6,s1
   10978:	00842b83          	lw	s7,8(s0)
   1097c:	00c77733          	and	a4,a4,a2
   10980:	0007071b          	sext.w	a4,a4
   10984:	02071263          	bnez	a4,109a8 <__call_exitprocs+0xec>
   10988:	000680e7          	jalr	a3
   1098c:	00842703          	lw	a4,8(s0)
   10990:	1f89b783          	ld	a5,504(s3)
   10994:	f77712e3          	bne	a4,s7,108f8 <__call_exitprocs+0x3c>
   10998:	faf40ae3          	beq	s0,a5,1094c <__call_exitprocs+0x90>
   1099c:	f5dff06f          	j	108f8 <__call_exitprocs+0x3c>
   109a0:	00093823          	sd	zero,16(s2)
   109a4:	fc9ff06f          	j	1096c <__call_exitprocs+0xb0>
   109a8:	31442783          	lw	a5,788(s0)
   109ac:	11093583          	ld	a1,272(s2)
   109b0:	00c7f7b3          	and	a5,a5,a2
   109b4:	0007879b          	sext.w	a5,a5
   109b8:	00079863          	bnez	a5,109c8 <__call_exitprocs+0x10c>
   109bc:	000a8513          	mv	a0,s5
   109c0:	000680e7          	jalr	a3
   109c4:	fc9ff06f          	j	1098c <__call_exitprocs+0xd0>
   109c8:	00058513          	mv	a0,a1
   109cc:	000680e7          	jalr	a3
   109d0:	fbdff06f          	j	1098c <__call_exitprocs+0xd0>

00000000000109d4 <_exit>:
   109d4:	00000593          	li	a1,0
   109d8:	00000613          	li	a2,0
   109dc:	00000693          	li	a3,0
   109e0:	00000713          	li	a4,0
   109e4:	00000793          	li	a5,0
   109e8:	05d00893          	li	a7,93
   109ec:	00000073          	ecall
   109f0:	02055263          	bgez	a0,10a14 <_exit+0x40>
   109f4:	ff010113          	addi	sp,sp,-16
   109f8:	00813023          	sd	s0,0(sp)
   109fc:	00050413          	mv	s0,a0
   10a00:	00113423          	sd	ra,8(sp)
   10a04:	4080043b          	negw	s0,s0
   10a08:	010000ef          	jal	ra,10a18 <__errno>
   10a0c:	00852023          	sw	s0,0(a0)
   10a10:	0000006f          	j	10a10 <_exit+0x3c>
   10a14:	0000006f          	j	10a14 <_exit+0x40>

0000000000010a18 <__errno>:
   10a18:	8101b503          	ld	a0,-2032(gp) # 11770 <_impure_ptr>
   10a1c:	00008067          	ret
