
riscv-tests/dhrystone.riscv:     file format elf64-littleriscv


Disassembly of section .text:

00000000000100e8 <_start>:
   100e8:	00013197          	auipc	gp,0x13
   100ec:	be818193          	addi	gp,gp,-1048 # 22cd0 <__global_pointer$>
   100f0:	84818513          	addi	a0,gp,-1976 # 22518 <Reg>
   100f4:	00015617          	auipc	a2,0x15
   100f8:	ce460613          	addi	a2,a2,-796 # 24dd8 <_end>
   100fc:	40a60633          	sub	a2,a2,a0
   10100:	00000593          	li	a1,0
   10104:	051010ef          	jal	ra,11954 <memset>
   10108:	00001517          	auipc	a0,0x1
   1010c:	65050513          	addi	a0,a0,1616 # 11758 <__libc_fini_array>
   10110:	604010ef          	jal	ra,11714 <atexit>
   10114:	6b8010ef          	jal	ra,117cc <__libc_init_array>
   10118:	00012503          	lw	a0,0(sp)
   1011c:	00810593          	addi	a1,sp,8
   10120:	00000613          	li	a2,0
   10124:	50c000ef          	jal	ra,10630 <main>
   10128:	6000106f          	j	11728 <exit>

000000000001012c <_fini>:
   1012c:	00008067          	ret

0000000000010130 <deregister_tm_clones>:
   10130:	00022537          	lui	a0,0x22
   10134:	000227b7          	lui	a5,0x22
   10138:	4d050713          	addi	a4,a0,1232 # 224d0 <__TMC_END__>
   1013c:	4d078793          	addi	a5,a5,1232 # 224d0 <__TMC_END__>
   10140:	00e78c63          	beq	a5,a4,10158 <deregister_tm_clones+0x28>
   10144:	00000337          	lui	t1,0x0
   10148:	00030313          	mv	t1,t1
   1014c:	00030663          	beqz	t1,10158 <deregister_tm_clones+0x28>
   10150:	4d050513          	addi	a0,a0,1232
   10154:	00030067          	jr	t1 # 0 <threadsense.2706>
   10158:	00008067          	ret

000000000001015c <register_tm_clones>:
   1015c:	000227b7          	lui	a5,0x22
   10160:	00022537          	lui	a0,0x22
   10164:	4d078593          	addi	a1,a5,1232 # 224d0 <__TMC_END__>
   10168:	4d050793          	addi	a5,a0,1232 # 224d0 <__TMC_END__>
   1016c:	40f585b3          	sub	a1,a1,a5
   10170:	4035d593          	srai	a1,a1,0x3
   10174:	00200793          	li	a5,2
   10178:	02f5c5b3          	div	a1,a1,a5
   1017c:	00058c63          	beqz	a1,10194 <register_tm_clones+0x38>
   10180:	00000337          	lui	t1,0x0
   10184:	00030313          	mv	t1,t1
   10188:	00030663          	beqz	t1,10194 <register_tm_clones+0x38>
   1018c:	4d050513          	addi	a0,a0,1232
   10190:	00030067          	jr	t1 # 0 <threadsense.2706>
   10194:	00008067          	ret

0000000000010198 <__do_global_dtors_aux>:
   10198:	8781c703          	lbu	a4,-1928(gp) # 22548 <completed.5212>
   1019c:	04071663          	bnez	a4,101e8 <__do_global_dtors_aux+0x50>
   101a0:	ff010113          	addi	sp,sp,-16
   101a4:	00813023          	sd	s0,0(sp)
   101a8:	00113423          	sd	ra,8(sp)
   101ac:	00078413          	mv	s0,a5
   101b0:	f81ff0ef          	jal	ra,10130 <deregister_tm_clones>
   101b4:	000007b7          	lui	a5,0x0
   101b8:	00078793          	mv	a5,a5
   101bc:	00078a63          	beqz	a5,101d0 <__do_global_dtors_aux+0x38>
   101c0:	00021537          	lui	a0,0x21
   101c4:	3b850513          	addi	a0,a0,952 # 213b8 <__EH_FRAME_BEGIN__>
   101c8:	ffff0097          	auipc	ra,0xffff0
   101cc:	e38080e7          	jalr	-456(ra) # 0 <threadsense.2706>
   101d0:	00100793          	li	a5,1
   101d4:	86f18c23          	sb	a5,-1928(gp) # 22548 <completed.5212>
   101d8:	00813083          	ld	ra,8(sp)
   101dc:	00013403          	ld	s0,0(sp)
   101e0:	01010113          	addi	sp,sp,16
   101e4:	00008067          	ret
   101e8:	00008067          	ret

00000000000101ec <frame_dummy>:
   101ec:	000007b7          	lui	a5,0x0
   101f0:	00078793          	mv	a5,a5
   101f4:	02078463          	beqz	a5,1021c <frame_dummy+0x30>
   101f8:	00021537          	lui	a0,0x21
   101fc:	ff010113          	addi	sp,sp,-16
   10200:	88018593          	addi	a1,gp,-1920 # 22550 <object.5217>
   10204:	3b850513          	addi	a0,a0,952 # 213b8 <__EH_FRAME_BEGIN__>
   10208:	00113423          	sd	ra,8(sp)
   1020c:	ffff0097          	auipc	ra,0xffff0
   10210:	df4080e7          	jalr	-524(ra) # 0 <threadsense.2706>
   10214:	00813083          	ld	ra,8(sp)
   10218:	01010113          	addi	sp,sp,16
   1021c:	f41ff06f          	j	1015c <register_tm_clones>

0000000000010220 <verify>:
   10220:	fb010113          	addi	sp,sp,-80
   10224:	04813423          	sd	s0,72(sp)
   10228:	05010413          	addi	s0,sp,80
   1022c:	00050793          	mv	a5,a0
   10230:	fcb43023          	sd	a1,-64(s0)
   10234:	fac43c23          	sd	a2,-72(s0)
   10238:	fcf42623          	sw	a5,-52(s0)
   1023c:	fe042623          	sw	zero,-20(s0)
   10240:	0c00006f          	j	10300 <verify+0xe0>
   10244:	fec42783          	lw	a5,-20(s0)
   10248:	00279793          	slli	a5,a5,0x2
   1024c:	fc043703          	ld	a4,-64(s0)
   10250:	00f707b3          	add	a5,a4,a5
   10254:	0007a783          	lw	a5,0(a5) # 0 <threadsense.2706>
   10258:	fef42423          	sw	a5,-24(s0)
   1025c:	fec42783          	lw	a5,-20(s0)
   10260:	00178793          	addi	a5,a5,1
   10264:	00279793          	slli	a5,a5,0x2
   10268:	fc043703          	ld	a4,-64(s0)
   1026c:	00f707b3          	add	a5,a4,a5
   10270:	0007a783          	lw	a5,0(a5)
   10274:	fef42223          	sw	a5,-28(s0)
   10278:	fec42783          	lw	a5,-20(s0)
   1027c:	00279793          	slli	a5,a5,0x2
   10280:	fb843703          	ld	a4,-72(s0)
   10284:	00f707b3          	add	a5,a4,a5
   10288:	0007a783          	lw	a5,0(a5)
   1028c:	fef42023          	sw	a5,-32(s0)
   10290:	fec42783          	lw	a5,-20(s0)
   10294:	00178793          	addi	a5,a5,1
   10298:	00279793          	slli	a5,a5,0x2
   1029c:	fb843703          	ld	a4,-72(s0)
   102a0:	00f707b3          	add	a5,a4,a5
   102a4:	0007a783          	lw	a5,0(a5)
   102a8:	fcf42e23          	sw	a5,-36(s0)
   102ac:	fe842703          	lw	a4,-24(s0)
   102b0:	fe042783          	lw	a5,-32(s0)
   102b4:	0007071b          	sext.w	a4,a4
   102b8:	0007879b          	sext.w	a5,a5
   102bc:	00f70a63          	beq	a4,a5,102d0 <verify+0xb0>
   102c0:	fec42783          	lw	a5,-20(s0)
   102c4:	0017879b          	addiw	a5,a5,1
   102c8:	0007879b          	sext.w	a5,a5
   102cc:	0b40006f          	j	10380 <verify+0x160>
   102d0:	fe442703          	lw	a4,-28(s0)
   102d4:	fdc42783          	lw	a5,-36(s0)
   102d8:	0007071b          	sext.w	a4,a4
   102dc:	0007879b          	sext.w	a5,a5
   102e0:	00f70a63          	beq	a4,a5,102f4 <verify+0xd4>
   102e4:	fec42783          	lw	a5,-20(s0)
   102e8:	0027879b          	addiw	a5,a5,2
   102ec:	0007879b          	sext.w	a5,a5
   102f0:	0900006f          	j	10380 <verify+0x160>
   102f4:	fec42783          	lw	a5,-20(s0)
   102f8:	0027879b          	addiw	a5,a5,2
   102fc:	fef42623          	sw	a5,-20(s0)
   10300:	fcc42783          	lw	a5,-52(s0)
   10304:	01f7d71b          	srliw	a4,a5,0x1f
   10308:	00f707bb          	addw	a5,a4,a5
   1030c:	4017d79b          	sraiw	a5,a5,0x1
   10310:	0007879b          	sext.w	a5,a5
   10314:	0017979b          	slliw	a5,a5,0x1
   10318:	0007871b          	sext.w	a4,a5
   1031c:	fec42783          	lw	a5,-20(s0)
   10320:	0007879b          	sext.w	a5,a5
   10324:	f2e7c0e3          	blt	a5,a4,10244 <verify+0x24>
   10328:	fcc42783          	lw	a5,-52(s0)
   1032c:	0017f793          	andi	a5,a5,1
   10330:	0007879b          	sext.w	a5,a5
   10334:	04078463          	beqz	a5,1037c <verify+0x15c>
   10338:	fcc42783          	lw	a5,-52(s0)
   1033c:	00279793          	slli	a5,a5,0x2
   10340:	ffc78793          	addi	a5,a5,-4
   10344:	fc043703          	ld	a4,-64(s0)
   10348:	00f707b3          	add	a5,a4,a5
   1034c:	0007a783          	lw	a5,0(a5)
   10350:	0007869b          	sext.w	a3,a5
   10354:	fcc42783          	lw	a5,-52(s0)
   10358:	00279793          	slli	a5,a5,0x2
   1035c:	ffc78793          	addi	a5,a5,-4
   10360:	fb843703          	ld	a4,-72(s0)
   10364:	00f707b3          	add	a5,a4,a5
   10368:	0007a783          	lw	a5,0(a5)
   1036c:	00068713          	mv	a4,a3
   10370:	00f70663          	beq	a4,a5,1037c <verify+0x15c>
   10374:	fcc42783          	lw	a5,-52(s0)
   10378:	0080006f          	j	10380 <verify+0x160>
   1037c:	00000793          	li	a5,0
   10380:	00078513          	mv	a0,a5
   10384:	04813403          	ld	s0,72(sp)
   10388:	05010113          	addi	sp,sp,80
   1038c:	00008067          	ret

0000000000010390 <verifyDouble>:
   10390:	fa010113          	addi	sp,sp,-96
   10394:	04813c23          	sd	s0,88(sp)
   10398:	06010413          	addi	s0,sp,96
   1039c:	00050793          	mv	a5,a0
   103a0:	fab43823          	sd	a1,-80(s0)
   103a4:	fac43423          	sd	a2,-88(s0)
   103a8:	faf42e23          	sw	a5,-68(s0)
   103ac:	fe042623          	sw	zero,-20(s0)
   103b0:	0d80006f          	j	10488 <verifyDouble+0xf8>
   103b4:	fec42783          	lw	a5,-20(s0)
   103b8:	00379793          	slli	a5,a5,0x3
   103bc:	fb043703          	ld	a4,-80(s0)
   103c0:	00f707b3          	add	a5,a4,a5
   103c4:	0007b787          	fld	fa5,0(a5)
   103c8:	fef43027          	fsd	fa5,-32(s0)
   103cc:	fec42783          	lw	a5,-20(s0)
   103d0:	00178793          	addi	a5,a5,1
   103d4:	00379793          	slli	a5,a5,0x3
   103d8:	fb043703          	ld	a4,-80(s0)
   103dc:	00f707b3          	add	a5,a4,a5
   103e0:	0007b787          	fld	fa5,0(a5)
   103e4:	fcf43c27          	fsd	fa5,-40(s0)
   103e8:	fec42783          	lw	a5,-20(s0)
   103ec:	00379793          	slli	a5,a5,0x3
   103f0:	fa843703          	ld	a4,-88(s0)
   103f4:	00f707b3          	add	a5,a4,a5
   103f8:	0007b787          	fld	fa5,0(a5)
   103fc:	fcf43827          	fsd	fa5,-48(s0)
   10400:	fec42783          	lw	a5,-20(s0)
   10404:	00178793          	addi	a5,a5,1
   10408:	00379793          	slli	a5,a5,0x3
   1040c:	fa843703          	ld	a4,-88(s0)
   10410:	00f707b3          	add	a5,a4,a5
   10414:	0007b787          	fld	fa5,0(a5)
   10418:	fcf43427          	fsd	fa5,-56(s0)
   1041c:	fe043707          	fld	fa4,-32(s0)
   10420:	fd043787          	fld	fa5,-48(s0)
   10424:	a2f727d3          	feq.d	a5,fa4,fa5
   10428:	00f037b3          	snez	a5,a5
   1042c:	0ff7f793          	zext.b	a5,a5
   10430:	fcf42223          	sw	a5,-60(s0)
   10434:	fd843707          	fld	fa4,-40(s0)
   10438:	fc843787          	fld	fa5,-56(s0)
   1043c:	a2f727d3          	feq.d	a5,fa4,fa5
   10440:	00f037b3          	snez	a5,a5
   10444:	0ff7f793          	zext.b	a5,a5
   10448:	fcf42023          	sw	a5,-64(s0)
   1044c:	fc442703          	lw	a4,-60(s0)
   10450:	fc042783          	lw	a5,-64(s0)
   10454:	00f777b3          	and	a5,a4,a5
   10458:	0007879b          	sext.w	a5,a5
   1045c:	02079063          	bnez	a5,1047c <verifyDouble+0xec>
   10460:	fec42783          	lw	a5,-20(s0)
   10464:	0017879b          	addiw	a5,a5,1
   10468:	0007879b          	sext.w	a5,a5
   1046c:	fc442703          	lw	a4,-60(s0)
   10470:	00f707bb          	addw	a5,a4,a5
   10474:	0007879b          	sext.w	a5,a5
   10478:	08c0006f          	j	10504 <verifyDouble+0x174>
   1047c:	fec42783          	lw	a5,-20(s0)
   10480:	0027879b          	addiw	a5,a5,2
   10484:	fef42623          	sw	a5,-20(s0)
   10488:	fbc42783          	lw	a5,-68(s0)
   1048c:	01f7d71b          	srliw	a4,a5,0x1f
   10490:	00f707bb          	addw	a5,a4,a5
   10494:	4017d79b          	sraiw	a5,a5,0x1
   10498:	0007879b          	sext.w	a5,a5
   1049c:	0017979b          	slliw	a5,a5,0x1
   104a0:	0007871b          	sext.w	a4,a5
   104a4:	fec42783          	lw	a5,-20(s0)
   104a8:	0007879b          	sext.w	a5,a5
   104ac:	f0e7c4e3          	blt	a5,a4,103b4 <verifyDouble+0x24>
   104b0:	fbc42783          	lw	a5,-68(s0)
   104b4:	0017f793          	andi	a5,a5,1
   104b8:	0007879b          	sext.w	a5,a5
   104bc:	04078263          	beqz	a5,10500 <verifyDouble+0x170>
   104c0:	fbc42783          	lw	a5,-68(s0)
   104c4:	00379793          	slli	a5,a5,0x3
   104c8:	ff878793          	addi	a5,a5,-8
   104cc:	fb043703          	ld	a4,-80(s0)
   104d0:	00f707b3          	add	a5,a4,a5
   104d4:	0007b707          	fld	fa4,0(a5)
   104d8:	fbc42783          	lw	a5,-68(s0)
   104dc:	00379793          	slli	a5,a5,0x3
   104e0:	ff878793          	addi	a5,a5,-8
   104e4:	fa843703          	ld	a4,-88(s0)
   104e8:	00f707b3          	add	a5,a4,a5
   104ec:	0007b787          	fld	fa5,0(a5)
   104f0:	a2f727d3          	feq.d	a5,fa4,fa5
   104f4:	00079663          	bnez	a5,10500 <verifyDouble+0x170>
   104f8:	fbc42783          	lw	a5,-68(s0)
   104fc:	0080006f          	j	10504 <verifyDouble+0x174>
   10500:	00000793          	li	a5,0
   10504:	00078513          	mv	a0,a5
   10508:	05813403          	ld	s0,88(sp)
   1050c:	06010113          	addi	sp,sp,96
   10510:	00008067          	ret

0000000000010514 <barrier>:
   10514:	fe010113          	addi	sp,sp,-32
   10518:	00813c23          	sd	s0,24(sp)
   1051c:	02010413          	addi	s0,sp,32
   10520:	00050793          	mv	a5,a0
   10524:	fef42623          	sw	a5,-20(s0)
   10528:	0ff0000f          	fence
   1052c:	00022783          	lw	a5,0(tp) # 0 <threadsense.2706>
   10530:	0017b793          	seqz	a5,a5
   10534:	0ff7f793          	zext.b	a5,a5
   10538:	0007871b          	sext.w	a4,a5
   1053c:	00e22023          	sw	a4,0(tp) # 0 <threadsense.2706>
   10540:	00100713          	li	a4,1
   10544:	8b018793          	addi	a5,gp,-1872 # 22580 <count.2705>
   10548:	0f50000f          	fence	iorw,ow
   1054c:	04e7a6af          	amoadd.w.aq	a3,a4,(a5)
   10550:	0006879b          	sext.w	a5,a3
   10554:	0007871b          	sext.w	a4,a5
   10558:	fec42783          	lw	a5,-20(s0)
   1055c:	fff7879b          	addiw	a5,a5,-1
   10560:	0007879b          	sext.w	a5,a5
   10564:	00f71a63          	bne	a4,a5,10578 <barrier+0x64>
   10568:	8a01a823          	sw	zero,-1872(gp) # 22580 <count.2705>
   1056c:	00022703          	lw	a4,0(tp) # 0 <threadsense.2706>
   10570:	8ae1aa23          	sw	a4,-1868(gp) # 22584 <sense.2704>
   10574:	0180006f          	j	1058c <barrier+0x78>
   10578:	00000013          	nop
   1057c:	8b41a783          	lw	a5,-1868(gp) # 22584 <sense.2704>
   10580:	0007871b          	sext.w	a4,a5
   10584:	00022783          	lw	a5,0(tp) # 0 <threadsense.2706>
   10588:	fef71ae3          	bne	a4,a5,1057c <barrier+0x68>
   1058c:	0ff0000f          	fence
   10590:	00000013          	nop
   10594:	01813403          	ld	s0,24(sp)
   10598:	02010113          	addi	sp,sp,32
   1059c:	00008067          	ret

00000000000105a0 <lfsr>:
   105a0:	fd010113          	addi	sp,sp,-48
   105a4:	02813423          	sd	s0,40(sp)
   105a8:	03010413          	addi	s0,sp,48
   105ac:	fca43c23          	sd	a0,-40(s0)
   105b0:	fd843783          	ld	a5,-40(s0)
   105b4:	0017d713          	srli	a4,a5,0x1
   105b8:	fd843783          	ld	a5,-40(s0)
   105bc:	00f747b3          	xor	a5,a4,a5
   105c0:	0017f793          	andi	a5,a5,1
   105c4:	fef43423          	sd	a5,-24(s0)
   105c8:	fd843783          	ld	a5,-40(s0)
   105cc:	0017d713          	srli	a4,a5,0x1
   105d0:	fe843783          	ld	a5,-24(s0)
   105d4:	03e79793          	slli	a5,a5,0x3e
   105d8:	00f767b3          	or	a5,a4,a5
   105dc:	00078513          	mv	a0,a5
   105e0:	02813403          	ld	s0,40(sp)
   105e4:	03010113          	addi	sp,sp,48
   105e8:	00008067          	ret

00000000000105ec <insn_len>:
   105ec:	fe010113          	addi	sp,sp,-32
   105f0:	00813c23          	sd	s0,24(sp)
   105f4:	02010413          	addi	s0,sp,32
   105f8:	fea43423          	sd	a0,-24(s0)
   105fc:	fe843783          	ld	a5,-24(s0)
   10600:	0007d783          	lhu	a5,0(a5)
   10604:	0007879b          	sext.w	a5,a5
   10608:	0037f793          	andi	a5,a5,3
   1060c:	0007879b          	sext.w	a5,a5
   10610:	00078663          	beqz	a5,1061c <insn_len+0x30>
   10614:	00400793          	li	a5,4
   10618:	0080006f          	j	10620 <insn_len+0x34>
   1061c:	00200793          	li	a5,2
   10620:	00078513          	mv	a0,a5
   10624:	01813403          	ld	s0,24(sp)
   10628:	02010113          	addi	sp,sp,32
   1062c:	00008067          	ret

0000000000010630 <main>:
   10630:	f7010113          	addi	sp,sp,-144
   10634:	08113423          	sd	ra,136(sp)
   10638:	08813023          	sd	s0,128(sp)
   1063c:	09010413          	addi	s0,sp,144
   10640:	00050793          	mv	a5,a0
   10644:	f6b43823          	sd	a1,-144(s0)
   10648:	f6f42e23          	sw	a5,-132(s0)
   1064c:	1f400793          	li	a5,500
   10650:	fef42023          	sw	a5,-32(s0)
   10654:	fb010113          	addi	sp,sp,-80
   10658:	00010793          	mv	a5,sp
   1065c:	00f78793          	addi	a5,a5,15
   10660:	0047d793          	srli	a5,a5,0x4
   10664:	00479793          	slli	a5,a5,0x4
   10668:	00078713          	mv	a4,a5
   1066c:	000257b7          	lui	a5,0x25
   10670:	cee7b423          	sd	a4,-792(a5) # 24ce8 <Next_Ptr_Glob>
   10674:	fb010113          	addi	sp,sp,-80
   10678:	00010793          	mv	a5,sp
   1067c:	00f78793          	addi	a5,a5,15
   10680:	0047d793          	srli	a5,a5,0x4
   10684:	00479793          	slli	a5,a5,0x4
   10688:	00078713          	mv	a4,a5
   1068c:	000257b7          	lui	a5,0x25
   10690:	cee7bc23          	sd	a4,-776(a5) # 24cf8 <Ptr_Glob>
   10694:	000257b7          	lui	a5,0x25
   10698:	cf87b783          	ld	a5,-776(a5) # 24cf8 <Ptr_Glob>
   1069c:	00025737          	lui	a4,0x25
   106a0:	ce873703          	ld	a4,-792(a4) # 24ce8 <Next_Ptr_Glob>
   106a4:	00e7b023          	sd	a4,0(a5)
   106a8:	000257b7          	lui	a5,0x25
   106ac:	cf87b783          	ld	a5,-776(a5) # 24cf8 <Ptr_Glob>
   106b0:	0007a423          	sw	zero,8(a5)
   106b4:	000257b7          	lui	a5,0x25
   106b8:	cf87b783          	ld	a5,-776(a5) # 24cf8 <Ptr_Glob>
   106bc:	00200713          	li	a4,2
   106c0:	00e7a623          	sw	a4,12(a5)
   106c4:	000257b7          	lui	a5,0x25
   106c8:	cf87b783          	ld	a5,-776(a5) # 24cf8 <Ptr_Glob>
   106cc:	02800713          	li	a4,40
   106d0:	00e7a823          	sw	a4,16(a5)
   106d4:	000257b7          	lui	a5,0x25
   106d8:	cf87b783          	ld	a5,-776(a5) # 24cf8 <Ptr_Glob>
   106dc:	01478713          	addi	a4,a5,20
   106e0:	0001f7b7          	lui	a5,0x1f
   106e4:	00070693          	mv	a3,a4
   106e8:	07078793          	addi	a5,a5,112 # 1f070 <__clzdi2+0x40>
   106ec:	01f00713          	li	a4,31
   106f0:	00070613          	mv	a2,a4
   106f4:	00078593          	mv	a1,a5
   106f8:	00068513          	mv	a0,a3
   106fc:	170010ef          	jal	ra,1186c <memcpy>
   10700:	0001f7b7          	lui	a5,0x1f
   10704:	0907b603          	ld	a2,144(a5) # 1f090 <__clzdi2+0x60>
   10708:	09078713          	addi	a4,a5,144
   1070c:	00873683          	ld	a3,8(a4)
   10710:	09078713          	addi	a4,a5,144
   10714:	01073703          	ld	a4,16(a4)
   10718:	fac43023          	sd	a2,-96(s0)
   1071c:	fad43423          	sd	a3,-88(s0)
   10720:	fae43823          	sd	a4,-80(s0)
   10724:	09078793          	addi	a5,a5,144
   10728:	0187a703          	lw	a4,24(a5)
   1072c:	fae42c23          	sw	a4,-72(s0)
   10730:	01c7d703          	lhu	a4,28(a5)
   10734:	fae41e23          	sh	a4,-68(s0)
   10738:	01e7c783          	lbu	a5,30(a5)
   1073c:	faf40f23          	sb	a5,-66(s0)
   10740:	000227b7          	lui	a5,0x22
   10744:	5d078793          	addi	a5,a5,1488 # 225d0 <Arr_2_Glob>
   10748:	00a00713          	li	a4,10
   1074c:	64e7ae23          	sw	a4,1628(a5)
   10750:	0001f7b7          	lui	a5,0x1f
   10754:	0b078513          	addi	a0,a5,176 # 1f0b0 <__clzdi2+0x80>
   10758:	781000ef          	jal	ra,116d8 <debug_printf>
   1075c:	0001f7b7          	lui	a5,0x1f
   10760:	0b878593          	addi	a1,a5,184 # 1f0b8 <__clzdi2+0x88>
   10764:	0001f7b7          	lui	a5,0x1f
   10768:	0c878513          	addi	a0,a5,200 # 1f0c8 <__clzdi2+0x98>
   1076c:	76d000ef          	jal	ra,116d8 <debug_printf>
   10770:	8481a783          	lw	a5,-1976(gp) # 22518 <Reg>
   10774:	00078a63          	beqz	a5,10788 <main+0x158>
   10778:	0001f7b7          	lui	a5,0x1f
   1077c:	0f078513          	addi	a0,a5,240 # 1f0f0 <__clzdi2+0xc0>
   10780:	759000ef          	jal	ra,116d8 <debug_printf>
   10784:	0100006f          	j	10794 <main+0x164>
   10788:	0001f7b7          	lui	a5,0x1f
   1078c:	12078513          	addi	a0,a5,288 # 1f120 <__clzdi2+0xf0>
   10790:	749000ef          	jal	ra,116d8 <debug_printf>
   10794:	000f47b7          	lui	a5,0xf4
   10798:	24078613          	addi	a2,a5,576 # f4240 <_end+0xcf468>
   1079c:	0001f7b7          	lui	a5,0x1f
   107a0:	15078593          	addi	a1,a5,336 # 1f150 <__clzdi2+0x120>
   107a4:	0001f7b7          	lui	a5,0x1f
   107a8:	16078513          	addi	a0,a5,352 # 1f160 <__clzdi2+0x130>
   107ac:	72d000ef          	jal	ra,116d8 <debug_printf>
   107b0:	0001f7b7          	lui	a5,0x1f
   107b4:	0b078513          	addi	a0,a5,176 # 1f0b0 <__clzdi2+0x80>
   107b8:	721000ef          	jal	ra,116d8 <debug_printf>
   107bc:	000257b7          	lui	a5,0x25
   107c0:	d007a023          	sw	zero,-768(a5) # 24d00 <Done>
   107c4:	3040006f          	j	10ac8 <main+0x498>
   107c8:	fe042783          	lw	a5,-32(s0)
   107cc:	00078593          	mv	a1,a5
   107d0:	0001f7b7          	lui	a5,0x1f
   107d4:	17878513          	addi	a0,a5,376 # 1f178 <__clzdi2+0x148>
   107d8:	701000ef          	jal	ra,116d8 <debug_printf>
   107dc:	b00027f3          	csrr	a5,mcycle
   107e0:	fcf43c23          	sd	a5,-40(s0)
   107e4:	fd843783          	ld	a5,-40(s0)
   107e8:	00078713          	mv	a4,a5
   107ec:	8ee1bc23          	sd	a4,-1800(gp) # 225c8 <Begin_Time>
   107f0:	00100793          	li	a5,1
   107f4:	fef42223          	sw	a5,-28(s0)
   107f8:	24c0006f          	j	10a44 <main+0x414>
   107fc:	1e5000ef          	jal	ra,111e0 <Proc_5>
   10800:	179000ef          	jal	ra,11178 <Proc_4>
   10804:	00200793          	li	a5,2
   10808:	fcf42623          	sw	a5,-52(s0)
   1080c:	00300793          	li	a5,3
   10810:	fef42623          	sw	a5,-20(s0)
   10814:	0001f7b7          	lui	a5,0x1f
   10818:	1a07b603          	ld	a2,416(a5) # 1f1a0 <__clzdi2+0x170>
   1081c:	1a078713          	addi	a4,a5,416
   10820:	00873683          	ld	a3,8(a4)
   10824:	1a078713          	addi	a4,a5,416
   10828:	01073703          	ld	a4,16(a4)
   1082c:	f8c43023          	sd	a2,-128(s0)
   10830:	f8d43423          	sd	a3,-120(s0)
   10834:	f8e43823          	sd	a4,-112(s0)
   10838:	1a078793          	addi	a5,a5,416
   1083c:	0187a703          	lw	a4,24(a5)
   10840:	f8e42c23          	sw	a4,-104(s0)
   10844:	01c7d703          	lhu	a4,28(a5)
   10848:	f8e41e23          	sh	a4,-100(s0)
   1084c:	01e7c783          	lbu	a5,30(a5)
   10850:	f8f40f23          	sb	a5,-98(s0)
   10854:	00100793          	li	a5,1
   10858:	fcf42223          	sw	a5,-60(s0)
   1085c:	f8040713          	addi	a4,s0,-128
   10860:	fa040793          	addi	a5,s0,-96
   10864:	00070593          	mv	a1,a4
   10868:	00078513          	mv	a0,a5
   1086c:	50d000ef          	jal	ra,11578 <Func_2>
   10870:	00050793          	mv	a5,a0
   10874:	0017b793          	seqz	a5,a5
   10878:	0ff7f793          	zext.b	a5,a5
   1087c:	0007871b          	sext.w	a4,a5
   10880:	000257b7          	lui	a5,0x25
   10884:	dce7a823          	sw	a4,-560(a5) # 24dd0 <Bool_Glob>
   10888:	0580006f          	j	108e0 <main+0x2b0>
   1088c:	fcc42783          	lw	a5,-52(s0)
   10890:	00078713          	mv	a4,a5
   10894:	00070793          	mv	a5,a4
   10898:	0027979b          	slliw	a5,a5,0x2
   1089c:	00e787bb          	addw	a5,a5,a4
   108a0:	0007871b          	sext.w	a4,a5
   108a4:	fec42783          	lw	a5,-20(s0)
   108a8:	40f707bb          	subw	a5,a4,a5
   108ac:	0007879b          	sext.w	a5,a5
   108b0:	fcf42423          	sw	a5,-56(s0)
   108b4:	fcc42783          	lw	a5,-52(s0)
   108b8:	fc840693          	addi	a3,s0,-56
   108bc:	fec42703          	lw	a4,-20(s0)
   108c0:	00068613          	mv	a2,a3
   108c4:	00070593          	mv	a1,a4
   108c8:	00078513          	mv	a0,a5
   108cc:	235000ef          	jal	ra,11300 <Proc_7>
   108d0:	fcc42783          	lw	a5,-52(s0)
   108d4:	0017879b          	addiw	a5,a5,1
   108d8:	0007879b          	sext.w	a5,a5
   108dc:	fcf42623          	sw	a5,-52(s0)
   108e0:	fcc42703          	lw	a4,-52(s0)
   108e4:	fec42783          	lw	a5,-20(s0)
   108e8:	0007879b          	sext.w	a5,a5
   108ec:	faf740e3          	blt	a4,a5,1088c <main+0x25c>
   108f0:	fcc42783          	lw	a5,-52(s0)
   108f4:	fc842703          	lw	a4,-56(s0)
   108f8:	00070693          	mv	a3,a4
   108fc:	00078613          	mv	a2,a5
   10900:	000227b7          	lui	a5,0x22
   10904:	5d078593          	addi	a1,a5,1488 # 225d0 <Arr_2_Glob>
   10908:	000257b7          	lui	a5,0x25
   1090c:	d0878513          	addi	a0,a5,-760 # 24d08 <Arr_1_Glob>
   10910:	24d000ef          	jal	ra,1135c <Proc_8>
   10914:	000257b7          	lui	a5,0x25
   10918:	cf87b783          	ld	a5,-776(a5) # 24cf8 <Ptr_Glob>
   1091c:	00078513          	mv	a0,a5
   10920:	600000ef          	jal	ra,10f20 <Proc_1>
   10924:	04100793          	li	a5,65
   10928:	fef405a3          	sb	a5,-21(s0)
   1092c:	0980006f          	j	109c4 <main+0x394>
   10930:	feb44783          	lbu	a5,-21(s0)
   10934:	0007879b          	sext.w	a5,a5
   10938:	04300593          	li	a1,67
   1093c:	00078513          	mv	a0,a5
   10940:	3cd000ef          	jal	ra,1150c <Func_1>
   10944:	00050793          	mv	a5,a0
   10948:	0007871b          	sext.w	a4,a5
   1094c:	fc442783          	lw	a5,-60(s0)
   10950:	06f71463          	bne	a4,a5,109b8 <main+0x388>
   10954:	fc440793          	addi	a5,s0,-60
   10958:	00078593          	mv	a1,a5
   1095c:	00000513          	li	a0,0
   10960:	0b5000ef          	jal	ra,11214 <Proc_6>
   10964:	0001f7b7          	lui	a5,0x1f
   10968:	1c07b603          	ld	a2,448(a5) # 1f1c0 <__clzdi2+0x190>
   1096c:	1c078713          	addi	a4,a5,448
   10970:	00873683          	ld	a3,8(a4)
   10974:	1c078713          	addi	a4,a5,448
   10978:	01073703          	ld	a4,16(a4)
   1097c:	f8c43023          	sd	a2,-128(s0)
   10980:	f8d43423          	sd	a3,-120(s0)
   10984:	f8e43823          	sd	a4,-112(s0)
   10988:	1c078793          	addi	a5,a5,448
   1098c:	0187a703          	lw	a4,24(a5)
   10990:	f8e42c23          	sw	a4,-104(s0)
   10994:	01c7d703          	lhu	a4,28(a5)
   10998:	f8e41e23          	sh	a4,-100(s0)
   1099c:	01e7c783          	lbu	a5,30(a5)
   109a0:	f8f40f23          	sb	a5,-98(s0)
   109a4:	fe442783          	lw	a5,-28(s0)
   109a8:	fef42623          	sw	a5,-20(s0)
   109ac:	000257b7          	lui	a5,0x25
   109b0:	fe442703          	lw	a4,-28(s0)
   109b4:	cee7a823          	sw	a4,-784(a5) # 24cf0 <Int_Glob>
   109b8:	feb44783          	lbu	a5,-21(s0)
   109bc:	0017879b          	addiw	a5,a5,1
   109c0:	fef405a3          	sb	a5,-21(s0)
   109c4:	000257b7          	lui	a5,0x25
   109c8:	cf57c703          	lbu	a4,-779(a5) # 24cf5 <Ch_2_Glob>
   109cc:	feb44783          	lbu	a5,-21(s0)
   109d0:	0ff7f793          	zext.b	a5,a5
   109d4:	f4f77ee3          	bgeu	a4,a5,10930 <main+0x300>
   109d8:	fcc42783          	lw	a5,-52(s0)
   109dc:	fec42703          	lw	a4,-20(s0)
   109e0:	02f707bb          	mulw	a5,a4,a5
   109e4:	fef42623          	sw	a5,-20(s0)
   109e8:	fc842783          	lw	a5,-56(s0)
   109ec:	fec42703          	lw	a4,-20(s0)
   109f0:	02f747bb          	divw	a5,a4,a5
   109f4:	0007879b          	sext.w	a5,a5
   109f8:	fcf42623          	sw	a5,-52(s0)
   109fc:	fc842783          	lw	a5,-56(s0)
   10a00:	fec42703          	lw	a4,-20(s0)
   10a04:	40f707bb          	subw	a5,a4,a5
   10a08:	0007879b          	sext.w	a5,a5
   10a0c:	00078713          	mv	a4,a5
   10a10:	00070793          	mv	a5,a4
   10a14:	0037979b          	slliw	a5,a5,0x3
   10a18:	40e787bb          	subw	a5,a5,a4
   10a1c:	0007871b          	sext.w	a4,a5
   10a20:	fcc42783          	lw	a5,-52(s0)
   10a24:	40f707bb          	subw	a5,a4,a5
   10a28:	fef42623          	sw	a5,-20(s0)
   10a2c:	fcc40793          	addi	a5,s0,-52
   10a30:	00078513          	mv	a0,a5
   10a34:	654000ef          	jal	ra,11088 <Proc_2>
   10a38:	fe442783          	lw	a5,-28(s0)
   10a3c:	0017879b          	addiw	a5,a5,1
   10a40:	fef42223          	sw	a5,-28(s0)
   10a44:	fe442703          	lw	a4,-28(s0)
   10a48:	fe042783          	lw	a5,-32(s0)
   10a4c:	0007071b          	sext.w	a4,a4
   10a50:	0007879b          	sext.w	a5,a5
   10a54:	dae7d4e3          	bge	a5,a4,107fc <main+0x1cc>
   10a58:	b00027f3          	csrr	a5,mcycle
   10a5c:	fcf43823          	sd	a5,-48(s0)
   10a60:	fd043783          	ld	a5,-48(s0)
   10a64:	00078713          	mv	a4,a5
   10a68:	000257b7          	lui	a5,0x25
   10a6c:	cee7b023          	sd	a4,-800(a5) # 24ce0 <End_Time>
   10a70:	000257b7          	lui	a5,0x25
   10a74:	ce07b703          	ld	a4,-800(a5) # 24ce0 <End_Time>
   10a78:	8f81b783          	ld	a5,-1800(gp) # 225c8 <Begin_Time>
   10a7c:	40f70733          	sub	a4,a4,a5
   10a80:	8ee1b823          	sd	a4,-1808(gp) # 225c0 <User_Time>
   10a84:	8f01b783          	ld	a5,-1808(gp) # 225c0 <User_Time>
   10a88:	02f04a63          	bgtz	a5,10abc <main+0x48c>
   10a8c:	0001f7b7          	lui	a5,0x1f
   10a90:	1e078513          	addi	a0,a5,480 # 1f1e0 <__clzdi2+0x1b0>
   10a94:	10c010ef          	jal	ra,11ba0 <puts>
   10a98:	fe042703          	lw	a4,-32(s0)
   10a9c:	00070793          	mv	a5,a4
   10aa0:	0027979b          	slliw	a5,a5,0x2
   10aa4:	00e787bb          	addw	a5,a5,a4
   10aa8:	0017979b          	slliw	a5,a5,0x1
   10aac:	fef42023          	sw	a5,-32(s0)
   10ab0:	00a00513          	li	a0,10
   10ab4:	010010ef          	jal	ra,11ac4 <putchar>
   10ab8:	0100006f          	j	10ac8 <main+0x498>
   10abc:	000257b7          	lui	a5,0x25
   10ac0:	00100713          	li	a4,1
   10ac4:	d0e7a023          	sw	a4,-768(a5) # 24d00 <Done>
   10ac8:	000257b7          	lui	a5,0x25
   10acc:	d007a783          	lw	a5,-768(a5) # 24d00 <Done>
   10ad0:	ce078ce3          	beqz	a5,107c8 <main+0x198>
   10ad4:	0001f7b7          	lui	a5,0x1f
   10ad8:	21878513          	addi	a0,a5,536 # 1f218 <__clzdi2+0x1e8>
   10adc:	3fd000ef          	jal	ra,116d8 <debug_printf>
   10ae0:	0001f7b7          	lui	a5,0x1f
   10ae4:	0b078513          	addi	a0,a5,176 # 1f0b0 <__clzdi2+0x80>
   10ae8:	3f1000ef          	jal	ra,116d8 <debug_printf>
   10aec:	000257b7          	lui	a5,0x25
   10af0:	cf07a783          	lw	a5,-784(a5) # 24cf0 <Int_Glob>
   10af4:	00078593          	mv	a1,a5
   10af8:	0001f7b7          	lui	a5,0x1f
   10afc:	25078513          	addi	a0,a5,592 # 1f250 <__clzdi2+0x220>
   10b00:	3d9000ef          	jal	ra,116d8 <debug_printf>
   10b04:	00500593          	li	a1,5
   10b08:	0001f7b7          	lui	a5,0x1f
   10b0c:	27078513          	addi	a0,a5,624 # 1f270 <__clzdi2+0x240>
   10b10:	3c9000ef          	jal	ra,116d8 <debug_printf>
   10b14:	000257b7          	lui	a5,0x25
   10b18:	dd07a783          	lw	a5,-560(a5) # 24dd0 <Bool_Glob>
   10b1c:	00078593          	mv	a1,a5
   10b20:	0001f7b7          	lui	a5,0x1f
   10b24:	29078513          	addi	a0,a5,656 # 1f290 <__clzdi2+0x260>
   10b28:	3b1000ef          	jal	ra,116d8 <debug_printf>
   10b2c:	00100593          	li	a1,1
   10b30:	0001f7b7          	lui	a5,0x1f
   10b34:	27078513          	addi	a0,a5,624 # 1f270 <__clzdi2+0x240>
   10b38:	3a1000ef          	jal	ra,116d8 <debug_printf>
   10b3c:	000257b7          	lui	a5,0x25
   10b40:	cf47c783          	lbu	a5,-780(a5) # 24cf4 <Ch_1_Glob>
   10b44:	0007879b          	sext.w	a5,a5
   10b48:	00078593          	mv	a1,a5
   10b4c:	0001f7b7          	lui	a5,0x1f
   10b50:	2b078513          	addi	a0,a5,688 # 1f2b0 <__clzdi2+0x280>
   10b54:	385000ef          	jal	ra,116d8 <debug_printf>
   10b58:	04100593          	li	a1,65
   10b5c:	0001f7b7          	lui	a5,0x1f
   10b60:	2d078513          	addi	a0,a5,720 # 1f2d0 <__clzdi2+0x2a0>
   10b64:	375000ef          	jal	ra,116d8 <debug_printf>
   10b68:	000257b7          	lui	a5,0x25
   10b6c:	cf57c783          	lbu	a5,-779(a5) # 24cf5 <Ch_2_Glob>
   10b70:	0007879b          	sext.w	a5,a5
   10b74:	00078593          	mv	a1,a5
   10b78:	0001f7b7          	lui	a5,0x1f
   10b7c:	2f078513          	addi	a0,a5,752 # 1f2f0 <__clzdi2+0x2c0>
   10b80:	359000ef          	jal	ra,116d8 <debug_printf>
   10b84:	04200593          	li	a1,66
   10b88:	0001f7b7          	lui	a5,0x1f
   10b8c:	2d078513          	addi	a0,a5,720 # 1f2d0 <__clzdi2+0x2a0>
   10b90:	349000ef          	jal	ra,116d8 <debug_printf>
   10b94:	000257b7          	lui	a5,0x25
   10b98:	d0878793          	addi	a5,a5,-760 # 24d08 <Arr_1_Glob>
   10b9c:	0207a783          	lw	a5,32(a5)
   10ba0:	00078593          	mv	a1,a5
   10ba4:	0001f7b7          	lui	a5,0x1f
   10ba8:	31078513          	addi	a0,a5,784 # 1f310 <__clzdi2+0x2e0>
   10bac:	32d000ef          	jal	ra,116d8 <debug_printf>
   10bb0:	00700593          	li	a1,7
   10bb4:	0001f7b7          	lui	a5,0x1f
   10bb8:	27078513          	addi	a0,a5,624 # 1f270 <__clzdi2+0x240>
   10bbc:	31d000ef          	jal	ra,116d8 <debug_printf>
   10bc0:	000227b7          	lui	a5,0x22
   10bc4:	5d078793          	addi	a5,a5,1488 # 225d0 <Arr_2_Glob>
   10bc8:	65c7a783          	lw	a5,1628(a5)
   10bcc:	00078593          	mv	a1,a5
   10bd0:	0001f7b7          	lui	a5,0x1f
   10bd4:	33078513          	addi	a0,a5,816 # 1f330 <__clzdi2+0x300>
   10bd8:	301000ef          	jal	ra,116d8 <debug_printf>
   10bdc:	0001f7b7          	lui	a5,0x1f
   10be0:	35078513          	addi	a0,a5,848 # 1f350 <__clzdi2+0x320>
   10be4:	2f5000ef          	jal	ra,116d8 <debug_printf>
   10be8:	0001f7b7          	lui	a5,0x1f
   10bec:	38078513          	addi	a0,a5,896 # 1f380 <__clzdi2+0x350>
   10bf0:	2e9000ef          	jal	ra,116d8 <debug_printf>
   10bf4:	000257b7          	lui	a5,0x25
   10bf8:	cf87b783          	ld	a5,-776(a5) # 24cf8 <Ptr_Glob>
   10bfc:	0007b783          	ld	a5,0(a5)
   10c00:	00078593          	mv	a1,a5
   10c04:	0001f7b7          	lui	a5,0x1f
   10c08:	39078513          	addi	a0,a5,912 # 1f390 <__clzdi2+0x360>
   10c0c:	2cd000ef          	jal	ra,116d8 <debug_printf>
   10c10:	0001f7b7          	lui	a5,0x1f
   10c14:	3b078513          	addi	a0,a5,944 # 1f3b0 <__clzdi2+0x380>
   10c18:	2c1000ef          	jal	ra,116d8 <debug_printf>
   10c1c:	000257b7          	lui	a5,0x25
   10c20:	cf87b783          	ld	a5,-776(a5) # 24cf8 <Ptr_Glob>
   10c24:	0087a783          	lw	a5,8(a5)
   10c28:	00078593          	mv	a1,a5
   10c2c:	0001f7b7          	lui	a5,0x1f
   10c30:	3e878513          	addi	a0,a5,1000 # 1f3e8 <__clzdi2+0x3b8>
   10c34:	2a5000ef          	jal	ra,116d8 <debug_printf>
   10c38:	00000593          	li	a1,0
   10c3c:	0001f7b7          	lui	a5,0x1f
   10c40:	27078513          	addi	a0,a5,624 # 1f270 <__clzdi2+0x240>
   10c44:	295000ef          	jal	ra,116d8 <debug_printf>
   10c48:	000257b7          	lui	a5,0x25
   10c4c:	cf87b783          	ld	a5,-776(a5) # 24cf8 <Ptr_Glob>
   10c50:	00c7a783          	lw	a5,12(a5)
   10c54:	00078593          	mv	a1,a5
   10c58:	0001f7b7          	lui	a5,0x1f
   10c5c:	40878513          	addi	a0,a5,1032 # 1f408 <__clzdi2+0x3d8>
   10c60:	279000ef          	jal	ra,116d8 <debug_printf>
   10c64:	00200593          	li	a1,2
   10c68:	0001f7b7          	lui	a5,0x1f
   10c6c:	27078513          	addi	a0,a5,624 # 1f270 <__clzdi2+0x240>
   10c70:	269000ef          	jal	ra,116d8 <debug_printf>
   10c74:	000257b7          	lui	a5,0x25
   10c78:	cf87b783          	ld	a5,-776(a5) # 24cf8 <Ptr_Glob>
   10c7c:	0107a783          	lw	a5,16(a5)
   10c80:	00078593          	mv	a1,a5
   10c84:	0001f7b7          	lui	a5,0x1f
   10c88:	42878513          	addi	a0,a5,1064 # 1f428 <__clzdi2+0x3f8>
   10c8c:	24d000ef          	jal	ra,116d8 <debug_printf>
   10c90:	01100593          	li	a1,17
   10c94:	0001f7b7          	lui	a5,0x1f
   10c98:	27078513          	addi	a0,a5,624 # 1f270 <__clzdi2+0x240>
   10c9c:	23d000ef          	jal	ra,116d8 <debug_printf>
   10ca0:	000257b7          	lui	a5,0x25
   10ca4:	cf87b783          	ld	a5,-776(a5) # 24cf8 <Ptr_Glob>
   10ca8:	01478793          	addi	a5,a5,20
   10cac:	00078593          	mv	a1,a5
   10cb0:	0001f7b7          	lui	a5,0x1f
   10cb4:	44878513          	addi	a0,a5,1096 # 1f448 <__clzdi2+0x418>
   10cb8:	221000ef          	jal	ra,116d8 <debug_printf>
   10cbc:	0001f7b7          	lui	a5,0x1f
   10cc0:	46878513          	addi	a0,a5,1128 # 1f468 <__clzdi2+0x438>
   10cc4:	215000ef          	jal	ra,116d8 <debug_printf>
   10cc8:	0001f7b7          	lui	a5,0x1f
   10ccc:	4a078513          	addi	a0,a5,1184 # 1f4a0 <__clzdi2+0x470>
   10cd0:	209000ef          	jal	ra,116d8 <debug_printf>
   10cd4:	000257b7          	lui	a5,0x25
   10cd8:	ce87b783          	ld	a5,-792(a5) # 24ce8 <Next_Ptr_Glob>
   10cdc:	0007b783          	ld	a5,0(a5)
   10ce0:	00078593          	mv	a1,a5
   10ce4:	0001f7b7          	lui	a5,0x1f
   10ce8:	39078513          	addi	a0,a5,912 # 1f390 <__clzdi2+0x360>
   10cec:	1ed000ef          	jal	ra,116d8 <debug_printf>
   10cf0:	0001f7b7          	lui	a5,0x1f
   10cf4:	4b878513          	addi	a0,a5,1208 # 1f4b8 <__clzdi2+0x488>
   10cf8:	1e1000ef          	jal	ra,116d8 <debug_printf>
   10cfc:	000257b7          	lui	a5,0x25
   10d00:	ce87b783          	ld	a5,-792(a5) # 24ce8 <Next_Ptr_Glob>
   10d04:	0087a783          	lw	a5,8(a5)
   10d08:	00078593          	mv	a1,a5
   10d0c:	0001f7b7          	lui	a5,0x1f
   10d10:	3e878513          	addi	a0,a5,1000 # 1f3e8 <__clzdi2+0x3b8>
   10d14:	1c5000ef          	jal	ra,116d8 <debug_printf>
   10d18:	00000593          	li	a1,0
   10d1c:	0001f7b7          	lui	a5,0x1f
   10d20:	27078513          	addi	a0,a5,624 # 1f270 <__clzdi2+0x240>
   10d24:	1b5000ef          	jal	ra,116d8 <debug_printf>
   10d28:	000257b7          	lui	a5,0x25
   10d2c:	ce87b783          	ld	a5,-792(a5) # 24ce8 <Next_Ptr_Glob>
   10d30:	00c7a783          	lw	a5,12(a5)
   10d34:	00078593          	mv	a1,a5
   10d38:	0001f7b7          	lui	a5,0x1f
   10d3c:	40878513          	addi	a0,a5,1032 # 1f408 <__clzdi2+0x3d8>
   10d40:	199000ef          	jal	ra,116d8 <debug_printf>
   10d44:	00100593          	li	a1,1
   10d48:	0001f7b7          	lui	a5,0x1f
   10d4c:	27078513          	addi	a0,a5,624 # 1f270 <__clzdi2+0x240>
   10d50:	189000ef          	jal	ra,116d8 <debug_printf>
   10d54:	000257b7          	lui	a5,0x25
   10d58:	ce87b783          	ld	a5,-792(a5) # 24ce8 <Next_Ptr_Glob>
   10d5c:	0107a783          	lw	a5,16(a5)
   10d60:	00078593          	mv	a1,a5
   10d64:	0001f7b7          	lui	a5,0x1f
   10d68:	42878513          	addi	a0,a5,1064 # 1f428 <__clzdi2+0x3f8>
   10d6c:	16d000ef          	jal	ra,116d8 <debug_printf>
   10d70:	01200593          	li	a1,18
   10d74:	0001f7b7          	lui	a5,0x1f
   10d78:	27078513          	addi	a0,a5,624 # 1f270 <__clzdi2+0x240>
   10d7c:	15d000ef          	jal	ra,116d8 <debug_printf>
   10d80:	000257b7          	lui	a5,0x25
   10d84:	ce87b783          	ld	a5,-792(a5) # 24ce8 <Next_Ptr_Glob>
   10d88:	01478793          	addi	a5,a5,20
   10d8c:	00078593          	mv	a1,a5
   10d90:	0001f7b7          	lui	a5,0x1f
   10d94:	44878513          	addi	a0,a5,1096 # 1f448 <__clzdi2+0x418>
   10d98:	141000ef          	jal	ra,116d8 <debug_printf>
   10d9c:	0001f7b7          	lui	a5,0x1f
   10da0:	46878513          	addi	a0,a5,1128 # 1f468 <__clzdi2+0x438>
   10da4:	135000ef          	jal	ra,116d8 <debug_printf>
   10da8:	fcc42783          	lw	a5,-52(s0)
   10dac:	00078593          	mv	a1,a5
   10db0:	0001f7b7          	lui	a5,0x1f
   10db4:	4f878513          	addi	a0,a5,1272 # 1f4f8 <__clzdi2+0x4c8>
   10db8:	121000ef          	jal	ra,116d8 <debug_printf>
   10dbc:	00500593          	li	a1,5
   10dc0:	0001f7b7          	lui	a5,0x1f
   10dc4:	27078513          	addi	a0,a5,624 # 1f270 <__clzdi2+0x240>
   10dc8:	111000ef          	jal	ra,116d8 <debug_printf>
   10dcc:	fec42783          	lw	a5,-20(s0)
   10dd0:	00078593          	mv	a1,a5
   10dd4:	0001f7b7          	lui	a5,0x1f
   10dd8:	51878513          	addi	a0,a5,1304 # 1f518 <__clzdi2+0x4e8>
   10ddc:	0fd000ef          	jal	ra,116d8 <debug_printf>
   10de0:	00d00593          	li	a1,13
   10de4:	0001f7b7          	lui	a5,0x1f
   10de8:	27078513          	addi	a0,a5,624 # 1f270 <__clzdi2+0x240>
   10dec:	0ed000ef          	jal	ra,116d8 <debug_printf>
   10df0:	fc842783          	lw	a5,-56(s0)
   10df4:	00078593          	mv	a1,a5
   10df8:	0001f7b7          	lui	a5,0x1f
   10dfc:	53878513          	addi	a0,a5,1336 # 1f538 <__clzdi2+0x508>
   10e00:	0d9000ef          	jal	ra,116d8 <debug_printf>
   10e04:	00700593          	li	a1,7
   10e08:	0001f7b7          	lui	a5,0x1f
   10e0c:	27078513          	addi	a0,a5,624 # 1f270 <__clzdi2+0x240>
   10e10:	0c9000ef          	jal	ra,116d8 <debug_printf>
   10e14:	fc442783          	lw	a5,-60(s0)
   10e18:	00078593          	mv	a1,a5
   10e1c:	0001f7b7          	lui	a5,0x1f
   10e20:	55878513          	addi	a0,a5,1368 # 1f558 <__clzdi2+0x528>
   10e24:	0b5000ef          	jal	ra,116d8 <debug_printf>
   10e28:	00100593          	li	a1,1
   10e2c:	0001f7b7          	lui	a5,0x1f
   10e30:	27078513          	addi	a0,a5,624 # 1f270 <__clzdi2+0x240>
   10e34:	0a5000ef          	jal	ra,116d8 <debug_printf>
   10e38:	fa040793          	addi	a5,s0,-96
   10e3c:	00078593          	mv	a1,a5
   10e40:	0001f7b7          	lui	a5,0x1f
   10e44:	57878513          	addi	a0,a5,1400 # 1f578 <__clzdi2+0x548>
   10e48:	091000ef          	jal	ra,116d8 <debug_printf>
   10e4c:	0001f7b7          	lui	a5,0x1f
   10e50:	59878513          	addi	a0,a5,1432 # 1f598 <__clzdi2+0x568>
   10e54:	085000ef          	jal	ra,116d8 <debug_printf>
   10e58:	f8040793          	addi	a5,s0,-128
   10e5c:	00078593          	mv	a1,a5
   10e60:	0001f7b7          	lui	a5,0x1f
   10e64:	5d078513          	addi	a0,a5,1488 # 1f5d0 <__clzdi2+0x5a0>
   10e68:	071000ef          	jal	ra,116d8 <debug_printf>
   10e6c:	0001f7b7          	lui	a5,0x1f
   10e70:	5f078513          	addi	a0,a5,1520 # 1f5f0 <__clzdi2+0x5c0>
   10e74:	065000ef          	jal	ra,116d8 <debug_printf>
   10e78:	0001f7b7          	lui	a5,0x1f
   10e7c:	0b078513          	addi	a0,a5,176 # 1f0b0 <__clzdi2+0x80>
   10e80:	059000ef          	jal	ra,116d8 <debug_printf>
   10e84:	8f01b703          	ld	a4,-1808(gp) # 225c0 <User_Time>
   10e88:	fe042783          	lw	a5,-32(s0)
   10e8c:	02f74733          	div	a4,a4,a5
   10e90:	000f47b7          	lui	a5,0xf4
   10e94:	24078793          	addi	a5,a5,576 # f4240 <_end+0xcf468>
   10e98:	02f70733          	mul	a4,a4,a5
   10e9c:	000f47b7          	lui	a5,0xf4
   10ea0:	24078793          	addi	a5,a5,576 # f4240 <_end+0xcf468>
   10ea4:	02f74733          	div	a4,a4,a5
   10ea8:	8ee1b023          	sd	a4,-1824(gp) # 225b0 <Microseconds>
   10eac:	fe042703          	lw	a4,-32(s0)
   10eb0:	000f47b7          	lui	a5,0xf4
   10eb4:	2407879b          	addiw	a5,a5,576
   10eb8:	02f707bb          	mulw	a5,a4,a5
   10ebc:	0007879b          	sext.w	a5,a5
   10ec0:	00078713          	mv	a4,a5
   10ec4:	8f01b783          	ld	a5,-1808(gp) # 225c0 <User_Time>
   10ec8:	02f74733          	div	a4,a4,a5
   10ecc:	8ee1b423          	sd	a4,-1816(gp) # 225b8 <Dhrystones_Per_Second>
   10ed0:	8e01b783          	ld	a5,-1824(gp) # 225b0 <Microseconds>
   10ed4:	00078593          	mv	a1,a5
   10ed8:	0001f7b7          	lui	a5,0x1f
   10edc:	62878513          	addi	a0,a5,1576 # 1f628 <__clzdi2+0x5f8>
   10ee0:	391000ef          	jal	ra,11a70 <printf>
   10ee4:	8e81b783          	ld	a5,-1816(gp) # 225b8 <Dhrystones_Per_Second>
   10ee8:	00078593          	mv	a1,a5
   10eec:	0001f7b7          	lui	a5,0x1f
   10ef0:	66078513          	addi	a0,a5,1632 # 1f660 <__clzdi2+0x630>
   10ef4:	37d000ef          	jal	ra,11a70 <printf>
   10ef8:	0001f7b7          	lui	a5,0x1f
   10efc:	69878513          	addi	a0,a5,1688 # 1f698 <__clzdi2+0x668>
   10f00:	4a1000ef          	jal	ra,11ba0 <puts>
   10f04:	00000793          	li	a5,0
   10f08:	00078513          	mv	a0,a5
   10f0c:	f7040113          	addi	sp,s0,-144
   10f10:	08813083          	ld	ra,136(sp)
   10f14:	08013403          	ld	s0,128(sp)
   10f18:	09010113          	addi	sp,sp,144
   10f1c:	00008067          	ret

0000000000010f20 <Proc_1>:
   10f20:	fd010113          	addi	sp,sp,-48
   10f24:	02113423          	sd	ra,40(sp)
   10f28:	02813023          	sd	s0,32(sp)
   10f2c:	03010413          	addi	s0,sp,48
   10f30:	fca43c23          	sd	a0,-40(s0)
   10f34:	fd843783          	ld	a5,-40(s0)
   10f38:	0007b783          	ld	a5,0(a5)
   10f3c:	fef43423          	sd	a5,-24(s0)
   10f40:	000257b7          	lui	a5,0x25
   10f44:	cf87b703          	ld	a4,-776(a5) # 24cf8 <Ptr_Glob>
   10f48:	fd843783          	ld	a5,-40(s0)
   10f4c:	0007b783          	ld	a5,0(a5)
   10f50:	00073883          	ld	a7,0(a4)
   10f54:	00873803          	ld	a6,8(a4)
   10f58:	01073503          	ld	a0,16(a4)
   10f5c:	01873583          	ld	a1,24(a4)
   10f60:	02073603          	ld	a2,32(a4)
   10f64:	02873683          	ld	a3,40(a4)
   10f68:	03073703          	ld	a4,48(a4)
   10f6c:	0117b023          	sd	a7,0(a5)
   10f70:	0107b423          	sd	a6,8(a5)
   10f74:	00a7b823          	sd	a0,16(a5)
   10f78:	00b7bc23          	sd	a1,24(a5)
   10f7c:	02c7b023          	sd	a2,32(a5)
   10f80:	02d7b423          	sd	a3,40(a5)
   10f84:	02e7b823          	sd	a4,48(a5)
   10f88:	fd843783          	ld	a5,-40(s0)
   10f8c:	00500713          	li	a4,5
   10f90:	00e7a823          	sw	a4,16(a5)
   10f94:	fd843783          	ld	a5,-40(s0)
   10f98:	0107a703          	lw	a4,16(a5)
   10f9c:	fe843783          	ld	a5,-24(s0)
   10fa0:	00e7a823          	sw	a4,16(a5)
   10fa4:	fd843783          	ld	a5,-40(s0)
   10fa8:	0007b703          	ld	a4,0(a5)
   10fac:	fe843783          	ld	a5,-24(s0)
   10fb0:	00e7b023          	sd	a4,0(a5)
   10fb4:	fe843783          	ld	a5,-24(s0)
   10fb8:	00078513          	mv	a0,a5
   10fbc:	14c000ef          	jal	ra,11108 <Proc_3>
   10fc0:	fe843783          	ld	a5,-24(s0)
   10fc4:	0087a783          	lw	a5,8(a5)
   10fc8:	06079263          	bnez	a5,1102c <Proc_1+0x10c>
   10fcc:	fe843783          	ld	a5,-24(s0)
   10fd0:	00600713          	li	a4,6
   10fd4:	00e7a823          	sw	a4,16(a5)
   10fd8:	fd843783          	ld	a5,-40(s0)
   10fdc:	00c7a703          	lw	a4,12(a5)
   10fe0:	fe843783          	ld	a5,-24(s0)
   10fe4:	00c78793          	addi	a5,a5,12
   10fe8:	00078593          	mv	a1,a5
   10fec:	00070513          	mv	a0,a4
   10ff0:	224000ef          	jal	ra,11214 <Proc_6>
   10ff4:	000257b7          	lui	a5,0x25
   10ff8:	cf87b783          	ld	a5,-776(a5) # 24cf8 <Ptr_Glob>
   10ffc:	0007b703          	ld	a4,0(a5)
   11000:	fe843783          	ld	a5,-24(s0)
   11004:	00e7b023          	sd	a4,0(a5)
   11008:	fe843783          	ld	a5,-24(s0)
   1100c:	0107a703          	lw	a4,16(a5)
   11010:	fe843783          	ld	a5,-24(s0)
   11014:	01078793          	addi	a5,a5,16
   11018:	00078613          	mv	a2,a5
   1101c:	00a00593          	li	a1,10
   11020:	00070513          	mv	a0,a4
   11024:	2dc000ef          	jal	ra,11300 <Proc_7>
   11028:	0480006f          	j	11070 <Proc_1+0x150>
   1102c:	fd843783          	ld	a5,-40(s0)
   11030:	0007b703          	ld	a4,0(a5)
   11034:	fd843783          	ld	a5,-40(s0)
   11038:	00073883          	ld	a7,0(a4)
   1103c:	00873803          	ld	a6,8(a4)
   11040:	01073503          	ld	a0,16(a4)
   11044:	01873583          	ld	a1,24(a4)
   11048:	02073603          	ld	a2,32(a4)
   1104c:	02873683          	ld	a3,40(a4)
   11050:	03073703          	ld	a4,48(a4)
   11054:	0117b023          	sd	a7,0(a5)
   11058:	0107b423          	sd	a6,8(a5)
   1105c:	00a7b823          	sd	a0,16(a5)
   11060:	00b7bc23          	sd	a1,24(a5)
   11064:	02c7b023          	sd	a2,32(a5)
   11068:	02d7b423          	sd	a3,40(a5)
   1106c:	02e7b823          	sd	a4,48(a5)
   11070:	00000013          	nop
   11074:	00078513          	mv	a0,a5
   11078:	02813083          	ld	ra,40(sp)
   1107c:	02013403          	ld	s0,32(sp)
   11080:	03010113          	addi	sp,sp,48
   11084:	00008067          	ret

0000000000011088 <Proc_2>:
   11088:	fd010113          	addi	sp,sp,-48
   1108c:	02813423          	sd	s0,40(sp)
   11090:	03010413          	addi	s0,sp,48
   11094:	fca43c23          	sd	a0,-40(s0)
   11098:	fd843783          	ld	a5,-40(s0)
   1109c:	0007a783          	lw	a5,0(a5)
   110a0:	00a7879b          	addiw	a5,a5,10
   110a4:	fef42623          	sw	a5,-20(s0)
   110a8:	000257b7          	lui	a5,0x25
   110ac:	cf47c783          	lbu	a5,-780(a5) # 24cf4 <Ch_1_Glob>
   110b0:	00078713          	mv	a4,a5
   110b4:	04100793          	li	a5,65
   110b8:	02f71863          	bne	a4,a5,110e8 <Proc_2+0x60>
   110bc:	fec42783          	lw	a5,-20(s0)
   110c0:	fff7879b          	addiw	a5,a5,-1
   110c4:	fef42623          	sw	a5,-20(s0)
   110c8:	000257b7          	lui	a5,0x25
   110cc:	cf07a783          	lw	a5,-784(a5) # 24cf0 <Int_Glob>
   110d0:	fec42703          	lw	a4,-20(s0)
   110d4:	40f707bb          	subw	a5,a4,a5
   110d8:	0007871b          	sext.w	a4,a5
   110dc:	fd843783          	ld	a5,-40(s0)
   110e0:	00e7a023          	sw	a4,0(a5)
   110e4:	fe042423          	sw	zero,-24(s0)
   110e8:	fe842783          	lw	a5,-24(s0)
   110ec:	0007879b          	sext.w	a5,a5
   110f0:	fa079ce3          	bnez	a5,110a8 <Proc_2+0x20>
   110f4:	00000013          	nop
   110f8:	00078513          	mv	a0,a5
   110fc:	02813403          	ld	s0,40(sp)
   11100:	03010113          	addi	sp,sp,48
   11104:	00008067          	ret

0000000000011108 <Proc_3>:
   11108:	fe010113          	addi	sp,sp,-32
   1110c:	00113c23          	sd	ra,24(sp)
   11110:	00813823          	sd	s0,16(sp)
   11114:	02010413          	addi	s0,sp,32
   11118:	fea43423          	sd	a0,-24(s0)
   1111c:	000257b7          	lui	a5,0x25
   11120:	cf87b783          	ld	a5,-776(a5) # 24cf8 <Ptr_Glob>
   11124:	00078c63          	beqz	a5,1113c <Proc_3+0x34>
   11128:	000257b7          	lui	a5,0x25
   1112c:	cf87b783          	ld	a5,-776(a5) # 24cf8 <Ptr_Glob>
   11130:	0007b703          	ld	a4,0(a5)
   11134:	fe843783          	ld	a5,-24(s0)
   11138:	00e7b023          	sd	a4,0(a5)
   1113c:	000257b7          	lui	a5,0x25
   11140:	cf07a703          	lw	a4,-784(a5) # 24cf0 <Int_Glob>
   11144:	000257b7          	lui	a5,0x25
   11148:	cf87b783          	ld	a5,-776(a5) # 24cf8 <Ptr_Glob>
   1114c:	01078793          	addi	a5,a5,16
   11150:	00078613          	mv	a2,a5
   11154:	00070593          	mv	a1,a4
   11158:	00a00513          	li	a0,10
   1115c:	1a4000ef          	jal	ra,11300 <Proc_7>
   11160:	00000013          	nop
   11164:	00078513          	mv	a0,a5
   11168:	01813083          	ld	ra,24(sp)
   1116c:	01013403          	ld	s0,16(sp)
   11170:	02010113          	addi	sp,sp,32
   11174:	00008067          	ret

0000000000011178 <Proc_4>:
   11178:	fe010113          	addi	sp,sp,-32
   1117c:	00813c23          	sd	s0,24(sp)
   11180:	02010413          	addi	s0,sp,32
   11184:	000257b7          	lui	a5,0x25
   11188:	cf47c783          	lbu	a5,-780(a5) # 24cf4 <Ch_1_Glob>
   1118c:	0007871b          	sext.w	a4,a5
   11190:	04100793          	li	a5,65
   11194:	40f707b3          	sub	a5,a4,a5
   11198:	0017b793          	seqz	a5,a5
   1119c:	0ff7f793          	zext.b	a5,a5
   111a0:	fef42623          	sw	a5,-20(s0)
   111a4:	000257b7          	lui	a5,0x25
   111a8:	dd07a703          	lw	a4,-560(a5) # 24dd0 <Bool_Glob>
   111ac:	fec42783          	lw	a5,-20(s0)
   111b0:	00f767b3          	or	a5,a4,a5
   111b4:	0007871b          	sext.w	a4,a5
   111b8:	000257b7          	lui	a5,0x25
   111bc:	dce7a823          	sw	a4,-560(a5) # 24dd0 <Bool_Glob>
   111c0:	000257b7          	lui	a5,0x25
   111c4:	04200713          	li	a4,66
   111c8:	cee78aa3          	sb	a4,-779(a5) # 24cf5 <Ch_2_Glob>
   111cc:	00000013          	nop
   111d0:	00078513          	mv	a0,a5
   111d4:	01813403          	ld	s0,24(sp)
   111d8:	02010113          	addi	sp,sp,32
   111dc:	00008067          	ret

00000000000111e0 <Proc_5>:
   111e0:	ff010113          	addi	sp,sp,-16
   111e4:	00813423          	sd	s0,8(sp)
   111e8:	01010413          	addi	s0,sp,16
   111ec:	000257b7          	lui	a5,0x25
   111f0:	04100713          	li	a4,65
   111f4:	cee78a23          	sb	a4,-780(a5) # 24cf4 <Ch_1_Glob>
   111f8:	000257b7          	lui	a5,0x25
   111fc:	dc07a823          	sw	zero,-560(a5) # 24dd0 <Bool_Glob>
   11200:	00000013          	nop
   11204:	00078513          	mv	a0,a5
   11208:	00813403          	ld	s0,8(sp)
   1120c:	01010113          	addi	sp,sp,16
   11210:	00008067          	ret

0000000000011214 <Proc_6>:
   11214:	fe010113          	addi	sp,sp,-32
   11218:	00113c23          	sd	ra,24(sp)
   1121c:	00813823          	sd	s0,16(sp)
   11220:	02010413          	addi	s0,sp,32
   11224:	00050793          	mv	a5,a0
   11228:	feb43023          	sd	a1,-32(s0)
   1122c:	fef42623          	sw	a5,-20(s0)
   11230:	fe043783          	ld	a5,-32(s0)
   11234:	fec42703          	lw	a4,-20(s0)
   11238:	00e7a023          	sw	a4,0(a5)
   1123c:	fec42783          	lw	a5,-20(s0)
   11240:	00078513          	mv	a0,a5
   11244:	44c000ef          	jal	ra,11690 <Func_3>
   11248:	00050793          	mv	a5,a0
   1124c:	00079863          	bnez	a5,1125c <Proc_6+0x48>
   11250:	fe043783          	ld	a5,-32(s0)
   11254:	00300713          	li	a4,3
   11258:	00e7a023          	sw	a4,0(a5)
   1125c:	fec42783          	lw	a5,-20(s0)
   11260:	0007871b          	sext.w	a4,a5
   11264:	00400793          	li	a5,4
   11268:	08e7e063          	bltu	a5,a4,112e8 <Proc_6+0xd4>
   1126c:	fec46783          	lwu	a5,-20(s0)
   11270:	00279713          	slli	a4,a5,0x2
   11274:	0001f7b7          	lui	a5,0x1f
   11278:	6b078793          	addi	a5,a5,1712 # 1f6b0 <__clzdi2+0x680>
   1127c:	00f707b3          	add	a5,a4,a5
   11280:	0007a783          	lw	a5,0(a5)
   11284:	00078067          	jr	a5
   11288:	fe043783          	ld	a5,-32(s0)
   1128c:	0007a023          	sw	zero,0(a5)
   11290:	0580006f          	j	112e8 <Proc_6+0xd4>
   11294:	000257b7          	lui	a5,0x25
   11298:	cf07a783          	lw	a5,-784(a5) # 24cf0 <Int_Glob>
   1129c:	00078713          	mv	a4,a5
   112a0:	06400793          	li	a5,100
   112a4:	00e7d863          	bge	a5,a4,112b4 <Proc_6+0xa0>
   112a8:	fe043783          	ld	a5,-32(s0)
   112ac:	0007a023          	sw	zero,0(a5)
   112b0:	0380006f          	j	112e8 <Proc_6+0xd4>
   112b4:	fe043783          	ld	a5,-32(s0)
   112b8:	00300713          	li	a4,3
   112bc:	00e7a023          	sw	a4,0(a5)
   112c0:	0280006f          	j	112e8 <Proc_6+0xd4>
   112c4:	fe043783          	ld	a5,-32(s0)
   112c8:	00100713          	li	a4,1
   112cc:	00e7a023          	sw	a4,0(a5)
   112d0:	0180006f          	j	112e8 <Proc_6+0xd4>
   112d4:	fe043783          	ld	a5,-32(s0)
   112d8:	00200713          	li	a4,2
   112dc:	00e7a023          	sw	a4,0(a5)
   112e0:	0080006f          	j	112e8 <Proc_6+0xd4>
   112e4:	00000013          	nop
   112e8:	00000013          	nop
   112ec:	00078513          	mv	a0,a5
   112f0:	01813083          	ld	ra,24(sp)
   112f4:	01013403          	ld	s0,16(sp)
   112f8:	02010113          	addi	sp,sp,32
   112fc:	00008067          	ret

0000000000011300 <Proc_7>:
   11300:	fd010113          	addi	sp,sp,-48
   11304:	02813423          	sd	s0,40(sp)
   11308:	03010413          	addi	s0,sp,48
   1130c:	00050793          	mv	a5,a0
   11310:	00058713          	mv	a4,a1
   11314:	fcc43823          	sd	a2,-48(s0)
   11318:	fcf42e23          	sw	a5,-36(s0)
   1131c:	00070793          	mv	a5,a4
   11320:	fcf42c23          	sw	a5,-40(s0)
   11324:	fdc42783          	lw	a5,-36(s0)
   11328:	0027879b          	addiw	a5,a5,2
   1132c:	fef42623          	sw	a5,-20(s0)
   11330:	fd842703          	lw	a4,-40(s0)
   11334:	fec42783          	lw	a5,-20(s0)
   11338:	00f707bb          	addw	a5,a4,a5
   1133c:	0007871b          	sext.w	a4,a5
   11340:	fd043783          	ld	a5,-48(s0)
   11344:	00e7a023          	sw	a4,0(a5)
   11348:	00000013          	nop
   1134c:	00078513          	mv	a0,a5
   11350:	02813403          	ld	s0,40(sp)
   11354:	03010113          	addi	sp,sp,48
   11358:	00008067          	ret

000000000001135c <Proc_8>:
   1135c:	fc010113          	addi	sp,sp,-64
   11360:	02813c23          	sd	s0,56(sp)
   11364:	04010413          	addi	s0,sp,64
   11368:	fca43c23          	sd	a0,-40(s0)
   1136c:	fcb43823          	sd	a1,-48(s0)
   11370:	00060793          	mv	a5,a2
   11374:	00068713          	mv	a4,a3
   11378:	fcf42623          	sw	a5,-52(s0)
   1137c:	00070793          	mv	a5,a4
   11380:	fcf42423          	sw	a5,-56(s0)
   11384:	fcc42783          	lw	a5,-52(s0)
   11388:	0057879b          	addiw	a5,a5,5
   1138c:	fef42423          	sw	a5,-24(s0)
   11390:	fe842783          	lw	a5,-24(s0)
   11394:	00279793          	slli	a5,a5,0x2
   11398:	fd843703          	ld	a4,-40(s0)
   1139c:	00f707b3          	add	a5,a4,a5
   113a0:	fc842703          	lw	a4,-56(s0)
   113a4:	00e7a023          	sw	a4,0(a5)
   113a8:	fe842783          	lw	a5,-24(s0)
   113ac:	00279793          	slli	a5,a5,0x2
   113b0:	fd843703          	ld	a4,-40(s0)
   113b4:	00f70733          	add	a4,a4,a5
   113b8:	fe842783          	lw	a5,-24(s0)
   113bc:	00178793          	addi	a5,a5,1
   113c0:	00279793          	slli	a5,a5,0x2
   113c4:	fd843683          	ld	a3,-40(s0)
   113c8:	00f687b3          	add	a5,a3,a5
   113cc:	00072703          	lw	a4,0(a4)
   113d0:	00e7a023          	sw	a4,0(a5)
   113d4:	fe842783          	lw	a5,-24(s0)
   113d8:	01e78793          	addi	a5,a5,30
   113dc:	00279793          	slli	a5,a5,0x2
   113e0:	fd843703          	ld	a4,-40(s0)
   113e4:	00f707b3          	add	a5,a4,a5
   113e8:	fe842703          	lw	a4,-24(s0)
   113ec:	00e7a023          	sw	a4,0(a5)
   113f0:	fe842783          	lw	a5,-24(s0)
   113f4:	fef42623          	sw	a5,-20(s0)
   113f8:	0380006f          	j	11430 <Proc_8+0xd4>
   113fc:	fe842703          	lw	a4,-24(s0)
   11400:	0c800793          	li	a5,200
   11404:	02f707b3          	mul	a5,a4,a5
   11408:	fd043703          	ld	a4,-48(s0)
   1140c:	00f70733          	add	a4,a4,a5
   11410:	fec42783          	lw	a5,-20(s0)
   11414:	00279793          	slli	a5,a5,0x2
   11418:	00f707b3          	add	a5,a4,a5
   1141c:	fe842703          	lw	a4,-24(s0)
   11420:	00e7a023          	sw	a4,0(a5)
   11424:	fec42783          	lw	a5,-20(s0)
   11428:	0017879b          	addiw	a5,a5,1
   1142c:	fef42623          	sw	a5,-20(s0)
   11430:	fe842783          	lw	a5,-24(s0)
   11434:	0017879b          	addiw	a5,a5,1
   11438:	0007871b          	sext.w	a4,a5
   1143c:	fec42783          	lw	a5,-20(s0)
   11440:	0007879b          	sext.w	a5,a5
   11444:	faf75ce3          	bge	a4,a5,113fc <Proc_8+0xa0>
   11448:	fe842703          	lw	a4,-24(s0)
   1144c:	0c800793          	li	a5,200
   11450:	02f707b3          	mul	a5,a4,a5
   11454:	fd043703          	ld	a4,-48(s0)
   11458:	00f70733          	add	a4,a4,a5
   1145c:	fe842783          	lw	a5,-24(s0)
   11460:	fff7879b          	addiw	a5,a5,-1
   11464:	0007879b          	sext.w	a5,a5
   11468:	00279793          	slli	a5,a5,0x2
   1146c:	00f707b3          	add	a5,a4,a5
   11470:	0007a703          	lw	a4,0(a5)
   11474:	fe842683          	lw	a3,-24(s0)
   11478:	0c800793          	li	a5,200
   1147c:	02f687b3          	mul	a5,a3,a5
   11480:	fd043683          	ld	a3,-48(s0)
   11484:	00f686b3          	add	a3,a3,a5
   11488:	fe842783          	lw	a5,-24(s0)
   1148c:	fff7879b          	addiw	a5,a5,-1
   11490:	0007879b          	sext.w	a5,a5
   11494:	0017071b          	addiw	a4,a4,1
   11498:	0007071b          	sext.w	a4,a4
   1149c:	00279793          	slli	a5,a5,0x2
   114a0:	00f687b3          	add	a5,a3,a5
   114a4:	00e7a023          	sw	a4,0(a5)
   114a8:	fe842783          	lw	a5,-24(s0)
   114ac:	00279793          	slli	a5,a5,0x2
   114b0:	fd843703          	ld	a4,-40(s0)
   114b4:	00f707b3          	add	a5,a4,a5
   114b8:	fe842683          	lw	a3,-24(s0)
   114bc:	0c800713          	li	a4,200
   114c0:	02e686b3          	mul	a3,a3,a4
   114c4:	00001737          	lui	a4,0x1
   114c8:	fa070713          	addi	a4,a4,-96 # fa0 <threadsense.2706+0xfa0>
   114cc:	00e68733          	add	a4,a3,a4
   114d0:	fd043683          	ld	a3,-48(s0)
   114d4:	00e686b3          	add	a3,a3,a4
   114d8:	0007a703          	lw	a4,0(a5)
   114dc:	fe842783          	lw	a5,-24(s0)
   114e0:	00279793          	slli	a5,a5,0x2
   114e4:	00f687b3          	add	a5,a3,a5
   114e8:	00e7a023          	sw	a4,0(a5)
   114ec:	000257b7          	lui	a5,0x25
   114f0:	00500713          	li	a4,5
   114f4:	cee7a823          	sw	a4,-784(a5) # 24cf0 <Int_Glob>
   114f8:	00000013          	nop
   114fc:	00078513          	mv	a0,a5
   11500:	03813403          	ld	s0,56(sp)
   11504:	04010113          	addi	sp,sp,64
   11508:	00008067          	ret

000000000001150c <Func_1>:
   1150c:	fd010113          	addi	sp,sp,-48
   11510:	02813423          	sd	s0,40(sp)
   11514:	03010413          	addi	s0,sp,48
   11518:	00050793          	mv	a5,a0
   1151c:	00058713          	mv	a4,a1
   11520:	fcf40e23          	sb	a5,-36(s0)
   11524:	00070793          	mv	a5,a4
   11528:	fcf40c23          	sb	a5,-40(s0)
   1152c:	fdc44783          	lbu	a5,-36(s0)
   11530:	fef407a3          	sb	a5,-17(s0)
   11534:	fef44783          	lbu	a5,-17(s0)
   11538:	fef40723          	sb	a5,-18(s0)
   1153c:	fee44703          	lbu	a4,-18(s0)
   11540:	fd844783          	lbu	a5,-40(s0)
   11544:	0ff77713          	zext.b	a4,a4
   11548:	0ff7f793          	zext.b	a5,a5
   1154c:	00f70663          	beq	a4,a5,11558 <Func_1+0x4c>
   11550:	00000793          	li	a5,0
   11554:	0140006f          	j	11568 <Func_1+0x5c>
   11558:	000257b7          	lui	a5,0x25
   1155c:	fef44703          	lbu	a4,-17(s0)
   11560:	cee78a23          	sb	a4,-780(a5) # 24cf4 <Ch_1_Glob>
   11564:	00100793          	li	a5,1
   11568:	00078513          	mv	a0,a5
   1156c:	02813403          	ld	s0,40(sp)
   11570:	03010113          	addi	sp,sp,48
   11574:	00008067          	ret

0000000000011578 <Func_2>:
   11578:	fd010113          	addi	sp,sp,-48
   1157c:	02113423          	sd	ra,40(sp)
   11580:	02813023          	sd	s0,32(sp)
   11584:	03010413          	addi	s0,sp,48
   11588:	fca43c23          	sd	a0,-40(s0)
   1158c:	fcb43823          	sd	a1,-48(s0)
   11590:	00200793          	li	a5,2
   11594:	fef42623          	sw	a5,-20(s0)
   11598:	05c0006f          	j	115f4 <Func_2+0x7c>
   1159c:	fec42783          	lw	a5,-20(s0)
   115a0:	fd843703          	ld	a4,-40(s0)
   115a4:	00f707b3          	add	a5,a4,a5
   115a8:	0007c783          	lbu	a5,0(a5)
   115ac:	0007869b          	sext.w	a3,a5
   115b0:	fec42783          	lw	a5,-20(s0)
   115b4:	00178793          	addi	a5,a5,1
   115b8:	fd043703          	ld	a4,-48(s0)
   115bc:	00f707b3          	add	a5,a4,a5
   115c0:	0007c783          	lbu	a5,0(a5)
   115c4:	0007879b          	sext.w	a5,a5
   115c8:	00078593          	mv	a1,a5
   115cc:	00068513          	mv	a0,a3
   115d0:	f3dff0ef          	jal	ra,1150c <Func_1>
   115d4:	00050793          	mv	a5,a0
   115d8:	0007879b          	sext.w	a5,a5
   115dc:	00079c63          	bnez	a5,115f4 <Func_2+0x7c>
   115e0:	04100793          	li	a5,65
   115e4:	fef405a3          	sb	a5,-21(s0)
   115e8:	fec42783          	lw	a5,-20(s0)
   115ec:	0017879b          	addiw	a5,a5,1
   115f0:	fef42623          	sw	a5,-20(s0)
   115f4:	fec42783          	lw	a5,-20(s0)
   115f8:	0007871b          	sext.w	a4,a5
   115fc:	00200793          	li	a5,2
   11600:	f8e7dee3          	bge	a5,a4,1159c <Func_2+0x24>
   11604:	feb44783          	lbu	a5,-21(s0)
   11608:	0ff7f713          	zext.b	a4,a5
   1160c:	05600793          	li	a5,86
   11610:	00e7fe63          	bgeu	a5,a4,1162c <Func_2+0xb4>
   11614:	feb44783          	lbu	a5,-21(s0)
   11618:	0ff7f713          	zext.b	a4,a5
   1161c:	05900793          	li	a5,89
   11620:	00e7e663          	bltu	a5,a4,1162c <Func_2+0xb4>
   11624:	00700793          	li	a5,7
   11628:	fef42623          	sw	a5,-20(s0)
   1162c:	feb44783          	lbu	a5,-21(s0)
   11630:	0ff7f713          	zext.b	a4,a5
   11634:	05200793          	li	a5,82
   11638:	00f71663          	bne	a4,a5,11644 <Func_2+0xcc>
   1163c:	00100793          	li	a5,1
   11640:	03c0006f          	j	1167c <Func_2+0x104>
   11644:	fd043583          	ld	a1,-48(s0)
   11648:	fd843503          	ld	a0,-40(s0)
   1164c:	560000ef          	jal	ra,11bac <strcmp>
   11650:	00050793          	mv	a5,a0
   11654:	02f05263          	blez	a5,11678 <Func_2+0x100>
   11658:	fec42783          	lw	a5,-20(s0)
   1165c:	0077879b          	addiw	a5,a5,7
   11660:	fef42623          	sw	a5,-20(s0)
   11664:	000257b7          	lui	a5,0x25
   11668:	fec42703          	lw	a4,-20(s0)
   1166c:	cee7a823          	sw	a4,-784(a5) # 24cf0 <Int_Glob>
   11670:	00100793          	li	a5,1
   11674:	0080006f          	j	1167c <Func_2+0x104>
   11678:	00000793          	li	a5,0
   1167c:	00078513          	mv	a0,a5
   11680:	02813083          	ld	ra,40(sp)
   11684:	02013403          	ld	s0,32(sp)
   11688:	03010113          	addi	sp,sp,48
   1168c:	00008067          	ret

0000000000011690 <Func_3>:
   11690:	fd010113          	addi	sp,sp,-48
   11694:	02813423          	sd	s0,40(sp)
   11698:	03010413          	addi	s0,sp,48
   1169c:	00050793          	mv	a5,a0
   116a0:	fcf42e23          	sw	a5,-36(s0)
   116a4:	fdc42783          	lw	a5,-36(s0)
   116a8:	fef42623          	sw	a5,-20(s0)
   116ac:	fec42783          	lw	a5,-20(s0)
   116b0:	0007871b          	sext.w	a4,a5
   116b4:	00200793          	li	a5,2
   116b8:	00f71663          	bne	a4,a5,116c4 <Func_3+0x34>
   116bc:	00100793          	li	a5,1
   116c0:	0080006f          	j	116c8 <Func_3+0x38>
   116c4:	00000793          	li	a5,0
   116c8:	00078513          	mv	a0,a5
   116cc:	02813403          	ld	s0,40(sp)
   116d0:	03010113          	addi	sp,sp,48
   116d4:	00008067          	ret

00000000000116d8 <debug_printf>:
   116d8:	fa010113          	addi	sp,sp,-96
   116dc:	00813c23          	sd	s0,24(sp)
   116e0:	02010413          	addi	s0,sp,32
   116e4:	fea43423          	sd	a0,-24(s0)
   116e8:	00b43423          	sd	a1,8(s0)
   116ec:	00c43823          	sd	a2,16(s0)
   116f0:	00d43c23          	sd	a3,24(s0)
   116f4:	02e43023          	sd	a4,32(s0)
   116f8:	02f43423          	sd	a5,40(s0)
   116fc:	03043823          	sd	a6,48(s0)
   11700:	03143c23          	sd	a7,56(s0)
   11704:	00000013          	nop
   11708:	01813403          	ld	s0,24(sp)
   1170c:	06010113          	addi	sp,sp,96
   11710:	00008067          	ret

0000000000011714 <atexit>:
   11714:	00050593          	mv	a1,a0
   11718:	00000693          	li	a3,0
   1171c:	00000613          	li	a2,0
   11720:	00000513          	li	a0,0
   11724:	5a40206f          	j	13cc8 <__register_exitproc>

0000000000011728 <exit>:
   11728:	ff010113          	addi	sp,sp,-16
   1172c:	00000593          	li	a1,0
   11730:	00813023          	sd	s0,0(sp)
   11734:	00113423          	sd	ra,8(sp)
   11738:	00050413          	mv	s0,a0
   1173c:	610020ef          	jal	ra,13d4c <__call_exitprocs>
   11740:	8281b503          	ld	a0,-2008(gp) # 224f8 <_global_impure_ptr>
   11744:	05853783          	ld	a5,88(a0)
   11748:	00078463          	beqz	a5,11750 <exit+0x28>
   1174c:	000780e7          	jalr	a5
   11750:	00040513          	mv	a0,s0
   11754:	1910b0ef          	jal	ra,1d0e4 <_exit>

0000000000011758 <__libc_fini_array>:
   11758:	fd010113          	addi	sp,sp,-48
   1175c:	000217b7          	lui	a5,0x21
   11760:	00021737          	lui	a4,0x21
   11764:	02813023          	sd	s0,32(sp)
   11768:	3c870713          	addi	a4,a4,968 # 213c8 <__do_global_dtors_aux_fini_array_entry>
   1176c:	3d078413          	addi	s0,a5,976 # 213d0 <impure_data>
   11770:	40e40433          	sub	s0,s0,a4
   11774:	00913c23          	sd	s1,24(sp)
   11778:	01213823          	sd	s2,16(sp)
   1177c:	01313423          	sd	s3,8(sp)
   11780:	02113423          	sd	ra,40(sp)
   11784:	40345413          	srai	s0,s0,0x3
   11788:	00000493          	li	s1,0
   1178c:	3d078913          	addi	s2,a5,976
   11790:	ff800993          	li	s3,-8
   11794:	02941063          	bne	s0,s1,117b4 <__libc_fini_array+0x5c>
   11798:	02013403          	ld	s0,32(sp)
   1179c:	02813083          	ld	ra,40(sp)
   117a0:	01813483          	ld	s1,24(sp)
   117a4:	01013903          	ld	s2,16(sp)
   117a8:	00813983          	ld	s3,8(sp)
   117ac:	03010113          	addi	sp,sp,48
   117b0:	97dfe06f          	j	1012c <_fini>
   117b4:	033487b3          	mul	a5,s1,s3
   117b8:	00148493          	addi	s1,s1,1
   117bc:	00f907b3          	add	a5,s2,a5
   117c0:	ff87b783          	ld	a5,-8(a5)
   117c4:	000780e7          	jalr	a5
   117c8:	fcdff06f          	j	11794 <__libc_fini_array+0x3c>

00000000000117cc <__libc_init_array>:
   117cc:	fe010113          	addi	sp,sp,-32
   117d0:	00813823          	sd	s0,16(sp)
   117d4:	00913423          	sd	s1,8(sp)
   117d8:	00021437          	lui	s0,0x21
   117dc:	000214b7          	lui	s1,0x21
   117e0:	3bc48793          	addi	a5,s1,956 # 213bc <__preinit_array_end>
   117e4:	3bc40413          	addi	s0,s0,956 # 213bc <__preinit_array_end>
   117e8:	40f40433          	sub	s0,s0,a5
   117ec:	01213023          	sd	s2,0(sp)
   117f0:	00113c23          	sd	ra,24(sp)
   117f4:	40345413          	srai	s0,s0,0x3
   117f8:	3bc48493          	addi	s1,s1,956
   117fc:	00000913          	li	s2,0
   11800:	04891263          	bne	s2,s0,11844 <__libc_init_array+0x78>
   11804:	000214b7          	lui	s1,0x21
   11808:	925fe0ef          	jal	ra,1012c <_fini>
   1180c:	00021437          	lui	s0,0x21
   11810:	3c048793          	addi	a5,s1,960 # 213c0 <__frame_dummy_init_array_entry>
   11814:	3c840413          	addi	s0,s0,968 # 213c8 <__do_global_dtors_aux_fini_array_entry>
   11818:	40f40433          	sub	s0,s0,a5
   1181c:	40345413          	srai	s0,s0,0x3
   11820:	3c048493          	addi	s1,s1,960
   11824:	00000913          	li	s2,0
   11828:	02891863          	bne	s2,s0,11858 <__libc_init_array+0x8c>
   1182c:	01813083          	ld	ra,24(sp)
   11830:	01013403          	ld	s0,16(sp)
   11834:	00813483          	ld	s1,8(sp)
   11838:	00013903          	ld	s2,0(sp)
   1183c:	02010113          	addi	sp,sp,32
   11840:	00008067          	ret
   11844:	0004b783          	ld	a5,0(s1)
   11848:	00190913          	addi	s2,s2,1
   1184c:	00848493          	addi	s1,s1,8
   11850:	000780e7          	jalr	a5
   11854:	fadff06f          	j	11800 <__libc_init_array+0x34>
   11858:	0004b783          	ld	a5,0(s1)
   1185c:	00190913          	addi	s2,s2,1
   11860:	00848493          	addi	s1,s1,8
   11864:	000780e7          	jalr	a5
   11868:	fc1ff06f          	j	11828 <__libc_init_array+0x5c>

000000000001186c <memcpy>:
   1186c:	00a5c7b3          	xor	a5,a1,a0
   11870:	0077f793          	andi	a5,a5,7
   11874:	00c50733          	add	a4,a0,a2
   11878:	00079663          	bnez	a5,11884 <memcpy+0x18>
   1187c:	00700793          	li	a5,7
   11880:	02c7e463          	bltu	a5,a2,118a8 <memcpy+0x3c>
   11884:	00050793          	mv	a5,a0
   11888:	00e56c63          	bltu	a0,a4,118a0 <memcpy+0x34>
   1188c:	00008067          	ret
   11890:	0005c683          	lbu	a3,0(a1)
   11894:	00178793          	addi	a5,a5,1
   11898:	00158593          	addi	a1,a1,1
   1189c:	fed78fa3          	sb	a3,-1(a5)
   118a0:	fee7e8e3          	bltu	a5,a4,11890 <memcpy+0x24>
   118a4:	00008067          	ret
   118a8:	00757793          	andi	a5,a0,7
   118ac:	08079263          	bnez	a5,11930 <memcpy+0xc4>
   118b0:	00050793          	mv	a5,a0
   118b4:	ff877693          	andi	a3,a4,-8
   118b8:	fc068613          	addi	a2,a3,-64
   118bc:	08c7f663          	bgeu	a5,a2,11948 <memcpy+0xdc>
   118c0:	0005b383          	ld	t2,0(a1)
   118c4:	0085b283          	ld	t0,8(a1)
   118c8:	0105bf83          	ld	t6,16(a1)
   118cc:	0185bf03          	ld	t5,24(a1)
   118d0:	0205be83          	ld	t4,32(a1)
   118d4:	0285be03          	ld	t3,40(a1)
   118d8:	0305b303          	ld	t1,48(a1)
   118dc:	0385b883          	ld	a7,56(a1)
   118e0:	04858593          	addi	a1,a1,72
   118e4:	04878793          	addi	a5,a5,72
   118e8:	ff85b803          	ld	a6,-8(a1)
   118ec:	fa77bc23          	sd	t2,-72(a5)
   118f0:	fc57b023          	sd	t0,-64(a5)
   118f4:	fdf7b423          	sd	t6,-56(a5)
   118f8:	fde7b823          	sd	t5,-48(a5)
   118fc:	fdd7bc23          	sd	t4,-40(a5)
   11900:	ffc7b023          	sd	t3,-32(a5)
   11904:	fe67b423          	sd	t1,-24(a5)
   11908:	ff17b823          	sd	a7,-16(a5)
   1190c:	ff07bc23          	sd	a6,-8(a5)
   11910:	fadff06f          	j	118bc <memcpy+0x50>
   11914:	0005c683          	lbu	a3,0(a1)
   11918:	00178793          	addi	a5,a5,1
   1191c:	00158593          	addi	a1,a1,1
   11920:	fed78fa3          	sb	a3,-1(a5)
   11924:	0077f693          	andi	a3,a5,7
   11928:	fe0696e3          	bnez	a3,11914 <memcpy+0xa8>
   1192c:	f89ff06f          	j	118b4 <memcpy+0x48>
   11930:	00050793          	mv	a5,a0
   11934:	ff1ff06f          	j	11924 <memcpy+0xb8>
   11938:	0005b603          	ld	a2,0(a1)
   1193c:	00878793          	addi	a5,a5,8
   11940:	00858593          	addi	a1,a1,8
   11944:	fec7bc23          	sd	a2,-8(a5)
   11948:	fed7e8e3          	bltu	a5,a3,11938 <memcpy+0xcc>
   1194c:	f4e7eae3          	bltu	a5,a4,118a0 <memcpy+0x34>
   11950:	00008067          	ret

0000000000011954 <memset>:
   11954:	00f00313          	li	t1,15
   11958:	00050713          	mv	a4,a0
   1195c:	02c37a63          	bgeu	t1,a2,11990 <memset+0x3c>
   11960:	00f77793          	andi	a5,a4,15
   11964:	0a079063          	bnez	a5,11a04 <memset+0xb0>
   11968:	06059e63          	bnez	a1,119e4 <memset+0x90>
   1196c:	ff067693          	andi	a3,a2,-16
   11970:	00f67613          	andi	a2,a2,15
   11974:	00e686b3          	add	a3,a3,a4
   11978:	00b73023          	sd	a1,0(a4)
   1197c:	00b73423          	sd	a1,8(a4)
   11980:	01070713          	addi	a4,a4,16
   11984:	fed76ae3          	bltu	a4,a3,11978 <memset+0x24>
   11988:	00061463          	bnez	a2,11990 <memset+0x3c>
   1198c:	00008067          	ret
   11990:	40c306b3          	sub	a3,t1,a2
   11994:	00269693          	slli	a3,a3,0x2
   11998:	00000297          	auipc	t0,0x0
   1199c:	005686b3          	add	a3,a3,t0
   119a0:	00c68067          	jr	12(a3)
   119a4:	00b70723          	sb	a1,14(a4)
   119a8:	00b706a3          	sb	a1,13(a4)
   119ac:	00b70623          	sb	a1,12(a4)
   119b0:	00b705a3          	sb	a1,11(a4)
   119b4:	00b70523          	sb	a1,10(a4)
   119b8:	00b704a3          	sb	a1,9(a4)
   119bc:	00b70423          	sb	a1,8(a4)
   119c0:	00b703a3          	sb	a1,7(a4)
   119c4:	00b70323          	sb	a1,6(a4)
   119c8:	00b702a3          	sb	a1,5(a4)
   119cc:	00b70223          	sb	a1,4(a4)
   119d0:	00b701a3          	sb	a1,3(a4)
   119d4:	00b70123          	sb	a1,2(a4)
   119d8:	00b700a3          	sb	a1,1(a4)
   119dc:	00b70023          	sb	a1,0(a4)
   119e0:	00008067          	ret
   119e4:	0ff5f593          	zext.b	a1,a1
   119e8:	00859693          	slli	a3,a1,0x8
   119ec:	00d5e5b3          	or	a1,a1,a3
   119f0:	01059693          	slli	a3,a1,0x10
   119f4:	00d5e5b3          	or	a1,a1,a3
   119f8:	02059693          	slli	a3,a1,0x20
   119fc:	00d5e5b3          	or	a1,a1,a3
   11a00:	f6dff06f          	j	1196c <memset+0x18>
   11a04:	00279693          	slli	a3,a5,0x2
   11a08:	00000297          	auipc	t0,0x0
   11a0c:	005686b3          	add	a3,a3,t0
   11a10:	00008293          	mv	t0,ra
   11a14:	f98680e7          	jalr	-104(a3)
   11a18:	00028093          	mv	ra,t0
   11a1c:	ff078793          	addi	a5,a5,-16
   11a20:	40f70733          	sub	a4,a4,a5
   11a24:	00f60633          	add	a2,a2,a5
   11a28:	f6c374e3          	bgeu	t1,a2,11990 <memset+0x3c>
   11a2c:	f3dff06f          	j	11968 <memset+0x14>

0000000000011a30 <_printf_r>:
   11a30:	fb010113          	addi	sp,sp,-80
   11a34:	02c13023          	sd	a2,32(sp)
   11a38:	02d13423          	sd	a3,40(sp)
   11a3c:	02e13823          	sd	a4,48(sp)
   11a40:	02f13c23          	sd	a5,56(sp)
   11a44:	05013023          	sd	a6,64(sp)
   11a48:	05113423          	sd	a7,72(sp)
   11a4c:	00058613          	mv	a2,a1
   11a50:	01053583          	ld	a1,16(a0)
   11a54:	02010693          	addi	a3,sp,32
   11a58:	00113c23          	sd	ra,24(sp)
   11a5c:	00d13423          	sd	a3,8(sp)
   11a60:	294000ef          	jal	ra,11cf4 <_vfprintf_r>
   11a64:	01813083          	ld	ra,24(sp)
   11a68:	05010113          	addi	sp,sp,80
   11a6c:	00008067          	ret

0000000000011a70 <printf>:
   11a70:	fa010113          	addi	sp,sp,-96
   11a74:	04f13423          	sd	a5,72(sp)
   11a78:	8301b783          	ld	a5,-2000(gp) # 22500 <_impure_ptr>
   11a7c:	02c13823          	sd	a2,48(sp)
   11a80:	02d13c23          	sd	a3,56(sp)
   11a84:	02b13423          	sd	a1,40(sp)
   11a88:	04e13023          	sd	a4,64(sp)
   11a8c:	05013823          	sd	a6,80(sp)
   11a90:	05113c23          	sd	a7,88(sp)
   11a94:	0107b583          	ld	a1,16(a5)
   11a98:	02810693          	addi	a3,sp,40
   11a9c:	00050613          	mv	a2,a0
   11aa0:	00078513          	mv	a0,a5
   11aa4:	00113c23          	sd	ra,24(sp)
   11aa8:	00d13423          	sd	a3,8(sp)
   11aac:	248000ef          	jal	ra,11cf4 <_vfprintf_r>
   11ab0:	01813083          	ld	ra,24(sp)
   11ab4:	06010113          	addi	sp,sp,96
   11ab8:	00008067          	ret

0000000000011abc <_putchar_r>:
   11abc:	01053603          	ld	a2,16(a0)
   11ac0:	22d0606f          	j	184ec <_putc_r>

0000000000011ac4 <putchar>:
   11ac4:	8301b783          	ld	a5,-2000(gp) # 22500 <_impure_ptr>
   11ac8:	00050593          	mv	a1,a0
   11acc:	0107b603          	ld	a2,16(a5)
   11ad0:	00078513          	mv	a0,a5
   11ad4:	2190606f          	j	184ec <_putc_r>

0000000000011ad8 <_puts_r>:
   11ad8:	fa010113          	addi	sp,sp,-96
   11adc:	04813823          	sd	s0,80(sp)
   11ae0:	00050413          	mv	s0,a0
   11ae4:	00058513          	mv	a0,a1
   11ae8:	00b13423          	sd	a1,8(sp)
   11aec:	04113c23          	sd	ra,88(sp)
   11af0:	1e8000ef          	jal	ra,11cd8 <strlen>
   11af4:	0001f7b7          	lui	a5,0x1f
   11af8:	6c878793          	addi	a5,a5,1736 # 1f6c8 <__clzdi2+0x698>
   11afc:	04f13023          	sd	a5,64(sp)
   11b00:	00100793          	li	a5,1
   11b04:	04f13423          	sd	a5,72(sp)
   11b08:	03010793          	addi	a5,sp,48
   11b0c:	00813583          	ld	a1,8(sp)
   11b10:	00f13c23          	sd	a5,24(sp)
   11b14:	00200793          	li	a5,2
   11b18:	02f12023          	sw	a5,32(sp)
   11b1c:	05042783          	lw	a5,80(s0)
   11b20:	02a13c23          	sd	a0,56(sp)
   11b24:	00150513          	addi	a0,a0,1
   11b28:	02b13823          	sd	a1,48(sp)
   11b2c:	02a13423          	sd	a0,40(sp)
   11b30:	01043583          	ld	a1,16(s0)
   11b34:	00079a63          	bnez	a5,11b48 <_puts_r+0x70>
   11b38:	00040513          	mv	a0,s0
   11b3c:	00b13423          	sd	a1,8(sp)
   11b40:	6b4020ef          	jal	ra,141f4 <__sinit>
   11b44:	00813583          	ld	a1,8(sp)
   11b48:	01059783          	lh	a5,16(a1)
   11b4c:	03279713          	slli	a4,a5,0x32
   11b50:	02074263          	bltz	a4,11b74 <_puts_r+0x9c>
   11b54:	000026b7          	lui	a3,0x2
   11b58:	0ac5a703          	lw	a4,172(a1)
   11b5c:	00d7e7b3          	or	a5,a5,a3
   11b60:	00f59823          	sh	a5,16(a1)
   11b64:	ffffe7b7          	lui	a5,0xffffe
   11b68:	fff78793          	addi	a5,a5,-1 # ffffffffffffdfff <_end+0xfffffffffffd9227>
   11b6c:	00f777b3          	and	a5,a4,a5
   11b70:	0af5a623          	sw	a5,172(a1)
   11b74:	01810613          	addi	a2,sp,24
   11b78:	00040513          	mv	a0,s0
   11b7c:	389020ef          	jal	ra,14704 <__sfvwrite_r>
   11b80:	fff00793          	li	a5,-1
   11b84:	00051463          	bnez	a0,11b8c <_puts_r+0xb4>
   11b88:	00a00793          	li	a5,10
   11b8c:	05813083          	ld	ra,88(sp)
   11b90:	05013403          	ld	s0,80(sp)
   11b94:	00078513          	mv	a0,a5
   11b98:	06010113          	addi	sp,sp,96
   11b9c:	00008067          	ret

0000000000011ba0 <puts>:
   11ba0:	00050593          	mv	a1,a0
   11ba4:	8301b503          	ld	a0,-2000(gp) # 22500 <_impure_ptr>
   11ba8:	f31ff06f          	j	11ad8 <_puts_r>

0000000000011bac <strcmp>:
   11bac:	00b56733          	or	a4,a0,a1
   11bb0:	fff00393          	li	t2,-1
   11bb4:	00777713          	andi	a4,a4,7
   11bb8:	0c071c63          	bnez	a4,11c90 <strcmp+0xe4>
   11bbc:	00011797          	auipc	a5,0x11
   11bc0:	9147b783          	ld	a5,-1772(a5) # 224d0 <__TMC_END__>
   11bc4:	00053603          	ld	a2,0(a0)
   11bc8:	0005b683          	ld	a3,0(a1)
   11bcc:	00f672b3          	and	t0,a2,a5
   11bd0:	00f66333          	or	t1,a2,a5
   11bd4:	00f282b3          	add	t0,t0,a5
   11bd8:	0062e2b3          	or	t0,t0,t1
   11bdc:	0c729e63          	bne	t0,t2,11cb8 <strcmp+0x10c>
   11be0:	04d61663          	bne	a2,a3,11c2c <strcmp+0x80>
   11be4:	00853603          	ld	a2,8(a0)
   11be8:	0085b683          	ld	a3,8(a1)
   11bec:	00f672b3          	and	t0,a2,a5
   11bf0:	00f66333          	or	t1,a2,a5
   11bf4:	00f282b3          	add	t0,t0,a5
   11bf8:	0062e2b3          	or	t0,t0,t1
   11bfc:	0a729a63          	bne	t0,t2,11cb0 <strcmp+0x104>
   11c00:	02d61663          	bne	a2,a3,11c2c <strcmp+0x80>
   11c04:	01053603          	ld	a2,16(a0)
   11c08:	0105b683          	ld	a3,16(a1)
   11c0c:	00f672b3          	and	t0,a2,a5
   11c10:	00f66333          	or	t1,a2,a5
   11c14:	00f282b3          	add	t0,t0,a5
   11c18:	0062e2b3          	or	t0,t0,t1
   11c1c:	0a729463          	bne	t0,t2,11cc4 <strcmp+0x118>
   11c20:	01850513          	addi	a0,a0,24
   11c24:	01858593          	addi	a1,a1,24
   11c28:	f8d60ee3          	beq	a2,a3,11bc4 <strcmp+0x18>
   11c2c:	03061713          	slli	a4,a2,0x30
   11c30:	03069793          	slli	a5,a3,0x30
   11c34:	02f71a63          	bne	a4,a5,11c68 <strcmp+0xbc>
   11c38:	02061713          	slli	a4,a2,0x20
   11c3c:	02069793          	slli	a5,a3,0x20
   11c40:	02f71463          	bne	a4,a5,11c68 <strcmp+0xbc>
   11c44:	01061713          	slli	a4,a2,0x10
   11c48:	01069793          	slli	a5,a3,0x10
   11c4c:	00f71e63          	bne	a4,a5,11c68 <strcmp+0xbc>
   11c50:	03065713          	srli	a4,a2,0x30
   11c54:	0306d793          	srli	a5,a3,0x30
   11c58:	40f70533          	sub	a0,a4,a5
   11c5c:	0ff57593          	zext.b	a1,a0
   11c60:	02059063          	bnez	a1,11c80 <strcmp+0xd4>
   11c64:	00008067          	ret
   11c68:	03075713          	srli	a4,a4,0x30
   11c6c:	0307d793          	srli	a5,a5,0x30
   11c70:	40f70533          	sub	a0,a4,a5
   11c74:	0ff57593          	zext.b	a1,a0
   11c78:	00059463          	bnez	a1,11c80 <strcmp+0xd4>
   11c7c:	00008067          	ret
   11c80:	0ff77713          	zext.b	a4,a4
   11c84:	0ff7f793          	zext.b	a5,a5
   11c88:	40f70533          	sub	a0,a4,a5
   11c8c:	00008067          	ret
   11c90:	00054603          	lbu	a2,0(a0)
   11c94:	0005c683          	lbu	a3,0(a1)
   11c98:	00150513          	addi	a0,a0,1
   11c9c:	00158593          	addi	a1,a1,1
   11ca0:	00d61463          	bne	a2,a3,11ca8 <strcmp+0xfc>
   11ca4:	fe0616e3          	bnez	a2,11c90 <strcmp+0xe4>
   11ca8:	40d60533          	sub	a0,a2,a3
   11cac:	00008067          	ret
   11cb0:	00850513          	addi	a0,a0,8
   11cb4:	00858593          	addi	a1,a1,8
   11cb8:	fcd61ce3          	bne	a2,a3,11c90 <strcmp+0xe4>
   11cbc:	00000513          	li	a0,0
   11cc0:	00008067          	ret
   11cc4:	01050513          	addi	a0,a0,16
   11cc8:	01058593          	addi	a1,a1,16
   11ccc:	fcd612e3          	bne	a2,a3,11c90 <strcmp+0xe4>
   11cd0:	00000513          	li	a0,0
   11cd4:	00008067          	ret

0000000000011cd8 <strlen>:
   11cd8:	00050793          	mv	a5,a0
   11cdc:	00178793          	addi	a5,a5,1
   11ce0:	fff7c703          	lbu	a4,-1(a5)
   11ce4:	fe071ce3          	bnez	a4,11cdc <strlen+0x4>
   11ce8:	40a78533          	sub	a0,a5,a0
   11cec:	fff50513          	addi	a0,a0,-1
   11cf0:	00008067          	ret

0000000000011cf4 <_vfprintf_r>:
   11cf4:	d9010113          	addi	sp,sp,-624
   11cf8:	26113423          	sd	ra,616(sp)
   11cfc:	24913c23          	sd	s1,600(sp)
   11d00:	25213823          	sd	s2,592(sp)
   11d04:	25313423          	sd	s3,584(sp)
   11d08:	23713423          	sd	s7,552(sp)
   11d0c:	00058913          	mv	s2,a1
   11d10:	00060493          	mv	s1,a2
   11d14:	00068b93          	mv	s7,a3
   11d18:	26813023          	sd	s0,608(sp)
   11d1c:	25413023          	sd	s4,576(sp)
   11d20:	23513c23          	sd	s5,568(sp)
   11d24:	23613823          	sd	s6,560(sp)
   11d28:	23813023          	sd	s8,544(sp)
   11d2c:	21913c23          	sd	s9,536(sp)
   11d30:	21a13823          	sd	s10,528(sp)
   11d34:	21b13423          	sd	s11,520(sp)
   11d38:	00050993          	mv	s3,a0
   11d3c:	7ad040ef          	jal	ra,16ce8 <_localeconv_r>
   11d40:	00053783          	ld	a5,0(a0)
   11d44:	00078513          	mv	a0,a5
   11d48:	04f13423          	sd	a5,72(sp)
   11d4c:	f8dff0ef          	jal	ra,11cd8 <strlen>
   11d50:	00a13c23          	sd	a0,24(sp)
   11d54:	0e013823          	sd	zero,240(sp)
   11d58:	0e013c23          	sd	zero,248(sp)
   11d5c:	00098a63          	beqz	s3,11d70 <_vfprintf_r+0x7c>
   11d60:	0509a783          	lw	a5,80(s3)
   11d64:	00079663          	bnez	a5,11d70 <_vfprintf_r+0x7c>
   11d68:	00098513          	mv	a0,s3
   11d6c:	488020ef          	jal	ra,141f4 <__sinit>
   11d70:	01091783          	lh	a5,16(s2)
   11d74:	03279713          	slli	a4,a5,0x32
   11d78:	02074263          	bltz	a4,11d9c <_vfprintf_r+0xa8>
   11d7c:	000026b7          	lui	a3,0x2
   11d80:	0ac92703          	lw	a4,172(s2)
   11d84:	00d7e7b3          	or	a5,a5,a3
   11d88:	00f91823          	sh	a5,16(s2)
   11d8c:	ffffe7b7          	lui	a5,0xffffe
   11d90:	fff78793          	addi	a5,a5,-1 # ffffffffffffdfff <_end+0xfffffffffffd9227>
   11d94:	00f777b3          	and	a5,a4,a5
   11d98:	0af92623          	sw	a5,172(s2)
   11d9c:	01095783          	lhu	a5,16(s2)
   11da0:	0087f793          	andi	a5,a5,8
   11da4:	06078e63          	beqz	a5,11e20 <_vfprintf_r+0x12c>
   11da8:	01893783          	ld	a5,24(s2)
   11dac:	06078a63          	beqz	a5,11e20 <_vfprintf_r+0x12c>
   11db0:	01095783          	lhu	a5,16(s2)
   11db4:	00a00713          	li	a4,10
   11db8:	01a7f793          	andi	a5,a5,26
   11dbc:	08e79063          	bne	a5,a4,11e3c <_vfprintf_r+0x148>
   11dc0:	01291783          	lh	a5,18(s2)
   11dc4:	0607cc63          	bltz	a5,11e3c <_vfprintf_r+0x148>
   11dc8:	000b8693          	mv	a3,s7
   11dcc:	00048613          	mv	a2,s1
   11dd0:	00090593          	mv	a1,s2
   11dd4:	00098513          	mv	a0,s3
   11dd8:	501010ef          	jal	ra,13ad8 <__sbprintf>
   11ddc:	02a13423          	sd	a0,40(sp)
   11de0:	26813083          	ld	ra,616(sp)
   11de4:	26013403          	ld	s0,608(sp)
   11de8:	02813503          	ld	a0,40(sp)
   11dec:	25813483          	ld	s1,600(sp)
   11df0:	25013903          	ld	s2,592(sp)
   11df4:	24813983          	ld	s3,584(sp)
   11df8:	24013a03          	ld	s4,576(sp)
   11dfc:	23813a83          	ld	s5,568(sp)
   11e00:	23013b03          	ld	s6,560(sp)
   11e04:	22813b83          	ld	s7,552(sp)
   11e08:	22013c03          	ld	s8,544(sp)
   11e0c:	21813c83          	ld	s9,536(sp)
   11e10:	21013d03          	ld	s10,528(sp)
   11e14:	20813d83          	ld	s11,520(sp)
   11e18:	27010113          	addi	sp,sp,624
   11e1c:	00008067          	ret
   11e20:	00090593          	mv	a1,s2
   11e24:	00098513          	mv	a0,s3
   11e28:	56d010ef          	jal	ra,13b94 <__swsetup_r>
   11e2c:	f80502e3          	beqz	a0,11db0 <_vfprintf_r+0xbc>
   11e30:	fff00793          	li	a5,-1
   11e34:	02f13423          	sd	a5,40(sp)
   11e38:	fa9ff06f          	j	11de0 <_vfprintf_r+0xec>
   11e3c:	0001f7b7          	lui	a5,0x1f
   11e40:	6d078793          	addi	a5,a5,1744 # 1f6d0 <__clzdi2+0x6a0>
   11e44:	08f13c23          	sd	a5,152(sp)
   11e48:	000207b7          	lui	a5,0x20
   11e4c:	8687b783          	ld	a5,-1944(a5) # 1f868 <zeroes.4441+0x18>
   11e50:	18010a93          	addi	s5,sp,384
   11e54:	11513023          	sd	s5,256(sp)
   11e58:	0af13023          	sd	a5,160(sp)
   11e5c:	000207b7          	lui	a5,0x20
   11e60:	8787b783          	ld	a5,-1928(a5) # 1f878 <zeroes.4441+0x28>
   11e64:	10013823          	sd	zero,272(sp)
   11e68:	10012423          	sw	zero,264(sp)
   11e6c:	0af13423          	sd	a5,168(sp)
   11e70:	000207b7          	lui	a5,0x20
   11e74:	8887b783          	ld	a5,-1912(a5) # 1f888 <zeroes.4441+0x38>
   11e78:	00000a13          	li	s4,0
   11e7c:	000a8c93          	mv	s9,s5
   11e80:	06013023          	sd	zero,96(sp)
   11e84:	04013c23          	sd	zero,88(sp)
   11e88:	00013023          	sd	zero,0(sp)
   11e8c:	04013023          	sd	zero,64(sp)
   11e90:	04013823          	sd	zero,80(sp)
   11e94:	02013423          	sd	zero,40(sp)
   11e98:	08f13823          	sd	a5,144(sp)
   11e9c:	00048413          	mv	s0,s1
   11ea0:	02500713          	li	a4,37
   11ea4:	00044783          	lbu	a5,0(s0)
   11ea8:	00078463          	beqz	a5,11eb0 <_vfprintf_r+0x1bc>
   11eac:	0ce79063          	bne	a5,a4,11f6c <_vfprintf_r+0x278>
   11eb0:	40940b3b          	subw	s6,s0,s1
   11eb4:	040b0a63          	beqz	s6,11f08 <_vfprintf_r+0x214>
   11eb8:	11013783          	ld	a5,272(sp)
   11ebc:	009cb023          	sd	s1,0(s9)
   11ec0:	016cb423          	sd	s6,8(s9)
   11ec4:	016787b3          	add	a5,a5,s6
   11ec8:	10f13823          	sd	a5,272(sp)
   11ecc:	10812783          	lw	a5,264(sp)
   11ed0:	010c8c93          	addi	s9,s9,16
   11ed4:	0017871b          	addiw	a4,a5,1
   11ed8:	10e12423          	sw	a4,264(sp)
   11edc:	00700793          	li	a5,7
   11ee0:	00e7de63          	bge	a5,a4,11efc <_vfprintf_r+0x208>
   11ee4:	10010613          	addi	a2,sp,256
   11ee8:	00090593          	mv	a1,s2
   11eec:	00098513          	mv	a0,s3
   11ef0:	4c5080ef          	jal	ra,1abb4 <__sprint_r>
   11ef4:	70051e63          	bnez	a0,12610 <_vfprintf_r+0x91c>
   11ef8:	000a8c93          	mv	s9,s5
   11efc:	02812783          	lw	a5,40(sp)
   11f00:	016787bb          	addw	a5,a5,s6
   11f04:	02f13423          	sd	a5,40(sp)
   11f08:	00044783          	lbu	a5,0(s0)
   11f0c:	00079463          	bnez	a5,11f14 <_vfprintf_r+0x220>
   11f10:	3950106f          	j	13aa4 <_vfprintf_r+0x1db0>
   11f14:	00140793          	addi	a5,s0,1
   11f18:	0c0107a3          	sb	zero,207(sp)
   11f1c:	fff00d93          	li	s11,-1
   11f20:	02013023          	sd	zero,32(sp)
   11f24:	00000413          	li	s0,0
   11f28:	05a00d13          	li	s10,90
   11f2c:	00a00c13          	li	s8,10
   11f30:	0007cb03          	lbu	s6,0(a5)
   11f34:	00178713          	addi	a4,a5,1
   11f38:	00e13823          	sd	a4,16(sp)
   11f3c:	00900693          	li	a3,9
   11f40:	02a00613          	li	a2,42
   11f44:	fe0b079b          	addiw	a5,s6,-32
   11f48:	0007871b          	sext.w	a4,a5
   11f4c:	00ed7463          	bgeu	s10,a4,11f54 <_vfprintf_r+0x260>
   11f50:	7e90006f          	j	12f38 <_vfprintf_r+0x1244>
   11f54:	09813703          	ld	a4,152(sp)
   11f58:	02079793          	slli	a5,a5,0x20
   11f5c:	01e7d793          	srli	a5,a5,0x1e
   11f60:	00e787b3          	add	a5,a5,a4
   11f64:	0007a783          	lw	a5,0(a5)
   11f68:	00078067          	jr	a5
   11f6c:	00140413          	addi	s0,s0,1
   11f70:	f35ff06f          	j	11ea4 <_vfprintf_r+0x1b0>
   11f74:	000207b7          	lui	a5,0x20
   11f78:	8c878793          	addi	a5,a5,-1848 # 1f8c8 <zeroes.4441+0x78>
   11f7c:	06f13023          	sd	a5,96(sp)
   11f80:	008b8793          	addi	a5,s7,8
   11f84:	02f13823          	sd	a5,48(sp)
   11f88:	02047793          	andi	a5,s0,32
   11f8c:	60078ce3          	beqz	a5,12da4 <_vfprintf_r+0x10b0>
   11f90:	000bbb83          	ld	s7,0(s7)
   11f94:	00147793          	andi	a5,s0,1
   11f98:	00078e63          	beqz	a5,11fb4 <_vfprintf_r+0x2c0>
   11f9c:	000b8c63          	beqz	s7,11fb4 <_vfprintf_r+0x2c0>
   11fa0:	03000793          	li	a5,48
   11fa4:	00246413          	ori	s0,s0,2
   11fa8:	0cf10823          	sb	a5,208(sp)
   11fac:	0d6108a3          	sb	s6,209(sp)
   11fb0:	0004041b          	sext.w	s0,s0
   11fb4:	bff47413          	andi	s0,s0,-1025
   11fb8:	0004041b          	sext.w	s0,s0
   11fbc:	00200793          	li	a5,2
   11fc0:	48d0006f          	j	12c4c <_vfprintf_r+0xf58>
   11fc4:	00098513          	mv	a0,s3
   11fc8:	521040ef          	jal	ra,16ce8 <_localeconv_r>
   11fcc:	00853783          	ld	a5,8(a0)
   11fd0:	00078513          	mv	a0,a5
   11fd4:	04f13823          	sd	a5,80(sp)
   11fd8:	d01ff0ef          	jal	ra,11cd8 <strlen>
   11fdc:	04a13023          	sd	a0,64(sp)
   11fe0:	00098513          	mv	a0,s3
   11fe4:	505040ef          	jal	ra,16ce8 <_localeconv_r>
   11fe8:	01053783          	ld	a5,16(a0)
   11fec:	00f13023          	sd	a5,0(sp)
   11ff0:	04013783          	ld	a5,64(sp)
   11ff4:	02078863          	beqz	a5,12024 <_vfprintf_r+0x330>
   11ff8:	00013783          	ld	a5,0(sp)
   11ffc:	02078463          	beqz	a5,12024 <_vfprintf_r+0x330>
   12000:	0007c783          	lbu	a5,0(a5)
   12004:	02078063          	beqz	a5,12024 <_vfprintf_r+0x330>
   12008:	40046413          	ori	s0,s0,1024
   1200c:	0004041b          	sext.w	s0,s0
   12010:	0140006f          	j	12024 <_vfprintf_r+0x330>
   12014:	0cf14783          	lbu	a5,207(sp)
   12018:	00079663          	bnez	a5,12024 <_vfprintf_r+0x330>
   1201c:	02000793          	li	a5,32
   12020:	0cf107a3          	sb	a5,207(sp)
   12024:	01013783          	ld	a5,16(sp)
   12028:	f09ff06f          	j	11f30 <_vfprintf_r+0x23c>
   1202c:	00146413          	ori	s0,s0,1
   12030:	fddff06f          	j	1200c <_vfprintf_r+0x318>
   12034:	000ba783          	lw	a5,0(s7)
   12038:	008b8b93          	addi	s7,s7,8
   1203c:	02f13023          	sd	a5,32(sp)
   12040:	fe07d2e3          	bgez	a5,12024 <_vfprintf_r+0x330>
   12044:	02012783          	lw	a5,32(sp)
   12048:	40f007bb          	negw	a5,a5
   1204c:	02f13023          	sd	a5,32(sp)
   12050:	00446413          	ori	s0,s0,4
   12054:	fb9ff06f          	j	1200c <_vfprintf_r+0x318>
   12058:	02b00793          	li	a5,43
   1205c:	fc5ff06f          	j	12020 <_vfprintf_r+0x32c>
   12060:	01013703          	ld	a4,16(sp)
   12064:	01013783          	ld	a5,16(sp)
   12068:	00074b03          	lbu	s6,0(a4)
   1206c:	00178793          	addi	a5,a5,1
   12070:	04cb1463          	bne	s6,a2,120b8 <_vfprintf_r+0x3c4>
   12074:	000bae03          	lw	t3,0(s7)
   12078:	008b8713          	addi	a4,s7,8
   1207c:	000e5463          	bgez	t3,12084 <_vfprintf_r+0x390>
   12080:	fff00e13          	li	t3,-1
   12084:	000e0d9b          	sext.w	s11,t3
   12088:	00070b93          	mv	s7,a4
   1208c:	00f13823          	sd	a5,16(sp)
   12090:	f95ff06f          	j	12024 <_vfprintf_r+0x330>
   12094:	03bc0e3b          	mulw	t3,s8,s11
   12098:	00178793          	addi	a5,a5,1
   1209c:	fff7cb03          	lbu	s6,-1(a5)
   120a0:	00ee0dbb          	addw	s11,t3,a4
   120a4:	fd0b059b          	addiw	a1,s6,-48
   120a8:	00058713          	mv	a4,a1
   120ac:	feb6f4e3          	bgeu	a3,a1,12094 <_vfprintf_r+0x3a0>
   120b0:	00f13823          	sd	a5,16(sp)
   120b4:	e91ff06f          	j	11f44 <_vfprintf_r+0x250>
   120b8:	00000d93          	li	s11,0
   120bc:	fe9ff06f          	j	120a4 <_vfprintf_r+0x3b0>
   120c0:	08046413          	ori	s0,s0,128
   120c4:	f49ff06f          	j	1200c <_vfprintf_r+0x318>
   120c8:	01013783          	ld	a5,16(sp)
   120cc:	02013023          	sd	zero,32(sp)
   120d0:	02012703          	lw	a4,32(sp)
   120d4:	fd0b0b1b          	addiw	s6,s6,-48
   120d8:	00178793          	addi	a5,a5,1
   120dc:	02ec073b          	mulw	a4,s8,a4
   120e0:	00eb073b          	addw	a4,s6,a4
   120e4:	fff7cb03          	lbu	s6,-1(a5)
   120e8:	02e13023          	sd	a4,32(sp)
   120ec:	fd0b071b          	addiw	a4,s6,-48
   120f0:	fee6f0e3          	bgeu	a3,a4,120d0 <_vfprintf_r+0x3dc>
   120f4:	fbdff06f          	j	120b0 <_vfprintf_r+0x3bc>
   120f8:	00846413          	ori	s0,s0,8
   120fc:	f11ff06f          	j	1200c <_vfprintf_r+0x318>
   12100:	01013783          	ld	a5,16(sp)
   12104:	0007c703          	lbu	a4,0(a5)
   12108:	06800793          	li	a5,104
   1210c:	00f71c63          	bne	a4,a5,12124 <_vfprintf_r+0x430>
   12110:	01013783          	ld	a5,16(sp)
   12114:	20046413          	ori	s0,s0,512
   12118:	00178793          	addi	a5,a5,1
   1211c:	00f13823          	sd	a5,16(sp)
   12120:	eedff06f          	j	1200c <_vfprintf_r+0x318>
   12124:	04046413          	ori	s0,s0,64
   12128:	ee5ff06f          	j	1200c <_vfprintf_r+0x318>
   1212c:	01013783          	ld	a5,16(sp)
   12130:	0007c703          	lbu	a4,0(a5)
   12134:	06c00793          	li	a5,108
   12138:	00f71c63          	bne	a4,a5,12150 <_vfprintf_r+0x45c>
   1213c:	01013783          	ld	a5,16(sp)
   12140:	00178793          	addi	a5,a5,1
   12144:	00f13823          	sd	a5,16(sp)
   12148:	02046413          	ori	s0,s0,32
   1214c:	ec1ff06f          	j	1200c <_vfprintf_r+0x318>
   12150:	01046413          	ori	s0,s0,16
   12154:	eb9ff06f          	j	1200c <_vfprintf_r+0x318>
   12158:	008b8793          	addi	a5,s7,8
   1215c:	02f13823          	sd	a5,48(sp)
   12160:	000ba783          	lw	a5,0(s7)
   12164:	0c0107a3          	sb	zero,207(sp)
   12168:	10f10c23          	sb	a5,280(sp)
   1216c:	00000b93          	li	s7,0
   12170:	00100d93          	li	s11,1
   12174:	00000713          	li	a4,0
   12178:	00013423          	sd	zero,8(sp)
   1217c:	00000c13          	li	s8,0
   12180:	00000d13          	li	s10,0
   12184:	11810493          	addi	s1,sp,280
   12188:	00070693          	mv	a3,a4
   1218c:	01b75463          	bge	a4,s11,12194 <_vfprintf_r+0x4a0>
   12190:	000d8693          	mv	a3,s11
   12194:	0cf14603          	lbu	a2,207(sp)
   12198:	0006879b          	sext.w	a5,a3
   1219c:	02f13c23          	sd	a5,56(sp)
   121a0:	00060663          	beqz	a2,121ac <_vfprintf_r+0x4b8>
   121a4:	0016879b          	addiw	a5,a3,1
   121a8:	02f13c23          	sd	a5,56(sp)
   121ac:	00247693          	andi	a3,s0,2
   121b0:	0006879b          	sext.w	a5,a3
   121b4:	06f13423          	sd	a5,104(sp)
   121b8:	00078863          	beqz	a5,121c8 <_vfprintf_r+0x4d4>
   121bc:	03812783          	lw	a5,56(sp)
   121c0:	0027879b          	addiw	a5,a5,2
   121c4:	02f13c23          	sd	a5,56(sp)
   121c8:	08447793          	andi	a5,s0,132
   121cc:	06f13823          	sd	a5,112(sp)
   121d0:	08079063          	bnez	a5,12250 <_vfprintf_r+0x55c>
   121d4:	02012783          	lw	a5,32(sp)
   121d8:	03812683          	lw	a3,56(sp)
   121dc:	40d786bb          	subw	a3,a5,a3
   121e0:	06d05863          	blez	a3,12250 <_vfprintf_r+0x55c>
   121e4:	00020837          	lui	a6,0x20
   121e8:	01000893          	li	a7,16
   121ec:	84080813          	addi	a6,a6,-1984 # 1f840 <blanks.4440>
   121f0:	00700e93          	li	t4,7
   121f4:	10812583          	lw	a1,264(sp)
   121f8:	010cb023          	sd	a6,0(s9)
   121fc:	11013603          	ld	a2,272(sp)
   12200:	0015851b          	addiw	a0,a1,1
   12204:	00050593          	mv	a1,a0
   12208:	010c8f13          	addi	t5,s9,16
   1220c:	54d8c0e3          	blt	a7,a3,12f4c <_vfprintf_r+0x1258>
   12210:	00dcb423          	sd	a3,8(s9)
   12214:	00c686b3          	add	a3,a3,a2
   12218:	10d13823          	sd	a3,272(sp)
   1221c:	10a12423          	sw	a0,264(sp)
   12220:	00700693          	li	a3,7
   12224:	000f0c93          	mv	s9,t5
   12228:	02a6d463          	bge	a3,a0,12250 <_vfprintf_r+0x55c>
   1222c:	10010613          	addi	a2,sp,256
   12230:	00090593          	mv	a1,s2
   12234:	00098513          	mv	a0,s3
   12238:	06e13c23          	sd	a4,120(sp)
   1223c:	179080ef          	jal	ra,1abb4 <__sprint_r>
   12240:	00050463          	beqz	a0,12248 <_vfprintf_r+0x554>
   12244:	0010106f          	j	13a44 <_vfprintf_r+0x1d50>
   12248:	07813703          	ld	a4,120(sp)
   1224c:	000a8c93          	mv	s9,s5
   12250:	0cf14683          	lbu	a3,207(sp)
   12254:	04068e63          	beqz	a3,122b0 <_vfprintf_r+0x5bc>
   12258:	0cf10693          	addi	a3,sp,207
   1225c:	00dcb023          	sd	a3,0(s9)
   12260:	00100693          	li	a3,1
   12264:	00dcb423          	sd	a3,8(s9)
   12268:	11013683          	ld	a3,272(sp)
   1226c:	010c8c93          	addi	s9,s9,16
   12270:	00168693          	addi	a3,a3,1 # 2001 <threadsense.2706+0x2001>
   12274:	10d13823          	sd	a3,272(sp)
   12278:	10812683          	lw	a3,264(sp)
   1227c:	0016861b          	addiw	a2,a3,1
   12280:	10c12423          	sw	a2,264(sp)
   12284:	00700693          	li	a3,7
   12288:	02c6d463          	bge	a3,a2,122b0 <_vfprintf_r+0x5bc>
   1228c:	10010613          	addi	a2,sp,256
   12290:	00090593          	mv	a1,s2
   12294:	00098513          	mv	a0,s3
   12298:	06e13c23          	sd	a4,120(sp)
   1229c:	119080ef          	jal	ra,1abb4 <__sprint_r>
   122a0:	00050463          	beqz	a0,122a8 <_vfprintf_r+0x5b4>
   122a4:	7a00106f          	j	13a44 <_vfprintf_r+0x1d50>
   122a8:	07813703          	ld	a4,120(sp)
   122ac:	000a8c93          	mv	s9,s5
   122b0:	06813783          	ld	a5,104(sp)
   122b4:	04078e63          	beqz	a5,12310 <_vfprintf_r+0x61c>
   122b8:	0d010693          	addi	a3,sp,208
   122bc:	00dcb023          	sd	a3,0(s9)
   122c0:	00200693          	li	a3,2
   122c4:	00dcb423          	sd	a3,8(s9)
   122c8:	11013683          	ld	a3,272(sp)
   122cc:	010c8c93          	addi	s9,s9,16
   122d0:	00268693          	addi	a3,a3,2
   122d4:	10d13823          	sd	a3,272(sp)
   122d8:	10812683          	lw	a3,264(sp)
   122dc:	0016861b          	addiw	a2,a3,1
   122e0:	10c12423          	sw	a2,264(sp)
   122e4:	00700693          	li	a3,7
   122e8:	02c6d463          	bge	a3,a2,12310 <_vfprintf_r+0x61c>
   122ec:	10010613          	addi	a2,sp,256
   122f0:	00090593          	mv	a1,s2
   122f4:	00098513          	mv	a0,s3
   122f8:	06e13423          	sd	a4,104(sp)
   122fc:	0b9080ef          	jal	ra,1abb4 <__sprint_r>
   12300:	00050463          	beqz	a0,12308 <_vfprintf_r+0x614>
   12304:	7400106f          	j	13a44 <_vfprintf_r+0x1d50>
   12308:	06813703          	ld	a4,104(sp)
   1230c:	000a8c93          	mv	s9,s5
   12310:	07013783          	ld	a5,112(sp)
   12314:	08000693          	li	a3,128
   12318:	08d79063          	bne	a5,a3,12398 <_vfprintf_r+0x6a4>
   1231c:	02012783          	lw	a5,32(sp)
   12320:	03812683          	lw	a3,56(sp)
   12324:	40d786bb          	subw	a3,a5,a3
   12328:	06d05863          	blez	a3,12398 <_vfprintf_r+0x6a4>
   1232c:	00020837          	lui	a6,0x20
   12330:	01000893          	li	a7,16
   12334:	85080813          	addi	a6,a6,-1968 # 1f850 <zeroes.4441>
   12338:	00700e93          	li	t4,7
   1233c:	10812583          	lw	a1,264(sp)
   12340:	010cb023          	sd	a6,0(s9)
   12344:	11013603          	ld	a2,272(sp)
   12348:	0015851b          	addiw	a0,a1,1
   1234c:	00050593          	mv	a1,a0
   12350:	010c8f13          	addi	t5,s9,16
   12354:	44d8cce3          	blt	a7,a3,12fac <_vfprintf_r+0x12b8>
   12358:	00dcb423          	sd	a3,8(s9)
   1235c:	00c686b3          	add	a3,a3,a2
   12360:	10d13823          	sd	a3,272(sp)
   12364:	10a12423          	sw	a0,264(sp)
   12368:	00700693          	li	a3,7
   1236c:	000f0c93          	mv	s9,t5
   12370:	02a6d463          	bge	a3,a0,12398 <_vfprintf_r+0x6a4>
   12374:	10010613          	addi	a2,sp,256
   12378:	00090593          	mv	a1,s2
   1237c:	00098513          	mv	a0,s3
   12380:	06e13423          	sd	a4,104(sp)
   12384:	031080ef          	jal	ra,1abb4 <__sprint_r>
   12388:	00050463          	beqz	a0,12390 <_vfprintf_r+0x69c>
   1238c:	6b80106f          	j	13a44 <_vfprintf_r+0x1d50>
   12390:	06813703          	ld	a4,104(sp)
   12394:	000a8c93          	mv	s9,s5
   12398:	41b7073b          	subw	a4,a4,s11
   1239c:	06e05463          	blez	a4,12404 <_vfprintf_r+0x710>
   123a0:	00020837          	lui	a6,0x20
   123a4:	01000893          	li	a7,16
   123a8:	85080813          	addi	a6,a6,-1968 # 1f850 <zeroes.4441>
   123ac:	00700e93          	li	t4,7
   123b0:	10812603          	lw	a2,264(sp)
   123b4:	010cb023          	sd	a6,0(s9)
   123b8:	11013683          	ld	a3,272(sp)
   123bc:	0016059b          	addiw	a1,a2,1
   123c0:	00058613          	mv	a2,a1
   123c4:	010c8513          	addi	a0,s9,16
   123c8:	44e8c2e3          	blt	a7,a4,1300c <_vfprintf_r+0x1318>
   123cc:	00ecb423          	sd	a4,8(s9)
   123d0:	00d70733          	add	a4,a4,a3
   123d4:	10e13823          	sd	a4,272(sp)
   123d8:	10b12423          	sw	a1,264(sp)
   123dc:	00700713          	li	a4,7
   123e0:	00050c93          	mv	s9,a0
   123e4:	02b75063          	bge	a4,a1,12404 <_vfprintf_r+0x710>
   123e8:	10010613          	addi	a2,sp,256
   123ec:	00090593          	mv	a1,s2
   123f0:	00098513          	mv	a0,s3
   123f4:	7c0080ef          	jal	ra,1abb4 <__sprint_r>
   123f8:	00050463          	beqz	a0,12400 <_vfprintf_r+0x70c>
   123fc:	6480106f          	j	13a44 <_vfprintf_r+0x1d50>
   12400:	000a8c93          	mv	s9,s5
   12404:	10047693          	andi	a3,s0,256
   12408:	11013703          	ld	a4,272(sp)
   1240c:	44069ce3          	bnez	a3,13064 <_vfprintf_r+0x1370>
   12410:	10812783          	lw	a5,264(sp)
   12414:	00ed8e33          	add	t3,s11,a4
   12418:	009cb023          	sd	s1,0(s9)
   1241c:	0017871b          	addiw	a4,a5,1
   12420:	01bcb423          	sd	s11,8(s9)
   12424:	11c13823          	sd	t3,272(sp)
   12428:	10e12423          	sw	a4,264(sp)
   1242c:	00700793          	li	a5,7
   12430:	010c8c93          	addi	s9,s9,16
   12434:	54e7dae3          	bge	a5,a4,13188 <_vfprintf_r+0x1494>
   12438:	10010613          	addi	a2,sp,256
   1243c:	00090593          	mv	a1,s2
   12440:	00098513          	mv	a0,s3
   12444:	770080ef          	jal	ra,1abb4 <__sprint_r>
   12448:	00050463          	beqz	a0,12450 <_vfprintf_r+0x75c>
   1244c:	5f80106f          	j	13a44 <_vfprintf_r+0x1d50>
   12450:	000a8c93          	mv	s9,s5
   12454:	5350006f          	j	13188 <_vfprintf_r+0x1494>
   12458:	01046413          	ori	s0,s0,16
   1245c:	0004041b          	sext.w	s0,s0
   12460:	008b8793          	addi	a5,s7,8
   12464:	02f13823          	sd	a5,48(sp)
   12468:	02047793          	andi	a5,s0,32
   1246c:	02078c63          	beqz	a5,124a4 <_vfprintf_r+0x7b0>
   12470:	000bbb83          	ld	s7,0(s7)
   12474:	000bd863          	bgez	s7,12484 <_vfprintf_r+0x790>
   12478:	02d00793          	li	a5,45
   1247c:	41700bb3          	neg	s7,s7
   12480:	0cf107a3          	sb	a5,207(sp)
   12484:	fff00793          	li	a5,-1
   12488:	14fd9ce3          	bne	s11,a5,12de0 <_vfprintf_r+0x10ec>
   1248c:	00900793          	li	a5,9
   12490:	1d77e4e3          	bltu	a5,s7,12e58 <_vfprintf_r+0x1164>
   12494:	030b8b9b          	addiw	s7,s7,48
   12498:	17710da3          	sb	s7,379(sp)
   1249c:	17b10493          	addi	s1,sp,379
   124a0:	1910006f          	j	12e30 <_vfprintf_r+0x113c>
   124a4:	01047793          	andi	a5,s0,16
   124a8:	fc0794e3          	bnez	a5,12470 <_vfprintf_r+0x77c>
   124ac:	04047793          	andi	a5,s0,64
   124b0:	00078663          	beqz	a5,124bc <_vfprintf_r+0x7c8>
   124b4:	000b9b83          	lh	s7,0(s7)
   124b8:	fbdff06f          	j	12474 <_vfprintf_r+0x780>
   124bc:	20047793          	andi	a5,s0,512
   124c0:	00078663          	beqz	a5,124cc <_vfprintf_r+0x7d8>
   124c4:	000b8b83          	lb	s7,0(s7)
   124c8:	fadff06f          	j	12474 <_vfprintf_r+0x780>
   124cc:	000bab83          	lw	s7,0(s7)
   124d0:	fa5ff06f          	j	12474 <_vfprintf_r+0x780>
   124d4:	00847793          	andi	a5,s0,8
   124d8:	08078063          	beqz	a5,12558 <_vfprintf_r+0x864>
   124dc:	00fb8b93          	addi	s7,s7,15
   124e0:	ff0bfb93          	andi	s7,s7,-16
   124e4:	010b8793          	addi	a5,s7,16
   124e8:	02f13823          	sd	a5,48(sp)
   124ec:	000bb783          	ld	a5,0(s7)
   124f0:	0ef13823          	sd	a5,240(sp)
   124f4:	008bb783          	ld	a5,8(s7)
   124f8:	0ef13c23          	sd	a5,248(sp)
   124fc:	0f010513          	addi	a0,sp,240
   12500:	78c040ef          	jal	ra,16c8c <_ldcheck>
   12504:	0ca12c23          	sw	a0,216(sp)
   12508:	00200793          	li	a5,2
   1250c:	06f51a63          	bne	a0,a5,12580 <_vfprintf_r+0x88c>
   12510:	0f013503          	ld	a0,240(sp)
   12514:	0f813583          	ld	a1,248(sp)
   12518:	00000613          	li	a2,0
   1251c:	00000693          	li	a3,0
   12520:	0b00b0ef          	jal	ra,1d5d0 <__letf2>
   12524:	00055663          	bgez	a0,12530 <_vfprintf_r+0x83c>
   12528:	02d00793          	li	a5,45
   1252c:	0cf107a3          	sb	a5,207(sp)
   12530:	04700793          	li	a5,71
   12534:	0567c063          	blt	a5,s6,12574 <_vfprintf_r+0x880>
   12538:	000204b7          	lui	s1,0x20
   1253c:	89048493          	addi	s1,s1,-1904 # 1f890 <zeroes.4441+0x40>
   12540:	f7f47413          	andi	s0,s0,-129
   12544:	0004041b          	sext.w	s0,s0
   12548:	00000b93          	li	s7,0
   1254c:	00300d93          	li	s11,3
   12550:	00000713          	li	a4,0
   12554:	0ed0006f          	j	12e40 <_vfprintf_r+0x114c>
   12558:	000bb507          	fld	fa0,0(s7)
   1255c:	008b8793          	addi	a5,s7,8
   12560:	02f13823          	sd	a5,48(sp)
   12564:	65c0c0ef          	jal	ra,1ebc0 <__extenddftf2>
   12568:	0ea13823          	sd	a0,240(sp)
   1256c:	0eb13c23          	sd	a1,248(sp)
   12570:	f8dff06f          	j	124fc <_vfprintf_r+0x808>
   12574:	000204b7          	lui	s1,0x20
   12578:	89848493          	addi	s1,s1,-1896 # 1f898 <zeroes.4441+0x48>
   1257c:	fc5ff06f          	j	12540 <_vfprintf_r+0x84c>
   12580:	00100793          	li	a5,1
   12584:	02f51a63          	bne	a0,a5,125b8 <_vfprintf_r+0x8c4>
   12588:	0f813783          	ld	a5,248(sp)
   1258c:	0007d663          	bgez	a5,12598 <_vfprintf_r+0x8a4>
   12590:	02d00793          	li	a5,45
   12594:	0cf107a3          	sb	a5,207(sp)
   12598:	04700793          	li	a5,71
   1259c:	0167c863          	blt	a5,s6,125ac <_vfprintf_r+0x8b8>
   125a0:	000204b7          	lui	s1,0x20
   125a4:	8a048493          	addi	s1,s1,-1888 # 1f8a0 <zeroes.4441+0x50>
   125a8:	f99ff06f          	j	12540 <_vfprintf_r+0x84c>
   125ac:	000204b7          	lui	s1,0x20
   125b0:	8a848493          	addi	s1,s1,-1880 # 1f8a8 <zeroes.4441+0x58>
   125b4:	f8dff06f          	j	12540 <_vfprintf_r+0x84c>
   125b8:	fdfb7c13          	andi	s8,s6,-33
   125bc:	04100793          	li	a5,65
   125c0:	06fc1063          	bne	s8,a5,12620 <_vfprintf_r+0x92c>
   125c4:	03000793          	li	a5,48
   125c8:	0cf10823          	sb	a5,208(sp)
   125cc:	06100713          	li	a4,97
   125d0:	05800793          	li	a5,88
   125d4:	00eb1463          	bne	s6,a4,125dc <_vfprintf_r+0x8e8>
   125d8:	07800793          	li	a5,120
   125dc:	0cf108a3          	sb	a5,209(sp)
   125e0:	00246413          	ori	s0,s0,2
   125e4:	06300793          	li	a5,99
   125e8:	0004041b          	sext.w	s0,s0
   125ec:	1fb7d663          	bge	a5,s11,127d8 <_vfprintf_r+0xae4>
   125f0:	001d859b          	addiw	a1,s11,1
   125f4:	00098513          	mv	a0,s3
   125f8:	0b5040ef          	jal	ra,16eac <_malloc_r>
   125fc:	00050493          	mv	s1,a0
   12600:	1e051263          	bnez	a0,127e4 <_vfprintf_r+0xaf0>
   12604:	01095783          	lhu	a5,16(s2)
   12608:	0407e793          	ori	a5,a5,64
   1260c:	00f91823          	sh	a5,16(s2)
   12610:	01095783          	lhu	a5,16(s2)
   12614:	0407f793          	andi	a5,a5,64
   12618:	fc078463          	beqz	a5,11de0 <_vfprintf_r+0xec>
   1261c:	815ff06f          	j	11e30 <_vfprintf_r+0x13c>
   12620:	fff00793          	li	a5,-1
   12624:	1cfd8463          	beq	s11,a5,127ec <_vfprintf_r+0xaf8>
   12628:	04700793          	li	a5,71
   1262c:	00000b93          	li	s7,0
   12630:	00fc1463          	bne	s8,a5,12638 <_vfprintf_r+0x944>
   12634:	1c0d8263          	beqz	s11,127f8 <_vfprintf_r+0xb04>
   12638:	10046793          	ori	a5,s0,256
   1263c:	0f813a03          	ld	s4,248(sp)
   12640:	0007879b          	sext.w	a5,a5
   12644:	02f13c23          	sd	a5,56(sp)
   12648:	06013c23          	sd	zero,120(sp)
   1264c:	0f013e83          	ld	t4,240(sp)
   12650:	000a5c63          	bgez	s4,12668 <_vfprintf_r+0x974>
   12654:	fff00793          	li	a5,-1
   12658:	03f79793          	slli	a5,a5,0x3f
   1265c:	00fa4a33          	xor	s4,s4,a5
   12660:	02d00793          	li	a5,45
   12664:	06f13c23          	sd	a5,120(sp)
   12668:	04100793          	li	a5,65
   1266c:	30fc1663          	bne	s8,a5,12978 <_vfprintf_r+0xc84>
   12670:	000e8513          	mv	a0,t4
   12674:	000a0593          	mv	a1,s4
   12678:	6a40c0ef          	jal	ra,1ed1c <__trunctfdf2>
   1267c:	0d810513          	addi	a0,sp,216
   12680:	468060ef          	jal	ra,18ae8 <frexp>
   12684:	53c0c0ef          	jal	ra,1ebc0 <__extenddftf2>
   12688:	0a013683          	ld	a3,160(sp)
   1268c:	00000613          	li	a2,0
   12690:	0480b0ef          	jal	ra,1d6d8 <__multf3>
   12694:	00000613          	li	a2,0
   12698:	00000693          	li	a3,0
   1269c:	08a13023          	sd	a0,128(sp)
   126a0:	08b13423          	sd	a1,136(sp)
   126a4:	5410a0ef          	jal	ra,1d3e4 <__eqtf2>
   126a8:	00051663          	bnez	a0,126b4 <_vfprintf_r+0x9c0>
   126ac:	00100793          	li	a5,1
   126b0:	0cf12c23          	sw	a5,216(sp)
   126b4:	06100793          	li	a5,97
   126b8:	14fb1663          	bne	s6,a5,12804 <_vfprintf_r+0xb10>
   126bc:	000207b7          	lui	a5,0x20
   126c0:	8b078793          	addi	a5,a5,-1872 # 1f8b0 <zeroes.4441+0x60>
   126c4:	00f13423          	sd	a5,8(sp)
   126c8:	fffd871b          	addiw	a4,s11,-1
   126cc:	00048a13          	mv	s4,s1
   126d0:	0a813683          	ld	a3,168(sp)
   126d4:	08013503          	ld	a0,128(sp)
   126d8:	08813583          	ld	a1,136(sp)
   126dc:	00000613          	li	a2,0
   126e0:	0ae13823          	sd	a4,176(sp)
   126e4:	7f50a0ef          	jal	ra,1d6d8 <__multf3>
   126e8:	00050d13          	mv	s10,a0
   126ec:	06b13423          	sd	a1,104(sp)
   126f0:	3340c0ef          	jal	ra,1ea24 <__fixtfsi>
   126f4:	0005079b          	sext.w	a5,a0
   126f8:	06f13823          	sd	a5,112(sp)
   126fc:	4000c0ef          	jal	ra,1eafc <__floatsitf>
   12700:	06813783          	ld	a5,104(sp)
   12704:	00058693          	mv	a3,a1
   12708:	00050613          	mv	a2,a0
   1270c:	00078593          	mv	a1,a5
   12710:	000d0513          	mv	a0,s10
   12714:	0650b0ef          	jal	ra,1df78 <__subtf3>
   12718:	00813783          	ld	a5,8(sp)
   1271c:	07013703          	ld	a4,112(sp)
   12720:	001a0a13          	addi	s4,s4,1
   12724:	08a13023          	sd	a0,128(sp)
   12728:	00e786b3          	add	a3,a5,a4
   1272c:	0b013703          	ld	a4,176(sp)
   12730:	0006c683          	lbu	a3,0(a3)
   12734:	08b13423          	sd	a1,136(sp)
   12738:	0007079b          	sext.w	a5,a4
   1273c:	06f13423          	sd	a5,104(sp)
   12740:	feda0fa3          	sb	a3,-1(s4)
   12744:	fff00793          	li	a5,-1
   12748:	00050893          	mv	a7,a0
   1274c:	00058d13          	mv	s10,a1
   12750:	0cf70063          	beq	a4,a5,12810 <_vfprintf_r+0xb1c>
   12754:	fff7071b          	addiw	a4,a4,-1
   12758:	00000613          	li	a2,0
   1275c:	00000693          	li	a3,0
   12760:	0ae13823          	sd	a4,176(sp)
   12764:	0aa13c23          	sd	a0,184(sp)
   12768:	47d0a0ef          	jal	ra,1d3e4 <__eqtf2>
   1276c:	0b013703          	ld	a4,176(sp)
   12770:	0b813883          	ld	a7,184(sp)
   12774:	f4051ee3          	bnez	a0,126d0 <_vfprintf_r+0x9dc>
   12778:	09013683          	ld	a3,144(sp)
   1277c:	00000613          	li	a2,0
   12780:	00088513          	mv	a0,a7
   12784:	000d0593          	mv	a1,s10
   12788:	09113023          	sd	a7,128(sp)
   1278c:	53d0a0ef          	jal	ra,1d4c8 <__getf2>
   12790:	08a04663          	bgtz	a0,1281c <_vfprintf_r+0xb28>
   12794:	08013883          	ld	a7,128(sp)
   12798:	09013683          	ld	a3,144(sp)
   1279c:	00000613          	li	a2,0
   127a0:	00088513          	mv	a0,a7
   127a4:	000d0593          	mv	a1,s10
   127a8:	43d0a0ef          	jal	ra,1d3e4 <__eqtf2>
   127ac:	00051863          	bnez	a0,127bc <_vfprintf_r+0xac8>
   127b0:	07013783          	ld	a5,112(sp)
   127b4:	0017f713          	andi	a4,a5,1
   127b8:	06071263          	bnez	a4,1281c <_vfprintf_r+0xb28>
   127bc:	06812703          	lw	a4,104(sp)
   127c0:	03000693          	li	a3,48
   127c4:	08074863          	bltz	a4,12854 <_vfprintf_r+0xb60>
   127c8:	001a0a13          	addi	s4,s4,1
   127cc:	feda0fa3          	sb	a3,-1(s4)
   127d0:	fff7071b          	addiw	a4,a4,-1
   127d4:	ff1ff06f          	j	127c4 <_vfprintf_r+0xad0>
   127d8:	00000b93          	li	s7,0
   127dc:	11810493          	addi	s1,sp,280
   127e0:	e59ff06f          	j	12638 <_vfprintf_r+0x944>
   127e4:	00050b93          	mv	s7,a0
   127e8:	e51ff06f          	j	12638 <_vfprintf_r+0x944>
   127ec:	00000b93          	li	s7,0
   127f0:	00600d93          	li	s11,6
   127f4:	e45ff06f          	j	12638 <_vfprintf_r+0x944>
   127f8:	000d8b93          	mv	s7,s11
   127fc:	00100d93          	li	s11,1
   12800:	e39ff06f          	j	12638 <_vfprintf_r+0x944>
   12804:	000207b7          	lui	a5,0x20
   12808:	8c878793          	addi	a5,a5,-1848 # 1f8c8 <zeroes.4441+0x78>
   1280c:	eb9ff06f          	j	126c4 <_vfprintf_r+0x9d0>
   12810:	fff00793          	li	a5,-1
   12814:	06f13423          	sd	a5,104(sp)
   12818:	f61ff06f          	j	12778 <_vfprintf_r+0xa84>
   1281c:	00813783          	ld	a5,8(sp)
   12820:	0f413423          	sd	s4,232(sp)
   12824:	03000593          	li	a1,48
   12828:	00f7c603          	lbu	a2,15(a5)
   1282c:	0e813683          	ld	a3,232(sp)
   12830:	fff68713          	addi	a4,a3,-1
   12834:	0ee13423          	sd	a4,232(sp)
   12838:	fff6c703          	lbu	a4,-1(a3)
   1283c:	12c70463          	beq	a4,a2,12964 <_vfprintf_r+0xc70>
   12840:	03900613          	li	a2,57
   12844:	12c71463          	bne	a4,a2,1296c <_vfprintf_r+0xc78>
   12848:	00813783          	ld	a5,8(sp)
   1284c:	00a7c703          	lbu	a4,10(a5)
   12850:	fee68fa3          	sb	a4,-1(a3)
   12854:	04700713          	li	a4,71
   12858:	409a0a3b          	subw	s4,s4,s1
   1285c:	0d812d03          	lw	s10,216(sp)
   12860:	20ec1c63          	bne	s8,a4,12a78 <_vfprintf_r+0xd84>
   12864:	ffd00713          	li	a4,-3
   12868:	00ed4463          	blt	s10,a4,12870 <_vfprintf_r+0xb7c>
   1286c:	29add863          	bge	s11,s10,12afc <_vfprintf_r+0xe08>
   12870:	ffeb0b1b          	addiw	s6,s6,-2
   12874:	fffd069b          	addiw	a3,s10,-1
   12878:	0cd12c23          	sw	a3,216(sp)
   1287c:	fdfb7613          	andi	a2,s6,-33
   12880:	04100513          	li	a0,65
   12884:	0ffb7713          	zext.b	a4,s6
   12888:	00000593          	li	a1,0
   1288c:	00a61863          	bne	a2,a0,1289c <_vfprintf_r+0xba8>
   12890:	00f7071b          	addiw	a4,a4,15
   12894:	0ff77713          	zext.b	a4,a4
   12898:	00100593          	li	a1,1
   1289c:	0ee10023          	sb	a4,224(sp)
   128a0:	02b00793          	li	a5,43
   128a4:	0006d863          	bgez	a3,128b4 <_vfprintf_r+0xbc0>
   128a8:	00100693          	li	a3,1
   128ac:	41a686bb          	subw	a3,a3,s10
   128b0:	02d00793          	li	a5,45
   128b4:	0ef100a3          	sb	a5,225(sp)
   128b8:	00900793          	li	a5,9
   128bc:	20d7d263          	bge	a5,a3,12ac0 <_vfprintf_r+0xdcc>
   128c0:	0ef10713          	addi	a4,sp,239
   128c4:	00070513          	mv	a0,a4
   128c8:	00a00593          	li	a1,10
   128cc:	00900813          	li	a6,9
   128d0:	02b6e7bb          	remw	a5,a3,a1
   128d4:	fff70613          	addi	a2,a4,-1
   128d8:	02b6c6bb          	divw	a3,a3,a1
   128dc:	0307879b          	addiw	a5,a5,48
   128e0:	fef70fa3          	sb	a5,-1(a4)
   128e4:	1cd84063          	blt	a6,a3,12aa4 <_vfprintf_r+0xdb0>
   128e8:	0306879b          	addiw	a5,a3,48
   128ec:	fef60fa3          	sb	a5,-1(a2)
   128f0:	ffe70713          	addi	a4,a4,-2
   128f4:	0e210613          	addi	a2,sp,226
   128f8:	1aa76a63          	bltu	a4,a0,12aac <_vfprintf_r+0xdb8>
   128fc:	0e010793          	addi	a5,sp,224
   12900:	40f607bb          	subw	a5,a2,a5
   12904:	04f13c23          	sd	a5,88(sp)
   12908:	05812783          	lw	a5,88(sp)
   1290c:	00100713          	li	a4,1
   12910:	01478dbb          	addw	s11,a5,s4
   12914:	000d8793          	mv	a5,s11
   12918:	01474663          	blt	a4,s4,12924 <_vfprintf_r+0xc30>
   1291c:	00147713          	andi	a4,s0,1
   12920:	00070663          	beqz	a4,1292c <_vfprintf_r+0xc38>
   12924:	01812703          	lw	a4,24(sp)
   12928:	00e78dbb          	addw	s11,a5,a4
   1292c:	bff47413          	andi	s0,s0,-1025
   12930:	0004041b          	sext.w	s0,s0
   12934:	10046793          	ori	a5,s0,256
   12938:	02f13c23          	sd	a5,56(sp)
   1293c:	00013423          	sd	zero,8(sp)
   12940:	00000c13          	li	s8,0
   12944:	00000d13          	li	s10,0
   12948:	07813783          	ld	a5,120(sp)
   1294c:	00078663          	beqz	a5,12958 <_vfprintf_r+0xc64>
   12950:	02d00713          	li	a4,45
   12954:	0ce107a3          	sb	a4,207(sp)
   12958:	03813403          	ld	s0,56(sp)
   1295c:	00000713          	li	a4,0
   12960:	829ff06f          	j	12188 <_vfprintf_r+0x494>
   12964:	feb68fa3          	sb	a1,-1(a3)
   12968:	ec5ff06f          	j	1282c <_vfprintf_r+0xb38>
   1296c:	0017071b          	addiw	a4,a4,1
   12970:	0ff77713          	zext.b	a4,a4
   12974:	eddff06f          	j	12850 <_vfprintf_r+0xb5c>
   12978:	04600793          	li	a5,70
   1297c:	00fc0e63          	beq	s8,a5,12998 <_vfprintf_r+0xca4>
   12980:	04500793          	li	a5,69
   12984:	000d8d13          	mv	s10,s11
   12988:	00fc1463          	bne	s8,a5,12990 <_vfprintf_r+0xc9c>
   1298c:	001d8d1b          	addiw	s10,s11,1
   12990:	00200693          	li	a3,2
   12994:	00c0006f          	j	129a0 <_vfprintf_r+0xcac>
   12998:	000d8d13          	mv	s10,s11
   1299c:	00300693          	li	a3,3
   129a0:	0d810793          	addi	a5,sp,216
   129a4:	000e8593          	mv	a1,t4
   129a8:	0e810893          	addi	a7,sp,232
   129ac:	0dc10813          	addi	a6,sp,220
   129b0:	000d0713          	mv	a4,s10
   129b4:	000a0613          	mv	a2,s4
   129b8:	00098513          	mv	a0,s3
   129bc:	01d13423          	sd	t4,8(sp)
   129c0:	688030ef          	jal	ra,16048 <_ldtoa_r>
   129c4:	04700793          	li	a5,71
   129c8:	00050493          	mv	s1,a0
   129cc:	00813e83          	ld	t4,8(sp)
   129d0:	00fc1663          	bne	s8,a5,129dc <_vfprintf_r+0xce8>
   129d4:	00147793          	andi	a5,s0,1
   129d8:	08078063          	beqz	a5,12a58 <_vfprintf_r+0xd64>
   129dc:	04600713          	li	a4,70
   129e0:	01a487b3          	add	a5,s1,s10
   129e4:	04ec1663          	bne	s8,a4,12a30 <_vfprintf_r+0xd3c>
   129e8:	0004c683          	lbu	a3,0(s1)
   129ec:	03000713          	li	a4,48
   129f0:	02e69c63          	bne	a3,a4,12a28 <_vfprintf_r+0xd34>
   129f4:	000e8513          	mv	a0,t4
   129f8:	00000613          	li	a2,0
   129fc:	00000693          	li	a3,0
   12a00:	000a0593          	mv	a1,s4
   12a04:	06f13423          	sd	a5,104(sp)
   12a08:	01d13423          	sd	t4,8(sp)
   12a0c:	1d90a0ef          	jal	ra,1d3e4 <__eqtf2>
   12a10:	00813e83          	ld	t4,8(sp)
   12a14:	06813783          	ld	a5,104(sp)
   12a18:	00050863          	beqz	a0,12a28 <_vfprintf_r+0xd34>
   12a1c:	00100713          	li	a4,1
   12a20:	41a70d3b          	subw	s10,a4,s10
   12a24:	0da12c23          	sw	s10,216(sp)
   12a28:	0d812703          	lw	a4,216(sp)
   12a2c:	00e787b3          	add	a5,a5,a4
   12a30:	00000693          	li	a3,0
   12a34:	00000613          	li	a2,0
   12a38:	000e8513          	mv	a0,t4
   12a3c:	000a0593          	mv	a1,s4
   12a40:	00f13423          	sd	a5,8(sp)
   12a44:	1a10a0ef          	jal	ra,1d3e4 <__eqtf2>
   12a48:	00813783          	ld	a5,8(sp)
   12a4c:	03000693          	li	a3,48
   12a50:	00051e63          	bnez	a0,12a6c <_vfprintf_r+0xd78>
   12a54:	0ef13423          	sd	a5,232(sp)
   12a58:	0e813a03          	ld	s4,232(sp)
   12a5c:	df9ff06f          	j	12854 <_vfprintf_r+0xb60>
   12a60:	00170613          	addi	a2,a4,1
   12a64:	0ec13423          	sd	a2,232(sp)
   12a68:	00d70023          	sb	a3,0(a4)
   12a6c:	0e813703          	ld	a4,232(sp)
   12a70:	fef768e3          	bltu	a4,a5,12a60 <_vfprintf_r+0xd6c>
   12a74:	fe5ff06f          	j	12a58 <_vfprintf_r+0xd64>
   12a78:	04600713          	li	a4,70
   12a7c:	deec1ce3          	bne	s8,a4,12874 <_vfprintf_r+0xb80>
   12a80:	07a05263          	blez	s10,12ae4 <_vfprintf_r+0xdf0>
   12a84:	000d9663          	bnez	s11,12a90 <_vfprintf_r+0xd9c>
   12a88:	00147713          	andi	a4,s0,1
   12a8c:	0c070463          	beqz	a4,12b54 <_vfprintf_r+0xe60>
   12a90:	01812783          	lw	a5,24(sp)
   12a94:	01a7873b          	addw	a4,a5,s10
   12a98:	01b70dbb          	addw	s11,a4,s11
   12a9c:	06600b13          	li	s6,102
   12aa0:	0940006f          	j	12b34 <_vfprintf_r+0xe40>
   12aa4:	00060713          	mv	a4,a2
   12aa8:	e29ff06f          	j	128d0 <_vfprintf_r+0xbdc>
   12aac:	00170713          	addi	a4,a4,1
   12ab0:	fff74783          	lbu	a5,-1(a4)
   12ab4:	00160613          	addi	a2,a2,1
   12ab8:	fef60fa3          	sb	a5,-1(a2)
   12abc:	e3dff06f          	j	128f8 <_vfprintf_r+0xc04>
   12ac0:	0e210713          	addi	a4,sp,226
   12ac4:	00059863          	bnez	a1,12ad4 <_vfprintf_r+0xde0>
   12ac8:	03000793          	li	a5,48
   12acc:	0ef10123          	sb	a5,226(sp)
   12ad0:	0e310713          	addi	a4,sp,227
   12ad4:	0306879b          	addiw	a5,a3,48
   12ad8:	00170613          	addi	a2,a4,1
   12adc:	00f70023          	sb	a5,0(a4)
   12ae0:	e1dff06f          	j	128fc <_vfprintf_r+0xc08>
   12ae4:	000d9663          	bnez	s11,12af0 <_vfprintf_r+0xdfc>
   12ae8:	00147713          	andi	a4,s0,1
   12aec:	06070863          	beqz	a4,12b5c <_vfprintf_r+0xe68>
   12af0:	01812783          	lw	a5,24(sp)
   12af4:	0017871b          	addiw	a4,a5,1
   12af8:	fa1ff06f          	j	12a98 <_vfprintf_r+0xda4>
   12afc:	034d4063          	blt	s10,s4,12b1c <_vfprintf_r+0xe28>
   12b00:	00147713          	andi	a4,s0,1
   12b04:	000d0d93          	mv	s11,s10
   12b08:	00070663          	beqz	a4,12b14 <_vfprintf_r+0xe20>
   12b0c:	01812783          	lw	a5,24(sp)
   12b10:	01a78dbb          	addw	s11,a5,s10
   12b14:	06700b13          	li	s6,103
   12b18:	01c0006f          	j	12b34 <_vfprintf_r+0xe40>
   12b1c:	01812783          	lw	a5,24(sp)
   12b20:	06700b13          	li	s6,103
   12b24:	01478dbb          	addw	s11,a5,s4
   12b28:	01a04663          	bgtz	s10,12b34 <_vfprintf_r+0xe40>
   12b2c:	41ad8e3b          	subw	t3,s11,s10
   12b30:	001e0d9b          	addiw	s11,t3,1
   12b34:	40047413          	andi	s0,s0,1024
   12b38:	00040c1b          	sext.w	s8,s0
   12b3c:	00013423          	sd	zero,8(sp)
   12b40:	e00c04e3          	beqz	s8,12948 <_vfprintf_r+0xc54>
   12b44:	00000c13          	li	s8,0
   12b48:	e1a050e3          	blez	s10,12948 <_vfprintf_r+0xc54>
   12b4c:	0ff00693          	li	a3,255
   12b50:	03c0006f          	j	12b8c <_vfprintf_r+0xe98>
   12b54:	000d0d93          	mv	s11,s10
   12b58:	f45ff06f          	j	12a9c <_vfprintf_r+0xda8>
   12b5c:	06600b13          	li	s6,102
   12b60:	00100d93          	li	s11,1
   12b64:	fd1ff06f          	j	12b34 <_vfprintf_r+0xe40>
   12b68:	0007071b          	sext.w	a4,a4
   12b6c:	03a75663          	bge	a4,s10,12b98 <_vfprintf_r+0xea4>
   12b70:	00013783          	ld	a5,0(sp)
   12b74:	40ed0d3b          	subw	s10,s10,a4
   12b78:	0017c703          	lbu	a4,1(a5)
   12b7c:	02070a63          	beqz	a4,12bb0 <_vfprintf_r+0xebc>
   12b80:	00178793          	addi	a5,a5,1
   12b84:	001c0c1b          	addiw	s8,s8,1
   12b88:	00f13023          	sd	a5,0(sp)
   12b8c:	00013783          	ld	a5,0(sp)
   12b90:	0007c703          	lbu	a4,0(a5)
   12b94:	fcd71ae3          	bne	a4,a3,12b68 <_vfprintf_r+0xe74>
   12b98:	00812783          	lw	a5,8(sp)
   12b9c:	00fc073b          	addw	a4,s8,a5
   12ba0:	04012783          	lw	a5,64(sp)
   12ba4:	02f7073b          	mulw	a4,a4,a5
   12ba8:	01b70dbb          	addw	s11,a4,s11
   12bac:	d9dff06f          	j	12948 <_vfprintf_r+0xc54>
   12bb0:	00812783          	lw	a5,8(sp)
   12bb4:	0017879b          	addiw	a5,a5,1
   12bb8:	00f13423          	sd	a5,8(sp)
   12bbc:	fd1ff06f          	j	12b8c <_vfprintf_r+0xe98>
   12bc0:	008b8713          	addi	a4,s7,8
   12bc4:	02e13823          	sd	a4,48(sp)
   12bc8:	02047713          	andi	a4,s0,32
   12bcc:	000bb783          	ld	a5,0(s7)
   12bd0:	00070c63          	beqz	a4,12be8 <_vfprintf_r+0xef4>
   12bd4:	02813703          	ld	a4,40(sp)
   12bd8:	00e7b023          	sd	a4,0(a5)
   12bdc:	03013b83          	ld	s7,48(sp)
   12be0:	01013483          	ld	s1,16(sp)
   12be4:	ab8ff06f          	j	11e9c <_vfprintf_r+0x1a8>
   12be8:	01047713          	andi	a4,s0,16
   12bec:	fe0714e3          	bnez	a4,12bd4 <_vfprintf_r+0xee0>
   12bf0:	04047713          	andi	a4,s0,64
   12bf4:	00070863          	beqz	a4,12c04 <_vfprintf_r+0xf10>
   12bf8:	02815703          	lhu	a4,40(sp)
   12bfc:	00e79023          	sh	a4,0(a5)
   12c00:	fddff06f          	j	12bdc <_vfprintf_r+0xee8>
   12c04:	20047413          	andi	s0,s0,512
   12c08:	00040863          	beqz	s0,12c18 <_vfprintf_r+0xf24>
   12c0c:	02814703          	lbu	a4,40(sp)
   12c10:	00e78023          	sb	a4,0(a5)
   12c14:	fc9ff06f          	j	12bdc <_vfprintf_r+0xee8>
   12c18:	02812703          	lw	a4,40(sp)
   12c1c:	00e7a023          	sw	a4,0(a5)
   12c20:	fbdff06f          	j	12bdc <_vfprintf_r+0xee8>
   12c24:	01046413          	ori	s0,s0,16
   12c28:	0004041b          	sext.w	s0,s0
   12c2c:	008b8793          	addi	a5,s7,8
   12c30:	02f13823          	sd	a5,48(sp)
   12c34:	02047793          	andi	a5,s0,32
   12c38:	04078063          	beqz	a5,12c78 <_vfprintf_r+0xf84>
   12c3c:	000bbb83          	ld	s7,0(s7)
   12c40:	bff47413          	andi	s0,s0,-1025
   12c44:	0004041b          	sext.w	s0,s0
   12c48:	00000793          	li	a5,0
   12c4c:	0c0107a3          	sb	zero,207(sp)
   12c50:	fff00713          	li	a4,-1
   12c54:	18ed8c63          	beq	s11,a4,12dec <_vfprintf_r+0x10f8>
   12c58:	00040713          	mv	a4,s0
   12c5c:	f7f47413          	andi	s0,s0,-129
   12c60:	0004041b          	sext.w	s0,s0
   12c64:	180b9463          	bnez	s7,12dec <_vfprintf_r+0x10f8>
   12c68:	2a0d8a63          	beqz	s11,12f1c <_vfprintf_r+0x1228>
   12c6c:	00100713          	li	a4,1
   12c70:	18e79263          	bne	a5,a4,12df4 <_vfprintf_r+0x1100>
   12c74:	821ff06f          	j	12494 <_vfprintf_r+0x7a0>
   12c78:	01047793          	andi	a5,s0,16
   12c7c:	fc0790e3          	bnez	a5,12c3c <_vfprintf_r+0xf48>
   12c80:	04047793          	andi	a5,s0,64
   12c84:	000bab83          	lw	s7,0(s7)
   12c88:	00078863          	beqz	a5,12c98 <_vfprintf_r+0xfa4>
   12c8c:	030b9b93          	slli	s7,s7,0x30
   12c90:	030bdb93          	srli	s7,s7,0x30
   12c94:	fadff06f          	j	12c40 <_vfprintf_r+0xf4c>
   12c98:	20047793          	andi	a5,s0,512
   12c9c:	00078663          	beqz	a5,12ca8 <_vfprintf_r+0xfb4>
   12ca0:	0ffbfb93          	zext.b	s7,s7
   12ca4:	f9dff06f          	j	12c40 <_vfprintf_r+0xf4c>
   12ca8:	020b9b93          	slli	s7,s7,0x20
   12cac:	020bdb93          	srli	s7,s7,0x20
   12cb0:	f91ff06f          	j	12c40 <_vfprintf_r+0xf4c>
   12cb4:	008b8793          	addi	a5,s7,8
   12cb8:	02f13823          	sd	a5,48(sp)
   12cbc:	ffff87b7          	lui	a5,0xffff8
   12cc0:	8307c793          	xori	a5,a5,-2000
   12cc4:	0cf11823          	sh	a5,208(sp)
   12cc8:	000207b7          	lui	a5,0x20
   12ccc:	8b078793          	addi	a5,a5,-1872 # 1f8b0 <zeroes.4441+0x60>
   12cd0:	00246413          	ori	s0,s0,2
   12cd4:	06f13023          	sd	a5,96(sp)
   12cd8:	000bbb83          	ld	s7,0(s7)
   12cdc:	0004041b          	sext.w	s0,s0
   12ce0:	00200793          	li	a5,2
   12ce4:	07800b13          	li	s6,120
   12ce8:	f65ff06f          	j	12c4c <_vfprintf_r+0xf58>
   12cec:	008b8793          	addi	a5,s7,8
   12cf0:	02f13823          	sd	a5,48(sp)
   12cf4:	0c0107a3          	sb	zero,207(sp)
   12cf8:	fff00793          	li	a5,-1
   12cfc:	000bb483          	ld	s1,0(s7)
   12d00:	02fd8463          	beq	s11,a5,12d28 <_vfprintf_r+0x1034>
   12d04:	000d8613          	mv	a2,s11
   12d08:	00000593          	li	a1,0
   12d0c:	00048513          	mv	a0,s1
   12d10:	041040ef          	jal	ra,17550 <memchr>
   12d14:	00050b93          	mv	s7,a0
   12d18:	82050ce3          	beqz	a0,12550 <_vfprintf_r+0x85c>
   12d1c:	40950dbb          	subw	s11,a0,s1
   12d20:	00000b93          	li	s7,0
   12d24:	82dff06f          	j	12550 <_vfprintf_r+0x85c>
   12d28:	00048513          	mv	a0,s1
   12d2c:	fadfe0ef          	jal	ra,11cd8 <strlen>
   12d30:	00050d9b          	sext.w	s11,a0
   12d34:	fedff06f          	j	12d20 <_vfprintf_r+0x102c>
   12d38:	01046413          	ori	s0,s0,16
   12d3c:	0004041b          	sext.w	s0,s0
   12d40:	008b8793          	addi	a5,s7,8
   12d44:	02f13823          	sd	a5,48(sp)
   12d48:	02047793          	andi	a5,s0,32
   12d4c:	00078863          	beqz	a5,12d5c <_vfprintf_r+0x1068>
   12d50:	000bbb83          	ld	s7,0(s7)
   12d54:	00100793          	li	a5,1
   12d58:	ef5ff06f          	j	12c4c <_vfprintf_r+0xf58>
   12d5c:	01047793          	andi	a5,s0,16
   12d60:	fe0798e3          	bnez	a5,12d50 <_vfprintf_r+0x105c>
   12d64:	04047793          	andi	a5,s0,64
   12d68:	000bab83          	lw	s7,0(s7)
   12d6c:	00078863          	beqz	a5,12d7c <_vfprintf_r+0x1088>
   12d70:	030b9b93          	slli	s7,s7,0x30
   12d74:	030bdb93          	srli	s7,s7,0x30
   12d78:	fddff06f          	j	12d54 <_vfprintf_r+0x1060>
   12d7c:	20047793          	andi	a5,s0,512
   12d80:	00078663          	beqz	a5,12d8c <_vfprintf_r+0x1098>
   12d84:	0ffbfb93          	zext.b	s7,s7
   12d88:	fcdff06f          	j	12d54 <_vfprintf_r+0x1060>
   12d8c:	020b9b93          	slli	s7,s7,0x20
   12d90:	020bdb93          	srli	s7,s7,0x20
   12d94:	fc1ff06f          	j	12d54 <_vfprintf_r+0x1060>
   12d98:	000207b7          	lui	a5,0x20
   12d9c:	8b078793          	addi	a5,a5,-1872 # 1f8b0 <zeroes.4441+0x60>
   12da0:	9dcff06f          	j	11f7c <_vfprintf_r+0x288>
   12da4:	01047793          	andi	a5,s0,16
   12da8:	9e079463          	bnez	a5,11f90 <_vfprintf_r+0x29c>
   12dac:	04047793          	andi	a5,s0,64
   12db0:	000bab83          	lw	s7,0(s7)
   12db4:	00078863          	beqz	a5,12dc4 <_vfprintf_r+0x10d0>
   12db8:	030b9b93          	slli	s7,s7,0x30
   12dbc:	030bdb93          	srli	s7,s7,0x30
   12dc0:	9d4ff06f          	j	11f94 <_vfprintf_r+0x2a0>
   12dc4:	20047793          	andi	a5,s0,512
   12dc8:	00078663          	beqz	a5,12dd4 <_vfprintf_r+0x10e0>
   12dcc:	0ffbfb93          	zext.b	s7,s7
   12dd0:	9c4ff06f          	j	11f94 <_vfprintf_r+0x2a0>
   12dd4:	020b9b93          	slli	s7,s7,0x20
   12dd8:	020bdb93          	srli	s7,s7,0x20
   12ddc:	9b8ff06f          	j	11f94 <_vfprintf_r+0x2a0>
   12de0:	00040713          	mv	a4,s0
   12de4:	00100793          	li	a5,1
   12de8:	e75ff06f          	j	12c5c <_vfprintf_r+0xf68>
   12dec:	00100713          	li	a4,1
   12df0:	e8e78e63          	beq	a5,a4,1248c <_vfprintf_r+0x798>
   12df4:	00200713          	li	a4,2
   12df8:	0ee78e63          	beq	a5,a4,12ef4 <_vfprintf_r+0x1200>
   12dfc:	17c10793          	addi	a5,sp,380
   12e00:	007bf713          	andi	a4,s7,7
   12e04:	03070713          	addi	a4,a4,48
   12e08:	fee78fa3          	sb	a4,-1(a5)
   12e0c:	003bdb93          	srli	s7,s7,0x3
   12e10:	fff78493          	addi	s1,a5,-1
   12e14:	020b9e63          	bnez	s7,12e50 <_vfprintf_r+0x115c>
   12e18:	00147693          	andi	a3,s0,1
   12e1c:	00068a63          	beqz	a3,12e30 <_vfprintf_r+0x113c>
   12e20:	03000693          	li	a3,48
   12e24:	00d70663          	beq	a4,a3,12e30 <_vfprintf_r+0x113c>
   12e28:	fed48fa3          	sb	a3,-1(s1)
   12e2c:	ffe78493          	addi	s1,a5,-2
   12e30:	17c10e13          	addi	t3,sp,380
   12e34:	000d8713          	mv	a4,s11
   12e38:	00000b93          	li	s7,0
   12e3c:	409e0dbb          	subw	s11,t3,s1
   12e40:	00013423          	sd	zero,8(sp)
   12e44:	00000c13          	li	s8,0
   12e48:	00000d13          	li	s10,0
   12e4c:	b3cff06f          	j	12188 <_vfprintf_r+0x494>
   12e50:	00048793          	mv	a5,s1
   12e54:	fadff06f          	j	12e00 <_vfprintf_r+0x110c>
   12e58:	40047c13          	andi	s8,s0,1024
   12e5c:	00000a13          	li	s4,0
   12e60:	17c10793          	addi	a5,sp,380
   12e64:	00a00d13          	li	s10,10
   12e68:	000c0c1b          	sext.w	s8,s8
   12e6c:	0ff00693          	li	a3,255
   12e70:	00900813          	li	a6,9
   12e74:	03abf733          	remu	a4,s7,s10
   12e78:	fff78493          	addi	s1,a5,-1
   12e7c:	001a0a1b          	addiw	s4,s4,1
   12e80:	0307071b          	addiw	a4,a4,48
   12e84:	fee78fa3          	sb	a4,-1(a5)
   12e88:	040c0e63          	beqz	s8,12ee4 <_vfprintf_r+0x11f0>
   12e8c:	00013783          	ld	a5,0(sp)
   12e90:	0007c783          	lbu	a5,0(a5)
   12e94:	04fa1863          	bne	s4,a5,12ee4 <_vfprintf_r+0x11f0>
   12e98:	04d78663          	beq	a5,a3,12ee4 <_vfprintf_r+0x11f0>
   12e9c:	05787463          	bgeu	a6,s7,12ee4 <_vfprintf_r+0x11f0>
   12ea0:	04013783          	ld	a5,64(sp)
   12ea4:	05013583          	ld	a1,80(sp)
   12ea8:	03013c23          	sd	a6,56(sp)
   12eac:	40f484b3          	sub	s1,s1,a5
   12eb0:	00078613          	mv	a2,a5
   12eb4:	00048513          	mv	a0,s1
   12eb8:	00d13423          	sd	a3,8(sp)
   12ebc:	73d050ef          	jal	ra,18df8 <strncpy>
   12ec0:	00013783          	ld	a5,0(sp)
   12ec4:	00000a13          	li	s4,0
   12ec8:	00813683          	ld	a3,8(sp)
   12ecc:	0017c783          	lbu	a5,1(a5)
   12ed0:	03813803          	ld	a6,56(sp)
   12ed4:	00078863          	beqz	a5,12ee4 <_vfprintf_r+0x11f0>
   12ed8:	00013783          	ld	a5,0(sp)
   12edc:	00178793          	addi	a5,a5,1
   12ee0:	00f13023          	sd	a5,0(sp)
   12ee4:	03abdbb3          	divu	s7,s7,s10
   12ee8:	f40b84e3          	beqz	s7,12e30 <_vfprintf_r+0x113c>
   12eec:	00048793          	mv	a5,s1
   12ef0:	f85ff06f          	j	12e74 <_vfprintf_r+0x1180>
   12ef4:	17c10493          	addi	s1,sp,380
   12ef8:	06013703          	ld	a4,96(sp)
   12efc:	00fbf793          	andi	a5,s7,15
   12f00:	fff48493          	addi	s1,s1,-1
   12f04:	00f707b3          	add	a5,a4,a5
   12f08:	0007c783          	lbu	a5,0(a5)
   12f0c:	004bdb93          	srli	s7,s7,0x4
   12f10:	00f48023          	sb	a5,0(s1)
   12f14:	fe0b92e3          	bnez	s7,12ef8 <_vfprintf_r+0x1204>
   12f18:	f19ff06f          	j	12e30 <_vfprintf_r+0x113c>
   12f1c:	17c10493          	addi	s1,sp,380
   12f20:	f00798e3          	bnez	a5,12e30 <_vfprintf_r+0x113c>
   12f24:	00177713          	andi	a4,a4,1
   12f28:	f00704e3          	beqz	a4,12e30 <_vfprintf_r+0x113c>
   12f2c:	03000793          	li	a5,48
   12f30:	16f10da3          	sb	a5,379(sp)
   12f34:	d68ff06f          	j	1249c <_vfprintf_r+0x7a8>
   12f38:	360b06e3          	beqz	s6,13aa4 <_vfprintf_r+0x1db0>
   12f3c:	11610c23          	sb	s6,280(sp)
   12f40:	0c0107a3          	sb	zero,207(sp)
   12f44:	03713823          	sd	s7,48(sp)
   12f48:	a24ff06f          	j	1216c <_vfprintf_r+0x478>
   12f4c:	01060613          	addi	a2,a2,16
   12f50:	011cb423          	sd	a7,8(s9)
   12f54:	10c13823          	sd	a2,272(sp)
   12f58:	10b12423          	sw	a1,264(sp)
   12f5c:	04aed263          	bge	t4,a0,12fa0 <_vfprintf_r+0x12ac>
   12f60:	10010613          	addi	a2,sp,256
   12f64:	00090593          	mv	a1,s2
   12f68:	00098513          	mv	a0,s3
   12f6c:	0bd13c23          	sd	t4,184(sp)
   12f70:	0b013823          	sd	a6,176(sp)
   12f74:	09113423          	sd	a7,136(sp)
   12f78:	08e13023          	sd	a4,128(sp)
   12f7c:	06d13c23          	sd	a3,120(sp)
   12f80:	435070ef          	jal	ra,1abb4 <__sprint_r>
   12f84:	2c0510e3          	bnez	a0,13a44 <_vfprintf_r+0x1d50>
   12f88:	0b813e83          	ld	t4,184(sp)
   12f8c:	0b013803          	ld	a6,176(sp)
   12f90:	08813883          	ld	a7,136(sp)
   12f94:	08013703          	ld	a4,128(sp)
   12f98:	07813683          	ld	a3,120(sp)
   12f9c:	000a8f13          	mv	t5,s5
   12fa0:	ff06869b          	addiw	a3,a3,-16
   12fa4:	000f0c93          	mv	s9,t5
   12fa8:	a4cff06f          	j	121f4 <_vfprintf_r+0x500>
   12fac:	01060613          	addi	a2,a2,16
   12fb0:	011cb423          	sd	a7,8(s9)
   12fb4:	10c13823          	sd	a2,272(sp)
   12fb8:	10b12423          	sw	a1,264(sp)
   12fbc:	04aed263          	bge	t4,a0,13000 <_vfprintf_r+0x130c>
   12fc0:	10010613          	addi	a2,sp,256
   12fc4:	00090593          	mv	a1,s2
   12fc8:	00098513          	mv	a0,s3
   12fcc:	09d13423          	sd	t4,136(sp)
   12fd0:	09013023          	sd	a6,128(sp)
   12fd4:	07113c23          	sd	a7,120(sp)
   12fd8:	06e13823          	sd	a4,112(sp)
   12fdc:	06d13423          	sd	a3,104(sp)
   12fe0:	3d5070ef          	jal	ra,1abb4 <__sprint_r>
   12fe4:	260510e3          	bnez	a0,13a44 <_vfprintf_r+0x1d50>
   12fe8:	08813e83          	ld	t4,136(sp)
   12fec:	08013803          	ld	a6,128(sp)
   12ff0:	07813883          	ld	a7,120(sp)
   12ff4:	07013703          	ld	a4,112(sp)
   12ff8:	06813683          	ld	a3,104(sp)
   12ffc:	000a8f13          	mv	t5,s5
   13000:	ff06869b          	addiw	a3,a3,-16
   13004:	000f0c93          	mv	s9,t5
   13008:	b34ff06f          	j	1233c <_vfprintf_r+0x648>
   1300c:	01068693          	addi	a3,a3,16
   13010:	011cb423          	sd	a7,8(s9)
   13014:	10d13823          	sd	a3,272(sp)
   13018:	10c12423          	sw	a2,264(sp)
   1301c:	02bede63          	bge	t4,a1,13058 <_vfprintf_r+0x1364>
   13020:	10010613          	addi	a2,sp,256
   13024:	00090593          	mv	a1,s2
   13028:	00098513          	mv	a0,s3
   1302c:	09d13023          	sd	t4,128(sp)
   13030:	07013c23          	sd	a6,120(sp)
   13034:	07113823          	sd	a7,112(sp)
   13038:	06e13423          	sd	a4,104(sp)
   1303c:	379070ef          	jal	ra,1abb4 <__sprint_r>
   13040:	200512e3          	bnez	a0,13a44 <_vfprintf_r+0x1d50>
   13044:	08013e83          	ld	t4,128(sp)
   13048:	07813803          	ld	a6,120(sp)
   1304c:	07013883          	ld	a7,112(sp)
   13050:	06813703          	ld	a4,104(sp)
   13054:	000a8513          	mv	a0,s5
   13058:	ff07071b          	addiw	a4,a4,-16
   1305c:	00050c93          	mv	s9,a0
   13060:	b50ff06f          	j	123b0 <_vfprintf_r+0x6bc>
   13064:	06500693          	li	a3,101
   13068:	7966dc63          	bge	a3,s6,13800 <_vfprintf_r+0x1b0c>
   1306c:	0f013503          	ld	a0,240(sp)
   13070:	0f813583          	ld	a1,248(sp)
   13074:	00000613          	li	a2,0
   13078:	00000693          	li	a3,0
   1307c:	06e13423          	sd	a4,104(sp)
   13080:	3640a0ef          	jal	ra,1d3e4 <__eqtf2>
   13084:	06813703          	ld	a4,104(sp)
   13088:	18051663          	bnez	a0,13214 <_vfprintf_r+0x1520>
   1308c:	000207b7          	lui	a5,0x20
   13090:	8e078793          	addi	a5,a5,-1824 # 1f8e0 <zeroes.4441+0x90>
   13094:	00fcb023          	sd	a5,0(s9)
   13098:	00100793          	li	a5,1
   1309c:	00fcb423          	sd	a5,8(s9)
   130a0:	10812783          	lw	a5,264(sp)
   130a4:	00170713          	addi	a4,a4,1
   130a8:	10e13823          	sd	a4,272(sp)
   130ac:	0017871b          	addiw	a4,a5,1
   130b0:	10e12423          	sw	a4,264(sp)
   130b4:	00700793          	li	a5,7
   130b8:	010c8c93          	addi	s9,s9,16
   130bc:	00e7de63          	bge	a5,a4,130d8 <_vfprintf_r+0x13e4>
   130c0:	10010613          	addi	a2,sp,256
   130c4:	00090593          	mv	a1,s2
   130c8:	00098513          	mv	a0,s3
   130cc:	2e9070ef          	jal	ra,1abb4 <__sprint_r>
   130d0:	16051ae3          	bnez	a0,13a44 <_vfprintf_r+0x1d50>
   130d4:	000a8c93          	mv	s9,s5
   130d8:	0d812783          	lw	a5,216(sp)
   130dc:	0147c663          	blt	a5,s4,130e8 <_vfprintf_r+0x13f4>
   130e0:	00147793          	andi	a5,s0,1
   130e4:	0a078263          	beqz	a5,13188 <_vfprintf_r+0x1494>
   130e8:	04813783          	ld	a5,72(sp)
   130ec:	01813703          	ld	a4,24(sp)
   130f0:	010c8c93          	addi	s9,s9,16
   130f4:	fefcb823          	sd	a5,-16(s9)
   130f8:	01813783          	ld	a5,24(sp)
   130fc:	fefcbc23          	sd	a5,-8(s9)
   13100:	11013783          	ld	a5,272(sp)
   13104:	00e787b3          	add	a5,a5,a4
   13108:	10f13823          	sd	a5,272(sp)
   1310c:	10812783          	lw	a5,264(sp)
   13110:	0017871b          	addiw	a4,a5,1
   13114:	10e12423          	sw	a4,264(sp)
   13118:	00700793          	li	a5,7
   1311c:	00e7de63          	bge	a5,a4,13138 <_vfprintf_r+0x1444>
   13120:	10010613          	addi	a2,sp,256
   13124:	00090593          	mv	a1,s2
   13128:	00098513          	mv	a0,s3
   1312c:	289070ef          	jal	ra,1abb4 <__sprint_r>
   13130:	10051ae3          	bnez	a0,13a44 <_vfprintf_r+0x1d50>
   13134:	000a8c93          	mv	s9,s5
   13138:	fffa049b          	addiw	s1,s4,-1
   1313c:	04905663          	blez	s1,13188 <_vfprintf_r+0x1494>
   13140:	00020b37          	lui	s6,0x20
   13144:	01000c13          	li	s8,16
   13148:	850b0b13          	addi	s6,s6,-1968 # 1f850 <zeroes.4441>
   1314c:	00700d13          	li	s10,7
   13150:	10812703          	lw	a4,264(sp)
   13154:	016cb023          	sd	s6,0(s9)
   13158:	11013783          	ld	a5,272(sp)
   1315c:	0017069b          	addiw	a3,a4,1
   13160:	00068713          	mv	a4,a3
   13164:	010c8613          	addi	a2,s9,16
   13168:	069c4a63          	blt	s8,s1,131dc <_vfprintf_r+0x14e8>
   1316c:	009cb423          	sd	s1,8(s9)
   13170:	00f484b3          	add	s1,s1,a5
   13174:	10913823          	sd	s1,272(sp)
   13178:	10d12423          	sw	a3,264(sp)
   1317c:	00700793          	li	a5,7
   13180:	00060c93          	mv	s9,a2
   13184:	aad7ca63          	blt	a5,a3,12438 <_vfprintf_r+0x744>
   13188:	00447413          	andi	s0,s0,4
   1318c:	04041ae3          	bnez	s0,139e0 <_vfprintf_r+0x1cec>
   13190:	02013703          	ld	a4,32(sp)
   13194:	03813683          	ld	a3,56(sp)
   13198:	02012783          	lw	a5,32(sp)
   1319c:	00d75463          	bge	a4,a3,131a4 <_vfprintf_r+0x14b0>
   131a0:	03812783          	lw	a5,56(sp)
   131a4:	02812703          	lw	a4,40(sp)
   131a8:	00e787bb          	addw	a5,a5,a4
   131ac:	02f13423          	sd	a5,40(sp)
   131b0:	11013783          	ld	a5,272(sp)
   131b4:	00078c63          	beqz	a5,131cc <_vfprintf_r+0x14d8>
   131b8:	10010613          	addi	a2,sp,256
   131bc:	00090593          	mv	a1,s2
   131c0:	00098513          	mv	a0,s3
   131c4:	1f1070ef          	jal	ra,1abb4 <__sprint_r>
   131c8:	06051ee3          	bnez	a0,13a44 <_vfprintf_r+0x1d50>
   131cc:	10012423          	sw	zero,264(sp)
   131d0:	0c0b92e3          	bnez	s7,13a94 <_vfprintf_r+0x1da0>
   131d4:	000a8c93          	mv	s9,s5
   131d8:	a05ff06f          	j	12bdc <_vfprintf_r+0xee8>
   131dc:	01078793          	addi	a5,a5,16
   131e0:	018cb423          	sd	s8,8(s9)
   131e4:	10f13823          	sd	a5,272(sp)
   131e8:	10e12423          	sw	a4,264(sp)
   131ec:	00dd5e63          	bge	s10,a3,13208 <_vfprintf_r+0x1514>
   131f0:	10010613          	addi	a2,sp,256
   131f4:	00090593          	mv	a1,s2
   131f8:	00098513          	mv	a0,s3
   131fc:	1b9070ef          	jal	ra,1abb4 <__sprint_r>
   13200:	040512e3          	bnez	a0,13a44 <_vfprintf_r+0x1d50>
   13204:	000a8613          	mv	a2,s5
   13208:	ff04849b          	addiw	s1,s1,-16
   1320c:	00060c93          	mv	s9,a2
   13210:	f41ff06f          	j	13150 <_vfprintf_r+0x145c>
   13214:	0d812683          	lw	a3,216(sp)
   13218:	18d04463          	bgtz	a3,133a0 <_vfprintf_r+0x16ac>
   1321c:	000207b7          	lui	a5,0x20
   13220:	8e078793          	addi	a5,a5,-1824 # 1f8e0 <zeroes.4441+0x90>
   13224:	00fcb023          	sd	a5,0(s9)
   13228:	00100793          	li	a5,1
   1322c:	00fcb423          	sd	a5,8(s9)
   13230:	10812783          	lw	a5,264(sp)
   13234:	00170713          	addi	a4,a4,1
   13238:	10e13823          	sd	a4,272(sp)
   1323c:	0017871b          	addiw	a4,a5,1
   13240:	10e12423          	sw	a4,264(sp)
   13244:	00700793          	li	a5,7
   13248:	010c8c93          	addi	s9,s9,16
   1324c:	00e7de63          	bge	a5,a4,13268 <_vfprintf_r+0x1574>
   13250:	10010613          	addi	a2,sp,256
   13254:	00090593          	mv	a1,s2
   13258:	00098513          	mv	a0,s3
   1325c:	159070ef          	jal	ra,1abb4 <__sprint_r>
   13260:	7e051263          	bnez	a0,13a44 <_vfprintf_r+0x1d50>
   13264:	000a8c93          	mv	s9,s5
   13268:	0d812783          	lw	a5,216(sp)
   1326c:	00079863          	bnez	a5,1327c <_vfprintf_r+0x1588>
   13270:	000a1663          	bnez	s4,1327c <_vfprintf_r+0x1588>
   13274:	00147793          	andi	a5,s0,1
   13278:	f00788e3          	beqz	a5,13188 <_vfprintf_r+0x1494>
   1327c:	04813783          	ld	a5,72(sp)
   13280:	01813703          	ld	a4,24(sp)
   13284:	010c8313          	addi	t1,s9,16
   13288:	00fcb023          	sd	a5,0(s9)
   1328c:	01813783          	ld	a5,24(sp)
   13290:	00fcb423          	sd	a5,8(s9)
   13294:	11013783          	ld	a5,272(sp)
   13298:	00e787b3          	add	a5,a5,a4
   1329c:	10f13823          	sd	a5,272(sp)
   132a0:	10812783          	lw	a5,264(sp)
   132a4:	0017871b          	addiw	a4,a5,1
   132a8:	10e12423          	sw	a4,264(sp)
   132ac:	00700793          	li	a5,7
   132b0:	00e7de63          	bge	a5,a4,132cc <_vfprintf_r+0x15d8>
   132b4:	10010613          	addi	a2,sp,256
   132b8:	00090593          	mv	a1,s2
   132bc:	00098513          	mv	a0,s3
   132c0:	0f5070ef          	jal	ra,1abb4 <__sprint_r>
   132c4:	78051063          	bnez	a0,13a44 <_vfprintf_r+0x1d50>
   132c8:	000a8313          	mv	t1,s5
   132cc:	0d812b03          	lw	s6,216(sp)
   132d0:	060b5463          	bgez	s6,13338 <_vfprintf_r+0x1644>
   132d4:	00020c37          	lui	s8,0x20
   132d8:	41600b3b          	negw	s6,s6
   132dc:	00030793          	mv	a5,t1
   132e0:	01000d13          	li	s10,16
   132e4:	850c0c13          	addi	s8,s8,-1968 # 1f850 <zeroes.4441>
   132e8:	00700c93          	li	s9,7
   132ec:	10812683          	lw	a3,264(sp)
   132f0:	0187b023          	sd	s8,0(a5)
   132f4:	11013703          	ld	a4,272(sp)
   132f8:	0016861b          	addiw	a2,a3,1
   132fc:	00060693          	mv	a3,a2
   13300:	01030313          	addi	t1,t1,16
   13304:	076d4263          	blt	s10,s6,13368 <_vfprintf_r+0x1674>
   13308:	0167b423          	sd	s6,8(a5)
   1330c:	00eb0b33          	add	s6,s6,a4
   13310:	11613823          	sd	s6,272(sp)
   13314:	10c12423          	sw	a2,264(sp)
   13318:	00700793          	li	a5,7
   1331c:	00c7de63          	bge	a5,a2,13338 <_vfprintf_r+0x1644>
   13320:	10010613          	addi	a2,sp,256
   13324:	00090593          	mv	a1,s2
   13328:	00098513          	mv	a0,s3
   1332c:	089070ef          	jal	ra,1abb4 <__sprint_r>
   13330:	70051a63          	bnez	a0,13a44 <_vfprintf_r+0x1d50>
   13334:	000a8313          	mv	t1,s5
   13338:	11013783          	ld	a5,272(sp)
   1333c:	00933023          	sd	s1,0(t1)
   13340:	01433423          	sd	s4,8(t1)
   13344:	014787b3          	add	a5,a5,s4
   13348:	10f13823          	sd	a5,272(sp)
   1334c:	10812783          	lw	a5,264(sp)
   13350:	01030c93          	addi	s9,t1,16
   13354:	0017871b          	addiw	a4,a5,1
   13358:	10e12423          	sw	a4,264(sp)
   1335c:	00700793          	li	a5,7
   13360:	e2e7d4e3          	bge	a5,a4,13188 <_vfprintf_r+0x1494>
   13364:	8d4ff06f          	j	12438 <_vfprintf_r+0x744>
   13368:	01070713          	addi	a4,a4,16
   1336c:	01a7b423          	sd	s10,8(a5)
   13370:	10e13823          	sd	a4,272(sp)
   13374:	10d12423          	sw	a3,264(sp)
   13378:	00ccde63          	bge	s9,a2,13394 <_vfprintf_r+0x16a0>
   1337c:	10010613          	addi	a2,sp,256
   13380:	00090593          	mv	a1,s2
   13384:	00098513          	mv	a0,s3
   13388:	02d070ef          	jal	ra,1abb4 <__sprint_r>
   1338c:	6a051c63          	bnez	a0,13a44 <_vfprintf_r+0x1d50>
   13390:	000a8313          	mv	t1,s5
   13394:	ff0b0b1b          	addiw	s6,s6,-16
   13398:	00030793          	mv	a5,t1
   1339c:	f51ff06f          	j	132ec <_vfprintf_r+0x15f8>
   133a0:	000d0b1b          	sext.w	s6,s10
   133a4:	01aa5463          	bge	s4,s10,133ac <_vfprintf_r+0x16b8>
   133a8:	000a0b1b          	sext.w	s6,s4
   133ac:	05605263          	blez	s6,133f0 <_vfprintf_r+0x16fc>
   133b0:	00eb0733          	add	a4,s6,a4
   133b4:	10e13823          	sd	a4,272(sp)
   133b8:	10812703          	lw	a4,264(sp)
   133bc:	009cb023          	sd	s1,0(s9)
   133c0:	016cb423          	sd	s6,8(s9)
   133c4:	0017069b          	addiw	a3,a4,1
   133c8:	10d12423          	sw	a3,264(sp)
   133cc:	00700713          	li	a4,7
   133d0:	010c8c93          	addi	s9,s9,16
   133d4:	00d75e63          	bge	a4,a3,133f0 <_vfprintf_r+0x16fc>
   133d8:	10010613          	addi	a2,sp,256
   133dc:	00090593          	mv	a1,s2
   133e0:	00098513          	mv	a0,s3
   133e4:	7d0070ef          	jal	ra,1abb4 <__sprint_r>
   133e8:	64051e63          	bnez	a0,13a44 <_vfprintf_r+0x1d50>
   133ec:	000a8c93          	mv	s9,s5
   133f0:	000b0713          	mv	a4,s6
   133f4:	000b5463          	bgez	s6,133fc <_vfprintf_r+0x1708>
   133f8:	00000713          	li	a4,0
   133fc:	40ed0b3b          	subw	s6,s10,a4
   13400:	07605263          	blez	s6,13464 <_vfprintf_r+0x1770>
   13404:	000206b7          	lui	a3,0x20
   13408:	01000813          	li	a6,16
   1340c:	85068d93          	addi	s11,a3,-1968 # 1f850 <zeroes.4441>
   13410:	00700893          	li	a7,7
   13414:	10812603          	lw	a2,264(sp)
   13418:	01bcb023          	sd	s11,0(s9)
   1341c:	11013703          	ld	a4,272(sp)
   13420:	0016059b          	addiw	a1,a2,1
   13424:	00058613          	mv	a2,a1
   13428:	010c8513          	addi	a0,s9,16
   1342c:	1b684c63          	blt	a6,s6,135e4 <_vfprintf_r+0x18f0>
   13430:	016cb423          	sd	s6,8(s9)
   13434:	00eb0b33          	add	s6,s6,a4
   13438:	11613823          	sd	s6,272(sp)
   1343c:	10b12423          	sw	a1,264(sp)
   13440:	00700713          	li	a4,7
   13444:	00050c93          	mv	s9,a0
   13448:	00b75e63          	bge	a4,a1,13464 <_vfprintf_r+0x1770>
   1344c:	10010613          	addi	a2,sp,256
   13450:	00090593          	mv	a1,s2
   13454:	00098513          	mv	a0,s3
   13458:	75c070ef          	jal	ra,1abb4 <__sprint_r>
   1345c:	5e051463          	bnez	a0,13a44 <_vfprintf_r+0x1d50>
   13460:	000a8c93          	mv	s9,s5
   13464:	40047793          	andi	a5,s0,1024
   13468:	01a48b33          	add	s6,s1,s10
   1346c:	02078a63          	beqz	a5,134a0 <_vfprintf_r+0x17ac>
   13470:	014487b3          	add	a5,s1,s4
   13474:	06f13423          	sd	a5,104(sp)
   13478:	000207b7          	lui	a5,0x20
   1347c:	85078793          	addi	a5,a5,-1968 # 1f850 <zeroes.4441>
   13480:	00700d93          	li	s11,7
   13484:	00078d13          	mv	s10,a5
   13488:	00813783          	ld	a5,8(sp)
   1348c:	1a0c1063          	bnez	s8,1362c <_vfprintf_r+0x1938>
   13490:	1a079063          	bnez	a5,13630 <_vfprintf_r+0x193c>
   13494:	014487b3          	add	a5,s1,s4
   13498:	0167f463          	bgeu	a5,s6,134a0 <_vfprintf_r+0x17ac>
   1349c:	00078b13          	mv	s6,a5
   134a0:	0d812783          	lw	a5,216(sp)
   134a4:	0147c663          	blt	a5,s4,134b0 <_vfprintf_r+0x17bc>
   134a8:	00147793          	andi	a5,s0,1
   134ac:	04078a63          	beqz	a5,13500 <_vfprintf_r+0x180c>
   134b0:	04813783          	ld	a5,72(sp)
   134b4:	01813703          	ld	a4,24(sp)
   134b8:	010c8c93          	addi	s9,s9,16
   134bc:	fefcb823          	sd	a5,-16(s9)
   134c0:	01813783          	ld	a5,24(sp)
   134c4:	fefcbc23          	sd	a5,-8(s9)
   134c8:	11013783          	ld	a5,272(sp)
   134cc:	00e787b3          	add	a5,a5,a4
   134d0:	10f13823          	sd	a5,272(sp)
   134d4:	10812783          	lw	a5,264(sp)
   134d8:	0017871b          	addiw	a4,a5,1
   134dc:	10e12423          	sw	a4,264(sp)
   134e0:	00700793          	li	a5,7
   134e4:	00e7de63          	bge	a5,a4,13500 <_vfprintf_r+0x180c>
   134e8:	10010613          	addi	a2,sp,256
   134ec:	00090593          	mv	a1,s2
   134f0:	00098513          	mv	a0,s3
   134f4:	6c0070ef          	jal	ra,1abb4 <__sprint_r>
   134f8:	54051663          	bnez	a0,13a44 <_vfprintf_r+0x1d50>
   134fc:	000a8c93          	mv	s9,s5
   13500:	0d812c03          	lw	s8,216(sp)
   13504:	014484b3          	add	s1,s1,s4
   13508:	416484bb          	subw	s1,s1,s6
   1350c:	418a07bb          	subw	a5,s4,s8
   13510:	00078c13          	mv	s8,a5
   13514:	00f4d463          	bge	s1,a5,1351c <_vfprintf_r+0x1828>
   13518:	00048c1b          	sext.w	s8,s1
   1351c:	05805463          	blez	s8,13564 <_vfprintf_r+0x1870>
   13520:	11013783          	ld	a5,272(sp)
   13524:	016cb023          	sd	s6,0(s9)
   13528:	018cb423          	sd	s8,8(s9)
   1352c:	00fc07b3          	add	a5,s8,a5
   13530:	10f13823          	sd	a5,272(sp)
   13534:	10812783          	lw	a5,264(sp)
   13538:	010c8c93          	addi	s9,s9,16
   1353c:	0017871b          	addiw	a4,a5,1
   13540:	10e12423          	sw	a4,264(sp)
   13544:	00700793          	li	a5,7
   13548:	00e7de63          	bge	a5,a4,13564 <_vfprintf_r+0x1870>
   1354c:	10010613          	addi	a2,sp,256
   13550:	00090593          	mv	a1,s2
   13554:	00098513          	mv	a0,s3
   13558:	65c070ef          	jal	ra,1abb4 <__sprint_r>
   1355c:	4e051463          	bnez	a0,13a44 <_vfprintf_r+0x1d50>
   13560:	000a8c93          	mv	s9,s5
   13564:	000c0793          	mv	a5,s8
   13568:	000c5463          	bgez	s8,13570 <_vfprintf_r+0x187c>
   1356c:	00000793          	li	a5,0
   13570:	0d812483          	lw	s1,216(sp)
   13574:	409a04bb          	subw	s1,s4,s1
   13578:	40f484bb          	subw	s1,s1,a5
   1357c:	c09056e3          	blez	s1,13188 <_vfprintf_r+0x1494>
   13580:	00020b37          	lui	s6,0x20
   13584:	01000c13          	li	s8,16
   13588:	850b0b13          	addi	s6,s6,-1968 # 1f850 <zeroes.4441>
   1358c:	00700d13          	li	s10,7
   13590:	10812703          	lw	a4,264(sp)
   13594:	016cb023          	sd	s6,0(s9)
   13598:	11013783          	ld	a5,272(sp)
   1359c:	0017069b          	addiw	a3,a4,1
   135a0:	00068713          	mv	a4,a3
   135a4:	010c8613          	addi	a2,s9,16
   135a8:	229c4063          	blt	s8,s1,137c8 <_vfprintf_r+0x1ad4>
   135ac:	009cb423          	sd	s1,8(s9)
   135b0:	00f484b3          	add	s1,s1,a5
   135b4:	10913823          	sd	s1,272(sp)
   135b8:	10d12423          	sw	a3,264(sp)
   135bc:	00700793          	li	a5,7
   135c0:	00060c93          	mv	s9,a2
   135c4:	bcd7d2e3          	bge	a5,a3,13188 <_vfprintf_r+0x1494>
   135c8:	10010613          	addi	a2,sp,256
   135cc:	00090593          	mv	a1,s2
   135d0:	00098513          	mv	a0,s3
   135d4:	5e0070ef          	jal	ra,1abb4 <__sprint_r>
   135d8:	46051663          	bnez	a0,13a44 <_vfprintf_r+0x1d50>
   135dc:	18010c93          	addi	s9,sp,384
   135e0:	ba9ff06f          	j	13188 <_vfprintf_r+0x1494>
   135e4:	01070713          	addi	a4,a4,16
   135e8:	010cb423          	sd	a6,8(s9)
   135ec:	10e13823          	sd	a4,272(sp)
   135f0:	10c12423          	sw	a2,264(sp)
   135f4:	02b8d663          	bge	a7,a1,13620 <_vfprintf_r+0x192c>
   135f8:	10010613          	addi	a2,sp,256
   135fc:	00090593          	mv	a1,s2
   13600:	00098513          	mv	a0,s3
   13604:	07113823          	sd	a7,112(sp)
   13608:	07013423          	sd	a6,104(sp)
   1360c:	5a8070ef          	jal	ra,1abb4 <__sprint_r>
   13610:	42051a63          	bnez	a0,13a44 <_vfprintf_r+0x1d50>
   13614:	07013883          	ld	a7,112(sp)
   13618:	06813803          	ld	a6,104(sp)
   1361c:	000a8513          	mv	a0,s5
   13620:	ff0b0b1b          	addiw	s6,s6,-16
   13624:	00050c93          	mv	s9,a0
   13628:	dedff06f          	j	13414 <_vfprintf_r+0x1720>
   1362c:	0e078863          	beqz	a5,1371c <_vfprintf_r+0x1a28>
   13630:	00812783          	lw	a5,8(sp)
   13634:	fff7879b          	addiw	a5,a5,-1
   13638:	00f13423          	sd	a5,8(sp)
   1363c:	05013783          	ld	a5,80(sp)
   13640:	04013703          	ld	a4,64(sp)
   13644:	010c8c93          	addi	s9,s9,16
   13648:	fefcb823          	sd	a5,-16(s9)
   1364c:	04013783          	ld	a5,64(sp)
   13650:	fefcbc23          	sd	a5,-8(s9)
   13654:	11013783          	ld	a5,272(sp)
   13658:	00e787b3          	add	a5,a5,a4
   1365c:	10f13823          	sd	a5,272(sp)
   13660:	10812783          	lw	a5,264(sp)
   13664:	0017871b          	addiw	a4,a5,1
   13668:	10e12423          	sw	a4,264(sp)
   1366c:	00edde63          	bge	s11,a4,13688 <_vfprintf_r+0x1994>
   13670:	10010613          	addi	a2,sp,256
   13674:	00090593          	mv	a1,s2
   13678:	00098513          	mv	a0,s3
   1367c:	538070ef          	jal	ra,1abb4 <__sprint_r>
   13680:	3c051263          	bnez	a0,13a44 <_vfprintf_r+0x1d50>
   13684:	000a8c93          	mv	s9,s5
   13688:	00013703          	ld	a4,0(sp)
   1368c:	06812783          	lw	a5,104(sp)
   13690:	00074703          	lbu	a4,0(a4)
   13694:	416787bb          	subw	a5,a5,s6
   13698:	00e7d463          	bge	a5,a4,136a0 <_vfprintf_r+0x19ac>
   1369c:	0007871b          	sext.w	a4,a5
   136a0:	04e05663          	blez	a4,136ec <_vfprintf_r+0x19f8>
   136a4:	11013783          	ld	a5,272(sp)
   136a8:	016cb023          	sd	s6,0(s9)
   136ac:	00ecb423          	sd	a4,8(s9)
   136b0:	00f707b3          	add	a5,a4,a5
   136b4:	10f13823          	sd	a5,272(sp)
   136b8:	10812783          	lw	a5,264(sp)
   136bc:	010c8c93          	addi	s9,s9,16
   136c0:	0017869b          	addiw	a3,a5,1
   136c4:	10d12423          	sw	a3,264(sp)
   136c8:	02ddd263          	bge	s11,a3,136ec <_vfprintf_r+0x19f8>
   136cc:	10010613          	addi	a2,sp,256
   136d0:	00090593          	mv	a1,s2
   136d4:	00098513          	mv	a0,s3
   136d8:	06e13823          	sd	a4,112(sp)
   136dc:	4d8070ef          	jal	ra,1abb4 <__sprint_r>
   136e0:	36051263          	bnez	a0,13a44 <_vfprintf_r+0x1d50>
   136e4:	07013703          	ld	a4,112(sp)
   136e8:	18010c93          	addi	s9,sp,384
   136ec:	00070693          	mv	a3,a4
   136f0:	00075463          	bgez	a4,136f8 <_vfprintf_r+0x1a04>
   136f4:	00000693          	li	a3,0
   136f8:	00013783          	ld	a5,0(sp)
   136fc:	01000813          	li	a6,16
   13700:	0007c783          	lbu	a5,0(a5)
   13704:	40d787bb          	subw	a5,a5,a3
   13708:	06f04863          	bgtz	a5,13778 <_vfprintf_r+0x1a84>
   1370c:	00013783          	ld	a5,0(sp)
   13710:	0007c783          	lbu	a5,0(a5)
   13714:	00fb0b33          	add	s6,s6,a5
   13718:	d71ff06f          	j	13488 <_vfprintf_r+0x1794>
   1371c:	00013783          	ld	a5,0(sp)
   13720:	fffc0c1b          	addiw	s8,s8,-1
   13724:	fff78793          	addi	a5,a5,-1
   13728:	00f13023          	sd	a5,0(sp)
   1372c:	f11ff06f          	j	1363c <_vfprintf_r+0x1948>
   13730:	01070713          	addi	a4,a4,16
   13734:	01acb023          	sd	s10,0(s9)
   13738:	010cb423          	sd	a6,8(s9)
   1373c:	10e13823          	sd	a4,272(sp)
   13740:	10d12423          	sw	a3,264(sp)
   13744:	02cdd663          	bge	s11,a2,13770 <_vfprintf_r+0x1a7c>
   13748:	10010613          	addi	a2,sp,256
   1374c:	00090593          	mv	a1,s2
   13750:	00098513          	mv	a0,s3
   13754:	07013c23          	sd	a6,120(sp)
   13758:	06f13823          	sd	a5,112(sp)
   1375c:	458070ef          	jal	ra,1abb4 <__sprint_r>
   13760:	2e051263          	bnez	a0,13a44 <_vfprintf_r+0x1d50>
   13764:	07813803          	ld	a6,120(sp)
   13768:	07013783          	ld	a5,112(sp)
   1376c:	18010593          	addi	a1,sp,384
   13770:	ff07879b          	addiw	a5,a5,-16
   13774:	00058c93          	mv	s9,a1
   13778:	10812683          	lw	a3,264(sp)
   1377c:	11013703          	ld	a4,272(sp)
   13780:	010c8593          	addi	a1,s9,16
   13784:	0016861b          	addiw	a2,a3,1
   13788:	00060693          	mv	a3,a2
   1378c:	faf842e3          	blt	a6,a5,13730 <_vfprintf_r+0x1a3c>
   13790:	00fcb423          	sd	a5,8(s9)
   13794:	00e787b3          	add	a5,a5,a4
   13798:	01acb023          	sd	s10,0(s9)
   1379c:	10f13823          	sd	a5,272(sp)
   137a0:	10c12423          	sw	a2,264(sp)
   137a4:	00058c93          	mv	s9,a1
   137a8:	f6cdd2e3          	bge	s11,a2,1370c <_vfprintf_r+0x1a18>
   137ac:	10010613          	addi	a2,sp,256
   137b0:	00090593          	mv	a1,s2
   137b4:	00098513          	mv	a0,s3
   137b8:	3fc070ef          	jal	ra,1abb4 <__sprint_r>
   137bc:	28051463          	bnez	a0,13a44 <_vfprintf_r+0x1d50>
   137c0:	18010c93          	addi	s9,sp,384
   137c4:	f49ff06f          	j	1370c <_vfprintf_r+0x1a18>
   137c8:	01078793          	addi	a5,a5,16
   137cc:	018cb423          	sd	s8,8(s9)
   137d0:	10f13823          	sd	a5,272(sp)
   137d4:	10e12423          	sw	a4,264(sp)
   137d8:	00dd5e63          	bge	s10,a3,137f4 <_vfprintf_r+0x1b00>
   137dc:	10010613          	addi	a2,sp,256
   137e0:	00090593          	mv	a1,s2
   137e4:	00098513          	mv	a0,s3
   137e8:	3cc070ef          	jal	ra,1abb4 <__sprint_r>
   137ec:	24051c63          	bnez	a0,13a44 <_vfprintf_r+0x1d50>
   137f0:	18010613          	addi	a2,sp,384
   137f4:	ff04849b          	addiw	s1,s1,-16
   137f8:	00060c93          	mv	s9,a2
   137fc:	d95ff06f          	j	13590 <_vfprintf_r+0x189c>
   13800:	10812783          	lw	a5,264(sp)
   13804:	00100613          	li	a2,1
   13808:	009cb023          	sd	s1,0(s9)
   1380c:	0017869b          	addiw	a3,a5,1
   13810:	00170713          	addi	a4,a4,1
   13814:	00068793          	mv	a5,a3
   13818:	010c8c13          	addi	s8,s9,16
   1381c:	01464663          	blt	a2,s4,13828 <_vfprintf_r+0x1b34>
   13820:	00147593          	andi	a1,s0,1
   13824:	1a058463          	beqz	a1,139cc <_vfprintf_r+0x1cd8>
   13828:	00100613          	li	a2,1
   1382c:	10f12423          	sw	a5,264(sp)
   13830:	00ccb423          	sd	a2,8(s9)
   13834:	10e13823          	sd	a4,272(sp)
   13838:	00700793          	li	a5,7
   1383c:	00d7de63          	bge	a5,a3,13858 <_vfprintf_r+0x1b64>
   13840:	10010613          	addi	a2,sp,256
   13844:	00090593          	mv	a1,s2
   13848:	00098513          	mv	a0,s3
   1384c:	368070ef          	jal	ra,1abb4 <__sprint_r>
   13850:	1e051a63          	bnez	a0,13a44 <_vfprintf_r+0x1d50>
   13854:	000a8c13          	mv	s8,s5
   13858:	04813783          	ld	a5,72(sp)
   1385c:	01813703          	ld	a4,24(sp)
   13860:	010c0c13          	addi	s8,s8,16
   13864:	fefc3823          	sd	a5,-16(s8)
   13868:	01813783          	ld	a5,24(sp)
   1386c:	fefc3c23          	sd	a5,-8(s8)
   13870:	11013783          	ld	a5,272(sp)
   13874:	00e787b3          	add	a5,a5,a4
   13878:	10f13823          	sd	a5,272(sp)
   1387c:	10812783          	lw	a5,264(sp)
   13880:	0017871b          	addiw	a4,a5,1
   13884:	10e12423          	sw	a4,264(sp)
   13888:	00700793          	li	a5,7
   1388c:	00e7de63          	bge	a5,a4,138a8 <_vfprintf_r+0x1bb4>
   13890:	10010613          	addi	a2,sp,256
   13894:	00090593          	mv	a1,s2
   13898:	00098513          	mv	a0,s3
   1389c:	318070ef          	jal	ra,1abb4 <__sprint_r>
   138a0:	1a051263          	bnez	a0,13a44 <_vfprintf_r+0x1d50>
   138a4:	000a8c13          	mv	s8,s5
   138a8:	0f013503          	ld	a0,240(sp)
   138ac:	0f813583          	ld	a1,248(sp)
   138b0:	00000613          	li	a2,0
   138b4:	00000693          	li	a3,0
   138b8:	fffa0b1b          	addiw	s6,s4,-1
   138bc:	329090ef          	jal	ra,1d3e4 <__eqtf2>
   138c0:	08050463          	beqz	a0,13948 <_vfprintf_r+0x1c54>
   138c4:	10812703          	lw	a4,264(sp)
   138c8:	11013783          	ld	a5,272(sp)
   138cc:	00148493          	addi	s1,s1,1
   138d0:	0017069b          	addiw	a3,a4,1
   138d4:	00fb07b3          	add	a5,s6,a5
   138d8:	009c3023          	sd	s1,0(s8)
   138dc:	016c3423          	sd	s6,8(s8)
   138e0:	10f13823          	sd	a5,272(sp)
   138e4:	10d12423          	sw	a3,264(sp)
   138e8:	00700793          	li	a5,7
   138ec:	010c0c13          	addi	s8,s8,16
   138f0:	00d7de63          	bge	a5,a3,1390c <_vfprintf_r+0x1c18>
   138f4:	10010613          	addi	a2,sp,256
   138f8:	00090593          	mv	a1,s2
   138fc:	00098513          	mv	a0,s3
   13900:	2b4070ef          	jal	ra,1abb4 <__sprint_r>
   13904:	14051063          	bnez	a0,13a44 <_vfprintf_r+0x1d50>
   13908:	000a8c13          	mv	s8,s5
   1390c:	0e010793          	addi	a5,sp,224
   13910:	00fc3023          	sd	a5,0(s8)
   13914:	05813783          	ld	a5,88(sp)
   13918:	05813703          	ld	a4,88(sp)
   1391c:	010c0c93          	addi	s9,s8,16
   13920:	00fc3423          	sd	a5,8(s8)
   13924:	11013783          	ld	a5,272(sp)
   13928:	00e787b3          	add	a5,a5,a4
   1392c:	10f13823          	sd	a5,272(sp)
   13930:	10812783          	lw	a5,264(sp)
   13934:	0017871b          	addiw	a4,a5,1
   13938:	10e12423          	sw	a4,264(sp)
   1393c:	00700793          	li	a5,7
   13940:	84e7d4e3          	bge	a5,a4,13188 <_vfprintf_r+0x1494>
   13944:	af5fe06f          	j	12438 <_vfprintf_r+0x744>
   13948:	fd6052e3          	blez	s6,1390c <_vfprintf_r+0x1c18>
   1394c:	000204b7          	lui	s1,0x20
   13950:	01000d13          	li	s10,16
   13954:	85048493          	addi	s1,s1,-1968 # 1f850 <zeroes.4441>
   13958:	00700c93          	li	s9,7
   1395c:	10812703          	lw	a4,264(sp)
   13960:	009c3023          	sd	s1,0(s8)
   13964:	11013783          	ld	a5,272(sp)
   13968:	0017069b          	addiw	a3,a4,1
   1396c:	00068713          	mv	a4,a3
   13970:	010c0613          	addi	a2,s8,16
   13974:	036d4063          	blt	s10,s6,13994 <_vfprintf_r+0x1ca0>
   13978:	00fb07b3          	add	a5,s6,a5
   1397c:	016c3423          	sd	s6,8(s8)
   13980:	10f13823          	sd	a5,272(sp)
   13984:	10d12423          	sw	a3,264(sp)
   13988:	00700793          	li	a5,7
   1398c:	00060c13          	mv	s8,a2
   13990:	f61ff06f          	j	138f0 <_vfprintf_r+0x1bfc>
   13994:	01078793          	addi	a5,a5,16
   13998:	01ac3423          	sd	s10,8(s8)
   1399c:	10f13823          	sd	a5,272(sp)
   139a0:	10e12423          	sw	a4,264(sp)
   139a4:	00dcde63          	bge	s9,a3,139c0 <_vfprintf_r+0x1ccc>
   139a8:	10010613          	addi	a2,sp,256
   139ac:	00090593          	mv	a1,s2
   139b0:	00098513          	mv	a0,s3
   139b4:	200070ef          	jal	ra,1abb4 <__sprint_r>
   139b8:	08051663          	bnez	a0,13a44 <_vfprintf_r+0x1d50>
   139bc:	000a8613          	mv	a2,s5
   139c0:	ff0b0b1b          	addiw	s6,s6,-16
   139c4:	00060c13          	mv	s8,a2
   139c8:	f95ff06f          	j	1395c <_vfprintf_r+0x1c68>
   139cc:	00ccb423          	sd	a2,8(s9)
   139d0:	10e13823          	sd	a4,272(sp)
   139d4:	10d12423          	sw	a3,264(sp)
   139d8:	00700793          	li	a5,7
   139dc:	f15ff06f          	j	138f0 <_vfprintf_r+0x1bfc>
   139e0:	02012783          	lw	a5,32(sp)
   139e4:	03812703          	lw	a4,56(sp)
   139e8:	40e7843b          	subw	s0,a5,a4
   139ec:	fa805263          	blez	s0,13190 <_vfprintf_r+0x149c>
   139f0:	000204b7          	lui	s1,0x20
   139f4:	01000b13          	li	s6,16
   139f8:	84048493          	addi	s1,s1,-1984 # 1f840 <blanks.4440>
   139fc:	00700c13          	li	s8,7
   13a00:	10812703          	lw	a4,264(sp)
   13a04:	009cb023          	sd	s1,0(s9)
   13a08:	11013783          	ld	a5,272(sp)
   13a0c:	0017069b          	addiw	a3,a4,1
   13a10:	00068713          	mv	a4,a3
   13a14:	048b4463          	blt	s6,s0,13a5c <_vfprintf_r+0x1d68>
   13a18:	008cb423          	sd	s0,8(s9)
   13a1c:	00f40433          	add	s0,s0,a5
   13a20:	10813823          	sd	s0,272(sp)
   13a24:	10d12423          	sw	a3,264(sp)
   13a28:	00700793          	li	a5,7
   13a2c:	f6d7d263          	bge	a5,a3,13190 <_vfprintf_r+0x149c>
   13a30:	10010613          	addi	a2,sp,256
   13a34:	00090593          	mv	a1,s2
   13a38:	00098513          	mv	a0,s3
   13a3c:	178070ef          	jal	ra,1abb4 <__sprint_r>
   13a40:	f4050863          	beqz	a0,13190 <_vfprintf_r+0x149c>
   13a44:	000b9463          	bnez	s7,13a4c <_vfprintf_r+0x1d58>
   13a48:	bc9fe06f          	j	12610 <_vfprintf_r+0x91c>
   13a4c:	000b8593          	mv	a1,s7
   13a50:	00098513          	mv	a0,s3
   13a54:	249000ef          	jal	ra,1449c <_free_r>
   13a58:	bb9fe06f          	j	12610 <_vfprintf_r+0x91c>
   13a5c:	01078793          	addi	a5,a5,16
   13a60:	016cb423          	sd	s6,8(s9)
   13a64:	10f13823          	sd	a5,272(sp)
   13a68:	10e12423          	sw	a4,264(sp)
   13a6c:	010c8c93          	addi	s9,s9,16
   13a70:	00dc5e63          	bge	s8,a3,13a8c <_vfprintf_r+0x1d98>
   13a74:	10010613          	addi	a2,sp,256
   13a78:	00090593          	mv	a1,s2
   13a7c:	00098513          	mv	a0,s3
   13a80:	134070ef          	jal	ra,1abb4 <__sprint_r>
   13a84:	fc0510e3          	bnez	a0,13a44 <_vfprintf_r+0x1d50>
   13a88:	000a8c93          	mv	s9,s5
   13a8c:	ff04041b          	addiw	s0,s0,-16
   13a90:	f71ff06f          	j	13a00 <_vfprintf_r+0x1d0c>
   13a94:	000b8593          	mv	a1,s7
   13a98:	00098513          	mv	a0,s3
   13a9c:	201000ef          	jal	ra,1449c <_free_r>
   13aa0:	f34ff06f          	j	131d4 <_vfprintf_r+0x14e0>
   13aa4:	11013783          	ld	a5,272(sp)
   13aa8:	00079463          	bnez	a5,13ab0 <_vfprintf_r+0x1dbc>
   13aac:	b65fe06f          	j	12610 <_vfprintf_r+0x91c>
   13ab0:	10010613          	addi	a2,sp,256
   13ab4:	00090593          	mv	a1,s2
   13ab8:	00098513          	mv	a0,s3
   13abc:	0f8070ef          	jal	ra,1abb4 <__sprint_r>
   13ac0:	b51fe06f          	j	12610 <_vfprintf_r+0x91c>

0000000000013ac4 <vfprintf>:
   13ac4:	00060693          	mv	a3,a2
   13ac8:	00058613          	mv	a2,a1
   13acc:	00050593          	mv	a1,a0
   13ad0:	8301b503          	ld	a0,-2000(gp) # 22500 <_impure_ptr>
   13ad4:	a20fe06f          	j	11cf4 <_vfprintf_r>

0000000000013ad8 <__sbprintf>:
   13ad8:	0105d783          	lhu	a5,16(a1)
   13adc:	b3010113          	addi	sp,sp,-1232
   13ae0:	4c813023          	sd	s0,1216(sp)
   13ae4:	ffd7f793          	andi	a5,a5,-3
   13ae8:	00f11823          	sh	a5,16(sp)
   13aec:	0ac5a783          	lw	a5,172(a1)
   13af0:	00058413          	mv	s0,a1
   13af4:	4a913c23          	sd	s1,1208(sp)
   13af8:	0af12623          	sw	a5,172(sp)
   13afc:	0125d783          	lhu	a5,18(a1)
   13b00:	4b213823          	sd	s2,1200(sp)
   13b04:	4c113423          	sd	ra,1224(sp)
   13b08:	00f11923          	sh	a5,18(sp)
   13b0c:	0305b783          	ld	a5,48(a1)
   13b10:	00050913          	mv	s2,a0
   13b14:	02012423          	sw	zero,40(sp)
   13b18:	02f13823          	sd	a5,48(sp)
   13b1c:	0405b783          	ld	a5,64(a1)
   13b20:	00010593          	mv	a1,sp
   13b24:	04f13023          	sd	a5,64(sp)
   13b28:	0b010793          	addi	a5,sp,176
   13b2c:	00f13023          	sd	a5,0(sp)
   13b30:	00f13c23          	sd	a5,24(sp)
   13b34:	40000793          	li	a5,1024
   13b38:	00f12623          	sw	a5,12(sp)
   13b3c:	02f12023          	sw	a5,32(sp)
   13b40:	9b4fe0ef          	jal	ra,11cf4 <_vfprintf_r>
   13b44:	00050493          	mv	s1,a0
   13b48:	00054c63          	bltz	a0,13b60 <__sbprintf+0x88>
   13b4c:	00010593          	mv	a1,sp
   13b50:	00090513          	mv	a0,s2
   13b54:	514000ef          	jal	ra,14068 <_fflush_r>
   13b58:	00050463          	beqz	a0,13b60 <__sbprintf+0x88>
   13b5c:	fff00493          	li	s1,-1
   13b60:	01015783          	lhu	a5,16(sp)
   13b64:	0407f793          	andi	a5,a5,64
   13b68:	00078863          	beqz	a5,13b78 <__sbprintf+0xa0>
   13b6c:	01045783          	lhu	a5,16(s0)
   13b70:	0407e793          	ori	a5,a5,64
   13b74:	00f41823          	sh	a5,16(s0)
   13b78:	4c813083          	ld	ra,1224(sp)
   13b7c:	4c013403          	ld	s0,1216(sp)
   13b80:	00048513          	mv	a0,s1
   13b84:	4b013903          	ld	s2,1200(sp)
   13b88:	4b813483          	ld	s1,1208(sp)
   13b8c:	4d010113          	addi	sp,sp,1232
   13b90:	00008067          	ret

0000000000013b94 <__swsetup_r>:
   13b94:	fe010113          	addi	sp,sp,-32
   13b98:	00913423          	sd	s1,8(sp)
   13b9c:	00050493          	mv	s1,a0
   13ba0:	8301b503          	ld	a0,-2000(gp) # 22500 <_impure_ptr>
   13ba4:	00813823          	sd	s0,16(sp)
   13ba8:	00113c23          	sd	ra,24(sp)
   13bac:	00058413          	mv	s0,a1
   13bb0:	00050863          	beqz	a0,13bc0 <__swsetup_r+0x2c>
   13bb4:	05052783          	lw	a5,80(a0)
   13bb8:	00079463          	bnez	a5,13bc0 <__swsetup_r+0x2c>
   13bbc:	638000ef          	jal	ra,141f4 <__sinit>
   13bc0:	01041703          	lh	a4,16(s0)
   13bc4:	03071793          	slli	a5,a4,0x30
   13bc8:	0307d793          	srli	a5,a5,0x30
   13bcc:	0087f693          	andi	a3,a5,8
   13bd0:	06069e63          	bnez	a3,13c4c <__swsetup_r+0xb8>
   13bd4:	0107f693          	andi	a3,a5,16
   13bd8:	02069663          	bnez	a3,13c04 <__swsetup_r+0x70>
   13bdc:	00900793          	li	a5,9
   13be0:	00f4a023          	sw	a5,0(s1)
   13be4:	04076713          	ori	a4,a4,64
   13be8:	00e41823          	sh	a4,16(s0)
   13bec:	fff00513          	li	a0,-1
   13bf0:	01813083          	ld	ra,24(sp)
   13bf4:	01013403          	ld	s0,16(sp)
   13bf8:	00813483          	ld	s1,8(sp)
   13bfc:	02010113          	addi	sp,sp,32
   13c00:	00008067          	ret
   13c04:	0047f793          	andi	a5,a5,4
   13c08:	02078c63          	beqz	a5,13c40 <__swsetup_r+0xac>
   13c0c:	05843583          	ld	a1,88(s0)
   13c10:	00058c63          	beqz	a1,13c28 <__swsetup_r+0x94>
   13c14:	07440793          	addi	a5,s0,116
   13c18:	00f58663          	beq	a1,a5,13c24 <__swsetup_r+0x90>
   13c1c:	00048513          	mv	a0,s1
   13c20:	07d000ef          	jal	ra,1449c <_free_r>
   13c24:	04043c23          	sd	zero,88(s0)
   13c28:	01045783          	lhu	a5,16(s0)
   13c2c:	00042423          	sw	zero,8(s0)
   13c30:	fdb7f793          	andi	a5,a5,-37
   13c34:	00f41823          	sh	a5,16(s0)
   13c38:	01843783          	ld	a5,24(s0)
   13c3c:	00f43023          	sd	a5,0(s0)
   13c40:	01045783          	lhu	a5,16(s0)
   13c44:	0087e793          	ori	a5,a5,8
   13c48:	00f41823          	sh	a5,16(s0)
   13c4c:	01843783          	ld	a5,24(s0)
   13c50:	02079063          	bnez	a5,13c70 <__swsetup_r+0xdc>
   13c54:	01045783          	lhu	a5,16(s0)
   13c58:	20000713          	li	a4,512
   13c5c:	2807f793          	andi	a5,a5,640
   13c60:	00e78863          	beq	a5,a4,13c70 <__swsetup_r+0xdc>
   13c64:	00040593          	mv	a1,s0
   13c68:	00048513          	mv	a0,s1
   13c6c:	150030ef          	jal	ra,16dbc <__smakebuf_r>
   13c70:	01045783          	lhu	a5,16(s0)
   13c74:	0017f713          	andi	a4,a5,1
   13c78:	02070c63          	beqz	a4,13cb0 <__swsetup_r+0x11c>
   13c7c:	02042783          	lw	a5,32(s0)
   13c80:	00042623          	sw	zero,12(s0)
   13c84:	40f007bb          	negw	a5,a5
   13c88:	02f42423          	sw	a5,40(s0)
   13c8c:	01843783          	ld	a5,24(s0)
   13c90:	00000513          	li	a0,0
   13c94:	f4079ee3          	bnez	a5,13bf0 <__swsetup_r+0x5c>
   13c98:	01041783          	lh	a5,16(s0)
   13c9c:	0807f713          	andi	a4,a5,128
   13ca0:	f40708e3          	beqz	a4,13bf0 <__swsetup_r+0x5c>
   13ca4:	0407e793          	ori	a5,a5,64
   13ca8:	00f41823          	sh	a5,16(s0)
   13cac:	f41ff06f          	j	13bec <__swsetup_r+0x58>
   13cb0:	0027f793          	andi	a5,a5,2
   13cb4:	00000713          	li	a4,0
   13cb8:	00079463          	bnez	a5,13cc0 <__swsetup_r+0x12c>
   13cbc:	02042703          	lw	a4,32(s0)
   13cc0:	00e42623          	sw	a4,12(s0)
   13cc4:	fc9ff06f          	j	13c8c <__swsetup_r+0xf8>

0000000000013cc8 <__register_exitproc>:
   13cc8:	8281b703          	ld	a4,-2008(gp) # 224f8 <_global_impure_ptr>
   13ccc:	00050313          	mv	t1,a0
   13cd0:	1f873783          	ld	a5,504(a4)
   13cd4:	00079663          	bnez	a5,13ce0 <__register_exitproc+0x18>
   13cd8:	20070793          	addi	a5,a4,512
   13cdc:	1ef73c23          	sd	a5,504(a4)
   13ce0:	0087a703          	lw	a4,8(a5)
   13ce4:	01f00813          	li	a6,31
   13ce8:	fff00513          	li	a0,-1
   13cec:	04e84e63          	blt	a6,a4,13d48 <__register_exitproc+0x80>
   13cf0:	02030e63          	beqz	t1,13d2c <__register_exitproc+0x64>
   13cf4:	00371813          	slli	a6,a4,0x3
   13cf8:	01078833          	add	a6,a5,a6
   13cfc:	10c83823          	sd	a2,272(a6)
   13d00:	3107a883          	lw	a7,784(a5)
   13d04:	00100613          	li	a2,1
   13d08:	00e6163b          	sllw	a2,a2,a4
   13d0c:	00c8e8b3          	or	a7,a7,a2
   13d10:	3117a823          	sw	a7,784(a5)
   13d14:	20d83823          	sd	a3,528(a6)
   13d18:	00200693          	li	a3,2
   13d1c:	00d31863          	bne	t1,a3,13d2c <__register_exitproc+0x64>
   13d20:	3147a683          	lw	a3,788(a5)
   13d24:	00c6e633          	or	a2,a3,a2
   13d28:	30c7aa23          	sw	a2,788(a5)
   13d2c:	0017069b          	addiw	a3,a4,1
   13d30:	00270713          	addi	a4,a4,2
   13d34:	00371713          	slli	a4,a4,0x3
   13d38:	00d7a423          	sw	a3,8(a5)
   13d3c:	00e787b3          	add	a5,a5,a4
   13d40:	00b7b023          	sd	a1,0(a5)
   13d44:	00000513          	li	a0,0
   13d48:	00008067          	ret

0000000000013d4c <__call_exitprocs>:
   13d4c:	fb010113          	addi	sp,sp,-80
   13d50:	03313423          	sd	s3,40(sp)
   13d54:	8281b983          	ld	s3,-2008(gp) # 224f8 <_global_impure_ptr>
   13d58:	03413023          	sd	s4,32(sp)
   13d5c:	01513c23          	sd	s5,24(sp)
   13d60:	01613823          	sd	s6,16(sp)
   13d64:	04113423          	sd	ra,72(sp)
   13d68:	04813023          	sd	s0,64(sp)
   13d6c:	02913c23          	sd	s1,56(sp)
   13d70:	03213823          	sd	s2,48(sp)
   13d74:	01713423          	sd	s7,8(sp)
   13d78:	00050a93          	mv	s5,a0
   13d7c:	00058a13          	mv	s4,a1
   13d80:	00100b13          	li	s6,1
   13d84:	1f89b403          	ld	s0,504(s3)
   13d88:	00040c63          	beqz	s0,13da0 <__call_exitprocs+0x54>
   13d8c:	00842483          	lw	s1,8(s0)
   13d90:	fff4849b          	addiw	s1,s1,-1
   13d94:	00349913          	slli	s2,s1,0x3
   13d98:	01240933          	add	s2,s0,s2
   13d9c:	0204d863          	bgez	s1,13dcc <__call_exitprocs+0x80>
   13da0:	04813083          	ld	ra,72(sp)
   13da4:	04013403          	ld	s0,64(sp)
   13da8:	03813483          	ld	s1,56(sp)
   13dac:	03013903          	ld	s2,48(sp)
   13db0:	02813983          	ld	s3,40(sp)
   13db4:	02013a03          	ld	s4,32(sp)
   13db8:	01813a83          	ld	s5,24(sp)
   13dbc:	01013b03          	ld	s6,16(sp)
   13dc0:	00813b83          	ld	s7,8(sp)
   13dc4:	05010113          	addi	sp,sp,80
   13dc8:	00008067          	ret
   13dcc:	000a0c63          	beqz	s4,13de4 <__call_exitprocs+0x98>
   13dd0:	21093783          	ld	a5,528(s2)
   13dd4:	01478863          	beq	a5,s4,13de4 <__call_exitprocs+0x98>
   13dd8:	fff4849b          	addiw	s1,s1,-1
   13ddc:	ff890913          	addi	s2,s2,-8
   13de0:	fbdff06f          	j	13d9c <__call_exitprocs+0x50>
   13de4:	00842783          	lw	a5,8(s0)
   13de8:	01093683          	ld	a3,16(s2)
   13dec:	fff7879b          	addiw	a5,a5,-1
   13df0:	02979e63          	bne	a5,s1,13e2c <__call_exitprocs+0xe0>
   13df4:	00942423          	sw	s1,8(s0)
   13df8:	fe0680e3          	beqz	a3,13dd8 <__call_exitprocs+0x8c>
   13dfc:	31042703          	lw	a4,784(s0)
   13e00:	009b163b          	sllw	a2,s6,s1
   13e04:	00842b83          	lw	s7,8(s0)
   13e08:	00c77733          	and	a4,a4,a2
   13e0c:	0007071b          	sext.w	a4,a4
   13e10:	02071263          	bnez	a4,13e34 <__call_exitprocs+0xe8>
   13e14:	000680e7          	jalr	a3
   13e18:	00842703          	lw	a4,8(s0)
   13e1c:	1f89b783          	ld	a5,504(s3)
   13e20:	f77712e3          	bne	a4,s7,13d84 <__call_exitprocs+0x38>
   13e24:	faf40ae3          	beq	s0,a5,13dd8 <__call_exitprocs+0x8c>
   13e28:	f5dff06f          	j	13d84 <__call_exitprocs+0x38>
   13e2c:	00093823          	sd	zero,16(s2)
   13e30:	fc9ff06f          	j	13df8 <__call_exitprocs+0xac>
   13e34:	31442783          	lw	a5,788(s0)
   13e38:	11093583          	ld	a1,272(s2)
   13e3c:	00c7f7b3          	and	a5,a5,a2
   13e40:	0007879b          	sext.w	a5,a5
   13e44:	00079863          	bnez	a5,13e54 <__call_exitprocs+0x108>
   13e48:	000a8513          	mv	a0,s5
   13e4c:	000680e7          	jalr	a3
   13e50:	fc9ff06f          	j	13e18 <__call_exitprocs+0xcc>
   13e54:	00058513          	mv	a0,a1
   13e58:	000680e7          	jalr	a3
   13e5c:	fbdff06f          	j	13e18 <__call_exitprocs+0xcc>

0000000000013e60 <__sflush_r>:
   13e60:	01059783          	lh	a5,16(a1)
   13e64:	fd010113          	addi	sp,sp,-48
   13e68:	02813023          	sd	s0,32(sp)
   13e6c:	03079713          	slli	a4,a5,0x30
   13e70:	03075713          	srli	a4,a4,0x30
   13e74:	00913c23          	sd	s1,24(sp)
   13e78:	02113423          	sd	ra,40(sp)
   13e7c:	01213823          	sd	s2,16(sp)
   13e80:	01313423          	sd	s3,8(sp)
   13e84:	00877693          	andi	a3,a4,8
   13e88:	00050493          	mv	s1,a0
   13e8c:	00058413          	mv	s0,a1
   13e90:	16069c63          	bnez	a3,14008 <__sflush_r+0x1a8>
   13e94:	00001737          	lui	a4,0x1
   13e98:	80070713          	addi	a4,a4,-2048 # 800 <threadsense.2706+0x800>
   13e9c:	00e7e7b3          	or	a5,a5,a4
   13ea0:	0085a703          	lw	a4,8(a1)
   13ea4:	00f59823          	sh	a5,16(a1)
   13ea8:	02e04663          	bgtz	a4,13ed4 <__sflush_r+0x74>
   13eac:	0705a703          	lw	a4,112(a1)
   13eb0:	02e04263          	bgtz	a4,13ed4 <__sflush_r+0x74>
   13eb4:	00000513          	li	a0,0
   13eb8:	02813083          	ld	ra,40(sp)
   13ebc:	02013403          	ld	s0,32(sp)
   13ec0:	01813483          	ld	s1,24(sp)
   13ec4:	01013903          	ld	s2,16(sp)
   13ec8:	00813983          	ld	s3,8(sp)
   13ecc:	03010113          	addi	sp,sp,48
   13ed0:	00008067          	ret
   13ed4:	04843703          	ld	a4,72(s0)
   13ed8:	fc070ee3          	beqz	a4,13eb4 <__sflush_r+0x54>
   13edc:	0004a903          	lw	s2,0(s1)
   13ee0:	03379693          	slli	a3,a5,0x33
   13ee4:	0004a023          	sw	zero,0(s1)
   13ee8:	03043583          	ld	a1,48(s0)
   13eec:	0c06d863          	bgez	a3,13fbc <__sflush_r+0x15c>
   13ef0:	09043603          	ld	a2,144(s0)
   13ef4:	01045783          	lhu	a5,16(s0)
   13ef8:	0047f793          	andi	a5,a5,4
   13efc:	00078e63          	beqz	a5,13f18 <__sflush_r+0xb8>
   13f00:	00842783          	lw	a5,8(s0)
   13f04:	40f60633          	sub	a2,a2,a5
   13f08:	05843783          	ld	a5,88(s0)
   13f0c:	00078663          	beqz	a5,13f18 <__sflush_r+0xb8>
   13f10:	07042783          	lw	a5,112(s0)
   13f14:	40f60633          	sub	a2,a2,a5
   13f18:	04843783          	ld	a5,72(s0)
   13f1c:	03043583          	ld	a1,48(s0)
   13f20:	00000693          	li	a3,0
   13f24:	00048513          	mv	a0,s1
   13f28:	000780e7          	jalr	a5
   13f2c:	fff00793          	li	a5,-1
   13f30:	01045683          	lhu	a3,16(s0)
   13f34:	02f51263          	bne	a0,a5,13f58 <__sflush_r+0xf8>
   13f38:	0004a783          	lw	a5,0(s1)
   13f3c:	01d00713          	li	a4,29
   13f40:	0af76c63          	bltu	a4,a5,13ff8 <__sflush_r+0x198>
   13f44:	20400737          	lui	a4,0x20400
   13f48:	00170713          	addi	a4,a4,1 # 20400001 <_end+0x203db229>
   13f4c:	00f75733          	srl	a4,a4,a5
   13f50:	00177713          	andi	a4,a4,1
   13f54:	0a070263          	beqz	a4,13ff8 <__sflush_r+0x198>
   13f58:	fffff7b7          	lui	a5,0xfffff
   13f5c:	7ff78793          	addi	a5,a5,2047 # fffffffffffff7ff <_end+0xfffffffffffdaa27>
   13f60:	01843703          	ld	a4,24(s0)
   13f64:	00d7f7b3          	and	a5,a5,a3
   13f68:	0107979b          	slliw	a5,a5,0x10
   13f6c:	4107d79b          	sraiw	a5,a5,0x10
   13f70:	00e43023          	sd	a4,0(s0)
   13f74:	00f41823          	sh	a5,16(s0)
   13f78:	00042423          	sw	zero,8(s0)
   13f7c:	03379713          	slli	a4,a5,0x33
   13f80:	00075c63          	bgez	a4,13f98 <__sflush_r+0x138>
   13f84:	fff00793          	li	a5,-1
   13f88:	00f51663          	bne	a0,a5,13f94 <__sflush_r+0x134>
   13f8c:	0004a783          	lw	a5,0(s1)
   13f90:	00079463          	bnez	a5,13f98 <__sflush_r+0x138>
   13f94:	08a43823          	sd	a0,144(s0)
   13f98:	05843583          	ld	a1,88(s0)
   13f9c:	0124a023          	sw	s2,0(s1)
   13fa0:	f0058ae3          	beqz	a1,13eb4 <__sflush_r+0x54>
   13fa4:	07440793          	addi	a5,s0,116
   13fa8:	00f58663          	beq	a1,a5,13fb4 <__sflush_r+0x154>
   13fac:	00048513          	mv	a0,s1
   13fb0:	4ec000ef          	jal	ra,1449c <_free_r>
   13fb4:	04043c23          	sd	zero,88(s0)
   13fb8:	efdff06f          	j	13eb4 <__sflush_r+0x54>
   13fbc:	00000613          	li	a2,0
   13fc0:	00100693          	li	a3,1
   13fc4:	00048513          	mv	a0,s1
   13fc8:	000700e7          	jalr	a4
   13fcc:	fff00793          	li	a5,-1
   13fd0:	00050613          	mv	a2,a0
   13fd4:	f2f510e3          	bne	a0,a5,13ef4 <__sflush_r+0x94>
   13fd8:	0004a783          	lw	a5,0(s1)
   13fdc:	f0078ce3          	beqz	a5,13ef4 <__sflush_r+0x94>
   13fe0:	01d00713          	li	a4,29
   13fe4:	00e78663          	beq	a5,a4,13ff0 <__sflush_r+0x190>
   13fe8:	01600713          	li	a4,22
   13fec:	06e79263          	bne	a5,a4,14050 <__sflush_r+0x1f0>
   13ff0:	0124a023          	sw	s2,0(s1)
   13ff4:	ec1ff06f          	j	13eb4 <__sflush_r+0x54>
   13ff8:	0406e793          	ori	a5,a3,64
   13ffc:	00f41823          	sh	a5,16(s0)
   14000:	fff00513          	li	a0,-1
   14004:	eb5ff06f          	j	13eb8 <__sflush_r+0x58>
   14008:	0185b983          	ld	s3,24(a1)
   1400c:	ea0984e3          	beqz	s3,13eb4 <__sflush_r+0x54>
   14010:	0005b903          	ld	s2,0(a1)
   14014:	00377713          	andi	a4,a4,3
   14018:	0135b023          	sd	s3,0(a1)
   1401c:	4139093b          	subw	s2,s2,s3
   14020:	00000793          	li	a5,0
   14024:	00071463          	bnez	a4,1402c <__sflush_r+0x1cc>
   14028:	0205a783          	lw	a5,32(a1)
   1402c:	00f42623          	sw	a5,12(s0)
   14030:	e92052e3          	blez	s2,13eb4 <__sflush_r+0x54>
   14034:	04043783          	ld	a5,64(s0)
   14038:	03043583          	ld	a1,48(s0)
   1403c:	00090693          	mv	a3,s2
   14040:	00098613          	mv	a2,s3
   14044:	00048513          	mv	a0,s1
   14048:	000780e7          	jalr	a5
   1404c:	00a04863          	bgtz	a0,1405c <__sflush_r+0x1fc>
   14050:	01045783          	lhu	a5,16(s0)
   14054:	0407e793          	ori	a5,a5,64
   14058:	fa5ff06f          	j	13ffc <__sflush_r+0x19c>
   1405c:	00a989b3          	add	s3,s3,a0
   14060:	40a9093b          	subw	s2,s2,a0
   14064:	fcdff06f          	j	14030 <__sflush_r+0x1d0>

0000000000014068 <_fflush_r>:
   14068:	fe010113          	addi	sp,sp,-32
   1406c:	00813823          	sd	s0,16(sp)
   14070:	00113c23          	sd	ra,24(sp)
   14074:	00050413          	mv	s0,a0
   14078:	00050c63          	beqz	a0,14090 <_fflush_r+0x28>
   1407c:	05052783          	lw	a5,80(a0)
   14080:	00079863          	bnez	a5,14090 <_fflush_r+0x28>
   14084:	00b13423          	sd	a1,8(sp)
   14088:	16c000ef          	jal	ra,141f4 <__sinit>
   1408c:	00813583          	ld	a1,8(sp)
   14090:	01059783          	lh	a5,16(a1)
   14094:	00078c63          	beqz	a5,140ac <_fflush_r+0x44>
   14098:	00040513          	mv	a0,s0
   1409c:	01013403          	ld	s0,16(sp)
   140a0:	01813083          	ld	ra,24(sp)
   140a4:	02010113          	addi	sp,sp,32
   140a8:	db9ff06f          	j	13e60 <__sflush_r>
   140ac:	01813083          	ld	ra,24(sp)
   140b0:	01013403          	ld	s0,16(sp)
   140b4:	00000513          	li	a0,0
   140b8:	02010113          	addi	sp,sp,32
   140bc:	00008067          	ret

00000000000140c0 <fflush>:
   140c0:	00050593          	mv	a1,a0
   140c4:	00051a63          	bnez	a0,140d8 <fflush+0x18>
   140c8:	8281b503          	ld	a0,-2008(gp) # 224f8 <_global_impure_ptr>
   140cc:	000145b7          	lui	a1,0x14
   140d0:	06858593          	addi	a1,a1,104 # 14068 <_fflush_r>
   140d4:	3410006f          	j	14c14 <_fwalk_reent>
   140d8:	8301b503          	ld	a0,-2000(gp) # 22500 <_impure_ptr>
   140dc:	f8dff06f          	j	14068 <_fflush_r>

00000000000140e0 <__fp_lock>:
   140e0:	00000513          	li	a0,0
   140e4:	00008067          	ret

00000000000140e8 <_cleanup_r>:
   140e8:	0001c5b7          	lui	a1,0x1c
   140ec:	bf058593          	addi	a1,a1,-1040 # 1bbf0 <_fclose_r>
   140f0:	3250006f          	j	14c14 <_fwalk_reent>

00000000000140f4 <std.isra.0>:
   140f4:	ff010113          	addi	sp,sp,-16
   140f8:	00813023          	sd	s0,0(sp)
   140fc:	00113423          	sd	ra,8(sp)
   14100:	00050413          	mv	s0,a0
   14104:	00b51823          	sh	a1,16(a0)
   14108:	00c51923          	sh	a2,18(a0)
   1410c:	00053023          	sd	zero,0(a0)
   14110:	00053423          	sd	zero,8(a0)
   14114:	0a052623          	sw	zero,172(a0)
   14118:	00053c23          	sd	zero,24(a0)
   1411c:	02052023          	sw	zero,32(a0)
   14120:	02052423          	sw	zero,40(a0)
   14124:	00800613          	li	a2,8
   14128:	00000593          	li	a1,0
   1412c:	0a450513          	addi	a0,a0,164
   14130:	825fd0ef          	jal	ra,11954 <memset>
   14134:	000197b7          	lui	a5,0x19
   14138:	ca078793          	addi	a5,a5,-864 # 18ca0 <__sread>
   1413c:	02f43c23          	sd	a5,56(s0)
   14140:	000197b7          	lui	a5,0x19
   14144:	cf878793          	addi	a5,a5,-776 # 18cf8 <__swrite>
   14148:	04f43023          	sd	a5,64(s0)
   1414c:	000197b7          	lui	a5,0x19
   14150:	d7c78793          	addi	a5,a5,-644 # 18d7c <__sseek>
   14154:	04f43423          	sd	a5,72(s0)
   14158:	000197b7          	lui	a5,0x19
   1415c:	dd478793          	addi	a5,a5,-556 # 18dd4 <__sclose>
   14160:	02843823          	sd	s0,48(s0)
   14164:	04f43823          	sd	a5,80(s0)
   14168:	00813083          	ld	ra,8(sp)
   1416c:	00013403          	ld	s0,0(sp)
   14170:	01010113          	addi	sp,sp,16
   14174:	00008067          	ret

0000000000014178 <__fp_unlock>:
   14178:	00000513          	li	a0,0
   1417c:	00008067          	ret

0000000000014180 <__sfmoreglue>:
   14180:	fe010113          	addi	sp,sp,-32
   14184:	00913423          	sd	s1,8(sp)
   14188:	0b000613          	li	a2,176
   1418c:	fff5849b          	addiw	s1,a1,-1
   14190:	02c484b3          	mul	s1,s1,a2
   14194:	01213023          	sd	s2,0(sp)
   14198:	00058913          	mv	s2,a1
   1419c:	00813823          	sd	s0,16(sp)
   141a0:	00113c23          	sd	ra,24(sp)
   141a4:	0c848593          	addi	a1,s1,200
   141a8:	505020ef          	jal	ra,16eac <_malloc_r>
   141ac:	00050413          	mv	s0,a0
   141b0:	02050063          	beqz	a0,141d0 <__sfmoreglue+0x50>
   141b4:	00053023          	sd	zero,0(a0)
   141b8:	01252423          	sw	s2,8(a0)
   141bc:	01850513          	addi	a0,a0,24
   141c0:	00a43823          	sd	a0,16(s0)
   141c4:	0b048613          	addi	a2,s1,176
   141c8:	00000593          	li	a1,0
   141cc:	f88fd0ef          	jal	ra,11954 <memset>
   141d0:	00040513          	mv	a0,s0
   141d4:	01813083          	ld	ra,24(sp)
   141d8:	01013403          	ld	s0,16(sp)
   141dc:	00813483          	ld	s1,8(sp)
   141e0:	00013903          	ld	s2,0(sp)
   141e4:	02010113          	addi	sp,sp,32
   141e8:	00008067          	ret

00000000000141ec <_cleanup>:
   141ec:	8281b503          	ld	a0,-2008(gp) # 224f8 <_global_impure_ptr>
   141f0:	ef9ff06f          	j	140e8 <_cleanup_r>

00000000000141f4 <__sinit>:
   141f4:	05052783          	lw	a5,80(a0)
   141f8:	06079e63          	bnez	a5,14274 <__sinit+0x80>
   141fc:	ff010113          	addi	sp,sp,-16
   14200:	000147b7          	lui	a5,0x14
   14204:	00113423          	sd	ra,8(sp)
   14208:	00813023          	sd	s0,0(sp)
   1420c:	0e878793          	addi	a5,a5,232 # 140e8 <_cleanup_r>
   14210:	04f53c23          	sd	a5,88(a0)
   14214:	00300793          	li	a5,3
   14218:	52f52423          	sw	a5,1320(a0)
   1421c:	53850793          	addi	a5,a0,1336
   14220:	00050413          	mv	s0,a0
   14224:	52f53823          	sd	a5,1328(a0)
   14228:	52053023          	sd	zero,1312(a0)
   1422c:	00853503          	ld	a0,8(a0)
   14230:	00000613          	li	a2,0
   14234:	00400593          	li	a1,4
   14238:	ebdff0ef          	jal	ra,140f4 <std.isra.0>
   1423c:	01043503          	ld	a0,16(s0)
   14240:	00100613          	li	a2,1
   14244:	00900593          	li	a1,9
   14248:	eadff0ef          	jal	ra,140f4 <std.isra.0>
   1424c:	01843503          	ld	a0,24(s0)
   14250:	00200613          	li	a2,2
   14254:	01200593          	li	a1,18
   14258:	e9dff0ef          	jal	ra,140f4 <std.isra.0>
   1425c:	00100793          	li	a5,1
   14260:	04f42823          	sw	a5,80(s0)
   14264:	00813083          	ld	ra,8(sp)
   14268:	00013403          	ld	s0,0(sp)
   1426c:	01010113          	addi	sp,sp,16
   14270:	00008067          	ret
   14274:	00008067          	ret

0000000000014278 <__sfp>:
   14278:	fe010113          	addi	sp,sp,-32
   1427c:	00913423          	sd	s1,8(sp)
   14280:	8281b483          	ld	s1,-2008(gp) # 224f8 <_global_impure_ptr>
   14284:	01213023          	sd	s2,0(sp)
   14288:	00113c23          	sd	ra,24(sp)
   1428c:	0504a783          	lw	a5,80(s1)
   14290:	00813823          	sd	s0,16(sp)
   14294:	00050913          	mv	s2,a0
   14298:	00079663          	bnez	a5,142a4 <__sfp+0x2c>
   1429c:	00048513          	mv	a0,s1
   142a0:	f55ff0ef          	jal	ra,141f4 <__sinit>
   142a4:	52048493          	addi	s1,s1,1312
   142a8:	0104b403          	ld	s0,16(s1)
   142ac:	0084a783          	lw	a5,8(s1)
   142b0:	fff7879b          	addiw	a5,a5,-1
   142b4:	0007da63          	bgez	a5,142c8 <__sfp+0x50>
   142b8:	0004b783          	ld	a5,0(s1)
   142bc:	00078e63          	beqz	a5,142d8 <__sfp+0x60>
   142c0:	0004b483          	ld	s1,0(s1)
   142c4:	fe5ff06f          	j	142a8 <__sfp+0x30>
   142c8:	01041703          	lh	a4,16(s0)
   142cc:	04070463          	beqz	a4,14314 <__sfp+0x9c>
   142d0:	0b040413          	addi	s0,s0,176
   142d4:	fddff06f          	j	142b0 <__sfp+0x38>
   142d8:	00400593          	li	a1,4
   142dc:	00090513          	mv	a0,s2
   142e0:	ea1ff0ef          	jal	ra,14180 <__sfmoreglue>
   142e4:	00a4b023          	sd	a0,0(s1)
   142e8:	fc051ce3          	bnez	a0,142c0 <__sfp+0x48>
   142ec:	00c00793          	li	a5,12
   142f0:	00f92023          	sw	a5,0(s2)
   142f4:	00000413          	li	s0,0
   142f8:	00040513          	mv	a0,s0
   142fc:	01813083          	ld	ra,24(sp)
   14300:	01013403          	ld	s0,16(sp)
   14304:	00813483          	ld	s1,8(sp)
   14308:	00013903          	ld	s2,0(sp)
   1430c:	02010113          	addi	sp,sp,32
   14310:	00008067          	ret
   14314:	ffff07b7          	lui	a5,0xffff0
   14318:	0017879b          	addiw	a5,a5,1
   1431c:	0a042623          	sw	zero,172(s0)
   14320:	00043023          	sd	zero,0(s0)
   14324:	00043423          	sd	zero,8(s0)
   14328:	00f42823          	sw	a5,16(s0)
   1432c:	00043c23          	sd	zero,24(s0)
   14330:	02042023          	sw	zero,32(s0)
   14334:	02042423          	sw	zero,40(s0)
   14338:	00800613          	li	a2,8
   1433c:	00000593          	li	a1,0
   14340:	0a440513          	addi	a0,s0,164
   14344:	e10fd0ef          	jal	ra,11954 <memset>
   14348:	04043c23          	sd	zero,88(s0)
   1434c:	06042023          	sw	zero,96(s0)
   14350:	06043c23          	sd	zero,120(s0)
   14354:	08042023          	sw	zero,128(s0)
   14358:	fa1ff06f          	j	142f8 <__sfp+0x80>

000000000001435c <__sfp_lock_acquire>:
   1435c:	00008067          	ret

0000000000014360 <__sfp_lock_release>:
   14360:	00008067          	ret

0000000000014364 <__sinit_lock_acquire>:
   14364:	00008067          	ret

0000000000014368 <__sinit_lock_release>:
   14368:	00008067          	ret

000000000001436c <__fp_lock_all>:
   1436c:	8301b503          	ld	a0,-2000(gp) # 22500 <_impure_ptr>
   14370:	000145b7          	lui	a1,0x14
   14374:	0e058593          	addi	a1,a1,224 # 140e0 <__fp_lock>
   14378:	7f80006f          	j	14b70 <_fwalk>

000000000001437c <__fp_unlock_all>:
   1437c:	8301b503          	ld	a0,-2000(gp) # 22500 <_impure_ptr>
   14380:	000145b7          	lui	a1,0x14
   14384:	17858593          	addi	a1,a1,376 # 14178 <__fp_unlock>
   14388:	7e80006f          	j	14b70 <_fwalk>

000000000001438c <_malloc_trim_r>:
   1438c:	fc010113          	addi	sp,sp,-64
   14390:	03213023          	sd	s2,32(sp)
   14394:	00022937          	lui	s2,0x22
   14398:	02813823          	sd	s0,48(sp)
   1439c:	02913423          	sd	s1,40(sp)
   143a0:	01313c23          	sd	s3,24(sp)
   143a4:	00b13423          	sd	a1,8(sp)
   143a8:	02113c23          	sd	ra,56(sp)
   143ac:	00050993          	mv	s3,a0
   143b0:	b1890913          	addi	s2,s2,-1256 # 21b18 <__malloc_av_>
   143b4:	214030ef          	jal	ra,175c8 <__malloc_lock>
   143b8:	01093783          	ld	a5,16(s2)
   143bc:	00813583          	ld	a1,8(sp)
   143c0:	0087b483          	ld	s1,8(a5) # ffffffffffff0008 <_end+0xfffffffffffcb230>
   143c4:	000017b7          	lui	a5,0x1
   143c8:	fdf78413          	addi	s0,a5,-33 # fdf <threadsense.2706+0xfdf>
   143cc:	ffc4f493          	andi	s1,s1,-4
   143d0:	40b40433          	sub	s0,s0,a1
   143d4:	00940433          	add	s0,s0,s1
   143d8:	00c45413          	srli	s0,s0,0xc
   143dc:	fff40413          	addi	s0,s0,-1
   143e0:	00c41413          	slli	s0,s0,0xc
   143e4:	02f45663          	bge	s0,a5,14410 <_malloc_trim_r+0x84>
   143e8:	00098513          	mv	a0,s3
   143ec:	1e0030ef          	jal	ra,175cc <__malloc_unlock>
   143f0:	00000513          	li	a0,0
   143f4:	03813083          	ld	ra,56(sp)
   143f8:	03013403          	ld	s0,48(sp)
   143fc:	02813483          	ld	s1,40(sp)
   14400:	02013903          	ld	s2,32(sp)
   14404:	01813983          	ld	s3,24(sp)
   14408:	04010113          	addi	sp,sp,64
   1440c:	00008067          	ret
   14410:	00000593          	li	a1,0
   14414:	00098513          	mv	a0,s3
   14418:	768040ef          	jal	ra,18b80 <_sbrk_r>
   1441c:	01093783          	ld	a5,16(s2)
   14420:	009787b3          	add	a5,a5,s1
   14424:	fcf512e3          	bne	a0,a5,143e8 <_malloc_trim_r+0x5c>
   14428:	408005b3          	neg	a1,s0
   1442c:	00098513          	mv	a0,s3
   14430:	750040ef          	jal	ra,18b80 <_sbrk_r>
   14434:	fff00793          	li	a5,-1
   14438:	02f51c63          	bne	a0,a5,14470 <_malloc_trim_r+0xe4>
   1443c:	00000593          	li	a1,0
   14440:	00098513          	mv	a0,s3
   14444:	73c040ef          	jal	ra,18b80 <_sbrk_r>
   14448:	01093703          	ld	a4,16(s2)
   1444c:	01f00693          	li	a3,31
   14450:	40e507b3          	sub	a5,a0,a4
   14454:	f8f6dae3          	bge	a3,a5,143e8 <_malloc_trim_r+0x5c>
   14458:	8381b683          	ld	a3,-1992(gp) # 22508 <__malloc_sbrk_base>
   1445c:	0017e793          	ori	a5,a5,1
   14460:	00f73423          	sd	a5,8(a4)
   14464:	40d50533          	sub	a0,a0,a3
   14468:	8aa1ac23          	sw	a0,-1864(gp) # 22588 <__malloc_current_mallinfo>
   1446c:	f7dff06f          	j	143e8 <_malloc_trim_r+0x5c>
   14470:	01093783          	ld	a5,16(s2)
   14474:	408484b3          	sub	s1,s1,s0
   14478:	0014e493          	ori	s1,s1,1
   1447c:	0097b423          	sd	s1,8(a5)
   14480:	8b81a783          	lw	a5,-1864(gp) # 22588 <__malloc_current_mallinfo>
   14484:	00098513          	mv	a0,s3
   14488:	4087843b          	subw	s0,a5,s0
   1448c:	8a81ac23          	sw	s0,-1864(gp) # 22588 <__malloc_current_mallinfo>
   14490:	13c030ef          	jal	ra,175cc <__malloc_unlock>
   14494:	00100513          	li	a0,1
   14498:	f5dff06f          	j	143f4 <_malloc_trim_r+0x68>

000000000001449c <_free_r>:
   1449c:	26058263          	beqz	a1,14700 <_free_r+0x264>
   144a0:	fe010113          	addi	sp,sp,-32
   144a4:	00813823          	sd	s0,16(sp)
   144a8:	00913423          	sd	s1,8(sp)
   144ac:	00050413          	mv	s0,a0
   144b0:	00058493          	mv	s1,a1
   144b4:	00113c23          	sd	ra,24(sp)
   144b8:	110030ef          	jal	ra,175c8 <__malloc_lock>
   144bc:	ff84b503          	ld	a0,-8(s1)
   144c0:	00022637          	lui	a2,0x22
   144c4:	ff048693          	addi	a3,s1,-16
   144c8:	ffe57793          	andi	a5,a0,-2
   144cc:	b1860813          	addi	a6,a2,-1256 # 21b18 <__malloc_av_>
   144d0:	00f685b3          	add	a1,a3,a5
   144d4:	0085b703          	ld	a4,8(a1)
   144d8:	01083803          	ld	a6,16(a6)
   144dc:	b1860613          	addi	a2,a2,-1256
   144e0:	ffc77713          	andi	a4,a4,-4
   144e4:	00157513          	andi	a0,a0,1
   144e8:	06b81063          	bne	a6,a1,14548 <_free_r+0xac>
   144ec:	00e787b3          	add	a5,a5,a4
   144f0:	02051063          	bnez	a0,14510 <_free_r+0x74>
   144f4:	ff04b703          	ld	a4,-16(s1)
   144f8:	40e686b3          	sub	a3,a3,a4
   144fc:	0106b583          	ld	a1,16(a3)
   14500:	00e787b3          	add	a5,a5,a4
   14504:	0186b703          	ld	a4,24(a3)
   14508:	00e5bc23          	sd	a4,24(a1)
   1450c:	00b73823          	sd	a1,16(a4)
   14510:	0017e713          	ori	a4,a5,1
   14514:	00e6b423          	sd	a4,8(a3)
   14518:	8401b703          	ld	a4,-1984(gp) # 22510 <__malloc_trim_threshold>
   1451c:	00d63823          	sd	a3,16(a2)
   14520:	00e7e863          	bltu	a5,a4,14530 <_free_r+0x94>
   14524:	8601b583          	ld	a1,-1952(gp) # 22530 <__malloc_top_pad>
   14528:	00040513          	mv	a0,s0
   1452c:	e61ff0ef          	jal	ra,1438c <_malloc_trim_r>
   14530:	00040513          	mv	a0,s0
   14534:	01013403          	ld	s0,16(sp)
   14538:	01813083          	ld	ra,24(sp)
   1453c:	00813483          	ld	s1,8(sp)
   14540:	02010113          	addi	sp,sp,32
   14544:	0880306f          	j	175cc <__malloc_unlock>
   14548:	00e5b423          	sd	a4,8(a1)
   1454c:	00000813          	li	a6,0
   14550:	02051663          	bnez	a0,1457c <_free_r+0xe0>
   14554:	ff04b503          	ld	a0,-16(s1)
   14558:	000228b7          	lui	a7,0x22
   1455c:	b2888893          	addi	a7,a7,-1240 # 21b28 <__malloc_av_+0x10>
   14560:	40a686b3          	sub	a3,a3,a0
   14564:	00a787b3          	add	a5,a5,a0
   14568:	0106b503          	ld	a0,16(a3)
   1456c:	0b150a63          	beq	a0,a7,14620 <_free_r+0x184>
   14570:	0186b883          	ld	a7,24(a3)
   14574:	01153c23          	sd	a7,24(a0)
   14578:	00a8b823          	sd	a0,16(a7)
   1457c:	00e58533          	add	a0,a1,a4
   14580:	00853503          	ld	a0,8(a0)
   14584:	00157513          	andi	a0,a0,1
   14588:	02051863          	bnez	a0,145b8 <_free_r+0x11c>
   1458c:	00e787b3          	add	a5,a5,a4
   14590:	0105b703          	ld	a4,16(a1)
   14594:	08081a63          	bnez	a6,14628 <_free_r+0x18c>
   14598:	00022537          	lui	a0,0x22
   1459c:	b2850513          	addi	a0,a0,-1240 # 21b28 <__malloc_av_+0x10>
   145a0:	08a71463          	bne	a4,a0,14628 <_free_r+0x18c>
   145a4:	02d63423          	sd	a3,40(a2)
   145a8:	02d63023          	sd	a3,32(a2)
   145ac:	00e6bc23          	sd	a4,24(a3)
   145b0:	00e6b823          	sd	a4,16(a3)
   145b4:	00100813          	li	a6,1
   145b8:	0017e713          	ori	a4,a5,1
   145bc:	00e6b423          	sd	a4,8(a3)
   145c0:	00f68733          	add	a4,a3,a5
   145c4:	00f73023          	sd	a5,0(a4)
   145c8:	f60814e3          	bnez	a6,14530 <_free_r+0x94>
   145cc:	1ff00713          	li	a4,511
   145d0:	06f76463          	bltu	a4,a5,14638 <_free_r+0x19c>
   145d4:	0037d793          	srli	a5,a5,0x3
   145d8:	0007879b          	sext.w	a5,a5
   145dc:	4027d59b          	sraiw	a1,a5,0x2
   145e0:	00100713          	li	a4,1
   145e4:	00b71733          	sll	a4,a4,a1
   145e8:	0017879b          	addiw	a5,a5,1
   145ec:	00863583          	ld	a1,8(a2)
   145f0:	0017979b          	slliw	a5,a5,0x1
   145f4:	00379793          	slli	a5,a5,0x3
   145f8:	00f607b3          	add	a5,a2,a5
   145fc:	00b76733          	or	a4,a4,a1
   14600:	00e63423          	sd	a4,8(a2)
   14604:	0007b703          	ld	a4,0(a5)
   14608:	ff078613          	addi	a2,a5,-16
   1460c:	00c6bc23          	sd	a2,24(a3)
   14610:	00e6b823          	sd	a4,16(a3)
   14614:	00d7b023          	sd	a3,0(a5)
   14618:	00d73c23          	sd	a3,24(a4)
   1461c:	f15ff06f          	j	14530 <_free_r+0x94>
   14620:	00100813          	li	a6,1
   14624:	f59ff06f          	j	1457c <_free_r+0xe0>
   14628:	0185b583          	ld	a1,24(a1)
   1462c:	00b73c23          	sd	a1,24(a4)
   14630:	00e5b823          	sd	a4,16(a1)
   14634:	f85ff06f          	j	145b8 <_free_r+0x11c>
   14638:	0097d593          	srli	a1,a5,0x9
   1463c:	00400713          	li	a4,4
   14640:	04b76a63          	bltu	a4,a1,14694 <_free_r+0x1f8>
   14644:	0067d713          	srli	a4,a5,0x6
   14648:	0387071b          	addiw	a4,a4,56
   1464c:	0017059b          	addiw	a1,a4,1
   14650:	0015959b          	slliw	a1,a1,0x1
   14654:	00359593          	slli	a1,a1,0x3
   14658:	00b605b3          	add	a1,a2,a1
   1465c:	ff058513          	addi	a0,a1,-16
   14660:	0005b583          	ld	a1,0(a1)
   14664:	08b51463          	bne	a0,a1,146ec <_free_r+0x250>
   14668:	00100793          	li	a5,1
   1466c:	4027571b          	sraiw	a4,a4,0x2
   14670:	00e79733          	sll	a4,a5,a4
   14674:	00863783          	ld	a5,8(a2)
   14678:	00f76733          	or	a4,a4,a5
   1467c:	00e63423          	sd	a4,8(a2)
   14680:	00a6bc23          	sd	a0,24(a3)
   14684:	00b6b823          	sd	a1,16(a3)
   14688:	00d53823          	sd	a3,16(a0)
   1468c:	00d5bc23          	sd	a3,24(a1)
   14690:	ea1ff06f          	j	14530 <_free_r+0x94>
   14694:	01400713          	li	a4,20
   14698:	00b76663          	bltu	a4,a1,146a4 <_free_r+0x208>
   1469c:	05b5871b          	addiw	a4,a1,91
   146a0:	fadff06f          	j	1464c <_free_r+0x1b0>
   146a4:	05400713          	li	a4,84
   146a8:	00b76863          	bltu	a4,a1,146b8 <_free_r+0x21c>
   146ac:	00c7d713          	srli	a4,a5,0xc
   146b0:	06e7071b          	addiw	a4,a4,110
   146b4:	f99ff06f          	j	1464c <_free_r+0x1b0>
   146b8:	15400713          	li	a4,340
   146bc:	00b76863          	bltu	a4,a1,146cc <_free_r+0x230>
   146c0:	00f7d713          	srli	a4,a5,0xf
   146c4:	0777071b          	addiw	a4,a4,119
   146c8:	f85ff06f          	j	1464c <_free_r+0x1b0>
   146cc:	55400513          	li	a0,1364
   146d0:	07e00713          	li	a4,126
   146d4:	f6b56ce3          	bltu	a0,a1,1464c <_free_r+0x1b0>
   146d8:	0127d713          	srli	a4,a5,0x12
   146dc:	07c7071b          	addiw	a4,a4,124
   146e0:	f6dff06f          	j	1464c <_free_r+0x1b0>
   146e4:	0105b583          	ld	a1,16(a1)
   146e8:	00b50863          	beq	a0,a1,146f8 <_free_r+0x25c>
   146ec:	0085b703          	ld	a4,8(a1)
   146f0:	ffc77713          	andi	a4,a4,-4
   146f4:	fee7e8e3          	bltu	a5,a4,146e4 <_free_r+0x248>
   146f8:	0185b503          	ld	a0,24(a1)
   146fc:	f85ff06f          	j	14680 <_free_r+0x1e4>
   14700:	00008067          	ret

0000000000014704 <__sfvwrite_r>:
   14704:	01063783          	ld	a5,16(a2)
   14708:	00079863          	bnez	a5,14718 <__sfvwrite_r+0x14>
   1470c:	00000793          	li	a5,0
   14710:	00078513          	mv	a0,a5
   14714:	00008067          	ret
   14718:	0105d783          	lhu	a5,16(a1)
   1471c:	f8010113          	addi	sp,sp,-128
   14720:	06813823          	sd	s0,112(sp)
   14724:	07213023          	sd	s2,96(sp)
   14728:	05413823          	sd	s4,80(sp)
   1472c:	06113c23          	sd	ra,120(sp)
   14730:	06913423          	sd	s1,104(sp)
   14734:	05313c23          	sd	s3,88(sp)
   14738:	05513423          	sd	s5,72(sp)
   1473c:	05613023          	sd	s6,64(sp)
   14740:	03713c23          	sd	s7,56(sp)
   14744:	03813823          	sd	s8,48(sp)
   14748:	03913423          	sd	s9,40(sp)
   1474c:	03a13023          	sd	s10,32(sp)
   14750:	01b13c23          	sd	s11,24(sp)
   14754:	0087f793          	andi	a5,a5,8
   14758:	00060a13          	mv	s4,a2
   1475c:	00058413          	mv	s0,a1
   14760:	00050913          	mv	s2,a0
   14764:	0e078063          	beqz	a5,14844 <__sfvwrite_r+0x140>
   14768:	0185b783          	ld	a5,24(a1)
   1476c:	0c078c63          	beqz	a5,14844 <__sfvwrite_r+0x140>
   14770:	01045783          	lhu	a5,16(s0)
   14774:	000a3983          	ld	s3,0(s4)
   14778:	0027f713          	andi	a4,a5,2
   1477c:	16071a63          	bnez	a4,148f0 <__sfvwrite_r+0x1ec>
   14780:	0017f793          	andi	a5,a5,1
   14784:	00000a93          	li	s5,0
   14788:	20078863          	beqz	a5,14998 <__sfvwrite_r+0x294>
   1478c:	00000513          	li	a0,0
   14790:	00000b93          	li	s7,0
   14794:	00000b13          	li	s6,0
   14798:	360b0663          	beqz	s6,14b04 <__sfvwrite_r+0x400>
   1479c:	02051063          	bnez	a0,147bc <__sfvwrite_r+0xb8>
   147a0:	000b0613          	mv	a2,s6
   147a4:	00a00593          	li	a1,10
   147a8:	000b8513          	mv	a0,s7
   147ac:	5a5020ef          	jal	ra,17550 <memchr>
   147b0:	36050463          	beqz	a0,14b18 <__sfvwrite_r+0x414>
   147b4:	00150513          	addi	a0,a0,1
   147b8:	41750abb          	subw	s5,a0,s7
   147bc:	000a8c13          	mv	s8,s5
   147c0:	015b7463          	bgeu	s6,s5,147c8 <__sfvwrite_r+0xc4>
   147c4:	000b0c13          	mv	s8,s6
   147c8:	00043503          	ld	a0,0(s0)
   147cc:	01843783          	ld	a5,24(s0)
   147d0:	02042683          	lw	a3,32(s0)
   147d4:	34a7f663          	bgeu	a5,a0,14b20 <__sfvwrite_r+0x41c>
   147d8:	00c42483          	lw	s1,12(s0)
   147dc:	00d484bb          	addw	s1,s1,a3
   147e0:	3584d063          	bge	s1,s8,14b20 <__sfvwrite_r+0x41c>
   147e4:	000b8593          	mv	a1,s7
   147e8:	00048613          	mv	a2,s1
   147ec:	589020ef          	jal	ra,17574 <memmove>
   147f0:	00043783          	ld	a5,0(s0)
   147f4:	00040593          	mv	a1,s0
   147f8:	00090513          	mv	a0,s2
   147fc:	009787b3          	add	a5,a5,s1
   14800:	00f43023          	sd	a5,0(s0)
   14804:	865ff0ef          	jal	ra,14068 <_fflush_r>
   14808:	16051e63          	bnez	a0,14984 <__sfvwrite_r+0x280>
   1480c:	409a8abb          	subw	s5,s5,s1
   14810:	00100513          	li	a0,1
   14814:	000a9a63          	bnez	s5,14828 <__sfvwrite_r+0x124>
   14818:	00040593          	mv	a1,s0
   1481c:	00090513          	mv	a0,s2
   14820:	849ff0ef          	jal	ra,14068 <_fflush_r>
   14824:	16051063          	bnez	a0,14984 <__sfvwrite_r+0x280>
   14828:	010a3783          	ld	a5,16(s4)
   1482c:	009b8bb3          	add	s7,s7,s1
   14830:	409b0b33          	sub	s6,s6,s1
   14834:	409784b3          	sub	s1,a5,s1
   14838:	009a3823          	sd	s1,16(s4)
   1483c:	f4049ee3          	bnez	s1,14798 <__sfvwrite_r+0x94>
   14840:	06c0006f          	j	148ac <__sfvwrite_r+0x1a8>
   14844:	00040593          	mv	a1,s0
   14848:	00090513          	mv	a0,s2
   1484c:	b48ff0ef          	jal	ra,13b94 <__swsetup_r>
   14850:	fff00793          	li	a5,-1
   14854:	f0050ee3          	beqz	a0,14770 <__sfvwrite_r+0x6c>
   14858:	0580006f          	j	148b0 <__sfvwrite_r+0x1ac>
   1485c:	0009ba83          	ld	s5,0(s3)
   14860:	0089b483          	ld	s1,8(s3)
   14864:	01098993          	addi	s3,s3,16
   14868:	fe048ae3          	beqz	s1,1485c <__sfvwrite_r+0x158>
   1486c:	00048693          	mv	a3,s1
   14870:	009b7463          	bgeu	s6,s1,14878 <__sfvwrite_r+0x174>
   14874:	000b0693          	mv	a3,s6
   14878:	04043783          	ld	a5,64(s0)
   1487c:	03043583          	ld	a1,48(s0)
   14880:	0006869b          	sext.w	a3,a3
   14884:	000a8613          	mv	a2,s5
   14888:	00090513          	mv	a0,s2
   1488c:	000780e7          	jalr	a5
   14890:	0ea05a63          	blez	a0,14984 <__sfvwrite_r+0x280>
   14894:	010a3783          	ld	a5,16(s4)
   14898:	00aa8ab3          	add	s5,s5,a0
   1489c:	40a484b3          	sub	s1,s1,a0
   148a0:	40a78533          	sub	a0,a5,a0
   148a4:	00aa3823          	sd	a0,16(s4)
   148a8:	fc0510e3          	bnez	a0,14868 <__sfvwrite_r+0x164>
   148ac:	00000793          	li	a5,0
   148b0:	07813083          	ld	ra,120(sp)
   148b4:	07013403          	ld	s0,112(sp)
   148b8:	06813483          	ld	s1,104(sp)
   148bc:	06013903          	ld	s2,96(sp)
   148c0:	05813983          	ld	s3,88(sp)
   148c4:	05013a03          	ld	s4,80(sp)
   148c8:	04813a83          	ld	s5,72(sp)
   148cc:	04013b03          	ld	s6,64(sp)
   148d0:	03813b83          	ld	s7,56(sp)
   148d4:	03013c03          	ld	s8,48(sp)
   148d8:	02813c83          	ld	s9,40(sp)
   148dc:	02013d03          	ld	s10,32(sp)
   148e0:	01813d83          	ld	s11,24(sp)
   148e4:	00078513          	mv	a0,a5
   148e8:	08010113          	addi	sp,sp,128
   148ec:	00008067          	ret
   148f0:	80000b37          	lui	s6,0x80000
   148f4:	00000a93          	li	s5,0
   148f8:	00000493          	li	s1,0
   148fc:	c00b4b13          	xori	s6,s6,-1024
   14900:	f69ff06f          	j	14868 <__sfvwrite_r+0x164>
   14904:	0009ba83          	ld	s5,0(s3)
   14908:	0089bd03          	ld	s10,8(s3)
   1490c:	01098993          	addi	s3,s3,16
   14910:	00c42483          	lw	s1,12(s0)
   14914:	00048793          	mv	a5,s1
   14918:	fe0d06e3          	beqz	s10,14904 <__sfvwrite_r+0x200>
   1491c:	01045703          	lhu	a4,16(s0)
   14920:	00043503          	ld	a0,0(s0)
   14924:	20077693          	andi	a3,a4,512
   14928:	14068a63          	beqz	a3,14a7c <__sfvwrite_r+0x378>
   1492c:	0c9d6463          	bltu	s10,s1,149f4 <__sfvwrite_r+0x2f0>
   14930:	48077693          	andi	a3,a4,1152
   14934:	0c068063          	beqz	a3,149f4 <__sfvwrite_r+0x2f0>
   14938:	02042483          	lw	s1,32(s0)
   1493c:	01843583          	ld	a1,24(s0)
   14940:	029c04bb          	mulw	s1,s8,s1
   14944:	40b50533          	sub	a0,a0,a1
   14948:	00050d9b          	sext.w	s11,a0
   1494c:	001d8793          	addi	a5,s11,1
   14950:	01a787b3          	add	a5,a5,s10
   14954:	0394c4bb          	divw	s1,s1,s9
   14958:	00f4f663          	bgeu	s1,a5,14964 <__sfvwrite_r+0x260>
   1495c:	0015051b          	addiw	a0,a0,1
   14960:	01a504bb          	addw	s1,a0,s10
   14964:	40077713          	andi	a4,a4,1024
   14968:	0e070263          	beqz	a4,14a4c <__sfvwrite_r+0x348>
   1496c:	00048593          	mv	a1,s1
   14970:	00090513          	mv	a0,s2
   14974:	538020ef          	jal	ra,16eac <_malloc_r>
   14978:	02051e63          	bnez	a0,149b4 <__sfvwrite_r+0x2b0>
   1497c:	00c00793          	li	a5,12
   14980:	00f92023          	sw	a5,0(s2)
   14984:	01045783          	lhu	a5,16(s0)
   14988:	0407e793          	ori	a5,a5,64
   1498c:	00f41823          	sh	a5,16(s0)
   14990:	fff00793          	li	a5,-1
   14994:	f1dff06f          	j	148b0 <__sfvwrite_r+0x1ac>
   14998:	80000b37          	lui	s6,0x80000
   1499c:	ffeb4b93          	xori	s7,s6,-2
   149a0:	00000d13          	li	s10,0
   149a4:	fffb4b13          	not	s6,s6
   149a8:	00300c13          	li	s8,3
   149ac:	00200c93          	li	s9,2
   149b0:	f61ff06f          	j	14910 <__sfvwrite_r+0x20c>
   149b4:	01843583          	ld	a1,24(s0)
   149b8:	000d8613          	mv	a2,s11
   149bc:	00a13423          	sd	a0,8(sp)
   149c0:	eadfc0ef          	jal	ra,1186c <memcpy>
   149c4:	01045703          	lhu	a4,16(s0)
   149c8:	00813783          	ld	a5,8(sp)
   149cc:	b7f77713          	andi	a4,a4,-1153
   149d0:	08076713          	ori	a4,a4,128
   149d4:	00e41823          	sh	a4,16(s0)
   149d8:	00f43c23          	sd	a5,24(s0)
   149dc:	02942023          	sw	s1,32(s0)
   149e0:	01b787b3          	add	a5,a5,s11
   149e4:	41b484bb          	subw	s1,s1,s11
   149e8:	00f43023          	sd	a5,0(s0)
   149ec:	00942623          	sw	s1,12(s0)
   149f0:	000d0793          	mv	a5,s10
   149f4:	000d0493          	mv	s1,s10
   149f8:	00fd7463          	bgeu	s10,a5,14a00 <__sfvwrite_r+0x2fc>
   149fc:	000d0793          	mv	a5,s10
   14a00:	00043503          	ld	a0,0(s0)
   14a04:	00078613          	mv	a2,a5
   14a08:	000a8593          	mv	a1,s5
   14a0c:	00f13423          	sd	a5,8(sp)
   14a10:	365020ef          	jal	ra,17574 <memmove>
   14a14:	00c42703          	lw	a4,12(s0)
   14a18:	00813783          	ld	a5,8(sp)
   14a1c:	40f7073b          	subw	a4,a4,a5
   14a20:	00e42623          	sw	a4,12(s0)
   14a24:	00043703          	ld	a4,0(s0)
   14a28:	00f707b3          	add	a5,a4,a5
   14a2c:	00f43023          	sd	a5,0(s0)
   14a30:	010a3783          	ld	a5,16(s4)
   14a34:	009a8ab3          	add	s5,s5,s1
   14a38:	409d0d33          	sub	s10,s10,s1
   14a3c:	409784b3          	sub	s1,a5,s1
   14a40:	009a3823          	sd	s1,16(s4)
   14a44:	ec0496e3          	bnez	s1,14910 <__sfvwrite_r+0x20c>
   14a48:	e65ff06f          	j	148ac <__sfvwrite_r+0x1a8>
   14a4c:	00048613          	mv	a2,s1
   14a50:	00090513          	mv	a0,s2
   14a54:	335030ef          	jal	ra,18588 <_realloc_r>
   14a58:	00050793          	mv	a5,a0
   14a5c:	f6051ee3          	bnez	a0,149d8 <__sfvwrite_r+0x2d4>
   14a60:	01843583          	ld	a1,24(s0)
   14a64:	00090513          	mv	a0,s2
   14a68:	a35ff0ef          	jal	ra,1449c <_free_r>
   14a6c:	01045783          	lhu	a5,16(s0)
   14a70:	f7f7f793          	andi	a5,a5,-129
   14a74:	00f41823          	sh	a5,16(s0)
   14a78:	f05ff06f          	j	1497c <__sfvwrite_r+0x278>
   14a7c:	01843783          	ld	a5,24(s0)
   14a80:	00a7e663          	bltu	a5,a0,14a8c <__sfvwrite_r+0x388>
   14a84:	02042683          	lw	a3,32(s0)
   14a88:	04dd7463          	bgeu	s10,a3,14ad0 <__sfvwrite_r+0x3cc>
   14a8c:	009d7463          	bgeu	s10,s1,14a94 <__sfvwrite_r+0x390>
   14a90:	000d0493          	mv	s1,s10
   14a94:	00048613          	mv	a2,s1
   14a98:	000a8593          	mv	a1,s5
   14a9c:	2d9020ef          	jal	ra,17574 <memmove>
   14aa0:	00c42783          	lw	a5,12(s0)
   14aa4:	4097873b          	subw	a4,a5,s1
   14aa8:	00043783          	ld	a5,0(s0)
   14aac:	00e42623          	sw	a4,12(s0)
   14ab0:	009787b3          	add	a5,a5,s1
   14ab4:	00f43023          	sd	a5,0(s0)
   14ab8:	f6071ce3          	bnez	a4,14a30 <__sfvwrite_r+0x32c>
   14abc:	00040593          	mv	a1,s0
   14ac0:	00090513          	mv	a0,s2
   14ac4:	da4ff0ef          	jal	ra,14068 <_fflush_r>
   14ac8:	f60504e3          	beqz	a0,14a30 <__sfvwrite_r+0x32c>
   14acc:	eb9ff06f          	j	14984 <__sfvwrite_r+0x280>
   14ad0:	000b0793          	mv	a5,s6
   14ad4:	01abe463          	bltu	s7,s10,14adc <__sfvwrite_r+0x3d8>
   14ad8:	000d0793          	mv	a5,s10
   14adc:	02d7c7bb          	divw	a5,a5,a3
   14ae0:	04043703          	ld	a4,64(s0)
   14ae4:	03043583          	ld	a1,48(s0)
   14ae8:	000a8613          	mv	a2,s5
   14aec:	00090513          	mv	a0,s2
   14af0:	02d786bb          	mulw	a3,a5,a3
   14af4:	000700e7          	jalr	a4
   14af8:	00050493          	mv	s1,a0
   14afc:	f2a04ae3          	bgtz	a0,14a30 <__sfvwrite_r+0x32c>
   14b00:	e85ff06f          	j	14984 <__sfvwrite_r+0x280>
   14b04:	0009bb83          	ld	s7,0(s3)
   14b08:	0089bb03          	ld	s6,8(s3)
   14b0c:	00000513          	li	a0,0
   14b10:	01098993          	addi	s3,s3,16
   14b14:	c85ff06f          	j	14798 <__sfvwrite_r+0x94>
   14b18:	001b0a9b          	addiw	s5,s6,1
   14b1c:	ca1ff06f          	j	147bc <__sfvwrite_r+0xb8>
   14b20:	02dc4263          	blt	s8,a3,14b44 <__sfvwrite_r+0x440>
   14b24:	04043783          	ld	a5,64(s0)
   14b28:	03043583          	ld	a1,48(s0)
   14b2c:	000b8613          	mv	a2,s7
   14b30:	00090513          	mv	a0,s2
   14b34:	000780e7          	jalr	a5
   14b38:	00050493          	mv	s1,a0
   14b3c:	cca048e3          	bgtz	a0,1480c <__sfvwrite_r+0x108>
   14b40:	e45ff06f          	j	14984 <__sfvwrite_r+0x280>
   14b44:	000c0613          	mv	a2,s8
   14b48:	000b8593          	mv	a1,s7
   14b4c:	229020ef          	jal	ra,17574 <memmove>
   14b50:	00c42783          	lw	a5,12(s0)
   14b54:	000c0493          	mv	s1,s8
   14b58:	418787bb          	subw	a5,a5,s8
   14b5c:	00f42623          	sw	a5,12(s0)
   14b60:	00043783          	ld	a5,0(s0)
   14b64:	018787b3          	add	a5,a5,s8
   14b68:	00f43023          	sd	a5,0(s0)
   14b6c:	ca1ff06f          	j	1480c <__sfvwrite_r+0x108>

0000000000014b70 <_fwalk>:
   14b70:	fb010113          	addi	sp,sp,-80
   14b74:	04813023          	sd	s0,64(sp)
   14b78:	02913c23          	sd	s1,56(sp)
   14b7c:	03413023          	sd	s4,32(sp)
   14b80:	01513c23          	sd	s5,24(sp)
   14b84:	04113423          	sd	ra,72(sp)
   14b88:	03213823          	sd	s2,48(sp)
   14b8c:	03313423          	sd	s3,40(sp)
   14b90:	52050493          	addi	s1,a0,1312
   14b94:	00000413          	li	s0,0
   14b98:	00100a13          	li	s4,1
   14b9c:	fff00a93          	li	s5,-1
   14ba0:	02049663          	bnez	s1,14bcc <_fwalk+0x5c>
   14ba4:	00040513          	mv	a0,s0
   14ba8:	04813083          	ld	ra,72(sp)
   14bac:	04013403          	ld	s0,64(sp)
   14bb0:	03813483          	ld	s1,56(sp)
   14bb4:	03013903          	ld	s2,48(sp)
   14bb8:	02813983          	ld	s3,40(sp)
   14bbc:	02013a03          	ld	s4,32(sp)
   14bc0:	01813a83          	ld	s5,24(sp)
   14bc4:	05010113          	addi	sp,sp,80
   14bc8:	00008067          	ret
   14bcc:	0104b903          	ld	s2,16(s1)
   14bd0:	0084a983          	lw	s3,8(s1)
   14bd4:	fff9899b          	addiw	s3,s3,-1
   14bd8:	0009d663          	bgez	s3,14be4 <_fwalk+0x74>
   14bdc:	0004b483          	ld	s1,0(s1)
   14be0:	fc1ff06f          	j	14ba0 <_fwalk+0x30>
   14be4:	01095783          	lhu	a5,16(s2)
   14be8:	02fa7263          	bgeu	s4,a5,14c0c <_fwalk+0x9c>
   14bec:	01291783          	lh	a5,18(s2)
   14bf0:	01578e63          	beq	a5,s5,14c0c <_fwalk+0x9c>
   14bf4:	00090513          	mv	a0,s2
   14bf8:	00b13423          	sd	a1,8(sp)
   14bfc:	000580e7          	jalr	a1
   14c00:	00813583          	ld	a1,8(sp)
   14c04:	00a46433          	or	s0,s0,a0
   14c08:	0004041b          	sext.w	s0,s0
   14c0c:	0b090913          	addi	s2,s2,176
   14c10:	fc5ff06f          	j	14bd4 <_fwalk+0x64>

0000000000014c14 <_fwalk_reent>:
   14c14:	fb010113          	addi	sp,sp,-80
   14c18:	04813023          	sd	s0,64(sp)
   14c1c:	02913c23          	sd	s1,56(sp)
   14c20:	03413023          	sd	s4,32(sp)
   14c24:	01513c23          	sd	s5,24(sp)
   14c28:	01613823          	sd	s6,16(sp)
   14c2c:	01713423          	sd	s7,8(sp)
   14c30:	04113423          	sd	ra,72(sp)
   14c34:	03213823          	sd	s2,48(sp)
   14c38:	03313423          	sd	s3,40(sp)
   14c3c:	00050a13          	mv	s4,a0
   14c40:	00058a93          	mv	s5,a1
   14c44:	52050493          	addi	s1,a0,1312
   14c48:	00000413          	li	s0,0
   14c4c:	00100b13          	li	s6,1
   14c50:	fff00b93          	li	s7,-1
   14c54:	02049a63          	bnez	s1,14c88 <_fwalk_reent+0x74>
   14c58:	00040513          	mv	a0,s0
   14c5c:	04813083          	ld	ra,72(sp)
   14c60:	04013403          	ld	s0,64(sp)
   14c64:	03813483          	ld	s1,56(sp)
   14c68:	03013903          	ld	s2,48(sp)
   14c6c:	02813983          	ld	s3,40(sp)
   14c70:	02013a03          	ld	s4,32(sp)
   14c74:	01813a83          	ld	s5,24(sp)
   14c78:	01013b03          	ld	s6,16(sp)
   14c7c:	00813b83          	ld	s7,8(sp)
   14c80:	05010113          	addi	sp,sp,80
   14c84:	00008067          	ret
   14c88:	0104b903          	ld	s2,16(s1)
   14c8c:	0084a983          	lw	s3,8(s1)
   14c90:	fff9899b          	addiw	s3,s3,-1
   14c94:	0009d663          	bgez	s3,14ca0 <_fwalk_reent+0x8c>
   14c98:	0004b483          	ld	s1,0(s1)
   14c9c:	fb9ff06f          	j	14c54 <_fwalk_reent+0x40>
   14ca0:	01095783          	lhu	a5,16(s2)
   14ca4:	02fb7063          	bgeu	s6,a5,14cc4 <_fwalk_reent+0xb0>
   14ca8:	01291783          	lh	a5,18(s2)
   14cac:	01778c63          	beq	a5,s7,14cc4 <_fwalk_reent+0xb0>
   14cb0:	00090593          	mv	a1,s2
   14cb4:	000a0513          	mv	a0,s4
   14cb8:	000a80e7          	jalr	s5
   14cbc:	00a46433          	or	s0,s0,a0
   14cc0:	0004041b          	sext.w	s0,s0
   14cc4:	0b090913          	addi	s2,s2,176
   14cc8:	fc9ff06f          	j	14c90 <_fwalk_reent+0x7c>

0000000000014ccc <eclear>:
   14ccc:	01450793          	addi	a5,a0,20
   14cd0:	00250513          	addi	a0,a0,2
   14cd4:	fe051f23          	sh	zero,-2(a0)
   14cd8:	fef51ce3          	bne	a0,a5,14cd0 <eclear+0x4>
   14cdc:	00008067          	ret

0000000000014ce0 <emov>:
   14ce0:	01450793          	addi	a5,a0,20
   14ce4:	00250513          	addi	a0,a0,2
   14ce8:	ffe55703          	lhu	a4,-2(a0)
   14cec:	00258593          	addi	a1,a1,2
   14cf0:	fee59f23          	sh	a4,-2(a1)
   14cf4:	fea798e3          	bne	a5,a0,14ce4 <emov+0x4>
   14cf8:	00008067          	ret

0000000000014cfc <ecleaz>:
   14cfc:	01a50793          	addi	a5,a0,26
   14d00:	00250513          	addi	a0,a0,2
   14d04:	fe051f23          	sh	zero,-2(a0)
   14d08:	fef51ce3          	bne	a0,a5,14d00 <ecleaz+0x4>
   14d0c:	00008067          	ret

0000000000014d10 <emovz>:
   14d10:	01850713          	addi	a4,a0,24
   14d14:	00058793          	mv	a5,a1
   14d18:	00250513          	addi	a0,a0,2
   14d1c:	ffe55683          	lhu	a3,-2(a0)
   14d20:	00278793          	addi	a5,a5,2
   14d24:	fed79f23          	sh	a3,-2(a5)
   14d28:	fea718e3          	bne	a4,a0,14d18 <emovz+0x8>
   14d2c:	00059c23          	sh	zero,24(a1)
   14d30:	00008067          	ret

0000000000014d34 <ecmpm>:
   14d34:	00450793          	addi	a5,a0,4
   14d38:	00458593          	addi	a1,a1,4
   14d3c:	01a50513          	addi	a0,a0,26
   14d40:	00278793          	addi	a5,a5,2
   14d44:	00258593          	addi	a1,a1,2
   14d48:	ffe7d683          	lhu	a3,-2(a5)
   14d4c:	ffe5d703          	lhu	a4,-2(a1)
   14d50:	00e69863          	bne	a3,a4,14d60 <ecmpm+0x2c>
   14d54:	fef516e3          	bne	a0,a5,14d40 <ecmpm+0xc>
   14d58:	00000513          	li	a0,0
   14d5c:	00008067          	ret
   14d60:	00100513          	li	a0,1
   14d64:	00d76463          	bltu	a4,a3,14d6c <ecmpm+0x38>
   14d68:	fff00513          	li	a0,-1
   14d6c:	00008067          	ret

0000000000014d70 <eshdn1>:
   14d70:	00450693          	addi	a3,a0,4
   14d74:	00000793          	li	a5,0
   14d78:	01a50513          	addi	a0,a0,26
   14d7c:	ffff8637          	lui	a2,0xffff8
   14d80:	0006d703          	lhu	a4,0(a3)
   14d84:	00177593          	andi	a1,a4,1
   14d88:	00058463          	beqz	a1,14d90 <eshdn1+0x20>
   14d8c:	0017e793          	ori	a5,a5,1
   14d90:	0027f593          	andi	a1,a5,2
   14d94:	00175713          	srli	a4,a4,0x1
   14d98:	02059063          	bnez	a1,14db8 <eshdn1+0x48>
   14d9c:	0017979b          	slliw	a5,a5,0x1
   14da0:	00e69023          	sh	a4,0(a3)
   14da4:	03079793          	slli	a5,a5,0x30
   14da8:	00268693          	addi	a3,a3,2
   14dac:	0307d793          	srli	a5,a5,0x30
   14db0:	fcd518e3          	bne	a0,a3,14d80 <eshdn1+0x10>
   14db4:	00008067          	ret
   14db8:	00c76733          	or	a4,a4,a2
   14dbc:	fe1ff06f          	j	14d9c <eshdn1+0x2c>

0000000000014dc0 <eshup1>:
   14dc0:	01650693          	addi	a3,a0,22
   14dc4:	00000713          	li	a4,0
   14dc8:	0026d783          	lhu	a5,2(a3)
   14dcc:	0107961b          	slliw	a2,a5,0x10
   14dd0:	4106561b          	sraiw	a2,a2,0x10
   14dd4:	00065463          	bgez	a2,14ddc <eshup1+0x1c>
   14dd8:	00176713          	ori	a4,a4,1
   14ddc:	0017979b          	slliw	a5,a5,0x1
   14de0:	03079793          	slli	a5,a5,0x30
   14de4:	00277613          	andi	a2,a4,2
   14de8:	0307d793          	srli	a5,a5,0x30
   14dec:	02061063          	bnez	a2,14e0c <eshup1+0x4c>
   14df0:	0017171b          	slliw	a4,a4,0x1
   14df4:	00f69123          	sh	a5,2(a3)
   14df8:	03071713          	slli	a4,a4,0x30
   14dfc:	ffe68693          	addi	a3,a3,-2
   14e00:	03075713          	srli	a4,a4,0x30
   14e04:	fcd512e3          	bne	a0,a3,14dc8 <eshup1+0x8>
   14e08:	00008067          	ret
   14e0c:	0017e793          	ori	a5,a5,1
   14e10:	fe1ff06f          	j	14df0 <eshup1+0x30>

0000000000014e14 <eshdn8>:
   14e14:	00450793          	addi	a5,a0,4
   14e18:	00000713          	li	a4,0
   14e1c:	01a50513          	addi	a0,a0,26
   14e20:	0007d683          	lhu	a3,0(a5)
   14e24:	00278793          	addi	a5,a5,2
   14e28:	0086d61b          	srliw	a2,a3,0x8
   14e2c:	00c76733          	or	a4,a4,a2
   14e30:	fee79f23          	sh	a4,-2(a5)
   14e34:	0086971b          	slliw	a4,a3,0x8
   14e38:	03071713          	slli	a4,a4,0x30
   14e3c:	03075713          	srli	a4,a4,0x30
   14e40:	fef510e3          	bne	a0,a5,14e20 <eshdn8+0xc>
   14e44:	00008067          	ret

0000000000014e48 <eshup8>:
   14e48:	01650793          	addi	a5,a0,22
   14e4c:	00000713          	li	a4,0
   14e50:	0027d683          	lhu	a3,2(a5)
   14e54:	ffe78793          	addi	a5,a5,-2
   14e58:	00869613          	slli	a2,a3,0x8
   14e5c:	00c76733          	or	a4,a4,a2
   14e60:	00e79223          	sh	a4,4(a5)
   14e64:	0086d713          	srli	a4,a3,0x8
   14e68:	fef514e3          	bne	a0,a5,14e50 <eshup8+0x8>
   14e6c:	00008067          	ret

0000000000014e70 <eshup6>:
   14e70:	00450793          	addi	a5,a0,4
   14e74:	01850713          	addi	a4,a0,24
   14e78:	00278793          	addi	a5,a5,2
   14e7c:	0007d683          	lhu	a3,0(a5)
   14e80:	fed79f23          	sh	a3,-2(a5)
   14e84:	fef71ae3          	bne	a4,a5,14e78 <eshup6+0x8>
   14e88:	00051c23          	sh	zero,24(a0)
   14e8c:	00008067          	ret

0000000000014e90 <eshdn6>:
   14e90:	01850793          	addi	a5,a0,24
   14e94:	01a50713          	addi	a4,a0,26
   14e98:	00450693          	addi	a3,a0,4
   14e9c:	ffe78793          	addi	a5,a5,-2
   14ea0:	0007d603          	lhu	a2,0(a5)
   14ea4:	ffe70713          	addi	a4,a4,-2
   14ea8:	00c71023          	sh	a2,0(a4)
   14eac:	fef698e3          	bne	a3,a5,14e9c <eshdn6+0xc>
   14eb0:	00051223          	sh	zero,4(a0)
   14eb4:	00008067          	ret

0000000000014eb8 <eaddm>:
   14eb8:	01858593          	addi	a1,a1,24
   14ebc:	01650713          	addi	a4,a0,22
   14ec0:	00000693          	li	a3,0
   14ec4:	0005d783          	lhu	a5,0(a1)
   14ec8:	ffe70713          	addi	a4,a4,-2
   14ecc:	ffe58593          	addi	a1,a1,-2
   14ed0:	00d787b3          	add	a5,a5,a3
   14ed4:	00475683          	lhu	a3,4(a4)
   14ed8:	00d787b3          	add	a5,a5,a3
   14edc:	00f59123          	sh	a5,2(a1)
   14ee0:	0107d793          	srli	a5,a5,0x10
   14ee4:	0017f693          	andi	a3,a5,1
   14ee8:	fce51ee3          	bne	a0,a4,14ec4 <eaddm+0xc>
   14eec:	00008067          	ret

0000000000014ef0 <esubm>:
   14ef0:	01858593          	addi	a1,a1,24
   14ef4:	01650713          	addi	a4,a0,22
   14ef8:	00000693          	li	a3,0
   14efc:	0005d783          	lhu	a5,0(a1)
   14f00:	00275603          	lhu	a2,2(a4)
   14f04:	ffe70713          	addi	a4,a4,-2
   14f08:	ffe58593          	addi	a1,a1,-2
   14f0c:	40c787b3          	sub	a5,a5,a2
   14f10:	40d787b3          	sub	a5,a5,a3
   14f14:	00f59123          	sh	a5,2(a1)
   14f18:	0107d793          	srli	a5,a5,0x10
   14f1c:	0017f693          	andi	a3,a5,1
   14f20:	fce51ee3          	bne	a0,a4,14efc <esubm+0xc>
   14f24:	00008067          	ret

0000000000014f28 <m16m>:
   14f28:	fe010113          	addi	sp,sp,-32
   14f2c:	00010337          	lui	t1,0x10
   14f30:	01858893          	addi	a7,a1,24
   14f34:	00011b23          	sh	zero,22(sp)
   14f38:	00011c23          	sh	zero,24(sp)
   14f3c:	00458593          	addi	a1,a1,4
   14f40:	01810693          	addi	a3,sp,24
   14f44:	fff30313          	addi	t1,t1,-1 # ffff <threadsense.2706+0xffff>
   14f48:	0008d703          	lhu	a4,0(a7)
   14f4c:	ffe68693          	addi	a3,a3,-2
   14f50:	ffe88893          	addi	a7,a7,-2
   14f54:	02071a63          	bnez	a4,14f88 <m16m+0x60>
   14f58:	fe069f23          	sh	zero,-2(a3)
   14f5c:	ff1596e3          	bne	a1,a7,14f48 <m16m+0x20>
   14f60:	00400793          	li	a5,4
   14f64:	01a00713          	li	a4,26
   14f68:	00f105b3          	add	a1,sp,a5
   14f6c:	0005d583          	lhu	a1,0(a1)
   14f70:	00f606b3          	add	a3,a2,a5
   14f74:	00278793          	addi	a5,a5,2
   14f78:	00b69023          	sh	a1,0(a3)
   14f7c:	fee796e3          	bne	a5,a4,14f68 <m16m+0x40>
   14f80:	02010113          	addi	sp,sp,32
   14f84:	00008067          	ret
   14f88:	02a70733          	mul	a4,a4,a0
   14f8c:	0026d803          	lhu	a6,2(a3)
   14f90:	006777b3          	and	a5,a4,t1
   14f94:	010787b3          	add	a5,a5,a6
   14f98:	0107d813          	srli	a6,a5,0x10
   14f9c:	00f69123          	sh	a5,2(a3)
   14fa0:	01075793          	srli	a5,a4,0x10
   14fa4:	0006d703          	lhu	a4,0(a3)
   14fa8:	00e787b3          	add	a5,a5,a4
   14fac:	010787b3          	add	a5,a5,a6
   14fb0:	00f69023          	sh	a5,0(a3)
   14fb4:	0107d793          	srli	a5,a5,0x10
   14fb8:	fef69f23          	sh	a5,-2(a3)
   14fbc:	fa1ff06f          	j	14f5c <m16m+0x34>

0000000000014fc0 <eisnan>:
   14fc0:	01255783          	lhu	a5,18(a0)
   14fc4:	fff7c793          	not	a5,a5
   14fc8:	03179713          	slli	a4,a5,0x31
   14fcc:	00071c63          	bnez	a4,14fe4 <eisnan+0x24>
   14fd0:	01250793          	addi	a5,a0,18
   14fd4:	00250513          	addi	a0,a0,2
   14fd8:	ffe55703          	lhu	a4,-2(a0)
   14fdc:	00071863          	bnez	a4,14fec <eisnan+0x2c>
   14fe0:	fea79ae3          	bne	a5,a0,14fd4 <eisnan+0x14>
   14fe4:	00000513          	li	a0,0
   14fe8:	00008067          	ret
   14fec:	00100513          	li	a0,1
   14ff0:	00008067          	ret

0000000000014ff4 <eisneg>:
   14ff4:	ff010113          	addi	sp,sp,-16
   14ff8:	00813023          	sd	s0,0(sp)
   14ffc:	00113423          	sd	ra,8(sp)
   15000:	00050413          	mv	s0,a0
   15004:	fbdff0ef          	jal	ra,14fc0 <eisnan>
   15008:	00051e63          	bnez	a0,15024 <eisneg+0x30>
   1500c:	01344503          	lbu	a0,19(s0)
   15010:	00755513          	srli	a0,a0,0x7
   15014:	00813083          	ld	ra,8(sp)
   15018:	00013403          	ld	s0,0(sp)
   1501c:	01010113          	addi	sp,sp,16
   15020:	00008067          	ret
   15024:	00000513          	li	a0,0
   15028:	fedff06f          	j	15014 <eisneg+0x20>

000000000001502c <emovi>:
   1502c:	01251783          	lh	a5,18(a0)
   15030:	fe010113          	addi	sp,sp,-32
   15034:	00113c23          	sd	ra,24(sp)
   15038:	00813823          	sd	s0,16(sp)
   1503c:	00913423          	sd	s1,8(sp)
   15040:	01213023          	sd	s2,0(sp)
   15044:	0607d863          	bgez	a5,150b4 <emovi+0x88>
   15048:	fff00793          	li	a5,-1
   1504c:	00f59023          	sh	a5,0(a1)
   15050:	01255703          	lhu	a4,18(a0)
   15054:	000087b7          	lui	a5,0x8
   15058:	fff78793          	addi	a5,a5,-1 # 7fff <threadsense.2706+0x7fff>
   1505c:	00e7f733          	and	a4,a5,a4
   15060:	00e59123          	sh	a4,2(a1)
   15064:	01050913          	addi	s2,a0,16
   15068:	06f71663          	bne	a4,a5,150d4 <emovi+0xa8>
   1506c:	00058413          	mv	s0,a1
   15070:	00050493          	mv	s1,a0
   15074:	f4dff0ef          	jal	ra,14fc0 <eisnan>
   15078:	04050263          	beqz	a0,150bc <emovi+0x90>
   1507c:	00640793          	addi	a5,s0,6
   15080:	00041223          	sh	zero,4(s0)
   15084:	ffc48513          	addi	a0,s1,-4
   15088:	ffe90913          	addi	s2,s2,-2
   1508c:	00295703          	lhu	a4,2(s2)
   15090:	00278793          	addi	a5,a5,2
   15094:	fee79f23          	sh	a4,-2(a5)
   15098:	fea918e3          	bne	s2,a0,15088 <emovi+0x5c>
   1509c:	01813083          	ld	ra,24(sp)
   150a0:	01013403          	ld	s0,16(sp)
   150a4:	00813483          	ld	s1,8(sp)
   150a8:	00013903          	ld	s2,0(sp)
   150ac:	02010113          	addi	sp,sp,32
   150b0:	00008067          	ret
   150b4:	00059023          	sh	zero,0(a1)
   150b8:	f99ff06f          	j	15050 <emovi+0x24>
   150bc:	00440793          	addi	a5,s0,4
   150c0:	01a40593          	addi	a1,s0,26
   150c4:	00278793          	addi	a5,a5,2
   150c8:	fe079f23          	sh	zero,-2(a5)
   150cc:	feb79ce3          	bne	a5,a1,150c4 <emovi+0x98>
   150d0:	fcdff06f          	j	1509c <emovi+0x70>
   150d4:	00658793          	addi	a5,a1,6
   150d8:	00059223          	sh	zero,4(a1)
   150dc:	ffe50513          	addi	a0,a0,-2
   150e0:	ffe90913          	addi	s2,s2,-2
   150e4:	00295703          	lhu	a4,2(s2)
   150e8:	00278793          	addi	a5,a5,2
   150ec:	fee79f23          	sh	a4,-2(a5)
   150f0:	fea918e3          	bne	s2,a0,150e0 <emovi+0xb4>
   150f4:	00059c23          	sh	zero,24(a1)
   150f8:	fa5ff06f          	j	1509c <emovi+0x70>

00000000000150fc <ecmp>:
   150fc:	fa010113          	addi	sp,sp,-96
   15100:	04913423          	sd	s1,72(sp)
   15104:	05213023          	sd	s2,64(sp)
   15108:	04113c23          	sd	ra,88(sp)
   1510c:	04813823          	sd	s0,80(sp)
   15110:	00050913          	mv	s2,a0
   15114:	00058493          	mv	s1,a1
   15118:	ea9ff0ef          	jal	ra,14fc0 <eisnan>
   1511c:	0c051c63          	bnez	a0,151f4 <ecmp+0xf8>
   15120:	00048513          	mv	a0,s1
   15124:	e9dff0ef          	jal	ra,14fc0 <eisnan>
   15128:	00050413          	mv	s0,a0
   1512c:	0c051463          	bnez	a0,151f4 <ecmp+0xf8>
   15130:	00010593          	mv	a1,sp
   15134:	00090513          	mv	a0,s2
   15138:	ef5ff0ef          	jal	ra,1502c <emovi>
   1513c:	02010593          	addi	a1,sp,32
   15140:	00048513          	mv	a0,s1
   15144:	ee9ff0ef          	jal	ra,1502c <emovi>
   15148:	00015703          	lhu	a4,0(sp)
   1514c:	02015783          	lhu	a5,32(sp)
   15150:	04e78e63          	beq	a5,a4,151ac <ecmp+0xb0>
   15154:	00200793          	li	a5,2
   15158:	01800693          	li	a3,24
   1515c:	00f10633          	add	a2,sp,a5
   15160:	00065603          	lhu	a2,0(a2) # ffffffffffff8000 <_end+0xfffffffffffd3228>
   15164:	02061c63          	bnez	a2,1519c <ecmp+0xa0>
   15168:	02010613          	addi	a2,sp,32
   1516c:	00f60633          	add	a2,a2,a5
   15170:	00065603          	lhu	a2,0(a2)
   15174:	02061463          	bnez	a2,1519c <ecmp+0xa0>
   15178:	00278793          	addi	a5,a5,2
   1517c:	fed790e3          	bne	a5,a3,1515c <ecmp+0x60>
   15180:	00040513          	mv	a0,s0
   15184:	05813083          	ld	ra,88(sp)
   15188:	05013403          	ld	s0,80(sp)
   1518c:	04813483          	ld	s1,72(sp)
   15190:	04013903          	ld	s2,64(sp)
   15194:	06010113          	addi	sp,sp,96
   15198:	00008067          	ret
   1519c:	00100413          	li	s0,1
   151a0:	fe0700e3          	beqz	a4,15180 <ecmp+0x84>
   151a4:	fff00413          	li	s0,-1
   151a8:	fd9ff06f          	j	15180 <ecmp+0x84>
   151ac:	00100613          	li	a2,1
   151b0:	00070463          	beqz	a4,151b8 <ecmp+0xbc>
   151b4:	fff00613          	li	a2,-1
   151b8:	00000793          	li	a5,0
   151bc:	01800593          	li	a1,24
   151c0:	00f10733          	add	a4,sp,a5
   151c4:	00075683          	lhu	a3,0(a4)
   151c8:	02010713          	addi	a4,sp,32
   151cc:	00f70733          	add	a4,a4,a5
   151d0:	00075703          	lhu	a4,0(a4)
   151d4:	00e69863          	bne	a3,a4,151e4 <ecmp+0xe8>
   151d8:	00278793          	addi	a5,a5,2
   151dc:	feb792e3          	bne	a5,a1,151c0 <ecmp+0xc4>
   151e0:	fa1ff06f          	j	15180 <ecmp+0x84>
   151e4:	00060413          	mv	s0,a2
   151e8:	f8d76ce3          	bltu	a4,a3,15180 <ecmp+0x84>
   151ec:	40c0043b          	negw	s0,a2
   151f0:	f91ff06f          	j	15180 <ecmp+0x84>
   151f4:	ffe00413          	li	s0,-2
   151f8:	f89ff06f          	j	15180 <ecmp+0x84>

00000000000151fc <eisinf>:
   151fc:	01255783          	lhu	a5,18(a0)
   15200:	fff7c793          	not	a5,a5
   15204:	03179713          	slli	a4,a5,0x31
   15208:	02071063          	bnez	a4,15228 <eisinf+0x2c>
   1520c:	ff010113          	addi	sp,sp,-16
   15210:	00113423          	sd	ra,8(sp)
   15214:	dadff0ef          	jal	ra,14fc0 <eisnan>
   15218:	00813083          	ld	ra,8(sp)
   1521c:	00153513          	seqz	a0,a0
   15220:	01010113          	addi	sp,sp,16
   15224:	00008067          	ret
   15228:	00000513          	li	a0,0
   1522c:	00008067          	ret

0000000000015230 <einfin.isra.2>:
   15230:	01250793          	addi	a5,a0,18
   15234:	00250513          	addi	a0,a0,2
   15238:	fe051f23          	sh	zero,-2(a0)
   1523c:	fef51ce3          	bne	a0,a5,15234 <einfin.isra.2+0x4>
   15240:	00055783          	lhu	a5,0(a0)
   15244:	00008737          	lui	a4,0x8
   15248:	fff70713          	addi	a4,a4,-1 # 7fff <threadsense.2706+0x7fff>
   1524c:	00e7e7b3          	or	a5,a5,a4
   15250:	00f51023          	sh	a5,0(a0)
   15254:	00008067          	ret

0000000000015258 <eshift.part.3>:
   15258:	fc010113          	addi	sp,sp,-64
   1525c:	02813823          	sd	s0,48(sp)
   15260:	01313c23          	sd	s3,24(sp)
   15264:	02113c23          	sd	ra,56(sp)
   15268:	02913423          	sd	s1,40(sp)
   1526c:	03213023          	sd	s2,32(sp)
   15270:	01413823          	sd	s4,16(sp)
   15274:	01513423          	sd	s5,8(sp)
   15278:	00050993          	mv	s3,a0
   1527c:	00058413          	mv	s0,a1
   15280:	1005d263          	bgez	a1,15384 <eshift.part.3+0x12c>
   15284:	40b00a3b          	negw	s4,a1
   15288:	000a0913          	mv	s2,s4
   1528c:	00000493          	li	s1,0
   15290:	00f00a93          	li	s5,15
   15294:	034ace63          	blt	s5,s4,152d0 <eshift.part.3+0x78>
   15298:	0049591b          	srliw	s2,s2,0x4
   1529c:	ff000593          	li	a1,-16
   152a0:	02b905bb          	mulw	a1,s2,a1
   152a4:	00700a13          	li	s4,7
   152a8:	4085893b          	subw	s2,a1,s0
   152ac:	00090413          	mv	s0,s2
   152b0:	032a4c63          	blt	s4,s2,152e8 <eshift.part.3+0x90>
   152b4:	0034559b          	srliw	a1,s0,0x3
   152b8:	ff800793          	li	a5,-8
   152bc:	02f585bb          	mulw	a1,a1,a5
   152c0:	0085843b          	addw	s0,a1,s0
   152c4:	02041e63          	bnez	s0,15300 <eshift.part.3+0xa8>
   152c8:	00903533          	snez	a0,s1
   152cc:	0940006f          	j	15360 <eshift.part.3+0x108>
   152d0:	0189d783          	lhu	a5,24(s3)
   152d4:	00098513          	mv	a0,s3
   152d8:	ff0a0a1b          	addiw	s4,s4,-16
   152dc:	00f4e4b3          	or	s1,s1,a5
   152e0:	bb1ff0ef          	jal	ra,14e90 <eshdn6>
   152e4:	fb1ff06f          	j	15294 <eshift.part.3+0x3c>
   152e8:	0189c783          	lbu	a5,24(s3)
   152ec:	00098513          	mv	a0,s3
   152f0:	ff89091b          	addiw	s2,s2,-8
   152f4:	0097e4b3          	or	s1,a5,s1
   152f8:	b1dff0ef          	jal	ra,14e14 <eshdn8>
   152fc:	fb5ff06f          	j	152b0 <eshift.part.3+0x58>
   15300:	0189d783          	lhu	a5,24(s3)
   15304:	00098513          	mv	a0,s3
   15308:	fff4041b          	addiw	s0,s0,-1
   1530c:	0017f793          	andi	a5,a5,1
   15310:	0097e4b3          	or	s1,a5,s1
   15314:	a5dff0ef          	jal	ra,14d70 <eshdn1>
   15318:	fadff06f          	j	152c4 <eshift.part.3+0x6c>
   1531c:	00098513          	mv	a0,s3
   15320:	b51ff0ef          	jal	ra,14e70 <eshup6>
   15324:	ff04849b          	addiw	s1,s1,-16
   15328:	fe994ae3          	blt	s2,s1,1531c <eshift.part.3+0xc4>
   1532c:	0044559b          	srliw	a1,s0,0x4
   15330:	ff000793          	li	a5,-16
   15334:	02f585bb          	mulw	a1,a1,a5
   15338:	00700913          	li	s2,7
   1533c:	00b404bb          	addw	s1,s0,a1
   15340:	00048413          	mv	s0,s1
   15344:	04994663          	blt	s2,s1,15390 <eshift.part.3+0x138>
   15348:	0034559b          	srliw	a1,s0,0x3
   1534c:	ff800793          	li	a5,-8
   15350:	02f585bb          	mulw	a1,a1,a5
   15354:	00b4043b          	addw	s0,s0,a1
   15358:	04041463          	bnez	s0,153a0 <eshift.part.3+0x148>
   1535c:	00000513          	li	a0,0
   15360:	03813083          	ld	ra,56(sp)
   15364:	03013403          	ld	s0,48(sp)
   15368:	02813483          	ld	s1,40(sp)
   1536c:	02013903          	ld	s2,32(sp)
   15370:	01813983          	ld	s3,24(sp)
   15374:	01013a03          	ld	s4,16(sp)
   15378:	00813a83          	ld	s5,8(sp)
   1537c:	04010113          	addi	sp,sp,64
   15380:	00008067          	ret
   15384:	00058493          	mv	s1,a1
   15388:	00f00913          	li	s2,15
   1538c:	f9dff06f          	j	15328 <eshift.part.3+0xd0>
   15390:	00098513          	mv	a0,s3
   15394:	ab5ff0ef          	jal	ra,14e48 <eshup8>
   15398:	ff84849b          	addiw	s1,s1,-8
   1539c:	fa9ff06f          	j	15344 <eshift.part.3+0xec>
   153a0:	00098513          	mv	a0,s3
   153a4:	a1dff0ef          	jal	ra,14dc0 <eshup1>
   153a8:	fff4041b          	addiw	s0,s0,-1
   153ac:	fadff06f          	j	15358 <eshift.part.3+0x100>

00000000000153b0 <enormlz>:
   153b0:	00455783          	lhu	a5,4(a0)
   153b4:	fe010113          	addi	sp,sp,-32
   153b8:	00913423          	sd	s1,8(sp)
   153bc:	00113c23          	sd	ra,24(sp)
   153c0:	00813823          	sd	s0,16(sp)
   153c4:	01213023          	sd	s2,0(sp)
   153c8:	00050493          	mv	s1,a0
   153cc:	08079263          	bnez	a5,15450 <enormlz+0xa0>
   153d0:	00651783          	lh	a5,6(a0)
   153d4:	00000413          	li	s0,0
   153d8:	0a000913          	li	s2,160
   153dc:	0207d863          	bgez	a5,1540c <enormlz+0x5c>
   153e0:	00040513          	mv	a0,s0
   153e4:	01813083          	ld	ra,24(sp)
   153e8:	01013403          	ld	s0,16(sp)
   153ec:	00813483          	ld	s1,8(sp)
   153f0:	00013903          	ld	s2,0(sp)
   153f4:	02010113          	addi	sp,sp,32
   153f8:	00008067          	ret
   153fc:	00048513          	mv	a0,s1
   15400:	0104041b          	addiw	s0,s0,16
   15404:	a6dff0ef          	jal	ra,14e70 <eshup6>
   15408:	fd240ce3          	beq	s0,s2,153e0 <enormlz+0x30>
   1540c:	0064d783          	lhu	a5,6(s1)
   15410:	fe0786e3          	beqz	a5,153fc <enormlz+0x4c>
   15414:	0064d783          	lhu	a5,6(s1)
   15418:	f007f793          	andi	a5,a5,-256
   1541c:	02078263          	beqz	a5,15440 <enormlz+0x90>
   15420:	0a000913          	li	s2,160
   15424:	00649783          	lh	a5,6(s1)
   15428:	fa07cce3          	bltz	a5,153e0 <enormlz+0x30>
   1542c:	00048513          	mv	a0,s1
   15430:	0014041b          	addiw	s0,s0,1
   15434:	98dff0ef          	jal	ra,14dc0 <eshup1>
   15438:	fe8956e3          	bge	s2,s0,15424 <enormlz+0x74>
   1543c:	fa5ff06f          	j	153e0 <enormlz+0x30>
   15440:	00048513          	mv	a0,s1
   15444:	a05ff0ef          	jal	ra,14e48 <eshup8>
   15448:	0084041b          	addiw	s0,s0,8
   1544c:	fc9ff06f          	j	15414 <enormlz+0x64>
   15450:	f007f793          	andi	a5,a5,-256
   15454:	00000413          	li	s0,0
   15458:	00078663          	beqz	a5,15464 <enormlz+0xb4>
   1545c:	9b9ff0ef          	jal	ra,14e14 <eshdn8>
   15460:	ff800413          	li	s0,-8
   15464:	f7000913          	li	s2,-144
   15468:	0140006f          	j	1547c <enormlz+0xcc>
   1546c:	00048513          	mv	a0,s1
   15470:	fff4041b          	addiw	s0,s0,-1
   15474:	8fdff0ef          	jal	ra,14d70 <eshdn1>
   15478:	f72444e3          	blt	s0,s2,153e0 <enormlz+0x30>
   1547c:	0044d783          	lhu	a5,4(s1)
   15480:	fe0796e3          	bnez	a5,1546c <enormlz+0xbc>
   15484:	f5dff06f          	j	153e0 <enormlz+0x30>

0000000000015488 <enan.constprop.12>:
   15488:	01050793          	addi	a5,a0,16
   1548c:	00250513          	addi	a0,a0,2
   15490:	fe051f23          	sh	zero,-2(a0)
   15494:	fef51ce3          	bne	a0,a5,1548c <enan.constprop.12+0x4>
   15498:	ffffc7b7          	lui	a5,0xffffc
   1549c:	00f51023          	sh	a5,0(a0)
   154a0:	ffff87b7          	lui	a5,0xffff8
   154a4:	fff7c793          	not	a5,a5
   154a8:	00f51123          	sh	a5,2(a0)
   154ac:	00008067          	ret

00000000000154b0 <emovo.isra.6>:
   154b0:	00050713          	mv	a4,a0
   154b4:	00075683          	lhu	a3,0(a4)
   154b8:	00058513          	mv	a0,a1
   154bc:	00275783          	lhu	a5,2(a4)
   154c0:	00068663          	beqz	a3,154cc <emovo.isra.6+0x1c>
   154c4:	ffff86b7          	lui	a3,0xffff8
   154c8:	00d7e7b3          	or	a5,a5,a3
   154cc:	00f51923          	sh	a5,18(a0)
   154d0:	00275603          	lhu	a2,2(a4)
   154d4:	000086b7          	lui	a3,0x8
   154d8:	fff68693          	addi	a3,a3,-1 # 7fff <threadsense.2706+0x7fff>
   154dc:	00670793          	addi	a5,a4,6
   154e0:	00d61e63          	bne	a2,a3,154fc <emovo.isra.6+0x4c>
   154e4:	01a70713          	addi	a4,a4,26
   154e8:	0007d683          	lhu	a3,0(a5) # ffffffffffff8000 <_end+0xfffffffffffd3228>
   154ec:	02069863          	bnez	a3,1551c <emovo.isra.6+0x6c>
   154f0:	00278793          	addi	a5,a5,2
   154f4:	fee79ae3          	bne	a5,a4,154e8 <emovo.isra.6+0x38>
   154f8:	d39ff06f          	j	15230 <einfin.isra.2>
   154fc:	01050513          	addi	a0,a0,16
   15500:	01870713          	addi	a4,a4,24
   15504:	00278793          	addi	a5,a5,2
   15508:	ffe7d683          	lhu	a3,-2(a5)
   1550c:	ffe50513          	addi	a0,a0,-2
   15510:	00d51123          	sh	a3,2(a0)
   15514:	fee798e3          	bne	a5,a4,15504 <emovo.isra.6+0x54>
   15518:	00008067          	ret
   1551c:	f6dff06f          	j	15488 <enan.constprop.12>

0000000000015520 <e113toe.isra.8>:
   15520:	fc010113          	addi	sp,sp,-64
   15524:	02913423          	sd	s1,40(sp)
   15528:	00050493          	mv	s1,a0
   1552c:	00010513          	mv	a0,sp
