
isa-200-v2/rv64ui-ps-lb-200.riscv:     file format elf64-littleriscv


Disassembly of section .text.init:

0000000080000000 <_start>:
    80000000:	00000297          	auipc	t0,0x0
    80000004:	00c28293          	addi	t0,t0,12 # 8000000c <_start+0xc>
    80000008:	00028067          	jr	t0
    8000000c:	0c800f93          	li	t6,200

0000000080000010 <LOOP>:
    80000010:	00002097          	auipc	ra,0x2
    80000014:	ff008093          	addi	ra,ra,-16 # 80002000 <begin_signature>
    80000018:	00008f03          	lb	t5,0(ra)
    8000001c:	fff00e93          	li	t4,-1
    80000020:	00200193          	li	gp,2
    80000024:	25de9063          	bne	t4,t4,80000264 <fail>

0000000080000028 <test_3>:
    80000028:	00002097          	auipc	ra,0x2
    8000002c:	fd808093          	addi	ra,ra,-40 # 80002000 <begin_signature>
    80000030:	00108f03          	lb	t5,1(ra)
    80000034:	00000e93          	li	t4,0
    80000038:	00300193          	li	gp,3
    8000003c:	23de9463          	bne	t4,t4,80000264 <fail>

0000000080000040 <test_4>:
    80000040:	00002097          	auipc	ra,0x2
    80000044:	fc008093          	addi	ra,ra,-64 # 80002000 <begin_signature>
    80000048:	00208f03          	lb	t5,2(ra)
    8000004c:	ff000e93          	li	t4,-16
    80000050:	00400193          	li	gp,4
    80000054:	21de9863          	bne	t4,t4,80000264 <fail>

0000000080000058 <test_5>:
    80000058:	00002097          	auipc	ra,0x2
    8000005c:	fa808093          	addi	ra,ra,-88 # 80002000 <begin_signature>
    80000060:	00308f03          	lb	t5,3(ra)
    80000064:	00f00e93          	li	t4,15
    80000068:	00500193          	li	gp,5
    8000006c:	1fde9c63          	bne	t4,t4,80000264 <fail>

0000000080000070 <test_6>:
    80000070:	00002097          	auipc	ra,0x2
    80000074:	f9308093          	addi	ra,ra,-109 # 80002003 <tdat4>
    80000078:	ffd08f03          	lb	t5,-3(ra)
    8000007c:	fff00e93          	li	t4,-1
    80000080:	00600193          	li	gp,6
    80000084:	1fde9063          	bne	t4,t4,80000264 <fail>

0000000080000088 <test_7>:
    80000088:	00002097          	auipc	ra,0x2
    8000008c:	f7b08093          	addi	ra,ra,-133 # 80002003 <tdat4>
    80000090:	ffe08f03          	lb	t5,-2(ra)
    80000094:	00000e93          	li	t4,0
    80000098:	00700193          	li	gp,7
    8000009c:	1dde9463          	bne	t4,t4,80000264 <fail>

00000000800000a0 <test_8>:
    800000a0:	00002097          	auipc	ra,0x2
    800000a4:	f6308093          	addi	ra,ra,-157 # 80002003 <tdat4>
    800000a8:	fff08f03          	lb	t5,-1(ra)
    800000ac:	ff000e93          	li	t4,-16
    800000b0:	00800193          	li	gp,8
    800000b4:	1bde9863          	bne	t4,t4,80000264 <fail>

00000000800000b8 <test_9>:
    800000b8:	00002097          	auipc	ra,0x2
    800000bc:	f4b08093          	addi	ra,ra,-181 # 80002003 <tdat4>
    800000c0:	00008f03          	lb	t5,0(ra)
    800000c4:	00f00e93          	li	t4,15
    800000c8:	00900193          	li	gp,9
    800000cc:	19de9c63          	bne	t4,t4,80000264 <fail>

00000000800000d0 <test_10>:
    800000d0:	00002097          	auipc	ra,0x2
    800000d4:	f3008093          	addi	ra,ra,-208 # 80002000 <begin_signature>
    800000d8:	fe008093          	addi	ra,ra,-32
    800000dc:	02008283          	lb	t0,32(ra)
    800000e0:	fff00e93          	li	t4,-1
    800000e4:	00a00193          	li	gp,10
    800000e8:	17de9e63          	bne	t4,t4,80000264 <fail>

00000000800000ec <test_11>:
    800000ec:	00002097          	auipc	ra,0x2
    800000f0:	f1408093          	addi	ra,ra,-236 # 80002000 <begin_signature>
    800000f4:	ffa08093          	addi	ra,ra,-6
    800000f8:	00708283          	lb	t0,7(ra)
    800000fc:	00000e93          	li	t4,0
    80000100:	00b00193          	li	gp,11
    80000104:	17de9063          	bne	t4,t4,80000264 <fail>

0000000080000108 <test_12>:
    80000108:	00c00193          	li	gp,12
    8000010c:	00000213          	li	tp,0
    80000110:	00002097          	auipc	ra,0x2
    80000114:	ef108093          	addi	ra,ra,-271 # 80002001 <tdat2>
    80000118:	00108f03          	lb	t5,1(ra)
    8000011c:	000f0313          	mv	t1,t5
    80000120:	ff000e93          	li	t4,-16
    80000124:	15de9063          	bne	t4,t4,80000264 <fail>
    80000128:	00120213          	addi	tp,tp,1 # 1 <_start-0x7fffffff>
    8000012c:	00200293          	li	t0,2
    80000130:	fe5210e3          	bne	tp,t0,80000110 <test_12+0x8>

0000000080000134 <test_13>:
    80000134:	00d00193          	li	gp,13
    80000138:	00000213          	li	tp,0
    8000013c:	00002097          	auipc	ra,0x2
    80000140:	ec608093          	addi	ra,ra,-314 # 80002002 <tdat3>
    80000144:	00108f03          	lb	t5,1(ra)
    80000148:	00000013          	nop
    8000014c:	000f0313          	mv	t1,t5
    80000150:	00f00e93          	li	t4,15
    80000154:	11de9863          	bne	t4,t4,80000264 <fail>
    80000158:	00120213          	addi	tp,tp,1 # 1 <_start-0x7fffffff>
    8000015c:	00200293          	li	t0,2
    80000160:	fc521ee3          	bne	tp,t0,8000013c <test_13+0x8>

0000000080000164 <test_14>:
    80000164:	00e00193          	li	gp,14
    80000168:	00000213          	li	tp,0
    8000016c:	00002097          	auipc	ra,0x2
    80000170:	e9408093          	addi	ra,ra,-364 # 80002000 <begin_signature>
    80000174:	00108f03          	lb	t5,1(ra)
    80000178:	00000013          	nop
    8000017c:	00000013          	nop
    80000180:	000f0313          	mv	t1,t5
    80000184:	00000e93          	li	t4,0
    80000188:	0dde9e63          	bne	t4,t4,80000264 <fail>
    8000018c:	00120213          	addi	tp,tp,1 # 1 <_start-0x7fffffff>
    80000190:	00200293          	li	t0,2
    80000194:	fc521ce3          	bne	tp,t0,8000016c <test_14+0x8>

0000000080000198 <test_15>:
    80000198:	00f00193          	li	gp,15
    8000019c:	00000213          	li	tp,0
    800001a0:	00002097          	auipc	ra,0x2
    800001a4:	e6108093          	addi	ra,ra,-415 # 80002001 <tdat2>
    800001a8:	00108f03          	lb	t5,1(ra)
    800001ac:	ff000e93          	li	t4,-16
    800001b0:	0bde9a63          	bne	t4,t4,80000264 <fail>
    800001b4:	00120213          	addi	tp,tp,1 # 1 <_start-0x7fffffff>
    800001b8:	00200293          	li	t0,2
    800001bc:	fe5212e3          	bne	tp,t0,800001a0 <test_15+0x8>

00000000800001c0 <test_16>:
    800001c0:	01000193          	li	gp,16
    800001c4:	00000213          	li	tp,0
    800001c8:	00002097          	auipc	ra,0x2
    800001cc:	e3a08093          	addi	ra,ra,-454 # 80002002 <tdat3>
    800001d0:	00000013          	nop
    800001d4:	00108f03          	lb	t5,1(ra)
    800001d8:	00f00e93          	li	t4,15
    800001dc:	09de9463          	bne	t4,t4,80000264 <fail>
    800001e0:	00120213          	addi	tp,tp,1 # 1 <_start-0x7fffffff>
    800001e4:	00200293          	li	t0,2
    800001e8:	fe5210e3          	bne	tp,t0,800001c8 <test_16+0x8>

00000000800001ec <test_17>:
    800001ec:	01100193          	li	gp,17
    800001f0:	00000213          	li	tp,0
    800001f4:	00002097          	auipc	ra,0x2
    800001f8:	e0c08093          	addi	ra,ra,-500 # 80002000 <begin_signature>
    800001fc:	00000013          	nop
    80000200:	00000013          	nop
    80000204:	00108f03          	lb	t5,1(ra)
    80000208:	00000e93          	li	t4,0
    8000020c:	05de9c63          	bne	t4,t4,80000264 <fail>
    80000210:	00120213          	addi	tp,tp,1 # 1 <_start-0x7fffffff>
    80000214:	00200293          	li	t0,2
    80000218:	fc521ee3          	bne	tp,t0,800001f4 <test_17+0x8>

000000008000021c <test_18>:
    8000021c:	00002297          	auipc	t0,0x2
    80000220:	de428293          	addi	t0,t0,-540 # 80002000 <begin_signature>
    80000224:	00028103          	lb	sp,0(t0)
    80000228:	00200113          	li	sp,2
    8000022c:	00200e93          	li	t4,2
    80000230:	01200193          	li	gp,18
    80000234:	03de9863          	bne	t4,t4,80000264 <fail>

0000000080000238 <test_19>:
    80000238:	00002297          	auipc	t0,0x2
    8000023c:	dc828293          	addi	t0,t0,-568 # 80002000 <begin_signature>
    80000240:	00028103          	lb	sp,0(t0)
    80000244:	00000013          	nop
    80000248:	00200113          	li	sp,2
    8000024c:	00200e93          	li	t4,2
    80000250:	01300193          	li	gp,19
    80000254:	01de9863          	bne	t4,t4,80000264 <fail>
    80000258:	ffff8f93          	addi	t6,t6,-1
    8000025c:	da0f9ae3          	bnez	t6,80000010 <LOOP>
    80000260:	00301a63          	bne	zero,gp,80000274 <pass>

0000000080000264 <fail>:
    80000264:	0ff0000f          	fence
    80000268:	00018513          	mv	a0,gp
    8000026c:	05d00893          	li	a7,93
    80000270:	00000073          	ecall

0000000080000274 <pass>:
    80000274:	0ff0000f          	fence
    80000278:	00000513          	li	a0,0
    8000027c:	05d00893          	li	a7,93
    80000280:	00000073          	ecall
