
isa-200-v2/rv64um-ps-mulw-200.riscv:     file format elf64-littleriscv


Disassembly of section .text.init:

0000000080000000 <_start>:
    80000000:	00000297          	auipc	t0,0x0
    80000004:	00c28293          	addi	t0,t0,12 # 8000000c <_start+0xc>
    80000008:	00028067          	jr	t0
    8000000c:	0c800f93          	li	t6,200

0000000080000010 <LOOP>:
    80000010:	00000093          	li	ra,0
    80000014:	00000113          	li	sp,0
    80000018:	02208f3b          	mulw	t5,ra,sp
    8000001c:	00000e93          	li	t4,0
    80000020:	00200193          	li	gp,2
    80000024:	3dde9663          	bne	t4,t4,800003f0 <fail>

0000000080000028 <test_3>:
    80000028:	00100093          	li	ra,1
    8000002c:	00100113          	li	sp,1
    80000030:	02208f3b          	mulw	t5,ra,sp
    80000034:	00100e93          	li	t4,1
    80000038:	00300193          	li	gp,3
    8000003c:	3bde9a63          	bne	t4,t4,800003f0 <fail>

0000000080000040 <test_4>:
    80000040:	00300093          	li	ra,3
    80000044:	00700113          	li	sp,7
    80000048:	02208f3b          	mulw	t5,ra,sp
    8000004c:	01500e93          	li	t4,21
    80000050:	00400193          	li	gp,4
    80000054:	39de9e63          	bne	t4,t4,800003f0 <fail>

0000000080000058 <test_5>:
    80000058:	00000093          	li	ra,0
    8000005c:	ffff8137          	lui	sp,0xffff8
    80000060:	02208f3b          	mulw	t5,ra,sp
    80000064:	00000e93          	li	t4,0
    80000068:	00500193          	li	gp,5
    8000006c:	39de9263          	bne	t4,t4,800003f0 <fail>

0000000080000070 <test_6>:
    80000070:	800000b7          	lui	ra,0x80000
    80000074:	00000113          	li	sp,0
    80000078:	02208f3b          	mulw	t5,ra,sp
    8000007c:	00000e93          	li	t4,0
    80000080:	00600193          	li	gp,6
    80000084:	37de9663          	bne	t4,t4,800003f0 <fail>

0000000080000088 <test_7>:
    80000088:	800000b7          	lui	ra,0x80000
    8000008c:	ffff8137          	lui	sp,0xffff8
    80000090:	02208f3b          	mulw	t5,ra,sp
    80000094:	00000e93          	li	t4,0
    80000098:	00700193          	li	gp,7
    8000009c:	35de9a63          	bne	t4,t4,800003f0 <fail>

00000000800000a0 <test_8>:
    800000a0:	00d00093          	li	ra,13
    800000a4:	00b00113          	li	sp,11
    800000a8:	022080bb          	mulw	ra,ra,sp
    800000ac:	08f00e93          	li	t4,143
    800000b0:	00800193          	li	gp,8
    800000b4:	33de9e63          	bne	t4,t4,800003f0 <fail>

00000000800000b8 <test_9>:
    800000b8:	00e00093          	li	ra,14
    800000bc:	00b00113          	li	sp,11
    800000c0:	0220813b          	mulw	sp,ra,sp
    800000c4:	09a00e93          	li	t4,154
    800000c8:	00900193          	li	gp,9
    800000cc:	33de9263          	bne	t4,t4,800003f0 <fail>

00000000800000d0 <test_10>:
    800000d0:	00d00093          	li	ra,13
    800000d4:	021080bb          	mulw	ra,ra,ra
    800000d8:	0a900e93          	li	t4,169
    800000dc:	00a00193          	li	gp,10
    800000e0:	31de9863          	bne	t4,t4,800003f0 <fail>

00000000800000e4 <test_11>:
    800000e4:	00000213          	li	tp,0
    800000e8:	00d00093          	li	ra,13
    800000ec:	00b00113          	li	sp,11
    800000f0:	02208f3b          	mulw	t5,ra,sp
    800000f4:	000f0313          	mv	t1,t5
    800000f8:	00120213          	addi	tp,tp,1 # 1 <_start-0x7fffffff>
    800000fc:	00200293          	li	t0,2
    80000100:	fe5214e3          	bne	tp,t0,800000e8 <test_11+0x4>
    80000104:	08f00e93          	li	t4,143
    80000108:	00b00193          	li	gp,11
    8000010c:	2fde9263          	bne	t4,t4,800003f0 <fail>

0000000080000110 <test_12>:
    80000110:	00000213          	li	tp,0
    80000114:	00e00093          	li	ra,14
    80000118:	00b00113          	li	sp,11
    8000011c:	02208f3b          	mulw	t5,ra,sp
    80000120:	00000013          	nop
    80000124:	000f0313          	mv	t1,t5
    80000128:	00120213          	addi	tp,tp,1 # 1 <_start-0x7fffffff>
    8000012c:	00200293          	li	t0,2
    80000130:	fe5212e3          	bne	tp,t0,80000114 <test_12+0x4>
    80000134:	09a00e93          	li	t4,154
    80000138:	00c00193          	li	gp,12
    8000013c:	2bde9a63          	bne	t4,t4,800003f0 <fail>

0000000080000140 <test_13>:
    80000140:	00000213          	li	tp,0
    80000144:	00f00093          	li	ra,15
    80000148:	00b00113          	li	sp,11
    8000014c:	02208f3b          	mulw	t5,ra,sp
    80000150:	00000013          	nop
    80000154:	00000013          	nop
    80000158:	000f0313          	mv	t1,t5
    8000015c:	00120213          	addi	tp,tp,1 # 1 <_start-0x7fffffff>
    80000160:	00200293          	li	t0,2
    80000164:	fe5210e3          	bne	tp,t0,80000144 <test_13+0x4>
    80000168:	0a500e93          	li	t4,165
    8000016c:	00d00193          	li	gp,13
    80000170:	29de9063          	bne	t4,t4,800003f0 <fail>

0000000080000174 <test_14>:
    80000174:	00000213          	li	tp,0
    80000178:	00d00093          	li	ra,13
    8000017c:	00b00113          	li	sp,11
    80000180:	02208f3b          	mulw	t5,ra,sp
    80000184:	00120213          	addi	tp,tp,1 # 1 <_start-0x7fffffff>
    80000188:	00200293          	li	t0,2
    8000018c:	fe5216e3          	bne	tp,t0,80000178 <test_14+0x4>
    80000190:	08f00e93          	li	t4,143
    80000194:	00e00193          	li	gp,14
    80000198:	25de9c63          	bne	t4,t4,800003f0 <fail>

000000008000019c <test_15>:
    8000019c:	00000213          	li	tp,0
    800001a0:	00e00093          	li	ra,14
    800001a4:	00b00113          	li	sp,11
    800001a8:	00000013          	nop
    800001ac:	02208f3b          	mulw	t5,ra,sp
    800001b0:	00120213          	addi	tp,tp,1 # 1 <_start-0x7fffffff>
    800001b4:	00200293          	li	t0,2
    800001b8:	fe5214e3          	bne	tp,t0,800001a0 <test_15+0x4>
    800001bc:	09a00e93          	li	t4,154
    800001c0:	00f00193          	li	gp,15
    800001c4:	23de9663          	bne	t4,t4,800003f0 <fail>

00000000800001c8 <test_16>:
    800001c8:	00000213          	li	tp,0
    800001cc:	00f00093          	li	ra,15
    800001d0:	00b00113          	li	sp,11
    800001d4:	00000013          	nop
    800001d8:	00000013          	nop
    800001dc:	02208f3b          	mulw	t5,ra,sp
    800001e0:	00120213          	addi	tp,tp,1 # 1 <_start-0x7fffffff>
    800001e4:	00200293          	li	t0,2
    800001e8:	fe5212e3          	bne	tp,t0,800001cc <test_16+0x4>
    800001ec:	0a500e93          	li	t4,165
    800001f0:	01000193          	li	gp,16
    800001f4:	1fde9e63          	bne	t4,t4,800003f0 <fail>

00000000800001f8 <test_17>:
    800001f8:	00000213          	li	tp,0
    800001fc:	00d00093          	li	ra,13
    80000200:	00000013          	nop
    80000204:	00b00113          	li	sp,11
    80000208:	02208f3b          	mulw	t5,ra,sp
    8000020c:	00120213          	addi	tp,tp,1 # 1 <_start-0x7fffffff>
    80000210:	00200293          	li	t0,2
    80000214:	fe5214e3          	bne	tp,t0,800001fc <test_17+0x4>
    80000218:	08f00e93          	li	t4,143
    8000021c:	01100193          	li	gp,17
    80000220:	1dde9863          	bne	t4,t4,800003f0 <fail>

0000000080000224 <test_18>:
    80000224:	00000213          	li	tp,0
    80000228:	00e00093          	li	ra,14
    8000022c:	00000013          	nop
    80000230:	00b00113          	li	sp,11
    80000234:	00000013          	nop
    80000238:	02208f3b          	mulw	t5,ra,sp
    8000023c:	00120213          	addi	tp,tp,1 # 1 <_start-0x7fffffff>
    80000240:	00200293          	li	t0,2
    80000244:	fe5212e3          	bne	tp,t0,80000228 <test_18+0x4>
    80000248:	09a00e93          	li	t4,154
    8000024c:	01200193          	li	gp,18
    80000250:	1bde9063          	bne	t4,t4,800003f0 <fail>

0000000080000254 <test_19>:
    80000254:	00000213          	li	tp,0
    80000258:	00f00093          	li	ra,15
    8000025c:	00000013          	nop
    80000260:	00000013          	nop
    80000264:	00b00113          	li	sp,11
    80000268:	02208f3b          	mulw	t5,ra,sp
    8000026c:	00120213          	addi	tp,tp,1 # 1 <_start-0x7fffffff>
    80000270:	00200293          	li	t0,2
    80000274:	fe5212e3          	bne	tp,t0,80000258 <test_19+0x4>
    80000278:	0a500e93          	li	t4,165
    8000027c:	01300193          	li	gp,19
    80000280:	17de9863          	bne	t4,t4,800003f0 <fail>

0000000080000284 <test_20>:
    80000284:	00000213          	li	tp,0
    80000288:	00b00113          	li	sp,11
    8000028c:	00d00093          	li	ra,13
    80000290:	02208f3b          	mulw	t5,ra,sp
    80000294:	00120213          	addi	tp,tp,1 # 1 <_start-0x7fffffff>
    80000298:	00200293          	li	t0,2
    8000029c:	fe5216e3          	bne	tp,t0,80000288 <test_20+0x4>
    800002a0:	08f00e93          	li	t4,143
    800002a4:	01400193          	li	gp,20
    800002a8:	15de9463          	bne	t4,t4,800003f0 <fail>

00000000800002ac <test_21>:
    800002ac:	00000213          	li	tp,0
    800002b0:	00b00113          	li	sp,11
    800002b4:	00e00093          	li	ra,14
    800002b8:	00000013          	nop
    800002bc:	02208f3b          	mulw	t5,ra,sp
    800002c0:	00120213          	addi	tp,tp,1 # 1 <_start-0x7fffffff>
    800002c4:	00200293          	li	t0,2
    800002c8:	fe5214e3          	bne	tp,t0,800002b0 <test_21+0x4>
    800002cc:	09a00e93          	li	t4,154
    800002d0:	01500193          	li	gp,21
    800002d4:	11de9e63          	bne	t4,t4,800003f0 <fail>

00000000800002d8 <test_22>:
    800002d8:	00000213          	li	tp,0
    800002dc:	00b00113          	li	sp,11
    800002e0:	00f00093          	li	ra,15
    800002e4:	00000013          	nop
    800002e8:	00000013          	nop
    800002ec:	02208f3b          	mulw	t5,ra,sp
    800002f0:	00120213          	addi	tp,tp,1 # 1 <_start-0x7fffffff>
    800002f4:	00200293          	li	t0,2
    800002f8:	fe5212e3          	bne	tp,t0,800002dc <test_22+0x4>
    800002fc:	0a500e93          	li	t4,165
    80000300:	01600193          	li	gp,22
    80000304:	0fde9663          	bne	t4,t4,800003f0 <fail>

0000000080000308 <test_23>:
    80000308:	00000213          	li	tp,0
    8000030c:	00b00113          	li	sp,11
    80000310:	00000013          	nop
    80000314:	00d00093          	li	ra,13
    80000318:	02208f3b          	mulw	t5,ra,sp
    8000031c:	00120213          	addi	tp,tp,1 # 1 <_start-0x7fffffff>
    80000320:	00200293          	li	t0,2
    80000324:	fe5214e3          	bne	tp,t0,8000030c <test_23+0x4>
    80000328:	08f00e93          	li	t4,143
    8000032c:	01700193          	li	gp,23
    80000330:	0dde9063          	bne	t4,t4,800003f0 <fail>

0000000080000334 <test_24>:
    80000334:	00000213          	li	tp,0
    80000338:	00b00113          	li	sp,11
    8000033c:	00000013          	nop
    80000340:	00e00093          	li	ra,14
    80000344:	00000013          	nop
    80000348:	02208f3b          	mulw	t5,ra,sp
    8000034c:	00120213          	addi	tp,tp,1 # 1 <_start-0x7fffffff>
    80000350:	00200293          	li	t0,2
    80000354:	fe5212e3          	bne	tp,t0,80000338 <test_24+0x4>
    80000358:	09a00e93          	li	t4,154
    8000035c:	01800193          	li	gp,24
    80000360:	09de9863          	bne	t4,t4,800003f0 <fail>

0000000080000364 <test_25>:
    80000364:	00000213          	li	tp,0
    80000368:	00b00113          	li	sp,11
    8000036c:	00000013          	nop
    80000370:	00000013          	nop
    80000374:	00f00093          	li	ra,15
    80000378:	02208f3b          	mulw	t5,ra,sp
    8000037c:	00120213          	addi	tp,tp,1 # 1 <_start-0x7fffffff>
    80000380:	00200293          	li	t0,2
    80000384:	fe5212e3          	bne	tp,t0,80000368 <test_25+0x4>
    80000388:	0a500e93          	li	t4,165
    8000038c:	01900193          	li	gp,25
    80000390:	07de9063          	bne	t4,t4,800003f0 <fail>

0000000080000394 <test_26>:
    80000394:	01f00093          	li	ra,31
    80000398:	0210013b          	mulw	sp,zero,ra
    8000039c:	00000e93          	li	t4,0
    800003a0:	01a00193          	li	gp,26
    800003a4:	05de9663          	bne	t4,t4,800003f0 <fail>

00000000800003a8 <test_27>:
    800003a8:	02000093          	li	ra,32
    800003ac:	0200813b          	mulw	sp,ra,zero
    800003b0:	00000e93          	li	t4,0
    800003b4:	01b00193          	li	gp,27
    800003b8:	03de9c63          	bne	t4,t4,800003f0 <fail>

00000000800003bc <test_28>:
    800003bc:	020000bb          	mulw	ra,zero,zero
    800003c0:	00000e93          	li	t4,0
    800003c4:	01c00193          	li	gp,28
    800003c8:	03de9463          	bne	t4,t4,800003f0 <fail>

00000000800003cc <test_29>:
    800003cc:	02100093          	li	ra,33
    800003d0:	02200113          	li	sp,34
    800003d4:	0220803b          	mulw	zero,ra,sp
    800003d8:	00000e93          	li	t4,0
    800003dc:	01d00193          	li	gp,29
    800003e0:	01de9863          	bne	t4,t4,800003f0 <fail>
    800003e4:	ffff8f93          	addi	t6,t6,-1
    800003e8:	c20f94e3          	bnez	t6,80000010 <LOOP>
    800003ec:	00301a63          	bne	zero,gp,80000400 <pass>

00000000800003f0 <fail>:
    800003f0:	0ff0000f          	fence
    800003f4:	00018513          	mv	a0,gp
    800003f8:	05d00893          	li	a7,93
    800003fc:	00000073          	ecall

0000000080000400 <pass>:
    80000400:	0ff0000f          	fence
    80000404:	00000513          	li	a0,0
    80000408:	05d00893          	li	a7,93
    8000040c:	00000073          	ecall
	...
