
isa-200-v2/rv64ui-ps-slt-200.riscv:     file format elf64-littleriscv


Disassembly of section .text.init:

0000000080000000 <_start>:
    80000000:	00000297          	auipc	t0,0x0
    80000004:	00c28293          	addi	t0,t0,12 # 8000000c <_start+0xc>
    80000008:	00028067          	jr	t0
    8000000c:	0c800f93          	li	t6,200

0000000080000010 <LOOP>:
    80000010:	00000093          	li	ra,0
    80000014:	00000113          	li	sp,0
    80000018:	0020af33          	slt	t5,ra,sp
    8000001c:	00000e93          	li	t4,0
    80000020:	00200193          	li	gp,2
    80000024:	4bde9e63          	bne	t4,t4,800004e0 <fail>

0000000080000028 <test_3>:
    80000028:	00100093          	li	ra,1
    8000002c:	00100113          	li	sp,1
    80000030:	0020af33          	slt	t5,ra,sp
    80000034:	00000e93          	li	t4,0
    80000038:	00300193          	li	gp,3
    8000003c:	4bde9263          	bne	t4,t4,800004e0 <fail>

0000000080000040 <test_4>:
    80000040:	00300093          	li	ra,3
    80000044:	00700113          	li	sp,7
    80000048:	0020af33          	slt	t5,ra,sp
    8000004c:	00100e93          	li	t4,1
    80000050:	00400193          	li	gp,4
    80000054:	49de9663          	bne	t4,t4,800004e0 <fail>

0000000080000058 <test_5>:
    80000058:	00700093          	li	ra,7
    8000005c:	00300113          	li	sp,3
    80000060:	0020af33          	slt	t5,ra,sp
    80000064:	00000e93          	li	t4,0
    80000068:	00500193          	li	gp,5
    8000006c:	47de9a63          	bne	t4,t4,800004e0 <fail>

0000000080000070 <test_6>:
    80000070:	00000093          	li	ra,0
    80000074:	ffff8137          	lui	sp,0xffff8
    80000078:	0020af33          	slt	t5,ra,sp
    8000007c:	00000e93          	li	t4,0
    80000080:	00600193          	li	gp,6
    80000084:	45de9e63          	bne	t4,t4,800004e0 <fail>

0000000080000088 <test_7>:
    80000088:	800000b7          	lui	ra,0x80000
    8000008c:	00000113          	li	sp,0
    80000090:	0020af33          	slt	t5,ra,sp
    80000094:	00100e93          	li	t4,1
    80000098:	00700193          	li	gp,7
    8000009c:	45de9263          	bne	t4,t4,800004e0 <fail>

00000000800000a0 <test_8>:
    800000a0:	800000b7          	lui	ra,0x80000
    800000a4:	ffff8137          	lui	sp,0xffff8
    800000a8:	0020af33          	slt	t5,ra,sp
    800000ac:	00100e93          	li	t4,1
    800000b0:	00800193          	li	gp,8
    800000b4:	43de9663          	bne	t4,t4,800004e0 <fail>

00000000800000b8 <test_9>:
    800000b8:	00000093          	li	ra,0
    800000bc:	00008137          	lui	sp,0x8
    800000c0:	fff1011b          	addiw	sp,sp,-1
    800000c4:	0020af33          	slt	t5,ra,sp
    800000c8:	00100e93          	li	t4,1
    800000cc:	00900193          	li	gp,9
    800000d0:	41de9863          	bne	t4,t4,800004e0 <fail>

00000000800000d4 <test_10>:
    800000d4:	800000b7          	lui	ra,0x80000
    800000d8:	fff0809b          	addiw	ra,ra,-1
    800000dc:	00000113          	li	sp,0
    800000e0:	0020af33          	slt	t5,ra,sp
    800000e4:	00000e93          	li	t4,0
    800000e8:	00a00193          	li	gp,10
    800000ec:	3fde9a63          	bne	t4,t4,800004e0 <fail>

00000000800000f0 <test_11>:
    800000f0:	800000b7          	lui	ra,0x80000
    800000f4:	fff0809b          	addiw	ra,ra,-1
    800000f8:	00008137          	lui	sp,0x8
    800000fc:	fff1011b          	addiw	sp,sp,-1
    80000100:	0020af33          	slt	t5,ra,sp
    80000104:	00000e93          	li	t4,0
    80000108:	00b00193          	li	gp,11
    8000010c:	3dde9a63          	bne	t4,t4,800004e0 <fail>

0000000080000110 <test_12>:
    80000110:	800000b7          	lui	ra,0x80000
    80000114:	00008137          	lui	sp,0x8
    80000118:	fff1011b          	addiw	sp,sp,-1
    8000011c:	0020af33          	slt	t5,ra,sp
    80000120:	00100e93          	li	t4,1
    80000124:	00c00193          	li	gp,12
    80000128:	3bde9c63          	bne	t4,t4,800004e0 <fail>

000000008000012c <test_13>:
    8000012c:	800000b7          	lui	ra,0x80000
    80000130:	fff0809b          	addiw	ra,ra,-1
    80000134:	ffff8137          	lui	sp,0xffff8
    80000138:	0020af33          	slt	t5,ra,sp
    8000013c:	00000e93          	li	t4,0
    80000140:	00d00193          	li	gp,13
    80000144:	39de9e63          	bne	t4,t4,800004e0 <fail>

0000000080000148 <test_14>:
    80000148:	00000093          	li	ra,0
    8000014c:	fff00113          	li	sp,-1
    80000150:	0020af33          	slt	t5,ra,sp
    80000154:	00000e93          	li	t4,0
    80000158:	00e00193          	li	gp,14
    8000015c:	39de9263          	bne	t4,t4,800004e0 <fail>

0000000080000160 <test_15>:
    80000160:	fff00093          	li	ra,-1
    80000164:	00100113          	li	sp,1
    80000168:	0020af33          	slt	t5,ra,sp
    8000016c:	00100e93          	li	t4,1
    80000170:	00f00193          	li	gp,15
    80000174:	37de9663          	bne	t4,t4,800004e0 <fail>

0000000080000178 <test_16>:
    80000178:	fff00093          	li	ra,-1
    8000017c:	fff00113          	li	sp,-1
    80000180:	0020af33          	slt	t5,ra,sp
    80000184:	00000e93          	li	t4,0
    80000188:	01000193          	li	gp,16
    8000018c:	35de9a63          	bne	t4,t4,800004e0 <fail>

0000000080000190 <test_17>:
    80000190:	00e00093          	li	ra,14
    80000194:	00d00113          	li	sp,13
    80000198:	0020a0b3          	slt	ra,ra,sp
    8000019c:	00000e93          	li	t4,0
    800001a0:	01100193          	li	gp,17
    800001a4:	33de9e63          	bne	t4,t4,800004e0 <fail>

00000000800001a8 <test_18>:
    800001a8:	00b00093          	li	ra,11
    800001ac:	00d00113          	li	sp,13
    800001b0:	0020a133          	slt	sp,ra,sp
    800001b4:	00100e93          	li	t4,1
    800001b8:	01200193          	li	gp,18
    800001bc:	33de9263          	bne	t4,t4,800004e0 <fail>

00000000800001c0 <test_19>:
    800001c0:	00d00093          	li	ra,13
    800001c4:	0010a0b3          	slt	ra,ra,ra
    800001c8:	00000e93          	li	t4,0
    800001cc:	01300193          	li	gp,19
    800001d0:	31de9863          	bne	t4,t4,800004e0 <fail>

00000000800001d4 <test_20>:
    800001d4:	00000213          	li	tp,0
    800001d8:	00b00093          	li	ra,11
    800001dc:	00d00113          	li	sp,13
    800001e0:	0020af33          	slt	t5,ra,sp
    800001e4:	000f0313          	mv	t1,t5
    800001e8:	00120213          	addi	tp,tp,1 # 1 <_start-0x7fffffff>
    800001ec:	00200293          	li	t0,2
    800001f0:	fe5214e3          	bne	tp,t0,800001d8 <test_20+0x4>
    800001f4:	00100e93          	li	t4,1
    800001f8:	01400193          	li	gp,20
    800001fc:	2fde9263          	bne	t4,t4,800004e0 <fail>

0000000080000200 <test_21>:
    80000200:	00000213          	li	tp,0
    80000204:	00e00093          	li	ra,14
    80000208:	00d00113          	li	sp,13
    8000020c:	0020af33          	slt	t5,ra,sp
    80000210:	00000013          	nop
    80000214:	000f0313          	mv	t1,t5
    80000218:	00120213          	addi	tp,tp,1 # 1 <_start-0x7fffffff>
    8000021c:	00200293          	li	t0,2
    80000220:	fe5212e3          	bne	tp,t0,80000204 <test_21+0x4>
    80000224:	00000e93          	li	t4,0
    80000228:	01500193          	li	gp,21
    8000022c:	2bde9a63          	bne	t4,t4,800004e0 <fail>

0000000080000230 <test_22>:
    80000230:	00000213          	li	tp,0
    80000234:	00c00093          	li	ra,12
    80000238:	00d00113          	li	sp,13
    8000023c:	0020af33          	slt	t5,ra,sp
    80000240:	00000013          	nop
    80000244:	00000013          	nop
    80000248:	000f0313          	mv	t1,t5
    8000024c:	00120213          	addi	tp,tp,1 # 1 <_start-0x7fffffff>
    80000250:	00200293          	li	t0,2
    80000254:	fe5210e3          	bne	tp,t0,80000234 <test_22+0x4>
    80000258:	00100e93          	li	t4,1
    8000025c:	01600193          	li	gp,22
    80000260:	29de9063          	bne	t4,t4,800004e0 <fail>

0000000080000264 <test_23>:
    80000264:	00000213          	li	tp,0
    80000268:	00e00093          	li	ra,14
    8000026c:	00d00113          	li	sp,13
    80000270:	0020af33          	slt	t5,ra,sp
    80000274:	00120213          	addi	tp,tp,1 # 1 <_start-0x7fffffff>
    80000278:	00200293          	li	t0,2
    8000027c:	fe5216e3          	bne	tp,t0,80000268 <test_23+0x4>
    80000280:	00000e93          	li	t4,0
    80000284:	01700193          	li	gp,23
    80000288:	25de9c63          	bne	t4,t4,800004e0 <fail>

000000008000028c <test_24>:
    8000028c:	00000213          	li	tp,0
    80000290:	00b00093          	li	ra,11
    80000294:	00d00113          	li	sp,13
    80000298:	00000013          	nop
    8000029c:	0020af33          	slt	t5,ra,sp
    800002a0:	00120213          	addi	tp,tp,1 # 1 <_start-0x7fffffff>
    800002a4:	00200293          	li	t0,2
    800002a8:	fe5214e3          	bne	tp,t0,80000290 <test_24+0x4>
    800002ac:	00100e93          	li	t4,1
    800002b0:	01800193          	li	gp,24
    800002b4:	23de9663          	bne	t4,t4,800004e0 <fail>

00000000800002b8 <test_25>:
    800002b8:	00000213          	li	tp,0
    800002bc:	00f00093          	li	ra,15
    800002c0:	00d00113          	li	sp,13
    800002c4:	00000013          	nop
    800002c8:	00000013          	nop
    800002cc:	0020af33          	slt	t5,ra,sp
    800002d0:	00120213          	addi	tp,tp,1 # 1 <_start-0x7fffffff>
    800002d4:	00200293          	li	t0,2
    800002d8:	fe5212e3          	bne	tp,t0,800002bc <test_25+0x4>
    800002dc:	00000e93          	li	t4,0
    800002e0:	01900193          	li	gp,25
    800002e4:	1fde9e63          	bne	t4,t4,800004e0 <fail>

00000000800002e8 <test_26>:
    800002e8:	00000213          	li	tp,0
    800002ec:	00a00093          	li	ra,10
    800002f0:	00000013          	nop
    800002f4:	00d00113          	li	sp,13
    800002f8:	0020af33          	slt	t5,ra,sp
    800002fc:	00120213          	addi	tp,tp,1 # 1 <_start-0x7fffffff>
    80000300:	00200293          	li	t0,2
    80000304:	fe5214e3          	bne	tp,t0,800002ec <test_26+0x4>
    80000308:	00100e93          	li	t4,1
    8000030c:	01a00193          	li	gp,26
    80000310:	1dde9863          	bne	t4,t4,800004e0 <fail>

0000000080000314 <test_27>:
    80000314:	00000213          	li	tp,0
    80000318:	01000093          	li	ra,16
    8000031c:	00000013          	nop
    80000320:	00d00113          	li	sp,13
    80000324:	00000013          	nop
    80000328:	0020af33          	slt	t5,ra,sp
    8000032c:	00120213          	addi	tp,tp,1 # 1 <_start-0x7fffffff>
    80000330:	00200293          	li	t0,2
    80000334:	fe5212e3          	bne	tp,t0,80000318 <test_27+0x4>
    80000338:	00000e93          	li	t4,0
    8000033c:	01b00193          	li	gp,27
    80000340:	1bde9063          	bne	t4,t4,800004e0 <fail>

0000000080000344 <test_28>:
    80000344:	00000213          	li	tp,0
    80000348:	00900093          	li	ra,9
    8000034c:	00000013          	nop
    80000350:	00000013          	nop
    80000354:	00d00113          	li	sp,13
    80000358:	0020af33          	slt	t5,ra,sp
    8000035c:	00120213          	addi	tp,tp,1 # 1 <_start-0x7fffffff>
    80000360:	00200293          	li	t0,2
    80000364:	fe5212e3          	bne	tp,t0,80000348 <test_28+0x4>
    80000368:	00100e93          	li	t4,1
    8000036c:	01c00193          	li	gp,28
    80000370:	17de9863          	bne	t4,t4,800004e0 <fail>

0000000080000374 <test_29>:
    80000374:	00000213          	li	tp,0
    80000378:	00d00113          	li	sp,13
    8000037c:	01100093          	li	ra,17
    80000380:	0020af33          	slt	t5,ra,sp
    80000384:	00120213          	addi	tp,tp,1 # 1 <_start-0x7fffffff>
    80000388:	00200293          	li	t0,2
    8000038c:	fe5216e3          	bne	tp,t0,80000378 <test_29+0x4>
    80000390:	00000e93          	li	t4,0
    80000394:	01d00193          	li	gp,29
    80000398:	15de9463          	bne	t4,t4,800004e0 <fail>

000000008000039c <test_30>:
    8000039c:	00000213          	li	tp,0
    800003a0:	00d00113          	li	sp,13
    800003a4:	00800093          	li	ra,8
    800003a8:	00000013          	nop
    800003ac:	0020af33          	slt	t5,ra,sp
    800003b0:	00120213          	addi	tp,tp,1 # 1 <_start-0x7fffffff>
    800003b4:	00200293          	li	t0,2
    800003b8:	fe5214e3          	bne	tp,t0,800003a0 <test_30+0x4>
    800003bc:	00100e93          	li	t4,1
    800003c0:	01e00193          	li	gp,30
    800003c4:	11de9e63          	bne	t4,t4,800004e0 <fail>

00000000800003c8 <test_31>:
    800003c8:	00000213          	li	tp,0
    800003cc:	00d00113          	li	sp,13
    800003d0:	01200093          	li	ra,18
    800003d4:	00000013          	nop
    800003d8:	00000013          	nop
    800003dc:	0020af33          	slt	t5,ra,sp
    800003e0:	00120213          	addi	tp,tp,1 # 1 <_start-0x7fffffff>
    800003e4:	00200293          	li	t0,2
    800003e8:	fe5212e3          	bne	tp,t0,800003cc <test_31+0x4>
    800003ec:	00000e93          	li	t4,0
    800003f0:	01f00193          	li	gp,31
    800003f4:	0fde9663          	bne	t4,t4,800004e0 <fail>

00000000800003f8 <test_32>:
    800003f8:	00000213          	li	tp,0
    800003fc:	00d00113          	li	sp,13
    80000400:	00000013          	nop
    80000404:	00700093          	li	ra,7
    80000408:	0020af33          	slt	t5,ra,sp
    8000040c:	00120213          	addi	tp,tp,1 # 1 <_start-0x7fffffff>
    80000410:	00200293          	li	t0,2
    80000414:	fe5214e3          	bne	tp,t0,800003fc <test_32+0x4>
    80000418:	00100e93          	li	t4,1
    8000041c:	02000193          	li	gp,32
    80000420:	0dde9063          	bne	t4,t4,800004e0 <fail>

0000000080000424 <test_33>:
    80000424:	00000213          	li	tp,0
    80000428:	00d00113          	li	sp,13
    8000042c:	00000013          	nop
    80000430:	01300093          	li	ra,19
    80000434:	00000013          	nop
    80000438:	0020af33          	slt	t5,ra,sp
    8000043c:	00120213          	addi	tp,tp,1 # 1 <_start-0x7fffffff>
    80000440:	00200293          	li	t0,2
    80000444:	fe5212e3          	bne	tp,t0,80000428 <test_33+0x4>
    80000448:	00000e93          	li	t4,0
    8000044c:	02100193          	li	gp,33
    80000450:	09de9863          	bne	t4,t4,800004e0 <fail>

0000000080000454 <test_34>:
    80000454:	00000213          	li	tp,0
    80000458:	00d00113          	li	sp,13
    8000045c:	00000013          	nop
    80000460:	00000013          	nop
    80000464:	00600093          	li	ra,6
    80000468:	0020af33          	slt	t5,ra,sp
    8000046c:	00120213          	addi	tp,tp,1 # 1 <_start-0x7fffffff>
    80000470:	00200293          	li	t0,2
    80000474:	fe5212e3          	bne	tp,t0,80000458 <test_34+0x4>
    80000478:	00100e93          	li	t4,1
    8000047c:	02200193          	li	gp,34
    80000480:	07de9063          	bne	t4,t4,800004e0 <fail>

0000000080000484 <test_35>:
    80000484:	fff00093          	li	ra,-1
    80000488:	00102133          	sgtz	sp,ra
    8000048c:	00000e93          	li	t4,0
    80000490:	02300193          	li	gp,35
    80000494:	05de9663          	bne	t4,t4,800004e0 <fail>

0000000080000498 <test_36>:
    80000498:	fff00093          	li	ra,-1
    8000049c:	0000a133          	sltz	sp,ra
    800004a0:	00100e93          	li	t4,1
    800004a4:	02400193          	li	gp,36
    800004a8:	03de9c63          	bne	t4,t4,800004e0 <fail>

00000000800004ac <test_37>:
    800004ac:	000020b3          	sltz	ra,zero
    800004b0:	00000e93          	li	t4,0
    800004b4:	02500193          	li	gp,37
    800004b8:	03de9463          	bne	t4,t4,800004e0 <fail>

00000000800004bc <test_38>:
    800004bc:	01000093          	li	ra,16
    800004c0:	01e00113          	li	sp,30
    800004c4:	0020a033          	slt	zero,ra,sp
    800004c8:	00000e93          	li	t4,0
    800004cc:	02600193          	li	gp,38
    800004d0:	01de9863          	bne	t4,t4,800004e0 <fail>
    800004d4:	ffff8f93          	addi	t6,t6,-1
    800004d8:	b20f9ce3          	bnez	t6,80000010 <LOOP>
    800004dc:	00301a63          	bne	zero,gp,800004f0 <pass>

00000000800004e0 <fail>:
    800004e0:	0ff0000f          	fence
    800004e4:	00018513          	mv	a0,gp
    800004e8:	05d00893          	li	a7,93
    800004ec:	00000073          	ecall

00000000800004f0 <pass>:
    800004f0:	0ff0000f          	fence
    800004f4:	00000513          	li	a0,0
    800004f8:	05d00893          	li	a7,93
    800004fc:	00000073          	ecall
    80000500:	0000                	unimp
	...
