
isa-200-v2/rv64ui-ps-sd-200.riscv:     file format elf64-littleriscv


Disassembly of section .text.init:

0000000080000000 <_start>:
    80000000:	00000297          	auipc	t0,0x0
    80000004:	00c28293          	addi	t0,t0,12 # 8000000c <_start+0xc>
    80000008:	00028067          	jr	t0
    8000000c:	0c800f93          	li	t6,200

0000000080000010 <LOOP>:
    80000010:	00002097          	auipc	ra,0x2
    80000014:	ff008093          	addi	ra,ra,-16 # 80002000 <begin_signature>
    80000018:	00550137          	lui	sp,0x550
    8000001c:	0551011b          	addiw	sp,sp,85
    80000020:	01011113          	slli	sp,sp,0x10
    80000024:	05510113          	addi	sp,sp,85 # 550055 <_start-0x7faaffab>
    80000028:	01111113          	slli	sp,sp,0x11
    8000002c:	0aa10113          	addi	sp,sp,170
    80000030:	0020b023          	sd	sp,0(ra)
    80000034:	0000bf03          	ld	t5,0(ra)
    80000038:	00550eb7          	lui	t4,0x550
    8000003c:	055e8e9b          	addiw	t4,t4,85
    80000040:	010e9e93          	slli	t4,t4,0x10
    80000044:	055e8e93          	addi	t4,t4,85 # 550055 <_start-0x7faaffab>
    80000048:	011e9e93          	slli	t4,t4,0x11
    8000004c:	0aae8e93          	addi	t4,t4,170
    80000050:	00200193          	li	gp,2
    80000054:	61de9463          	bne	t4,t4,8000065c <fail>

0000000080000058 <test_3>:
    80000058:	00002097          	auipc	ra,0x2
    8000005c:	fa808093          	addi	ra,ra,-88 # 80002000 <begin_signature>
    80000060:	ffd50137          	lui	sp,0xffd50
    80000064:	0551011b          	addiw	sp,sp,85
    80000068:	01011113          	slli	sp,sp,0x10
    8000006c:	05510113          	addi	sp,sp,85 # ffffffffffd50055 <_end+0xffffffff7fd4e005>
    80000070:	00d11113          	slli	sp,sp,0xd
    80000074:	00b10113          	addi	sp,sp,11
    80000078:	00c11113          	slli	sp,sp,0xc
    8000007c:	a0010113          	addi	sp,sp,-1536
    80000080:	0020b423          	sd	sp,8(ra)
    80000084:	0080bf03          	ld	t5,8(ra)
    80000088:	ffd50eb7          	lui	t4,0xffd50
    8000008c:	055e8e9b          	addiw	t4,t4,85
    80000090:	010e9e93          	slli	t4,t4,0x10
    80000094:	055e8e93          	addi	t4,t4,85 # ffffffffffd50055 <_end+0xffffffff7fd4e005>
    80000098:	00de9e93          	slli	t4,t4,0xd
    8000009c:	00be8e93          	addi	t4,t4,11
    800000a0:	00ce9e93          	slli	t4,t4,0xc
    800000a4:	a00e8e93          	addi	t4,t4,-1536
    800000a8:	00300193          	li	gp,3
    800000ac:	5bde9863          	bne	t4,t4,8000065c <fail>

00000000800000b0 <test_4>:
    800000b0:	00002097          	auipc	ra,0x2
    800000b4:	f5008093          	addi	ra,ra,-176 # 80002000 <begin_signature>
    800000b8:	00550137          	lui	sp,0x550
    800000bc:	0551011b          	addiw	sp,sp,85
    800000c0:	00d11113          	slli	sp,sp,0xd
    800000c4:	00b10113          	addi	sp,sp,11 # 55000b <_start-0x7faafff5>
    800000c8:	00c11113          	slli	sp,sp,0xc
    800000cc:	a0110113          	addi	sp,sp,-1535
    800000d0:	00c11113          	slli	sp,sp,0xc
    800000d4:	aa010113          	addi	sp,sp,-1376
    800000d8:	0020b823          	sd	sp,16(ra)
    800000dc:	0100bf03          	ld	t5,16(ra)
    800000e0:	00550eb7          	lui	t4,0x550
    800000e4:	055e8e9b          	addiw	t4,t4,85
    800000e8:	00de9e93          	slli	t4,t4,0xd
    800000ec:	00be8e93          	addi	t4,t4,11 # 55000b <_start-0x7faafff5>
    800000f0:	00ce9e93          	slli	t4,t4,0xc
    800000f4:	a01e8e93          	addi	t4,t4,-1535
    800000f8:	00ce9e93          	slli	t4,t4,0xc
    800000fc:	aa0e8e93          	addi	t4,t4,-1376
    80000100:	00400193          	li	gp,4
    80000104:	55de9c63          	bne	t4,t4,8000065c <fail>

0000000080000108 <test_5>:
    80000108:	00002097          	auipc	ra,0x2
    8000010c:	ef808093          	addi	ra,ra,-264 # 80002000 <begin_signature>
    80000110:	fffd0137          	lui	sp,0xfffd0
    80000114:	0551011b          	addiw	sp,sp,85
    80000118:	01011113          	slli	sp,sp,0x10
    8000011c:	05510113          	addi	sp,sp,85 # fffffffffffd0055 <_end+0xffffffff7ffce005>
    80000120:	01011113          	slli	sp,sp,0x10
    80000124:	05510113          	addi	sp,sp,85
    80000128:	00d11113          	slli	sp,sp,0xd
    8000012c:	00a10113          	addi	sp,sp,10
    80000130:	0020bc23          	sd	sp,24(ra)
    80000134:	0180bf03          	ld	t5,24(ra)
    80000138:	fffd0eb7          	lui	t4,0xfffd0
    8000013c:	055e8e9b          	addiw	t4,t4,85
    80000140:	010e9e93          	slli	t4,t4,0x10
    80000144:	055e8e93          	addi	t4,t4,85 # fffffffffffd0055 <_end+0xffffffff7ffce005>
    80000148:	010e9e93          	slli	t4,t4,0x10
    8000014c:	055e8e93          	addi	t4,t4,85
    80000150:	00de9e93          	slli	t4,t4,0xd
    80000154:	00ae8e93          	addi	t4,t4,10
    80000158:	00500193          	li	gp,5
    8000015c:	51de9063          	bne	t4,t4,8000065c <fail>

0000000080000160 <test_6>:
    80000160:	00002097          	auipc	ra,0x2
    80000164:	ed808093          	addi	ra,ra,-296 # 80002038 <tdat8>
    80000168:	00550137          	lui	sp,0x550
    8000016c:	0551011b          	addiw	sp,sp,85
    80000170:	01011113          	slli	sp,sp,0x10
    80000174:	05510113          	addi	sp,sp,85 # 550055 <_start-0x7faaffab>
    80000178:	01111113          	slli	sp,sp,0x11
    8000017c:	0aa10113          	addi	sp,sp,170
    80000180:	fe20b423          	sd	sp,-24(ra)
    80000184:	fe80bf03          	ld	t5,-24(ra)
    80000188:	00550eb7          	lui	t4,0x550
    8000018c:	055e8e9b          	addiw	t4,t4,85
    80000190:	010e9e93          	slli	t4,t4,0x10
    80000194:	055e8e93          	addi	t4,t4,85 # 550055 <_start-0x7faaffab>
    80000198:	011e9e93          	slli	t4,t4,0x11
    8000019c:	0aae8e93          	addi	t4,t4,170
    800001a0:	00600193          	li	gp,6
    800001a4:	4bde9c63          	bne	t4,t4,8000065c <fail>

00000000800001a8 <test_7>:
    800001a8:	00002097          	auipc	ra,0x2
    800001ac:	e9008093          	addi	ra,ra,-368 # 80002038 <tdat8>
    800001b0:	ffd50137          	lui	sp,0xffd50
    800001b4:	0551011b          	addiw	sp,sp,85
    800001b8:	01011113          	slli	sp,sp,0x10
    800001bc:	05510113          	addi	sp,sp,85 # ffffffffffd50055 <_end+0xffffffff7fd4e005>
    800001c0:	00d11113          	slli	sp,sp,0xd
    800001c4:	00b10113          	addi	sp,sp,11
    800001c8:	00c11113          	slli	sp,sp,0xc
    800001cc:	a0010113          	addi	sp,sp,-1536
    800001d0:	fe20b823          	sd	sp,-16(ra)
    800001d4:	ff00bf03          	ld	t5,-16(ra)
    800001d8:	ffd50eb7          	lui	t4,0xffd50
    800001dc:	055e8e9b          	addiw	t4,t4,85
    800001e0:	010e9e93          	slli	t4,t4,0x10
    800001e4:	055e8e93          	addi	t4,t4,85 # ffffffffffd50055 <_end+0xffffffff7fd4e005>
    800001e8:	00de9e93          	slli	t4,t4,0xd
    800001ec:	00be8e93          	addi	t4,t4,11
    800001f0:	00ce9e93          	slli	t4,t4,0xc
    800001f4:	a00e8e93          	addi	t4,t4,-1536
    800001f8:	00700193          	li	gp,7
    800001fc:	47de9063          	bne	t4,t4,8000065c <fail>

0000000080000200 <test_8>:
    80000200:	00002097          	auipc	ra,0x2
    80000204:	e3808093          	addi	ra,ra,-456 # 80002038 <tdat8>
    80000208:	00550137          	lui	sp,0x550
    8000020c:	0551011b          	addiw	sp,sp,85
    80000210:	00d11113          	slli	sp,sp,0xd
    80000214:	00b10113          	addi	sp,sp,11 # 55000b <_start-0x7faafff5>
    80000218:	00c11113          	slli	sp,sp,0xc
    8000021c:	a0110113          	addi	sp,sp,-1535
    80000220:	00c11113          	slli	sp,sp,0xc
    80000224:	aa010113          	addi	sp,sp,-1376
    80000228:	fe20bc23          	sd	sp,-8(ra)
    8000022c:	ff80bf03          	ld	t5,-8(ra)
    80000230:	00550eb7          	lui	t4,0x550
    80000234:	055e8e9b          	addiw	t4,t4,85
    80000238:	00de9e93          	slli	t4,t4,0xd
    8000023c:	00be8e93          	addi	t4,t4,11 # 55000b <_start-0x7faafff5>
    80000240:	00ce9e93          	slli	t4,t4,0xc
    80000244:	a01e8e93          	addi	t4,t4,-1535
    80000248:	00ce9e93          	slli	t4,t4,0xc
    8000024c:	aa0e8e93          	addi	t4,t4,-1376
    80000250:	00800193          	li	gp,8
    80000254:	41de9463          	bne	t4,t4,8000065c <fail>

0000000080000258 <test_9>:
    80000258:	00002097          	auipc	ra,0x2
    8000025c:	de008093          	addi	ra,ra,-544 # 80002038 <tdat8>
    80000260:	fffd0137          	lui	sp,0xfffd0
    80000264:	0551011b          	addiw	sp,sp,85
    80000268:	01011113          	slli	sp,sp,0x10
    8000026c:	05510113          	addi	sp,sp,85 # fffffffffffd0055 <_end+0xffffffff7ffce005>
    80000270:	01011113          	slli	sp,sp,0x10
    80000274:	05510113          	addi	sp,sp,85
    80000278:	00d11113          	slli	sp,sp,0xd
    8000027c:	00a10113          	addi	sp,sp,10
    80000280:	0020b023          	sd	sp,0(ra)
    80000284:	0000bf03          	ld	t5,0(ra)
    80000288:	fffd0eb7          	lui	t4,0xfffd0
    8000028c:	055e8e9b          	addiw	t4,t4,85
    80000290:	010e9e93          	slli	t4,t4,0x10
    80000294:	055e8e93          	addi	t4,t4,85 # fffffffffffd0055 <_end+0xffffffff7ffce005>
    80000298:	010e9e93          	slli	t4,t4,0x10
    8000029c:	055e8e93          	addi	t4,t4,85
    800002a0:	00de9e93          	slli	t4,t4,0xd
    800002a4:	00ae8e93          	addi	t4,t4,10
    800002a8:	00900193          	li	gp,9
    800002ac:	3bde9863          	bne	t4,t4,8000065c <fail>

00000000800002b0 <test_10>:
    800002b0:	00002097          	auipc	ra,0x2
    800002b4:	d9008093          	addi	ra,ra,-624 # 80002040 <tdat9>
    800002b8:	00247137          	lui	sp,0x247
    800002bc:	8ad1011b          	addiw	sp,sp,-1875
    800002c0:	00e11113          	slli	sp,sp,0xe
    800002c4:	c0910113          	addi	sp,sp,-1015 # 246c09 <_start-0x7fdb93f7>
    800002c8:	00d11113          	slli	sp,sp,0xd
    800002cc:	34510113          	addi	sp,sp,837
    800002d0:	00c11113          	slli	sp,sp,0xc
    800002d4:	67810113          	addi	sp,sp,1656
    800002d8:	fe008213          	addi	tp,ra,-32
    800002dc:	02223023          	sd	sp,32(tp) # 20 <_start-0x7fffffe0>
    800002e0:	0000b283          	ld	t0,0(ra)
    800002e4:	00247eb7          	lui	t4,0x247
    800002e8:	8ade8e9b          	addiw	t4,t4,-1875
    800002ec:	00ee9e93          	slli	t4,t4,0xe
    800002f0:	c09e8e93          	addi	t4,t4,-1015 # 246c09 <_start-0x7fdb93f7>
    800002f4:	00de9e93          	slli	t4,t4,0xd
    800002f8:	345e8e93          	addi	t4,t4,837
    800002fc:	00ce9e93          	slli	t4,t4,0xc
    80000300:	678e8e93          	addi	t4,t4,1656
    80000304:	00a00193          	li	gp,10
    80000308:	35de9a63          	bne	t4,t4,8000065c <fail>

000000008000030c <test_11>:
    8000030c:	00002097          	auipc	ra,0x2
    80000310:	d3408093          	addi	ra,ra,-716 # 80002040 <tdat9>
    80000314:	00b04137          	lui	sp,0xb04
    80000318:	2611011b          	addiw	sp,sp,609
    8000031c:	00c11113          	slli	sp,sp,0xc
    80000320:	30b10113          	addi	sp,sp,779 # b0430b <_start-0x7f4fbcf5>
    80000324:	00f11113          	slli	sp,sp,0xf
    80000328:	21310113          	addi	sp,sp,531
    8000032c:	00c11113          	slli	sp,sp,0xc
    80000330:	09810113          	addi	sp,sp,152
    80000334:	ffd08093          	addi	ra,ra,-3
    80000338:	0020b5a3          	sd	sp,11(ra)
    8000033c:	00002217          	auipc	tp,0x2
    80000340:	d0c20213          	addi	tp,tp,-756 # 80002048 <tdat10>
    80000344:	00023283          	ld	t0,0(tp) # 0 <_start-0x80000000>
    80000348:	00b04eb7          	lui	t4,0xb04
    8000034c:	261e8e9b          	addiw	t4,t4,609
    80000350:	00ce9e93          	slli	t4,t4,0xc
    80000354:	30be8e93          	addi	t4,t4,779 # b0430b <_start-0x7f4fbcf5>
    80000358:	00fe9e93          	slli	t4,t4,0xf
    8000035c:	213e8e93          	addi	t4,t4,531
    80000360:	00ce9e93          	slli	t4,t4,0xc
    80000364:	098e8e93          	addi	t4,t4,152
    80000368:	00b00193          	li	gp,11
    8000036c:	2fde9863          	bne	t4,t4,8000065c <fail>

0000000080000370 <test_12>:
    80000370:	00c00193          	li	gp,12
    80000374:	00000213          	li	tp,0
    80000378:	0abbd0b7          	lui	ra,0xabbd
    8000037c:	cdd0809b          	addiw	ra,ra,-803
    80000380:	00002117          	auipc	sp,0x2
    80000384:	c8010113          	addi	sp,sp,-896 # 80002000 <begin_signature>
    80000388:	00113023          	sd	ra,0(sp)
    8000038c:	00013f03          	ld	t5,0(sp)
    80000390:	0abbdeb7          	lui	t4,0xabbd
    80000394:	cdde8e9b          	addiw	t4,t4,-803
    80000398:	2dde9263          	bne	t4,t4,8000065c <fail>
    8000039c:	00120213          	addi	tp,tp,1 # 1 <_start-0x7fffffff>
    800003a0:	00200293          	li	t0,2
    800003a4:	fc521ae3          	bne	tp,t0,80000378 <test_12+0x8>

00000000800003a8 <test_13>:
    800003a8:	00d00193          	li	gp,13
    800003ac:	00000213          	li	tp,0
    800003b0:	0aabc0b7          	lui	ra,0xaabc
    800003b4:	ccd0809b          	addiw	ra,ra,-819
    800003b8:	00002117          	auipc	sp,0x2
    800003bc:	c4810113          	addi	sp,sp,-952 # 80002000 <begin_signature>
    800003c0:	00000013          	nop
    800003c4:	00113423          	sd	ra,8(sp)
    800003c8:	00813f03          	ld	t5,8(sp)
    800003cc:	0aabceb7          	lui	t4,0xaabc
    800003d0:	ccde8e9b          	addiw	t4,t4,-819
    800003d4:	29de9463          	bne	t4,t4,8000065c <fail>
    800003d8:	00120213          	addi	tp,tp,1 # 1 <_start-0x7fffffff>
    800003dc:	00200293          	li	t0,2
    800003e0:	fc5218e3          	bne	tp,t0,800003b0 <test_13+0x8>

00000000800003e4 <test_14>:
    800003e4:	00e00193          	li	gp,14
    800003e8:	00000213          	li	tp,0
    800003ec:	0daac0b7          	lui	ra,0xdaac
    800003f0:	bcc0809b          	addiw	ra,ra,-1076
    800003f4:	00002117          	auipc	sp,0x2
    800003f8:	c0c10113          	addi	sp,sp,-1012 # 80002000 <begin_signature>
    800003fc:	00000013          	nop
    80000400:	00000013          	nop
    80000404:	00113823          	sd	ra,16(sp)
    80000408:	01013f03          	ld	t5,16(sp)
    8000040c:	0daaceb7          	lui	t4,0xdaac
    80000410:	bcce8e9b          	addiw	t4,t4,-1076
    80000414:	25de9463          	bne	t4,t4,8000065c <fail>
    80000418:	00120213          	addi	tp,tp,1 # 1 <_start-0x7fffffff>
    8000041c:	00200293          	li	t0,2
    80000420:	fc5216e3          	bne	tp,t0,800003ec <test_14+0x8>

0000000080000424 <test_15>:
    80000424:	00f00193          	li	gp,15
    80000428:	00000213          	li	tp,0
    8000042c:	0ddab0b7          	lui	ra,0xddab
    80000430:	bbc0809b          	addiw	ra,ra,-1092
    80000434:	00000013          	nop
    80000438:	00002117          	auipc	sp,0x2
    8000043c:	bc810113          	addi	sp,sp,-1080 # 80002000 <begin_signature>
    80000440:	00113c23          	sd	ra,24(sp)
    80000444:	01813f03          	ld	t5,24(sp)
    80000448:	0ddabeb7          	lui	t4,0xddab
    8000044c:	bbce8e9b          	addiw	t4,t4,-1092
    80000450:	21de9663          	bne	t4,t4,8000065c <fail>
    80000454:	00120213          	addi	tp,tp,1 # 1 <_start-0x7fffffff>
    80000458:	00200293          	li	t0,2
    8000045c:	fc5218e3          	bne	tp,t0,8000042c <test_15+0x8>

0000000080000460 <test_16>:
    80000460:	01000193          	li	gp,16
    80000464:	00000213          	li	tp,0
    80000468:	0cddb0b7          	lui	ra,0xcddb
    8000046c:	abb0809b          	addiw	ra,ra,-1349
    80000470:	00000013          	nop
    80000474:	00002117          	auipc	sp,0x2
    80000478:	b8c10113          	addi	sp,sp,-1140 # 80002000 <begin_signature>
    8000047c:	00000013          	nop
    80000480:	02113023          	sd	ra,32(sp)
    80000484:	02013f03          	ld	t5,32(sp)
    80000488:	0cddbeb7          	lui	t4,0xcddb
    8000048c:	abbe8e9b          	addiw	t4,t4,-1349
    80000490:	1dde9663          	bne	t4,t4,8000065c <fail>
    80000494:	00120213          	addi	tp,tp,1 # 1 <_start-0x7fffffff>
    80000498:	00200293          	li	t0,2
    8000049c:	fc5216e3          	bne	tp,t0,80000468 <test_16+0x8>

00000000800004a0 <test_17>:
    800004a0:	01100193          	li	gp,17
    800004a4:	00000213          	li	tp,0
    800004a8:	0ccde0b7          	lui	ra,0xccde
    800004ac:	aab0809b          	addiw	ra,ra,-1365
    800004b0:	00000013          	nop
    800004b4:	00000013          	nop
    800004b8:	00002117          	auipc	sp,0x2
    800004bc:	b4810113          	addi	sp,sp,-1208 # 80002000 <begin_signature>
    800004c0:	02113423          	sd	ra,40(sp)
    800004c4:	02813f03          	ld	t5,40(sp)
    800004c8:	0ccdeeb7          	lui	t4,0xccde
    800004cc:	aabe8e9b          	addiw	t4,t4,-1365
    800004d0:	19de9663          	bne	t4,t4,8000065c <fail>
    800004d4:	00120213          	addi	tp,tp,1 # 1 <_start-0x7fffffff>
    800004d8:	00200293          	li	t0,2
    800004dc:	fc5216e3          	bne	tp,t0,800004a8 <test_17+0x8>

00000000800004e0 <test_18>:
    800004e0:	01200193          	li	gp,18
    800004e4:	00000213          	li	tp,0
    800004e8:	00002117          	auipc	sp,0x2
    800004ec:	b1810113          	addi	sp,sp,-1256 # 80002000 <begin_signature>
    800004f0:	001120b7          	lui	ra,0x112
    800004f4:	2330809b          	addiw	ra,ra,563
    800004f8:	00113023          	sd	ra,0(sp)
    800004fc:	00013f03          	ld	t5,0(sp)
    80000500:	00112eb7          	lui	t4,0x112
    80000504:	233e8e9b          	addiw	t4,t4,563
    80000508:	15de9a63          	bne	t4,t4,8000065c <fail>
    8000050c:	00120213          	addi	tp,tp,1 # 1 <_start-0x7fffffff>
    80000510:	00200293          	li	t0,2
    80000514:	fc521ae3          	bne	tp,t0,800004e8 <test_18+0x8>

0000000080000518 <test_19>:
    80000518:	01300193          	li	gp,19
    8000051c:	00000213          	li	tp,0
    80000520:	00002117          	auipc	sp,0x2
    80000524:	ae010113          	addi	sp,sp,-1312 # 80002000 <begin_signature>
    80000528:	300110b7          	lui	ra,0x30011
    8000052c:	2230809b          	addiw	ra,ra,547
    80000530:	00000013          	nop
    80000534:	00113423          	sd	ra,8(sp)
    80000538:	00813f03          	ld	t5,8(sp)
    8000053c:	30011eb7          	lui	t4,0x30011
    80000540:	223e8e9b          	addiw	t4,t4,547
    80000544:	11de9c63          	bne	t4,t4,8000065c <fail>
    80000548:	00120213          	addi	tp,tp,1 # 1 <_start-0x7fffffff>
    8000054c:	00200293          	li	t0,2
    80000550:	fc5218e3          	bne	tp,t0,80000520 <test_19+0x8>

0000000080000554 <test_20>:
    80000554:	01400193          	li	gp,20
    80000558:	00000213          	li	tp,0
    8000055c:	00002117          	auipc	sp,0x2
    80000560:	aa410113          	addi	sp,sp,-1372 # 80002000 <begin_signature>
    80000564:	330010b7          	lui	ra,0x33001
    80000568:	1220809b          	addiw	ra,ra,290
    8000056c:	00000013          	nop
    80000570:	00000013          	nop
    80000574:	00113823          	sd	ra,16(sp)
    80000578:	01013f03          	ld	t5,16(sp)
    8000057c:	33001eb7          	lui	t4,0x33001
    80000580:	122e8e9b          	addiw	t4,t4,290
    80000584:	0dde9c63          	bne	t4,t4,8000065c <fail>
    80000588:	00120213          	addi	tp,tp,1 # 1 <_start-0x7fffffff>
    8000058c:	00200293          	li	t0,2
    80000590:	fc5216e3          	bne	tp,t0,8000055c <test_20+0x8>

0000000080000594 <test_21>:
    80000594:	01500193          	li	gp,21
    80000598:	00000213          	li	tp,0
    8000059c:	00002117          	auipc	sp,0x2
    800005a0:	a6410113          	addi	sp,sp,-1436 # 80002000 <begin_signature>
    800005a4:	00000013          	nop
    800005a8:	233000b7          	lui	ra,0x23300
    800005ac:	1120809b          	addiw	ra,ra,274
    800005b0:	00113c23          	sd	ra,24(sp)
    800005b4:	01813f03          	ld	t5,24(sp)
    800005b8:	23300eb7          	lui	t4,0x23300
    800005bc:	112e8e9b          	addiw	t4,t4,274
    800005c0:	09de9e63          	bne	t4,t4,8000065c <fail>
    800005c4:	00120213          	addi	tp,tp,1 # 1 <_start-0x7fffffff>
    800005c8:	00200293          	li	t0,2
    800005cc:	fc5218e3          	bne	tp,t0,8000059c <test_21+0x8>

00000000800005d0 <test_22>:
    800005d0:	01600193          	li	gp,22
    800005d4:	00000213          	li	tp,0
    800005d8:	00002117          	auipc	sp,0x2
    800005dc:	a2810113          	addi	sp,sp,-1496 # 80002000 <begin_signature>
    800005e0:	00000013          	nop
    800005e4:	223300b7          	lui	ra,0x22330
    800005e8:	0110809b          	addiw	ra,ra,17
    800005ec:	00000013          	nop
    800005f0:	02113023          	sd	ra,32(sp)
    800005f4:	02013f03          	ld	t5,32(sp)
    800005f8:	22330eb7          	lui	t4,0x22330
    800005fc:	011e8e9b          	addiw	t4,t4,17
    80000600:	05de9e63          	bne	t4,t4,8000065c <fail>
    80000604:	00120213          	addi	tp,tp,1 # 1 <_start-0x7fffffff>
    80000608:	00200293          	li	t0,2
    8000060c:	fc5216e3          	bne	tp,t0,800005d8 <test_22+0x8>

0000000080000610 <test_23>:
    80000610:	01700193          	li	gp,23
    80000614:	00000213          	li	tp,0
    80000618:	00002117          	auipc	sp,0x2
    8000061c:	9e810113          	addi	sp,sp,-1560 # 80002000 <begin_signature>
    80000620:	00000013          	nop
    80000624:	00000013          	nop
    80000628:	122330b7          	lui	ra,0x12233
    8000062c:	0010809b          	addiw	ra,ra,1
    80000630:	02113423          	sd	ra,40(sp)
    80000634:	02813f03          	ld	t5,40(sp)
    80000638:	12233eb7          	lui	t4,0x12233
    8000063c:	001e8e9b          	addiw	t4,t4,1
    80000640:	01de9e63          	bne	t4,t4,8000065c <fail>
    80000644:	00120213          	addi	tp,tp,1 # 1 <_start-0x7fffffff>
    80000648:	00200293          	li	t0,2
    8000064c:	fc5216e3          	bne	tp,t0,80000618 <test_23+0x8>
    80000650:	ffff8f93          	addi	t6,t6,-1
    80000654:	9a0f9ee3          	bnez	t6,80000010 <LOOP>
    80000658:	00301a63          	bne	zero,gp,8000066c <pass>

000000008000065c <fail>:
    8000065c:	0ff0000f          	fence
    80000660:	00018513          	mv	a0,gp
    80000664:	05d00893          	li	a7,93
    80000668:	00000073          	ecall

000000008000066c <pass>:
    8000066c:	0ff0000f          	fence
    80000670:	00000513          	li	a0,0
    80000674:	05d00893          	li	a7,93
    80000678:	00000073          	ecall
	...
