
isa-200-v2/rv64ui-ps-lh-200.riscv:     file format elf64-littleriscv


Disassembly of section .text.init:

0000000080000000 <_start>:
    80000000:	00000297          	auipc	t0,0x0
    80000004:	00c28293          	addi	t0,t0,12 # 8000000c <_start+0xc>
    80000008:	00028067          	jr	t0
    8000000c:	0c800f93          	li	t6,200

0000000080000010 <LOOP>:
    80000010:	00002097          	auipc	ra,0x2
    80000014:	ff008093          	addi	ra,ra,-16 # 80002000 <begin_signature>
    80000018:	00009f03          	lh	t5,0(ra)
    8000001c:	0ff00e93          	li	t4,255
    80000020:	00200193          	li	gp,2
    80000024:	27de9063          	bne	t4,t4,80000284 <fail>

0000000080000028 <test_3>:
    80000028:	00002097          	auipc	ra,0x2
    8000002c:	fd808093          	addi	ra,ra,-40 # 80002000 <begin_signature>
    80000030:	00209f03          	lh	t5,2(ra)
    80000034:	f0000e93          	li	t4,-256
    80000038:	00300193          	li	gp,3
    8000003c:	25de9463          	bne	t4,t4,80000284 <fail>

0000000080000040 <test_4>:
    80000040:	00002097          	auipc	ra,0x2
    80000044:	fc008093          	addi	ra,ra,-64 # 80002000 <begin_signature>
    80000048:	00409f03          	lh	t5,4(ra)
    8000004c:	00001eb7          	lui	t4,0x1
    80000050:	ff0e8e9b          	addiw	t4,t4,-16
    80000054:	00400193          	li	gp,4
    80000058:	23de9663          	bne	t4,t4,80000284 <fail>

000000008000005c <test_5>:
    8000005c:	00002097          	auipc	ra,0x2
    80000060:	fa408093          	addi	ra,ra,-92 # 80002000 <begin_signature>
    80000064:	00609f03          	lh	t5,6(ra)
    80000068:	fffffeb7          	lui	t4,0xfffff
    8000006c:	00fe8e9b          	addiw	t4,t4,15
    80000070:	00500193          	li	gp,5
    80000074:	21de9863          	bne	t4,t4,80000284 <fail>

0000000080000078 <test_6>:
    80000078:	00002097          	auipc	ra,0x2
    8000007c:	f8e08093          	addi	ra,ra,-114 # 80002006 <tdat4>
    80000080:	ffa09f03          	lh	t5,-6(ra)
    80000084:	0ff00e93          	li	t4,255
    80000088:	00600193          	li	gp,6
    8000008c:	1fde9c63          	bne	t4,t4,80000284 <fail>

0000000080000090 <test_7>:
    80000090:	00002097          	auipc	ra,0x2
    80000094:	f7608093          	addi	ra,ra,-138 # 80002006 <tdat4>
    80000098:	ffc09f03          	lh	t5,-4(ra)
    8000009c:	f0000e93          	li	t4,-256
    800000a0:	00700193          	li	gp,7
    800000a4:	1fde9063          	bne	t4,t4,80000284 <fail>

00000000800000a8 <test_8>:
    800000a8:	00002097          	auipc	ra,0x2
    800000ac:	f5e08093          	addi	ra,ra,-162 # 80002006 <tdat4>
    800000b0:	ffe09f03          	lh	t5,-2(ra)
    800000b4:	00001eb7          	lui	t4,0x1
    800000b8:	ff0e8e9b          	addiw	t4,t4,-16
    800000bc:	00800193          	li	gp,8
    800000c0:	1dde9263          	bne	t4,t4,80000284 <fail>

00000000800000c4 <test_9>:
    800000c4:	00002097          	auipc	ra,0x2
    800000c8:	f4208093          	addi	ra,ra,-190 # 80002006 <tdat4>
    800000cc:	00009f03          	lh	t5,0(ra)
    800000d0:	fffffeb7          	lui	t4,0xfffff
    800000d4:	00fe8e9b          	addiw	t4,t4,15
    800000d8:	00900193          	li	gp,9
    800000dc:	1bde9463          	bne	t4,t4,80000284 <fail>

00000000800000e0 <test_10>:
    800000e0:	00002097          	auipc	ra,0x2
    800000e4:	f2008093          	addi	ra,ra,-224 # 80002000 <begin_signature>
    800000e8:	fe008093          	addi	ra,ra,-32
    800000ec:	02009283          	lh	t0,32(ra)
    800000f0:	0ff00e93          	li	t4,255
    800000f4:	00a00193          	li	gp,10
    800000f8:	19de9663          	bne	t4,t4,80000284 <fail>

00000000800000fc <test_11>:
    800000fc:	00002097          	auipc	ra,0x2
    80000100:	f0408093          	addi	ra,ra,-252 # 80002000 <begin_signature>
    80000104:	ffb08093          	addi	ra,ra,-5
    80000108:	00709283          	lh	t0,7(ra)
    8000010c:	f0000e93          	li	t4,-256
    80000110:	00b00193          	li	gp,11
    80000114:	17de9863          	bne	t4,t4,80000284 <fail>

0000000080000118 <test_12>:
    80000118:	00c00193          	li	gp,12
    8000011c:	00000213          	li	tp,0
    80000120:	00002097          	auipc	ra,0x2
    80000124:	ee208093          	addi	ra,ra,-286 # 80002002 <tdat2>
    80000128:	00209f03          	lh	t5,2(ra)
    8000012c:	000f0313          	mv	t1,t5
    80000130:	00001eb7          	lui	t4,0x1
    80000134:	ff0e8e9b          	addiw	t4,t4,-16
    80000138:	15de9663          	bne	t4,t4,80000284 <fail>
    8000013c:	00120213          	addi	tp,tp,1 # 1 <_start-0x7fffffff>
    80000140:	00200293          	li	t0,2
    80000144:	fc521ee3          	bne	tp,t0,80000120 <test_12+0x8>

0000000080000148 <test_13>:
    80000148:	00d00193          	li	gp,13
    8000014c:	00000213          	li	tp,0
    80000150:	00002097          	auipc	ra,0x2
    80000154:	eb408093          	addi	ra,ra,-332 # 80002004 <tdat3>
    80000158:	00209f03          	lh	t5,2(ra)
    8000015c:	00000013          	nop
    80000160:	000f0313          	mv	t1,t5
    80000164:	fffffeb7          	lui	t4,0xfffff
    80000168:	00fe8e9b          	addiw	t4,t4,15
    8000016c:	11de9c63          	bne	t4,t4,80000284 <fail>
    80000170:	00120213          	addi	tp,tp,1 # 1 <_start-0x7fffffff>
    80000174:	00200293          	li	t0,2
    80000178:	fc521ce3          	bne	tp,t0,80000150 <test_13+0x8>

000000008000017c <test_14>:
    8000017c:	00e00193          	li	gp,14
    80000180:	00000213          	li	tp,0
    80000184:	00002097          	auipc	ra,0x2
    80000188:	e7c08093          	addi	ra,ra,-388 # 80002000 <begin_signature>
    8000018c:	00209f03          	lh	t5,2(ra)
    80000190:	00000013          	nop
    80000194:	00000013          	nop
    80000198:	000f0313          	mv	t1,t5
    8000019c:	f0000e93          	li	t4,-256
    800001a0:	0fde9263          	bne	t4,t4,80000284 <fail>
    800001a4:	00120213          	addi	tp,tp,1 # 1 <_start-0x7fffffff>
    800001a8:	00200293          	li	t0,2
    800001ac:	fc521ce3          	bne	tp,t0,80000184 <test_14+0x8>

00000000800001b0 <test_15>:
    800001b0:	00f00193          	li	gp,15
    800001b4:	00000213          	li	tp,0
    800001b8:	00002097          	auipc	ra,0x2
    800001bc:	e4a08093          	addi	ra,ra,-438 # 80002002 <tdat2>
    800001c0:	00209f03          	lh	t5,2(ra)
    800001c4:	00001eb7          	lui	t4,0x1
    800001c8:	ff0e8e9b          	addiw	t4,t4,-16
    800001cc:	0bde9c63          	bne	t4,t4,80000284 <fail>
    800001d0:	00120213          	addi	tp,tp,1 # 1 <_start-0x7fffffff>
    800001d4:	00200293          	li	t0,2
    800001d8:	fe5210e3          	bne	tp,t0,800001b8 <test_15+0x8>

00000000800001dc <test_16>:
    800001dc:	01000193          	li	gp,16
    800001e0:	00000213          	li	tp,0
    800001e4:	00002097          	auipc	ra,0x2
    800001e8:	e2008093          	addi	ra,ra,-480 # 80002004 <tdat3>
    800001ec:	00000013          	nop
    800001f0:	00209f03          	lh	t5,2(ra)
    800001f4:	fffffeb7          	lui	t4,0xfffff
    800001f8:	00fe8e9b          	addiw	t4,t4,15
    800001fc:	09de9463          	bne	t4,t4,80000284 <fail>
    80000200:	00120213          	addi	tp,tp,1 # 1 <_start-0x7fffffff>
    80000204:	00200293          	li	t0,2
    80000208:	fc521ee3          	bne	tp,t0,800001e4 <test_16+0x8>

000000008000020c <test_17>:
    8000020c:	01100193          	li	gp,17
    80000210:	00000213          	li	tp,0
    80000214:	00002097          	auipc	ra,0x2
    80000218:	dec08093          	addi	ra,ra,-532 # 80002000 <begin_signature>
    8000021c:	00000013          	nop
    80000220:	00000013          	nop
    80000224:	00209f03          	lh	t5,2(ra)
    80000228:	f0000e93          	li	t4,-256
    8000022c:	05de9c63          	bne	t4,t4,80000284 <fail>
    80000230:	00120213          	addi	tp,tp,1 # 1 <_start-0x7fffffff>
    80000234:	00200293          	li	t0,2
    80000238:	fc521ee3          	bne	tp,t0,80000214 <test_17+0x8>

000000008000023c <test_18>:
    8000023c:	00002297          	auipc	t0,0x2
    80000240:	dc428293          	addi	t0,t0,-572 # 80002000 <begin_signature>
    80000244:	00029103          	lh	sp,0(t0)
    80000248:	00200113          	li	sp,2
    8000024c:	00200e93          	li	t4,2
    80000250:	01200193          	li	gp,18
    80000254:	03de9863          	bne	t4,t4,80000284 <fail>

0000000080000258 <test_19>:
    80000258:	00002297          	auipc	t0,0x2
    8000025c:	da828293          	addi	t0,t0,-600 # 80002000 <begin_signature>
    80000260:	00029103          	lh	sp,0(t0)
    80000264:	00000013          	nop
    80000268:	00200113          	li	sp,2
    8000026c:	00200e93          	li	t4,2
    80000270:	01300193          	li	gp,19
    80000274:	01de9863          	bne	t4,t4,80000284 <fail>
    80000278:	ffff8f93          	addi	t6,t6,-1
    8000027c:	d80f9ae3          	bnez	t6,80000010 <LOOP>
    80000280:	00301a63          	bne	zero,gp,80000294 <pass>

0000000080000284 <fail>:
    80000284:	0ff0000f          	fence
    80000288:	00018513          	mv	a0,gp
    8000028c:	05d00893          	li	a7,93
    80000290:	00000073          	ecall

0000000080000294 <pass>:
    80000294:	0ff0000f          	fence
    80000298:	00000513          	li	a0,0
    8000029c:	05d00893          	li	a7,93
    800002a0:	00000073          	ecall
	...
