
isa-200-v2/rv64ui-ps-blt-200.riscv:     file format elf64-littleriscv


Disassembly of section .text.init:

0000000080000000 <_start>:
    80000000:	00000297          	auipc	t0,0x0
    80000004:	00c28293          	addi	t0,t0,12 # 8000000c <_start+0xc>
    80000008:	00028067          	jr	t0
    8000000c:	0c800f93          	li	t6,200

0000000080000010 <LOOP>:
    80000010:	00200193          	li	gp,2
    80000014:	00000093          	li	ra,0
    80000018:	00100113          	li	sp,1
    8000001c:	0020c663          	blt	ra,sp,80000028 <LOOP+0x18>
    80000020:	2a319c63          	bne	gp,gp,800002d8 <fail>
    80000024:	00301663          	bne	zero,gp,80000030 <test_3>
    80000028:	fe20cee3          	blt	ra,sp,80000024 <LOOP+0x14>
    8000002c:	2a319663          	bne	gp,gp,800002d8 <fail>

0000000080000030 <test_3>:
    80000030:	00300193          	li	gp,3
    80000034:	fff00093          	li	ra,-1
    80000038:	00100113          	li	sp,1
    8000003c:	0020c663          	blt	ra,sp,80000048 <test_3+0x18>
    80000040:	28319c63          	bne	gp,gp,800002d8 <fail>
    80000044:	00301663          	bne	zero,gp,80000050 <test_4>
    80000048:	fe20cee3          	blt	ra,sp,80000044 <test_3+0x14>
    8000004c:	28319663          	bne	gp,gp,800002d8 <fail>

0000000080000050 <test_4>:
    80000050:	00400193          	li	gp,4
    80000054:	ffe00093          	li	ra,-2
    80000058:	fff00113          	li	sp,-1
    8000005c:	0020c663          	blt	ra,sp,80000068 <test_4+0x18>
    80000060:	26319c63          	bne	gp,gp,800002d8 <fail>
    80000064:	00301663          	bne	zero,gp,80000070 <test_5>
    80000068:	fe20cee3          	blt	ra,sp,80000064 <test_4+0x14>
    8000006c:	26319663          	bne	gp,gp,800002d8 <fail>

0000000080000070 <test_5>:
    80000070:	00500193          	li	gp,5
    80000074:	00100093          	li	ra,1
    80000078:	00000113          	li	sp,0
    8000007c:	0020c463          	blt	ra,sp,80000084 <test_5+0x14>
    80000080:	00301463          	bne	zero,gp,80000088 <test_5+0x18>
    80000084:	24319a63          	bne	gp,gp,800002d8 <fail>
    80000088:	fe20cee3          	blt	ra,sp,80000084 <test_5+0x14>

000000008000008c <test_6>:
    8000008c:	00600193          	li	gp,6
    80000090:	00100093          	li	ra,1
    80000094:	fff00113          	li	sp,-1
    80000098:	0020c463          	blt	ra,sp,800000a0 <test_6+0x14>
    8000009c:	00301463          	bne	zero,gp,800000a4 <test_6+0x18>
    800000a0:	22319c63          	bne	gp,gp,800002d8 <fail>
    800000a4:	fe20cee3          	blt	ra,sp,800000a0 <test_6+0x14>

00000000800000a8 <test_7>:
    800000a8:	00700193          	li	gp,7
    800000ac:	fff00093          	li	ra,-1
    800000b0:	ffe00113          	li	sp,-2
    800000b4:	0020c463          	blt	ra,sp,800000bc <test_7+0x14>
    800000b8:	00301463          	bne	zero,gp,800000c0 <test_7+0x18>
    800000bc:	20319e63          	bne	gp,gp,800002d8 <fail>
    800000c0:	fe20cee3          	blt	ra,sp,800000bc <test_7+0x14>

00000000800000c4 <test_8>:
    800000c4:	00800193          	li	gp,8
    800000c8:	00100093          	li	ra,1
    800000cc:	ffe00113          	li	sp,-2
    800000d0:	0020c463          	blt	ra,sp,800000d8 <test_8+0x14>
    800000d4:	00301463          	bne	zero,gp,800000dc <test_8+0x18>
    800000d8:	20319063          	bne	gp,gp,800002d8 <fail>
    800000dc:	fe20cee3          	blt	ra,sp,800000d8 <test_8+0x14>

00000000800000e0 <test_9>:
    800000e0:	00900193          	li	gp,9
    800000e4:	00000213          	li	tp,0
    800000e8:	00000093          	li	ra,0
    800000ec:	fff00113          	li	sp,-1
    800000f0:	1e214463          	blt	sp,sp,800002d8 <fail>
    800000f4:	00120213          	addi	tp,tp,1 # 1 <_start-0x7fffffff>
    800000f8:	00200293          	li	t0,2
    800000fc:	fe5216e3          	bne	tp,t0,800000e8 <test_9+0x8>

0000000080000100 <test_10>:
    80000100:	00a00193          	li	gp,10
    80000104:	00000213          	li	tp,0
    80000108:	00000093          	li	ra,0
    8000010c:	fff00113          	li	sp,-1
    80000110:	00000013          	nop
    80000114:	1c214263          	blt	sp,sp,800002d8 <fail>
    80000118:	00120213          	addi	tp,tp,1 # 1 <_start-0x7fffffff>
    8000011c:	00200293          	li	t0,2
    80000120:	fe5214e3          	bne	tp,t0,80000108 <test_10+0x8>

0000000080000124 <test_11>:
    80000124:	00b00193          	li	gp,11
    80000128:	00000213          	li	tp,0
    8000012c:	00000093          	li	ra,0
    80000130:	fff00113          	li	sp,-1
    80000134:	00000013          	nop
    80000138:	00000013          	nop
    8000013c:	18214e63          	blt	sp,sp,800002d8 <fail>
    80000140:	00120213          	addi	tp,tp,1 # 1 <_start-0x7fffffff>
    80000144:	00200293          	li	t0,2
    80000148:	fe5212e3          	bne	tp,t0,8000012c <test_11+0x8>

000000008000014c <test_12>:
    8000014c:	00c00193          	li	gp,12
    80000150:	00000213          	li	tp,0
    80000154:	00000093          	li	ra,0
    80000158:	00000013          	nop
    8000015c:	fff00113          	li	sp,-1
    80000160:	16214c63          	blt	sp,sp,800002d8 <fail>
    80000164:	00120213          	addi	tp,tp,1 # 1 <_start-0x7fffffff>
    80000168:	00200293          	li	t0,2
    8000016c:	fe5214e3          	bne	tp,t0,80000154 <test_12+0x8>

0000000080000170 <test_13>:
    80000170:	00d00193          	li	gp,13
    80000174:	00000213          	li	tp,0
    80000178:	00000093          	li	ra,0
    8000017c:	00000013          	nop
    80000180:	fff00113          	li	sp,-1
    80000184:	00000013          	nop
    80000188:	14214863          	blt	sp,sp,800002d8 <fail>
    8000018c:	00120213          	addi	tp,tp,1 # 1 <_start-0x7fffffff>
    80000190:	00200293          	li	t0,2
    80000194:	fe5212e3          	bne	tp,t0,80000178 <test_13+0x8>

0000000080000198 <test_14>:
    80000198:	00e00193          	li	gp,14
    8000019c:	00000213          	li	tp,0
    800001a0:	00000093          	li	ra,0
    800001a4:	00000013          	nop
    800001a8:	00000013          	nop
    800001ac:	fff00113          	li	sp,-1
    800001b0:	12214463          	blt	sp,sp,800002d8 <fail>
    800001b4:	00120213          	addi	tp,tp,1 # 1 <_start-0x7fffffff>
    800001b8:	00200293          	li	t0,2
    800001bc:	fe5212e3          	bne	tp,t0,800001a0 <test_14+0x8>

00000000800001c0 <test_15>:
    800001c0:	00f00193          	li	gp,15
    800001c4:	00000213          	li	tp,0
    800001c8:	00000093          	li	ra,0
    800001cc:	fff00113          	li	sp,-1
    800001d0:	10214463          	blt	sp,sp,800002d8 <fail>
    800001d4:	00120213          	addi	tp,tp,1 # 1 <_start-0x7fffffff>
    800001d8:	00200293          	li	t0,2
    800001dc:	fe5216e3          	bne	tp,t0,800001c8 <test_15+0x8>

00000000800001e0 <test_16>:
    800001e0:	01000193          	li	gp,16
    800001e4:	00000213          	li	tp,0
    800001e8:	00000093          	li	ra,0
    800001ec:	fff00113          	li	sp,-1
    800001f0:	00000013          	nop
    800001f4:	0e214263          	blt	sp,sp,800002d8 <fail>
    800001f8:	00120213          	addi	tp,tp,1 # 1 <_start-0x7fffffff>
    800001fc:	00200293          	li	t0,2
    80000200:	fe5214e3          	bne	tp,t0,800001e8 <test_16+0x8>

0000000080000204 <test_17>:
    80000204:	01100193          	li	gp,17
    80000208:	00000213          	li	tp,0
    8000020c:	00000093          	li	ra,0
    80000210:	fff00113          	li	sp,-1
    80000214:	00000013          	nop
    80000218:	00000013          	nop
    8000021c:	0a214e63          	blt	sp,sp,800002d8 <fail>
    80000220:	00120213          	addi	tp,tp,1 # 1 <_start-0x7fffffff>
    80000224:	00200293          	li	t0,2
    80000228:	fe5212e3          	bne	tp,t0,8000020c <test_17+0x8>

000000008000022c <test_18>:
    8000022c:	01200193          	li	gp,18
    80000230:	00000213          	li	tp,0
    80000234:	00000093          	li	ra,0
    80000238:	00000013          	nop
    8000023c:	fff00113          	li	sp,-1
    80000240:	08214c63          	blt	sp,sp,800002d8 <fail>
    80000244:	00120213          	addi	tp,tp,1 # 1 <_start-0x7fffffff>
    80000248:	00200293          	li	t0,2
    8000024c:	fe5214e3          	bne	tp,t0,80000234 <test_18+0x8>

0000000080000250 <test_19>:
    80000250:	01300193          	li	gp,19
    80000254:	00000213          	li	tp,0
    80000258:	00000093          	li	ra,0
    8000025c:	00000013          	nop
    80000260:	fff00113          	li	sp,-1
    80000264:	00000013          	nop
    80000268:	06214863          	blt	sp,sp,800002d8 <fail>
    8000026c:	00120213          	addi	tp,tp,1 # 1 <_start-0x7fffffff>
    80000270:	00200293          	li	t0,2
    80000274:	fe5212e3          	bne	tp,t0,80000258 <test_19+0x8>

0000000080000278 <test_20>:
    80000278:	01400193          	li	gp,20
    8000027c:	00000213          	li	tp,0
    80000280:	00000093          	li	ra,0
    80000284:	00000013          	nop
    80000288:	00000013          	nop
    8000028c:	fff00113          	li	sp,-1
    80000290:	04214463          	blt	sp,sp,800002d8 <fail>
    80000294:	00120213          	addi	tp,tp,1 # 1 <_start-0x7fffffff>
    80000298:	00200293          	li	t0,2
    8000029c:	fe5212e3          	bne	tp,t0,80000280 <test_20+0x8>

00000000800002a0 <test_21>:
    800002a0:	00100093          	li	ra,1
    800002a4:	00104a63          	bgtz	ra,800002b8 <test_21+0x18>
    800002a8:	00108093          	addi	ra,ra,1
    800002ac:	00108093          	addi	ra,ra,1
    800002b0:	00108093          	addi	ra,ra,1
    800002b4:	00108093          	addi	ra,ra,1
    800002b8:	00108093          	addi	ra,ra,1
    800002bc:	00108093          	addi	ra,ra,1
    800002c0:	00300e93          	li	t4,3
    800002c4:	01500193          	li	gp,21
    800002c8:	01de9863          	bne	t4,t4,800002d8 <fail>
    800002cc:	ffff8f93          	addi	t6,t6,-1
    800002d0:	d40f90e3          	bnez	t6,80000010 <LOOP>
    800002d4:	00301a63          	bne	zero,gp,800002e8 <pass>

00000000800002d8 <fail>:
    800002d8:	0ff0000f          	fence
    800002dc:	00018513          	mv	a0,gp
    800002e0:	05d00893          	li	a7,93
    800002e4:	00000073          	ecall

00000000800002e8 <pass>:
    800002e8:	0ff0000f          	fence
    800002ec:	00000513          	li	a0,0
    800002f0:	05d00893          	li	a7,93
    800002f4:	00000073          	ecall
	...
