
isa-200-v2/rv64ui-ps-slti-200.riscv:     file format elf64-littleriscv


Disassembly of section .text.init:

0000000080000000 <_start>:
    80000000:	00000297          	auipc	t0,0x0
    80000004:	00c28293          	addi	t0,t0,12 # 8000000c <_start+0xc>
    80000008:	00028067          	jr	t0
    8000000c:	0c800f93          	li	t6,200

0000000080000010 <LOOP>:
    80000010:	00000093          	li	ra,0
    80000014:	0000af13          	slti	t5,ra,0
    80000018:	00000e93          	li	t4,0
    8000001c:	00200193          	li	gp,2
    80000020:	27de9663          	bne	t4,t4,8000028c <fail>

0000000080000024 <test_3>:
    80000024:	00100093          	li	ra,1
    80000028:	0010af13          	slti	t5,ra,1
    8000002c:	00000e93          	li	t4,0
    80000030:	00300193          	li	gp,3
    80000034:	25de9c63          	bne	t4,t4,8000028c <fail>

0000000080000038 <test_4>:
    80000038:	00300093          	li	ra,3
    8000003c:	0070af13          	slti	t5,ra,7
    80000040:	00100e93          	li	t4,1
    80000044:	00400193          	li	gp,4
    80000048:	25de9263          	bne	t4,t4,8000028c <fail>

000000008000004c <test_5>:
    8000004c:	00700093          	li	ra,7
    80000050:	0030af13          	slti	t5,ra,3
    80000054:	00000e93          	li	t4,0
    80000058:	00500193          	li	gp,5
    8000005c:	23de9863          	bne	t4,t4,8000028c <fail>

0000000080000060 <test_6>:
    80000060:	00000093          	li	ra,0
    80000064:	8000af13          	slti	t5,ra,-2048
    80000068:	00000e93          	li	t4,0
    8000006c:	00600193          	li	gp,6
    80000070:	21de9e63          	bne	t4,t4,8000028c <fail>

0000000080000074 <test_7>:
    80000074:	800000b7          	lui	ra,0x80000
    80000078:	0000af13          	slti	t5,ra,0
    8000007c:	00100e93          	li	t4,1
    80000080:	00700193          	li	gp,7
    80000084:	21de9463          	bne	t4,t4,8000028c <fail>

0000000080000088 <test_8>:
    80000088:	800000b7          	lui	ra,0x80000
    8000008c:	8000af13          	slti	t5,ra,-2048
    80000090:	00100e93          	li	t4,1
    80000094:	00800193          	li	gp,8
    80000098:	1fde9a63          	bne	t4,t4,8000028c <fail>

000000008000009c <test_9>:
    8000009c:	00000093          	li	ra,0
    800000a0:	7ff0af13          	slti	t5,ra,2047
    800000a4:	00100e93          	li	t4,1
    800000a8:	00900193          	li	gp,9
    800000ac:	1fde9063          	bne	t4,t4,8000028c <fail>

00000000800000b0 <test_10>:
    800000b0:	800000b7          	lui	ra,0x80000
    800000b4:	fff0809b          	addiw	ra,ra,-1
    800000b8:	0000af13          	slti	t5,ra,0
    800000bc:	00000e93          	li	t4,0
    800000c0:	00a00193          	li	gp,10
    800000c4:	1dde9463          	bne	t4,t4,8000028c <fail>

00000000800000c8 <test_11>:
    800000c8:	800000b7          	lui	ra,0x80000
    800000cc:	fff0809b          	addiw	ra,ra,-1
    800000d0:	7ff0af13          	slti	t5,ra,2047
    800000d4:	00000e93          	li	t4,0
    800000d8:	00b00193          	li	gp,11
    800000dc:	1bde9863          	bne	t4,t4,8000028c <fail>

00000000800000e0 <test_12>:
    800000e0:	800000b7          	lui	ra,0x80000
    800000e4:	7ff0af13          	slti	t5,ra,2047
    800000e8:	00100e93          	li	t4,1
    800000ec:	00c00193          	li	gp,12
    800000f0:	19de9e63          	bne	t4,t4,8000028c <fail>

00000000800000f4 <test_13>:
    800000f4:	800000b7          	lui	ra,0x80000
    800000f8:	fff0809b          	addiw	ra,ra,-1
    800000fc:	8000af13          	slti	t5,ra,-2048
    80000100:	00000e93          	li	t4,0
    80000104:	00d00193          	li	gp,13
    80000108:	19de9263          	bne	t4,t4,8000028c <fail>

000000008000010c <test_14>:
    8000010c:	00000093          	li	ra,0
    80000110:	fff0af13          	slti	t5,ra,-1
    80000114:	00000e93          	li	t4,0
    80000118:	00e00193          	li	gp,14
    8000011c:	17de9863          	bne	t4,t4,8000028c <fail>

0000000080000120 <test_15>:
    80000120:	fff00093          	li	ra,-1
    80000124:	0010af13          	slti	t5,ra,1
    80000128:	00100e93          	li	t4,1
    8000012c:	00f00193          	li	gp,15
    80000130:	15de9e63          	bne	t4,t4,8000028c <fail>

0000000080000134 <test_16>:
    80000134:	fff00093          	li	ra,-1
    80000138:	fff0af13          	slti	t5,ra,-1
    8000013c:	00000e93          	li	t4,0
    80000140:	01000193          	li	gp,16
    80000144:	15de9463          	bne	t4,t4,8000028c <fail>

0000000080000148 <test_17>:
    80000148:	00b00093          	li	ra,11
    8000014c:	00d0a093          	slti	ra,ra,13
    80000150:	00100e93          	li	t4,1
    80000154:	01100193          	li	gp,17
    80000158:	13de9a63          	bne	t4,t4,8000028c <fail>

000000008000015c <test_18>:
    8000015c:	00000213          	li	tp,0
    80000160:	00f00093          	li	ra,15
    80000164:	00a0af13          	slti	t5,ra,10
    80000168:	000f0313          	mv	t1,t5
    8000016c:	00120213          	addi	tp,tp,1 # 1 <_start-0x7fffffff>
    80000170:	00200293          	li	t0,2
    80000174:	fe5216e3          	bne	tp,t0,80000160 <test_18+0x4>
    80000178:	00000e93          	li	t4,0
    8000017c:	01200193          	li	gp,18
    80000180:	11de9663          	bne	t4,t4,8000028c <fail>

0000000080000184 <test_19>:
    80000184:	00000213          	li	tp,0
    80000188:	00a00093          	li	ra,10
    8000018c:	0100af13          	slti	t5,ra,16
    80000190:	00000013          	nop
    80000194:	000f0313          	mv	t1,t5
    80000198:	00120213          	addi	tp,tp,1 # 1 <_start-0x7fffffff>
    8000019c:	00200293          	li	t0,2
    800001a0:	fe5214e3          	bne	tp,t0,80000188 <test_19+0x4>
    800001a4:	00100e93          	li	t4,1
    800001a8:	01300193          	li	gp,19
    800001ac:	0fde9063          	bne	t4,t4,8000028c <fail>

00000000800001b0 <test_20>:
    800001b0:	00000213          	li	tp,0
    800001b4:	01000093          	li	ra,16
    800001b8:	0090af13          	slti	t5,ra,9
    800001bc:	00000013          	nop
    800001c0:	00000013          	nop
    800001c4:	000f0313          	mv	t1,t5
    800001c8:	00120213          	addi	tp,tp,1 # 1 <_start-0x7fffffff>
    800001cc:	00200293          	li	t0,2
    800001d0:	fe5212e3          	bne	tp,t0,800001b4 <test_20+0x4>
    800001d4:	00000e93          	li	t4,0
    800001d8:	01400193          	li	gp,20
    800001dc:	0bde9863          	bne	t4,t4,8000028c <fail>

00000000800001e0 <test_21>:
    800001e0:	00000213          	li	tp,0
    800001e4:	00b00093          	li	ra,11
    800001e8:	00f0af13          	slti	t5,ra,15
    800001ec:	00120213          	addi	tp,tp,1 # 1 <_start-0x7fffffff>
    800001f0:	00200293          	li	t0,2
    800001f4:	fe5218e3          	bne	tp,t0,800001e4 <test_21+0x4>
    800001f8:	00100e93          	li	t4,1
    800001fc:	01500193          	li	gp,21
    80000200:	09de9663          	bne	t4,t4,8000028c <fail>

0000000080000204 <test_22>:
    80000204:	00000213          	li	tp,0
    80000208:	01100093          	li	ra,17
    8000020c:	00000013          	nop
    80000210:	0080af13          	slti	t5,ra,8
    80000214:	00120213          	addi	tp,tp,1 # 1 <_start-0x7fffffff>
    80000218:	00200293          	li	t0,2
    8000021c:	fe5216e3          	bne	tp,t0,80000208 <test_22+0x4>
    80000220:	00000e93          	li	t4,0
    80000224:	01600193          	li	gp,22
    80000228:	07de9263          	bne	t4,t4,8000028c <fail>

000000008000022c <test_23>:
    8000022c:	00000213          	li	tp,0
    80000230:	00c00093          	li	ra,12
    80000234:	00000013          	nop
    80000238:	00000013          	nop
    8000023c:	00e0af13          	slti	t5,ra,14
    80000240:	00120213          	addi	tp,tp,1 # 1 <_start-0x7fffffff>
    80000244:	00200293          	li	t0,2
    80000248:	fe5214e3          	bne	tp,t0,80000230 <test_23+0x4>
    8000024c:	00100e93          	li	t4,1
    80000250:	01700193          	li	gp,23
    80000254:	03de9c63          	bne	t4,t4,8000028c <fail>

0000000080000258 <test_24>:
    80000258:	fff02093          	slti	ra,zero,-1
    8000025c:	00000e93          	li	t4,0
    80000260:	01800193          	li	gp,24
    80000264:	03de9463          	bne	t4,t4,8000028c <fail>

0000000080000268 <test_25>:
    80000268:	00ff00b7          	lui	ra,0xff0
    8000026c:	0ff0809b          	addiw	ra,ra,255
    80000270:	fff0a013          	slti	zero,ra,-1
    80000274:	00000e93          	li	t4,0
    80000278:	01900193          	li	gp,25
    8000027c:	01de9863          	bne	t4,t4,8000028c <fail>
    80000280:	ffff8f93          	addi	t6,t6,-1
    80000284:	d80f96e3          	bnez	t6,80000010 <LOOP>
    80000288:	00301a63          	bne	zero,gp,8000029c <pass>

000000008000028c <fail>:
    8000028c:	0ff0000f          	fence
    80000290:	00018513          	mv	a0,gp
    80000294:	05d00893          	li	a7,93
    80000298:	00000073          	ecall

000000008000029c <pass>:
    8000029c:	0ff0000f          	fence
    800002a0:	00000513          	li	a0,0
    800002a4:	05d00893          	li	a7,93
    800002a8:	00000073          	ecall
	...
