
isa-200-v2/rv64ui-ps-lui-200.riscv:     file format elf64-littleriscv


Disassembly of section .text.init:

0000000080000000 <_start>:
    80000000:	00000297          	auipc	t0,0x0
    80000004:	00c28293          	addi	t0,t0,12 # 8000000c <_start+0xc>
    80000008:	00028067          	jr	t0
    8000000c:	0c800f93          	li	t6,200

0000000080000010 <LOOP>:
    80000010:	000000b7          	lui	ra,0x0
    80000014:	00000e93          	li	t4,0
    80000018:	00200193          	li	gp,2
    8000001c:	05de9e63          	bne	t4,t4,80000078 <fail>

0000000080000020 <test_3>:
    80000020:	fffff0b7          	lui	ra,0xfffff
    80000024:	4010d093          	srai	ra,ra,0x1
    80000028:	80000e93          	li	t4,-2048
    8000002c:	00300193          	li	gp,3
    80000030:	05de9463          	bne	t4,t4,80000078 <fail>

0000000080000034 <test_4>:
    80000034:	7ffff0b7          	lui	ra,0x7ffff
    80000038:	4140d093          	srai	ra,ra,0x14
    8000003c:	7ff00e93          	li	t4,2047
    80000040:	00400193          	li	gp,4
    80000044:	03de9a63          	bne	t4,t4,80000078 <fail>

0000000080000048 <test_5>:
    80000048:	800000b7          	lui	ra,0x80000
    8000004c:	4140d093          	srai	ra,ra,0x14
    80000050:	80000e93          	li	t4,-2048
    80000054:	00500193          	li	gp,5
    80000058:	03de9063          	bne	t4,t4,80000078 <fail>

000000008000005c <test_6>:
    8000005c:	80000037          	lui	zero,0x80000
    80000060:	00000e93          	li	t4,0
    80000064:	00600193          	li	gp,6
    80000068:	01de9863          	bne	t4,t4,80000078 <fail>
    8000006c:	ffff8f93          	addi	t6,t6,-1
    80000070:	fa0f90e3          	bnez	t6,80000010 <LOOP>
    80000074:	00301a63          	bne	zero,gp,80000088 <pass>

0000000080000078 <fail>:
    80000078:	0ff0000f          	fence
    8000007c:	00018513          	mv	a0,gp
    80000080:	05d00893          	li	a7,93
    80000084:	00000073          	ecall

0000000080000088 <pass>:
    80000088:	0ff0000f          	fence
    8000008c:	00000513          	li	a0,0
    80000090:	05d00893          	li	a7,93
    80000094:	00000073          	ecall
	...
