
isa-200-v2/rv64ui-ps-sb-200.riscv:     file format elf64-littleriscv


Disassembly of section .text.init:

0000000080000000 <_start>:
    80000000:	00000297          	auipc	t0,0x0
    80000004:	00c28293          	addi	t0,t0,12 # 8000000c <_start+0xc>
    80000008:	00028067          	jr	t0
    8000000c:	0c800f93          	li	t6,200

0000000080000010 <LOOP>:
    80000010:	00002097          	auipc	ra,0x2
    80000014:	ff008093          	addi	ra,ra,-16 # 80002000 <begin_signature>
    80000018:	faa00113          	li	sp,-86
    8000001c:	00208023          	sb	sp,0(ra)
    80000020:	00008f03          	lb	t5,0(ra)
    80000024:	faa00e93          	li	t4,-86
    80000028:	00200193          	li	gp,2
    8000002c:	3fde9063          	bne	t4,t4,8000040c <fail>

0000000080000030 <test_3>:
    80000030:	00002097          	auipc	ra,0x2
    80000034:	fd008093          	addi	ra,ra,-48 # 80002000 <begin_signature>
    80000038:	00000113          	li	sp,0
    8000003c:	002080a3          	sb	sp,1(ra)
    80000040:	00108f03          	lb	t5,1(ra)
    80000044:	00000e93          	li	t4,0
    80000048:	00300193          	li	gp,3
    8000004c:	3dde9063          	bne	t4,t4,8000040c <fail>

0000000080000050 <test_4>:
    80000050:	00002097          	auipc	ra,0x2
    80000054:	fb008093          	addi	ra,ra,-80 # 80002000 <begin_signature>
    80000058:	fffff137          	lui	sp,0xfffff
    8000005c:	fa01011b          	addiw	sp,sp,-96
    80000060:	00208123          	sb	sp,2(ra)
    80000064:	00209f03          	lh	t5,2(ra)
    80000068:	fffffeb7          	lui	t4,0xfffff
    8000006c:	fa0e8e9b          	addiw	t4,t4,-96
    80000070:	00400193          	li	gp,4
    80000074:	39de9c63          	bne	t4,t4,8000040c <fail>

0000000080000078 <test_5>:
    80000078:	00002097          	auipc	ra,0x2
    8000007c:	f8808093          	addi	ra,ra,-120 # 80002000 <begin_signature>
    80000080:	00a00113          	li	sp,10
    80000084:	002081a3          	sb	sp,3(ra)
    80000088:	00308f03          	lb	t5,3(ra)
    8000008c:	00a00e93          	li	t4,10
    80000090:	00500193          	li	gp,5
    80000094:	37de9c63          	bne	t4,t4,8000040c <fail>

0000000080000098 <test_6>:
    80000098:	00002097          	auipc	ra,0x2
    8000009c:	f6f08093          	addi	ra,ra,-145 # 80002007 <tdat8>
    800000a0:	faa00113          	li	sp,-86
    800000a4:	fe208ea3          	sb	sp,-3(ra)
    800000a8:	ffd08f03          	lb	t5,-3(ra)
    800000ac:	faa00e93          	li	t4,-86
    800000b0:	00600193          	li	gp,6
    800000b4:	35de9c63          	bne	t4,t4,8000040c <fail>

00000000800000b8 <test_7>:
    800000b8:	00002097          	auipc	ra,0x2
    800000bc:	f4f08093          	addi	ra,ra,-177 # 80002007 <tdat8>
    800000c0:	00000113          	li	sp,0
    800000c4:	fe208f23          	sb	sp,-2(ra)
    800000c8:	ffe08f03          	lb	t5,-2(ra)
    800000cc:	00000e93          	li	t4,0
    800000d0:	00700193          	li	gp,7
    800000d4:	33de9c63          	bne	t4,t4,8000040c <fail>

00000000800000d8 <test_8>:
    800000d8:	00002097          	auipc	ra,0x2
    800000dc:	f2f08093          	addi	ra,ra,-209 # 80002007 <tdat8>
    800000e0:	fa000113          	li	sp,-96
    800000e4:	fe208fa3          	sb	sp,-1(ra)
    800000e8:	fff08f03          	lb	t5,-1(ra)
    800000ec:	fa000e93          	li	t4,-96
    800000f0:	00800193          	li	gp,8
    800000f4:	31de9c63          	bne	t4,t4,8000040c <fail>

00000000800000f8 <test_9>:
    800000f8:	00002097          	auipc	ra,0x2
    800000fc:	f0f08093          	addi	ra,ra,-241 # 80002007 <tdat8>
    80000100:	00a00113          	li	sp,10
    80000104:	00208023          	sb	sp,0(ra)
    80000108:	00008f03          	lb	t5,0(ra)
    8000010c:	00a00e93          	li	t4,10
    80000110:	00900193          	li	gp,9
    80000114:	2fde9c63          	bne	t4,t4,8000040c <fail>

0000000080000118 <test_10>:
    80000118:	00002097          	auipc	ra,0x2
    8000011c:	ef008093          	addi	ra,ra,-272 # 80002008 <tdat9>
    80000120:	12345137          	lui	sp,0x12345
    80000124:	6781011b          	addiw	sp,sp,1656
    80000128:	fe008213          	addi	tp,ra,-32
    8000012c:	02220023          	sb	sp,32(tp) # 20 <_start-0x7fffffe0>
    80000130:	00008283          	lb	t0,0(ra)
    80000134:	07800e93          	li	t4,120
    80000138:	00a00193          	li	gp,10
    8000013c:	2dde9863          	bne	t4,t4,8000040c <fail>

0000000080000140 <test_11>:
    80000140:	00002097          	auipc	ra,0x2
    80000144:	ec808093          	addi	ra,ra,-312 # 80002008 <tdat9>
    80000148:	00003137          	lui	sp,0x3
    8000014c:	0981011b          	addiw	sp,sp,152
    80000150:	ffa08093          	addi	ra,ra,-6
    80000154:	002083a3          	sb	sp,7(ra)
    80000158:	00002217          	auipc	tp,0x2
    8000015c:	eb120213          	addi	tp,tp,-335 # 80002009 <tdat10>
    80000160:	00020283          	lb	t0,0(tp) # 0 <_start-0x80000000>
    80000164:	f9800e93          	li	t4,-104
    80000168:	00b00193          	li	gp,11
    8000016c:	2bde9063          	bne	t4,t4,8000040c <fail>

0000000080000170 <test_12>:
    80000170:	00c00193          	li	gp,12
    80000174:	00000213          	li	tp,0
    80000178:	fdd00093          	li	ra,-35
    8000017c:	00002117          	auipc	sp,0x2
    80000180:	e8410113          	addi	sp,sp,-380 # 80002000 <begin_signature>
    80000184:	00110023          	sb	ra,0(sp)
    80000188:	00010f03          	lb	t5,0(sp)
    8000018c:	fdd00e93          	li	t4,-35
    80000190:	27de9e63          	bne	t4,t4,8000040c <fail>
    80000194:	00120213          	addi	tp,tp,1 # 1 <_start-0x7fffffff>
    80000198:	00200293          	li	t0,2
    8000019c:	fc521ee3          	bne	tp,t0,80000178 <test_12+0x8>

00000000800001a0 <test_13>:
    800001a0:	00d00193          	li	gp,13
    800001a4:	00000213          	li	tp,0
    800001a8:	fcd00093          	li	ra,-51
    800001ac:	00002117          	auipc	sp,0x2
    800001b0:	e5410113          	addi	sp,sp,-428 # 80002000 <begin_signature>
    800001b4:	00000013          	nop
    800001b8:	001100a3          	sb	ra,1(sp)
    800001bc:	00110f03          	lb	t5,1(sp)
    800001c0:	fcd00e93          	li	t4,-51
    800001c4:	25de9463          	bne	t4,t4,8000040c <fail>
    800001c8:	00120213          	addi	tp,tp,1 # 1 <_start-0x7fffffff>
    800001cc:	00200293          	li	t0,2
    800001d0:	fc521ce3          	bne	tp,t0,800001a8 <test_13+0x8>

00000000800001d4 <test_14>:
    800001d4:	00e00193          	li	gp,14
    800001d8:	00000213          	li	tp,0
    800001dc:	fcc00093          	li	ra,-52
    800001e0:	00002117          	auipc	sp,0x2
    800001e4:	e2010113          	addi	sp,sp,-480 # 80002000 <begin_signature>
    800001e8:	00000013          	nop
    800001ec:	00000013          	nop
    800001f0:	00110123          	sb	ra,2(sp)
    800001f4:	00210f03          	lb	t5,2(sp)
    800001f8:	fcc00e93          	li	t4,-52
    800001fc:	21de9863          	bne	t4,t4,8000040c <fail>
    80000200:	00120213          	addi	tp,tp,1 # 1 <_start-0x7fffffff>
    80000204:	00200293          	li	t0,2
    80000208:	fc521ae3          	bne	tp,t0,800001dc <test_14+0x8>

000000008000020c <test_15>:
    8000020c:	00f00193          	li	gp,15
    80000210:	00000213          	li	tp,0
    80000214:	fbc00093          	li	ra,-68
    80000218:	00000013          	nop
    8000021c:	00002117          	auipc	sp,0x2
    80000220:	de410113          	addi	sp,sp,-540 # 80002000 <begin_signature>
    80000224:	001101a3          	sb	ra,3(sp)
    80000228:	00310f03          	lb	t5,3(sp)
    8000022c:	fbc00e93          	li	t4,-68
    80000230:	1dde9e63          	bne	t4,t4,8000040c <fail>
    80000234:	00120213          	addi	tp,tp,1 # 1 <_start-0x7fffffff>
    80000238:	00200293          	li	t0,2
    8000023c:	fc521ce3          	bne	tp,t0,80000214 <test_15+0x8>

0000000080000240 <test_16>:
    80000240:	01000193          	li	gp,16
    80000244:	00000213          	li	tp,0
    80000248:	fbb00093          	li	ra,-69
    8000024c:	00000013          	nop
    80000250:	00002117          	auipc	sp,0x2
    80000254:	db010113          	addi	sp,sp,-592 # 80002000 <begin_signature>
    80000258:	00000013          	nop
    8000025c:	00110223          	sb	ra,4(sp)
    80000260:	00410f03          	lb	t5,4(sp)
    80000264:	fbb00e93          	li	t4,-69
    80000268:	1bde9263          	bne	t4,t4,8000040c <fail>
    8000026c:	00120213          	addi	tp,tp,1 # 1 <_start-0x7fffffff>
    80000270:	00200293          	li	t0,2
    80000274:	fc521ae3          	bne	tp,t0,80000248 <test_16+0x8>

0000000080000278 <test_17>:
    80000278:	01100193          	li	gp,17
    8000027c:	00000213          	li	tp,0
    80000280:	fab00093          	li	ra,-85
    80000284:	00000013          	nop
    80000288:	00000013          	nop
    8000028c:	00002117          	auipc	sp,0x2
    80000290:	d7410113          	addi	sp,sp,-652 # 80002000 <begin_signature>
    80000294:	001102a3          	sb	ra,5(sp)
    80000298:	00510f03          	lb	t5,5(sp)
    8000029c:	fab00e93          	li	t4,-85
    800002a0:	17de9663          	bne	t4,t4,8000040c <fail>
    800002a4:	00120213          	addi	tp,tp,1 # 1 <_start-0x7fffffff>
    800002a8:	00200293          	li	t0,2
    800002ac:	fc521ae3          	bne	tp,t0,80000280 <test_17+0x8>

00000000800002b0 <test_18>:
    800002b0:	01200193          	li	gp,18
    800002b4:	00000213          	li	tp,0
    800002b8:	00002117          	auipc	sp,0x2
    800002bc:	d4810113          	addi	sp,sp,-696 # 80002000 <begin_signature>
    800002c0:	03300093          	li	ra,51
    800002c4:	00110023          	sb	ra,0(sp)
    800002c8:	00010f03          	lb	t5,0(sp)
    800002cc:	03300e93          	li	t4,51
    800002d0:	13de9e63          	bne	t4,t4,8000040c <fail>
    800002d4:	00120213          	addi	tp,tp,1 # 1 <_start-0x7fffffff>
    800002d8:	00200293          	li	t0,2
    800002dc:	fc521ee3          	bne	tp,t0,800002b8 <test_18+0x8>

00000000800002e0 <test_19>:
    800002e0:	01300193          	li	gp,19
    800002e4:	00000213          	li	tp,0
    800002e8:	00002117          	auipc	sp,0x2
    800002ec:	d1810113          	addi	sp,sp,-744 # 80002000 <begin_signature>
    800002f0:	02300093          	li	ra,35
    800002f4:	00000013          	nop
    800002f8:	001100a3          	sb	ra,1(sp)
    800002fc:	00110f03          	lb	t5,1(sp)
    80000300:	02300e93          	li	t4,35
    80000304:	11de9463          	bne	t4,t4,8000040c <fail>
    80000308:	00120213          	addi	tp,tp,1 # 1 <_start-0x7fffffff>
    8000030c:	00200293          	li	t0,2
    80000310:	fc521ce3          	bne	tp,t0,800002e8 <test_19+0x8>

0000000080000314 <test_20>:
    80000314:	01400193          	li	gp,20
    80000318:	00000213          	li	tp,0
    8000031c:	00002117          	auipc	sp,0x2
    80000320:	ce410113          	addi	sp,sp,-796 # 80002000 <begin_signature>
    80000324:	02200093          	li	ra,34
    80000328:	00000013          	nop
    8000032c:	00000013          	nop
    80000330:	00110123          	sb	ra,2(sp)
    80000334:	00210f03          	lb	t5,2(sp)
    80000338:	02200e93          	li	t4,34
    8000033c:	0dde9863          	bne	t4,t4,8000040c <fail>
    80000340:	00120213          	addi	tp,tp,1 # 1 <_start-0x7fffffff>
    80000344:	00200293          	li	t0,2
    80000348:	fc521ae3          	bne	tp,t0,8000031c <test_20+0x8>

000000008000034c <test_21>:
    8000034c:	01500193          	li	gp,21
    80000350:	00000213          	li	tp,0
    80000354:	00002117          	auipc	sp,0x2
    80000358:	cac10113          	addi	sp,sp,-852 # 80002000 <begin_signature>
    8000035c:	00000013          	nop
    80000360:	01200093          	li	ra,18
    80000364:	001101a3          	sb	ra,3(sp)
    80000368:	00310f03          	lb	t5,3(sp)
    8000036c:	01200e93          	li	t4,18
    80000370:	09de9e63          	bne	t4,t4,8000040c <fail>
    80000374:	00120213          	addi	tp,tp,1 # 1 <_start-0x7fffffff>
    80000378:	00200293          	li	t0,2
    8000037c:	fc521ce3          	bne	tp,t0,80000354 <test_21+0x8>

0000000080000380 <test_22>:
    80000380:	01600193          	li	gp,22
    80000384:	00000213          	li	tp,0
    80000388:	00002117          	auipc	sp,0x2
    8000038c:	c7810113          	addi	sp,sp,-904 # 80002000 <begin_signature>
    80000390:	00000013          	nop
    80000394:	01100093          	li	ra,17
    80000398:	00000013          	nop
    8000039c:	00110223          	sb	ra,4(sp)
    800003a0:	00410f03          	lb	t5,4(sp)
    800003a4:	01100e93          	li	t4,17
    800003a8:	07de9263          	bne	t4,t4,8000040c <fail>
    800003ac:	00120213          	addi	tp,tp,1 # 1 <_start-0x7fffffff>
    800003b0:	00200293          	li	t0,2
    800003b4:	fc521ae3          	bne	tp,t0,80000388 <test_22+0x8>

00000000800003b8 <test_23>:
    800003b8:	01700193          	li	gp,23
    800003bc:	00000213          	li	tp,0
    800003c0:	00002117          	auipc	sp,0x2
    800003c4:	c4010113          	addi	sp,sp,-960 # 80002000 <begin_signature>
    800003c8:	00000013          	nop
    800003cc:	00000013          	nop
    800003d0:	00100093          	li	ra,1
    800003d4:	001102a3          	sb	ra,5(sp)
    800003d8:	00510f03          	lb	t5,5(sp)
    800003dc:	00100e93          	li	t4,1
    800003e0:	03de9663          	bne	t4,t4,8000040c <fail>
    800003e4:	00120213          	addi	tp,tp,1 # 1 <_start-0x7fffffff>
    800003e8:	00200293          	li	t0,2
    800003ec:	fc521ae3          	bne	tp,t0,800003c0 <test_23+0x8>
    800003f0:	0ef00513          	li	a0,239
    800003f4:	00002597          	auipc	a1,0x2
    800003f8:	c0c58593          	addi	a1,a1,-1012 # 80002000 <begin_signature>
    800003fc:	00a581a3          	sb	a0,3(a1)
    80000400:	ffff8f93          	addi	t6,t6,-1
    80000404:	c00f96e3          	bnez	t6,80000010 <LOOP>
    80000408:	00301a63          	bne	zero,gp,8000041c <pass>

000000008000040c <fail>:
    8000040c:	0ff0000f          	fence
    80000410:	00018513          	mv	a0,gp
    80000414:	05d00893          	li	a7,93
    80000418:	00000073          	ecall

000000008000041c <pass>:
    8000041c:	0ff0000f          	fence
    80000420:	00000513          	li	a0,0
    80000424:	05d00893          	li	a7,93
    80000428:	00000073          	ecall
	...
