
isa-200-v2/rv64ui-ps-sub-200.riscv:     file format elf64-littleriscv


Disassembly of section .text.init:

0000000080000000 <_start>:
    80000000:	00000297          	auipc	t0,0x0
    80000004:	00c28293          	addi	t0,t0,12 # 8000000c <_start+0xc>
    80000008:	00028067          	jr	t0
    8000000c:	0c800f93          	li	t6,200

0000000080000010 <LOOP>:
    80000010:	00000093          	li	ra,0
    80000014:	00000113          	li	sp,0
    80000018:	40208f33          	sub	t5,ra,sp
    8000001c:	00000e93          	li	t4,0
    80000020:	00200193          	li	gp,2
    80000024:	4dde9263          	bne	t4,t4,800004e8 <fail>

0000000080000028 <test_3>:
    80000028:	00100093          	li	ra,1
    8000002c:	00100113          	li	sp,1
    80000030:	40208f33          	sub	t5,ra,sp
    80000034:	00000e93          	li	t4,0
    80000038:	00300193          	li	gp,3
    8000003c:	4bde9663          	bne	t4,t4,800004e8 <fail>

0000000080000040 <test_4>:
    80000040:	00300093          	li	ra,3
    80000044:	00700113          	li	sp,7
    80000048:	40208f33          	sub	t5,ra,sp
    8000004c:	ffc00e93          	li	t4,-4
    80000050:	00400193          	li	gp,4
    80000054:	49de9a63          	bne	t4,t4,800004e8 <fail>

0000000080000058 <test_5>:
    80000058:	00000093          	li	ra,0
    8000005c:	ffff8137          	lui	sp,0xffff8
    80000060:	40208f33          	sub	t5,ra,sp
    80000064:	00008eb7          	lui	t4,0x8
    80000068:	00500193          	li	gp,5
    8000006c:	47de9e63          	bne	t4,t4,800004e8 <fail>

0000000080000070 <test_6>:
    80000070:	800000b7          	lui	ra,0x80000
    80000074:	00000113          	li	sp,0
    80000078:	40208f33          	sub	t5,ra,sp
    8000007c:	80000eb7          	lui	t4,0x80000
    80000080:	00600193          	li	gp,6
    80000084:	47de9263          	bne	t4,t4,800004e8 <fail>

0000000080000088 <test_7>:
    80000088:	800000b7          	lui	ra,0x80000
    8000008c:	ffff8137          	lui	sp,0xffff8
    80000090:	40208f33          	sub	t5,ra,sp
    80000094:	80008eb7          	lui	t4,0x80008
    80000098:	00700193          	li	gp,7
    8000009c:	45de9663          	bne	t4,t4,800004e8 <fail>

00000000800000a0 <test_8>:
    800000a0:	00000093          	li	ra,0
    800000a4:	00008137          	lui	sp,0x8
    800000a8:	fff1011b          	addiw	sp,sp,-1
    800000ac:	40208f33          	sub	t5,ra,sp
    800000b0:	ffff8eb7          	lui	t4,0xffff8
    800000b4:	001e8e9b          	addiw	t4,t4,1
    800000b8:	00800193          	li	gp,8
    800000bc:	43de9663          	bne	t4,t4,800004e8 <fail>

00000000800000c0 <test_9>:
    800000c0:	800000b7          	lui	ra,0x80000
    800000c4:	fff0809b          	addiw	ra,ra,-1
    800000c8:	00000113          	li	sp,0
    800000cc:	40208f33          	sub	t5,ra,sp
    800000d0:	80000eb7          	lui	t4,0x80000
    800000d4:	fffe8e9b          	addiw	t4,t4,-1
    800000d8:	00900193          	li	gp,9
    800000dc:	41de9663          	bne	t4,t4,800004e8 <fail>

00000000800000e0 <test_10>:
    800000e0:	800000b7          	lui	ra,0x80000
    800000e4:	fff0809b          	addiw	ra,ra,-1
    800000e8:	00008137          	lui	sp,0x8
    800000ec:	fff1011b          	addiw	sp,sp,-1
    800000f0:	40208f33          	sub	t5,ra,sp
    800000f4:	7fff8eb7          	lui	t4,0x7fff8
    800000f8:	00a00193          	li	gp,10
    800000fc:	3fde9663          	bne	t4,t4,800004e8 <fail>

0000000080000100 <test_11>:
    80000100:	800000b7          	lui	ra,0x80000
    80000104:	00008137          	lui	sp,0x8
    80000108:	fff1011b          	addiw	sp,sp,-1
    8000010c:	40208f33          	sub	t5,ra,sp
    80000110:	ffff0eb7          	lui	t4,0xffff0
    80000114:	fffe8e9b          	addiw	t4,t4,-1
    80000118:	00fe9e93          	slli	t4,t4,0xf
    8000011c:	001e8e93          	addi	t4,t4,1 # ffffffffffff0001 <_end+0xffffffff7ffee001>
    80000120:	00b00193          	li	gp,11
    80000124:	3dde9263          	bne	t4,t4,800004e8 <fail>

0000000080000128 <test_12>:
    80000128:	800000b7          	lui	ra,0x80000
    8000012c:	fff0809b          	addiw	ra,ra,-1
    80000130:	ffff8137          	lui	sp,0xffff8
    80000134:	40208f33          	sub	t5,ra,sp
    80000138:	00010eb7          	lui	t4,0x10
    8000013c:	001e8e9b          	addiw	t4,t4,1
    80000140:	00fe9e93          	slli	t4,t4,0xf
    80000144:	fffe8e93          	addi	t4,t4,-1 # ffff <_start-0x7fff0001>
    80000148:	00c00193          	li	gp,12
    8000014c:	39de9e63          	bne	t4,t4,800004e8 <fail>

0000000080000150 <test_13>:
    80000150:	00000093          	li	ra,0
    80000154:	fff00113          	li	sp,-1
    80000158:	40208f33          	sub	t5,ra,sp
    8000015c:	00100e93          	li	t4,1
    80000160:	00d00193          	li	gp,13
    80000164:	39de9263          	bne	t4,t4,800004e8 <fail>

0000000080000168 <test_14>:
    80000168:	fff00093          	li	ra,-1
    8000016c:	00100113          	li	sp,1
    80000170:	40208f33          	sub	t5,ra,sp
    80000174:	ffe00e93          	li	t4,-2
    80000178:	00e00193          	li	gp,14
    8000017c:	37de9663          	bne	t4,t4,800004e8 <fail>

0000000080000180 <test_15>:
    80000180:	fff00093          	li	ra,-1
    80000184:	fff00113          	li	sp,-1
    80000188:	40208f33          	sub	t5,ra,sp
    8000018c:	00000e93          	li	t4,0
    80000190:	00f00193          	li	gp,15
    80000194:	35de9a63          	bne	t4,t4,800004e8 <fail>

0000000080000198 <test_16>:
    80000198:	00d00093          	li	ra,13
    8000019c:	00b00113          	li	sp,11
    800001a0:	402080b3          	sub	ra,ra,sp
    800001a4:	00200e93          	li	t4,2
    800001a8:	01000193          	li	gp,16
    800001ac:	33de9e63          	bne	t4,t4,800004e8 <fail>

00000000800001b0 <test_17>:
    800001b0:	00e00093          	li	ra,14
    800001b4:	00b00113          	li	sp,11
    800001b8:	40208133          	sub	sp,ra,sp
    800001bc:	00300e93          	li	t4,3
    800001c0:	01100193          	li	gp,17
    800001c4:	33de9263          	bne	t4,t4,800004e8 <fail>

00000000800001c8 <test_18>:
    800001c8:	00d00093          	li	ra,13
    800001cc:	401080b3          	sub	ra,ra,ra
    800001d0:	00000e93          	li	t4,0
    800001d4:	01200193          	li	gp,18
    800001d8:	31de9863          	bne	t4,t4,800004e8 <fail>

00000000800001dc <test_19>:
    800001dc:	00000213          	li	tp,0
    800001e0:	00d00093          	li	ra,13
    800001e4:	00b00113          	li	sp,11
    800001e8:	40208f33          	sub	t5,ra,sp
    800001ec:	000f0313          	mv	t1,t5
    800001f0:	00120213          	addi	tp,tp,1 # 1 <_start-0x7fffffff>
    800001f4:	00200293          	li	t0,2
    800001f8:	fe5214e3          	bne	tp,t0,800001e0 <test_19+0x4>
    800001fc:	00200e93          	li	t4,2
    80000200:	01300193          	li	gp,19
    80000204:	2fde9263          	bne	t4,t4,800004e8 <fail>

0000000080000208 <test_20>:
    80000208:	00000213          	li	tp,0
    8000020c:	00e00093          	li	ra,14
    80000210:	00b00113          	li	sp,11
    80000214:	40208f33          	sub	t5,ra,sp
    80000218:	00000013          	nop
    8000021c:	000f0313          	mv	t1,t5
    80000220:	00120213          	addi	tp,tp,1 # 1 <_start-0x7fffffff>
    80000224:	00200293          	li	t0,2
    80000228:	fe5212e3          	bne	tp,t0,8000020c <test_20+0x4>
    8000022c:	00300e93          	li	t4,3
    80000230:	01400193          	li	gp,20
    80000234:	2bde9a63          	bne	t4,t4,800004e8 <fail>

0000000080000238 <test_21>:
    80000238:	00000213          	li	tp,0
    8000023c:	00f00093          	li	ra,15
    80000240:	00b00113          	li	sp,11
    80000244:	40208f33          	sub	t5,ra,sp
    80000248:	00000013          	nop
    8000024c:	00000013          	nop
    80000250:	000f0313          	mv	t1,t5
    80000254:	00120213          	addi	tp,tp,1 # 1 <_start-0x7fffffff>
    80000258:	00200293          	li	t0,2
    8000025c:	fe5210e3          	bne	tp,t0,8000023c <test_21+0x4>
    80000260:	00400e93          	li	t4,4
    80000264:	01500193          	li	gp,21
    80000268:	29de9063          	bne	t4,t4,800004e8 <fail>

000000008000026c <test_22>:
    8000026c:	00000213          	li	tp,0
    80000270:	00d00093          	li	ra,13
    80000274:	00b00113          	li	sp,11
    80000278:	40208f33          	sub	t5,ra,sp
    8000027c:	00120213          	addi	tp,tp,1 # 1 <_start-0x7fffffff>
    80000280:	00200293          	li	t0,2
    80000284:	fe5216e3          	bne	tp,t0,80000270 <test_22+0x4>
    80000288:	00200e93          	li	t4,2
    8000028c:	01600193          	li	gp,22
    80000290:	25de9c63          	bne	t4,t4,800004e8 <fail>

0000000080000294 <test_23>:
    80000294:	00000213          	li	tp,0
    80000298:	00e00093          	li	ra,14
    8000029c:	00b00113          	li	sp,11
    800002a0:	00000013          	nop
    800002a4:	40208f33          	sub	t5,ra,sp
    800002a8:	00120213          	addi	tp,tp,1 # 1 <_start-0x7fffffff>
    800002ac:	00200293          	li	t0,2
    800002b0:	fe5214e3          	bne	tp,t0,80000298 <test_23+0x4>
    800002b4:	00300e93          	li	t4,3
    800002b8:	01700193          	li	gp,23
    800002bc:	23de9663          	bne	t4,t4,800004e8 <fail>

00000000800002c0 <test_24>:
    800002c0:	00000213          	li	tp,0
    800002c4:	00f00093          	li	ra,15
    800002c8:	00b00113          	li	sp,11
    800002cc:	00000013          	nop
    800002d0:	00000013          	nop
    800002d4:	40208f33          	sub	t5,ra,sp
    800002d8:	00120213          	addi	tp,tp,1 # 1 <_start-0x7fffffff>
    800002dc:	00200293          	li	t0,2
    800002e0:	fe5212e3          	bne	tp,t0,800002c4 <test_24+0x4>
    800002e4:	00400e93          	li	t4,4
    800002e8:	01800193          	li	gp,24
    800002ec:	1fde9e63          	bne	t4,t4,800004e8 <fail>

00000000800002f0 <test_25>:
    800002f0:	00000213          	li	tp,0
    800002f4:	00d00093          	li	ra,13
    800002f8:	00000013          	nop
    800002fc:	00b00113          	li	sp,11
    80000300:	40208f33          	sub	t5,ra,sp
    80000304:	00120213          	addi	tp,tp,1 # 1 <_start-0x7fffffff>
    80000308:	00200293          	li	t0,2
    8000030c:	fe5214e3          	bne	tp,t0,800002f4 <test_25+0x4>
    80000310:	00200e93          	li	t4,2
    80000314:	01900193          	li	gp,25
    80000318:	1dde9863          	bne	t4,t4,800004e8 <fail>

000000008000031c <test_26>:
    8000031c:	00000213          	li	tp,0
    80000320:	00e00093          	li	ra,14
    80000324:	00000013          	nop
    80000328:	00b00113          	li	sp,11
    8000032c:	00000013          	nop
    80000330:	40208f33          	sub	t5,ra,sp
    80000334:	00120213          	addi	tp,tp,1 # 1 <_start-0x7fffffff>
    80000338:	00200293          	li	t0,2
    8000033c:	fe5212e3          	bne	tp,t0,80000320 <test_26+0x4>
    80000340:	00300e93          	li	t4,3
    80000344:	01a00193          	li	gp,26
    80000348:	1bde9063          	bne	t4,t4,800004e8 <fail>

000000008000034c <test_27>:
    8000034c:	00000213          	li	tp,0
    80000350:	00f00093          	li	ra,15
    80000354:	00000013          	nop
    80000358:	00000013          	nop
    8000035c:	00b00113          	li	sp,11
    80000360:	40208f33          	sub	t5,ra,sp
    80000364:	00120213          	addi	tp,tp,1 # 1 <_start-0x7fffffff>
    80000368:	00200293          	li	t0,2
    8000036c:	fe5212e3          	bne	tp,t0,80000350 <test_27+0x4>
    80000370:	00400e93          	li	t4,4
    80000374:	01b00193          	li	gp,27
    80000378:	17de9863          	bne	t4,t4,800004e8 <fail>

000000008000037c <test_28>:
    8000037c:	00000213          	li	tp,0
    80000380:	00b00113          	li	sp,11
    80000384:	00d00093          	li	ra,13
    80000388:	40208f33          	sub	t5,ra,sp
    8000038c:	00120213          	addi	tp,tp,1 # 1 <_start-0x7fffffff>
    80000390:	00200293          	li	t0,2
    80000394:	fe5216e3          	bne	tp,t0,80000380 <test_28+0x4>
    80000398:	00200e93          	li	t4,2
    8000039c:	01c00193          	li	gp,28
    800003a0:	15de9463          	bne	t4,t4,800004e8 <fail>

00000000800003a4 <test_29>:
    800003a4:	00000213          	li	tp,0
    800003a8:	00b00113          	li	sp,11
    800003ac:	00e00093          	li	ra,14
    800003b0:	00000013          	nop
    800003b4:	40208f33          	sub	t5,ra,sp
    800003b8:	00120213          	addi	tp,tp,1 # 1 <_start-0x7fffffff>
    800003bc:	00200293          	li	t0,2
    800003c0:	fe5214e3          	bne	tp,t0,800003a8 <test_29+0x4>
    800003c4:	00300e93          	li	t4,3
    800003c8:	01d00193          	li	gp,29
    800003cc:	11de9e63          	bne	t4,t4,800004e8 <fail>

00000000800003d0 <test_30>:
    800003d0:	00000213          	li	tp,0
    800003d4:	00b00113          	li	sp,11
    800003d8:	00f00093          	li	ra,15
    800003dc:	00000013          	nop
    800003e0:	00000013          	nop
    800003e4:	40208f33          	sub	t5,ra,sp
    800003e8:	00120213          	addi	tp,tp,1 # 1 <_start-0x7fffffff>
    800003ec:	00200293          	li	t0,2
    800003f0:	fe5212e3          	bne	tp,t0,800003d4 <test_30+0x4>
    800003f4:	00400e93          	li	t4,4
    800003f8:	01e00193          	li	gp,30
    800003fc:	0fde9663          	bne	t4,t4,800004e8 <fail>

0000000080000400 <test_31>:
    80000400:	00000213          	li	tp,0
    80000404:	00b00113          	li	sp,11
    80000408:	00000013          	nop
    8000040c:	00d00093          	li	ra,13
    80000410:	40208f33          	sub	t5,ra,sp
    80000414:	00120213          	addi	tp,tp,1 # 1 <_start-0x7fffffff>
    80000418:	00200293          	li	t0,2
    8000041c:	fe5214e3          	bne	tp,t0,80000404 <test_31+0x4>
    80000420:	00200e93          	li	t4,2
    80000424:	01f00193          	li	gp,31
    80000428:	0dde9063          	bne	t4,t4,800004e8 <fail>

000000008000042c <test_32>:
    8000042c:	00000213          	li	tp,0
    80000430:	00b00113          	li	sp,11
    80000434:	00000013          	nop
    80000438:	00e00093          	li	ra,14
    8000043c:	00000013          	nop
    80000440:	40208f33          	sub	t5,ra,sp
    80000444:	00120213          	addi	tp,tp,1 # 1 <_start-0x7fffffff>
    80000448:	00200293          	li	t0,2
    8000044c:	fe5212e3          	bne	tp,t0,80000430 <test_32+0x4>
    80000450:	00300e93          	li	t4,3
    80000454:	02000193          	li	gp,32
    80000458:	09de9863          	bne	t4,t4,800004e8 <fail>

000000008000045c <test_33>:
    8000045c:	00000213          	li	tp,0
    80000460:	00b00113          	li	sp,11
    80000464:	00000013          	nop
    80000468:	00000013          	nop
    8000046c:	00f00093          	li	ra,15
    80000470:	40208f33          	sub	t5,ra,sp
    80000474:	00120213          	addi	tp,tp,1 # 1 <_start-0x7fffffff>
    80000478:	00200293          	li	t0,2
    8000047c:	fe5212e3          	bne	tp,t0,80000460 <test_33+0x4>
    80000480:	00400e93          	li	t4,4
    80000484:	02100193          	li	gp,33
    80000488:	07de9063          	bne	t4,t4,800004e8 <fail>

000000008000048c <test_34>:
    8000048c:	ff100093          	li	ra,-15
    80000490:	40100133          	neg	sp,ra
    80000494:	00f00e93          	li	t4,15
    80000498:	02200193          	li	gp,34
    8000049c:	05de9663          	bne	t4,t4,800004e8 <fail>

00000000800004a0 <test_35>:
    800004a0:	02000093          	li	ra,32
    800004a4:	40008133          	sub	sp,ra,zero
    800004a8:	02000e93          	li	t4,32
    800004ac:	02300193          	li	gp,35
    800004b0:	03de9c63          	bne	t4,t4,800004e8 <fail>

00000000800004b4 <test_36>:
    800004b4:	400000b3          	neg	ra,zero
    800004b8:	00000e93          	li	t4,0
    800004bc:	02400193          	li	gp,36
    800004c0:	03de9463          	bne	t4,t4,800004e8 <fail>

00000000800004c4 <test_37>:
    800004c4:	01000093          	li	ra,16
    800004c8:	01e00113          	li	sp,30
    800004cc:	40208033          	sub	zero,ra,sp
    800004d0:	00000e93          	li	t4,0
    800004d4:	02500193          	li	gp,37
    800004d8:	01de9863          	bne	t4,t4,800004e8 <fail>
    800004dc:	ffff8f93          	addi	t6,t6,-1
    800004e0:	b20f98e3          	bnez	t6,80000010 <LOOP>
    800004e4:	00301a63          	bne	zero,gp,800004f8 <pass>

00000000800004e8 <fail>:
    800004e8:	0ff0000f          	fence
    800004ec:	00018513          	mv	a0,gp
    800004f0:	05d00893          	li	a7,93
    800004f4:	00000073          	ecall

00000000800004f8 <pass>:
    800004f8:	0ff0000f          	fence
    800004fc:	00000513          	li	a0,0
    80000500:	05d00893          	li	a7,93
    80000504:	00000073          	ecall
	...
