
isa-200-v2/rv64ui-ps-sra-200.riscv:     file format elf64-littleriscv


Disassembly of section .text.init:

0000000080000000 <_start>:
    80000000:	00000297          	auipc	t0,0x0
    80000004:	00c28293          	addi	t0,t0,12 # 8000000c <_start+0xc>
    80000008:	00028067          	jr	t0
    8000000c:	0c800f93          	li	t6,200

0000000080000010 <LOOP>:
    80000010:	800000b7          	lui	ra,0x80000
    80000014:	00000113          	li	sp,0
    80000018:	4020df33          	sra	t5,ra,sp
    8000001c:	80000eb7          	lui	t4,0x80000
    80000020:	00200193          	li	gp,2
    80000024:	59de9863          	bne	t4,t4,800005b4 <fail>

0000000080000028 <test_3>:
    80000028:	800000b7          	lui	ra,0x80000
    8000002c:	00100113          	li	sp,1
    80000030:	4020df33          	sra	t5,ra,sp
    80000034:	c0000eb7          	lui	t4,0xc0000
    80000038:	00300193          	li	gp,3
    8000003c:	57de9c63          	bne	t4,t4,800005b4 <fail>

0000000080000040 <test_4>:
    80000040:	800000b7          	lui	ra,0x80000
    80000044:	00700113          	li	sp,7
    80000048:	4020df33          	sra	t5,ra,sp
    8000004c:	ff000eb7          	lui	t4,0xff000
    80000050:	00400193          	li	gp,4
    80000054:	57de9063          	bne	t4,t4,800005b4 <fail>

0000000080000058 <test_5>:
    80000058:	800000b7          	lui	ra,0x80000
    8000005c:	00e00113          	li	sp,14
    80000060:	4020df33          	sra	t5,ra,sp
    80000064:	fffe0eb7          	lui	t4,0xfffe0
    80000068:	00500193          	li	gp,5
    8000006c:	55de9463          	bne	t4,t4,800005b4 <fail>

0000000080000070 <test_6>:
    80000070:	800000b7          	lui	ra,0x80000
    80000074:	0010809b          	addiw	ra,ra,1
    80000078:	01f00113          	li	sp,31
    8000007c:	4020df33          	sra	t5,ra,sp
    80000080:	fff00e93          	li	t4,-1
    80000084:	00600193          	li	gp,6
    80000088:	53de9663          	bne	t4,t4,800005b4 <fail>

000000008000008c <test_7>:
    8000008c:	800000b7          	lui	ra,0x80000
    80000090:	fff0809b          	addiw	ra,ra,-1
    80000094:	00000113          	li	sp,0
    80000098:	4020df33          	sra	t5,ra,sp
    8000009c:	80000eb7          	lui	t4,0x80000
    800000a0:	fffe8e9b          	addiw	t4,t4,-1
    800000a4:	00700193          	li	gp,7
    800000a8:	51de9663          	bne	t4,t4,800005b4 <fail>

00000000800000ac <test_8>:
    800000ac:	800000b7          	lui	ra,0x80000
    800000b0:	fff0809b          	addiw	ra,ra,-1
    800000b4:	00100113          	li	sp,1
    800000b8:	4020df33          	sra	t5,ra,sp
    800000bc:	40000eb7          	lui	t4,0x40000
    800000c0:	fffe8e9b          	addiw	t4,t4,-1
    800000c4:	00800193          	li	gp,8
    800000c8:	4fde9663          	bne	t4,t4,800005b4 <fail>

00000000800000cc <test_9>:
    800000cc:	800000b7          	lui	ra,0x80000
    800000d0:	fff0809b          	addiw	ra,ra,-1
    800000d4:	00700113          	li	sp,7
    800000d8:	4020df33          	sra	t5,ra,sp
    800000dc:	01000eb7          	lui	t4,0x1000
    800000e0:	fffe8e9b          	addiw	t4,t4,-1
    800000e4:	00900193          	li	gp,9
    800000e8:	4dde9663          	bne	t4,t4,800005b4 <fail>

00000000800000ec <test_10>:
    800000ec:	800000b7          	lui	ra,0x80000
    800000f0:	fff0809b          	addiw	ra,ra,-1
    800000f4:	00e00113          	li	sp,14
    800000f8:	4020df33          	sra	t5,ra,sp
    800000fc:	00020eb7          	lui	t4,0x20
    80000100:	fffe8e9b          	addiw	t4,t4,-1
    80000104:	00a00193          	li	gp,10
    80000108:	4bde9663          	bne	t4,t4,800005b4 <fail>

000000008000010c <test_11>:
    8000010c:	800000b7          	lui	ra,0x80000
    80000110:	fff0809b          	addiw	ra,ra,-1
    80000114:	01f00113          	li	sp,31
    80000118:	4020df33          	sra	t5,ra,sp
    8000011c:	00000e93          	li	t4,0
    80000120:	00b00193          	li	gp,11
    80000124:	49de9863          	bne	t4,t4,800005b4 <fail>

0000000080000128 <test_12>:
    80000128:	818180b7          	lui	ra,0x81818
    8000012c:	1810809b          	addiw	ra,ra,385
    80000130:	00000113          	li	sp,0
    80000134:	4020df33          	sra	t5,ra,sp
    80000138:	81818eb7          	lui	t4,0x81818
    8000013c:	181e8e9b          	addiw	t4,t4,385
    80000140:	00c00193          	li	gp,12
    80000144:	47de9863          	bne	t4,t4,800005b4 <fail>

0000000080000148 <test_13>:
    80000148:	818180b7          	lui	ra,0x81818
    8000014c:	1810809b          	addiw	ra,ra,385
    80000150:	00100113          	li	sp,1
    80000154:	4020df33          	sra	t5,ra,sp
    80000158:	c0c0ceb7          	lui	t4,0xc0c0c
    8000015c:	0c0e8e9b          	addiw	t4,t4,192
    80000160:	00d00193          	li	gp,13
    80000164:	45de9863          	bne	t4,t4,800005b4 <fail>

0000000080000168 <test_14>:
    80000168:	818180b7          	lui	ra,0x81818
    8000016c:	1810809b          	addiw	ra,ra,385
    80000170:	00700113          	li	sp,7
    80000174:	4020df33          	sra	t5,ra,sp
    80000178:	ff030eb7          	lui	t4,0xff030
    8000017c:	303e8e9b          	addiw	t4,t4,771
    80000180:	00e00193          	li	gp,14
    80000184:	43de9863          	bne	t4,t4,800005b4 <fail>

0000000080000188 <test_15>:
    80000188:	818180b7          	lui	ra,0x81818
    8000018c:	1810809b          	addiw	ra,ra,385
    80000190:	00e00113          	li	sp,14
    80000194:	4020df33          	sra	t5,ra,sp
    80000198:	fffe0eb7          	lui	t4,0xfffe0
    8000019c:	606e8e9b          	addiw	t4,t4,1542
    800001a0:	00f00193          	li	gp,15
    800001a4:	41de9863          	bne	t4,t4,800005b4 <fail>

00000000800001a8 <test_16>:
    800001a8:	818180b7          	lui	ra,0x81818
    800001ac:	1810809b          	addiw	ra,ra,385
    800001b0:	01f00113          	li	sp,31
    800001b4:	4020df33          	sra	t5,ra,sp
    800001b8:	fff00e93          	li	t4,-1
    800001bc:	01000193          	li	gp,16
    800001c0:	3fde9a63          	bne	t4,t4,800005b4 <fail>

00000000800001c4 <test_17>:
    800001c4:	818180b7          	lui	ra,0x81818
    800001c8:	1810809b          	addiw	ra,ra,385
    800001cc:	fc000113          	li	sp,-64
    800001d0:	4020df33          	sra	t5,ra,sp
    800001d4:	81818eb7          	lui	t4,0x81818
    800001d8:	181e8e9b          	addiw	t4,t4,385
    800001dc:	01100193          	li	gp,17
    800001e0:	3dde9a63          	bne	t4,t4,800005b4 <fail>

00000000800001e4 <test_18>:
    800001e4:	818180b7          	lui	ra,0x81818
    800001e8:	1810809b          	addiw	ra,ra,385
    800001ec:	fc100113          	li	sp,-63
    800001f0:	4020df33          	sra	t5,ra,sp
    800001f4:	c0c0ceb7          	lui	t4,0xc0c0c
    800001f8:	0c0e8e9b          	addiw	t4,t4,192
    800001fc:	01200193          	li	gp,18
    80000200:	3bde9a63          	bne	t4,t4,800005b4 <fail>

0000000080000204 <test_19>:
    80000204:	818180b7          	lui	ra,0x81818
    80000208:	1810809b          	addiw	ra,ra,385
    8000020c:	fc700113          	li	sp,-57
    80000210:	4020df33          	sra	t5,ra,sp
    80000214:	ff030eb7          	lui	t4,0xff030
    80000218:	303e8e9b          	addiw	t4,t4,771
    8000021c:	01300193          	li	gp,19
    80000220:	39de9a63          	bne	t4,t4,800005b4 <fail>

0000000080000224 <test_20>:
    80000224:	818180b7          	lui	ra,0x81818
    80000228:	1810809b          	addiw	ra,ra,385
    8000022c:	fce00113          	li	sp,-50
    80000230:	4020df33          	sra	t5,ra,sp
    80000234:	fffe0eb7          	lui	t4,0xfffe0
    80000238:	606e8e9b          	addiw	t4,t4,1542
    8000023c:	01400193          	li	gp,20
    80000240:	37de9a63          	bne	t4,t4,800005b4 <fail>

0000000080000244 <test_21>:
    80000244:	818180b7          	lui	ra,0x81818
    80000248:	1810809b          	addiw	ra,ra,385
    8000024c:	fff00113          	li	sp,-1
    80000250:	4020df33          	sra	t5,ra,sp
    80000254:	fff00e93          	li	t4,-1
    80000258:	01500193          	li	gp,21
    8000025c:	35de9c63          	bne	t4,t4,800005b4 <fail>

0000000080000260 <test_22>:
    80000260:	800000b7          	lui	ra,0x80000
    80000264:	00700113          	li	sp,7
    80000268:	4020d0b3          	sra	ra,ra,sp
    8000026c:	ff000eb7          	lui	t4,0xff000
    80000270:	01600193          	li	gp,22
    80000274:	35de9063          	bne	t4,t4,800005b4 <fail>

0000000080000278 <test_23>:
    80000278:	800000b7          	lui	ra,0x80000
    8000027c:	00e00113          	li	sp,14
    80000280:	4020d133          	sra	sp,ra,sp
    80000284:	fffe0eb7          	lui	t4,0xfffe0
    80000288:	01700193          	li	gp,23
    8000028c:	33de9463          	bne	t4,t4,800005b4 <fail>

0000000080000290 <test_24>:
    80000290:	00700093          	li	ra,7
    80000294:	4010d0b3          	sra	ra,ra,ra
    80000298:	00000e93          	li	t4,0
    8000029c:	01800193          	li	gp,24
    800002a0:	31de9a63          	bne	t4,t4,800005b4 <fail>

00000000800002a4 <test_25>:
    800002a4:	00000213          	li	tp,0
    800002a8:	800000b7          	lui	ra,0x80000
    800002ac:	00700113          	li	sp,7
    800002b0:	4020df33          	sra	t5,ra,sp
    800002b4:	000f0313          	mv	t1,t5
    800002b8:	00120213          	addi	tp,tp,1 # 1 <_start-0x7fffffff>
    800002bc:	00200293          	li	t0,2
    800002c0:	fe5214e3          	bne	tp,t0,800002a8 <test_25+0x4>
    800002c4:	ff000eb7          	lui	t4,0xff000
    800002c8:	01900193          	li	gp,25
    800002cc:	2fde9463          	bne	t4,t4,800005b4 <fail>

00000000800002d0 <test_26>:
    800002d0:	00000213          	li	tp,0
    800002d4:	800000b7          	lui	ra,0x80000
    800002d8:	00e00113          	li	sp,14
    800002dc:	4020df33          	sra	t5,ra,sp
    800002e0:	00000013          	nop
    800002e4:	000f0313          	mv	t1,t5
    800002e8:	00120213          	addi	tp,tp,1 # 1 <_start-0x7fffffff>
    800002ec:	00200293          	li	t0,2
    800002f0:	fe5212e3          	bne	tp,t0,800002d4 <test_26+0x4>
    800002f4:	fffe0eb7          	lui	t4,0xfffe0
    800002f8:	01a00193          	li	gp,26
    800002fc:	2bde9c63          	bne	t4,t4,800005b4 <fail>

0000000080000300 <test_27>:
    80000300:	00000213          	li	tp,0
    80000304:	800000b7          	lui	ra,0x80000
    80000308:	01f00113          	li	sp,31
    8000030c:	4020df33          	sra	t5,ra,sp
    80000310:	00000013          	nop
    80000314:	00000013          	nop
    80000318:	000f0313          	mv	t1,t5
    8000031c:	00120213          	addi	tp,tp,1 # 1 <_start-0x7fffffff>
    80000320:	00200293          	li	t0,2
    80000324:	fe5210e3          	bne	tp,t0,80000304 <test_27+0x4>
    80000328:	fff00e93          	li	t4,-1
    8000032c:	01b00193          	li	gp,27
    80000330:	29de9263          	bne	t4,t4,800005b4 <fail>

0000000080000334 <test_28>:
    80000334:	00000213          	li	tp,0
    80000338:	800000b7          	lui	ra,0x80000
    8000033c:	00700113          	li	sp,7
    80000340:	4020df33          	sra	t5,ra,sp
    80000344:	00120213          	addi	tp,tp,1 # 1 <_start-0x7fffffff>
    80000348:	00200293          	li	t0,2
    8000034c:	fe5216e3          	bne	tp,t0,80000338 <test_28+0x4>
    80000350:	ff000eb7          	lui	t4,0xff000
    80000354:	01c00193          	li	gp,28
    80000358:	25de9e63          	bne	t4,t4,800005b4 <fail>

000000008000035c <test_29>:
    8000035c:	00000213          	li	tp,0
    80000360:	800000b7          	lui	ra,0x80000
    80000364:	00e00113          	li	sp,14
    80000368:	00000013          	nop
    8000036c:	4020df33          	sra	t5,ra,sp
    80000370:	00120213          	addi	tp,tp,1 # 1 <_start-0x7fffffff>
    80000374:	00200293          	li	t0,2
    80000378:	fe5214e3          	bne	tp,t0,80000360 <test_29+0x4>
    8000037c:	fffe0eb7          	lui	t4,0xfffe0
    80000380:	01d00193          	li	gp,29
    80000384:	23de9863          	bne	t4,t4,800005b4 <fail>

0000000080000388 <test_30>:
    80000388:	00000213          	li	tp,0
    8000038c:	800000b7          	lui	ra,0x80000
    80000390:	01f00113          	li	sp,31
    80000394:	00000013          	nop
    80000398:	00000013          	nop
    8000039c:	4020df33          	sra	t5,ra,sp
    800003a0:	00120213          	addi	tp,tp,1 # 1 <_start-0x7fffffff>
    800003a4:	00200293          	li	t0,2
    800003a8:	fe5212e3          	bne	tp,t0,8000038c <test_30+0x4>
    800003ac:	fff00e93          	li	t4,-1
    800003b0:	01e00193          	li	gp,30
    800003b4:	21de9063          	bne	t4,t4,800005b4 <fail>

00000000800003b8 <test_31>:
    800003b8:	00000213          	li	tp,0
    800003bc:	800000b7          	lui	ra,0x80000
    800003c0:	00000013          	nop
    800003c4:	00700113          	li	sp,7
    800003c8:	4020df33          	sra	t5,ra,sp
    800003cc:	00120213          	addi	tp,tp,1 # 1 <_start-0x7fffffff>
    800003d0:	00200293          	li	t0,2
    800003d4:	fe5214e3          	bne	tp,t0,800003bc <test_31+0x4>
    800003d8:	ff000eb7          	lui	t4,0xff000
    800003dc:	01f00193          	li	gp,31
    800003e0:	1dde9a63          	bne	t4,t4,800005b4 <fail>

00000000800003e4 <test_32>:
    800003e4:	00000213          	li	tp,0
    800003e8:	800000b7          	lui	ra,0x80000
    800003ec:	00000013          	nop
    800003f0:	00e00113          	li	sp,14
    800003f4:	00000013          	nop
    800003f8:	4020df33          	sra	t5,ra,sp
    800003fc:	00120213          	addi	tp,tp,1 # 1 <_start-0x7fffffff>
    80000400:	00200293          	li	t0,2
    80000404:	fe5212e3          	bne	tp,t0,800003e8 <test_32+0x4>
    80000408:	fffe0eb7          	lui	t4,0xfffe0
    8000040c:	02000193          	li	gp,32
    80000410:	1bde9263          	bne	t4,t4,800005b4 <fail>

0000000080000414 <test_33>:
    80000414:	00000213          	li	tp,0
    80000418:	800000b7          	lui	ra,0x80000
    8000041c:	00000013          	nop
    80000420:	00000013          	nop
    80000424:	01f00113          	li	sp,31
    80000428:	4020df33          	sra	t5,ra,sp
    8000042c:	00120213          	addi	tp,tp,1 # 1 <_start-0x7fffffff>
    80000430:	00200293          	li	t0,2
    80000434:	fe5212e3          	bne	tp,t0,80000418 <test_33+0x4>
    80000438:	fff00e93          	li	t4,-1
    8000043c:	02100193          	li	gp,33
    80000440:	17de9a63          	bne	t4,t4,800005b4 <fail>

0000000080000444 <test_34>:
    80000444:	00000213          	li	tp,0
    80000448:	00700113          	li	sp,7
    8000044c:	800000b7          	lui	ra,0x80000
    80000450:	4020df33          	sra	t5,ra,sp
    80000454:	00120213          	addi	tp,tp,1 # 1 <_start-0x7fffffff>
    80000458:	00200293          	li	t0,2
    8000045c:	fe5216e3          	bne	tp,t0,80000448 <test_34+0x4>
    80000460:	ff000eb7          	lui	t4,0xff000
    80000464:	02200193          	li	gp,34
    80000468:	15de9663          	bne	t4,t4,800005b4 <fail>

000000008000046c <test_35>:
    8000046c:	00000213          	li	tp,0
    80000470:	00e00113          	li	sp,14
    80000474:	800000b7          	lui	ra,0x80000
    80000478:	00000013          	nop
    8000047c:	4020df33          	sra	t5,ra,sp
    80000480:	00120213          	addi	tp,tp,1 # 1 <_start-0x7fffffff>
    80000484:	00200293          	li	t0,2
    80000488:	fe5214e3          	bne	tp,t0,80000470 <test_35+0x4>
    8000048c:	fffe0eb7          	lui	t4,0xfffe0
    80000490:	02300193          	li	gp,35
    80000494:	13de9063          	bne	t4,t4,800005b4 <fail>

0000000080000498 <test_36>:
    80000498:	00000213          	li	tp,0
    8000049c:	01f00113          	li	sp,31
    800004a0:	800000b7          	lui	ra,0x80000
    800004a4:	00000013          	nop
    800004a8:	00000013          	nop
    800004ac:	4020df33          	sra	t5,ra,sp
    800004b0:	00120213          	addi	tp,tp,1 # 1 <_start-0x7fffffff>
    800004b4:	00200293          	li	t0,2
    800004b8:	fe5212e3          	bne	tp,t0,8000049c <test_36+0x4>
    800004bc:	fff00e93          	li	t4,-1
    800004c0:	02400193          	li	gp,36
    800004c4:	0fde9863          	bne	t4,t4,800005b4 <fail>

00000000800004c8 <test_37>:
    800004c8:	00000213          	li	tp,0
    800004cc:	00700113          	li	sp,7
    800004d0:	00000013          	nop
    800004d4:	800000b7          	lui	ra,0x80000
    800004d8:	4020df33          	sra	t5,ra,sp
    800004dc:	00120213          	addi	tp,tp,1 # 1 <_start-0x7fffffff>
    800004e0:	00200293          	li	t0,2
    800004e4:	fe5214e3          	bne	tp,t0,800004cc <test_37+0x4>
    800004e8:	ff000eb7          	lui	t4,0xff000
    800004ec:	02500193          	li	gp,37
    800004f0:	0dde9263          	bne	t4,t4,800005b4 <fail>

00000000800004f4 <test_38>:
    800004f4:	00000213          	li	tp,0
    800004f8:	00e00113          	li	sp,14
    800004fc:	00000013          	nop
    80000500:	800000b7          	lui	ra,0x80000
    80000504:	00000013          	nop
    80000508:	4020df33          	sra	t5,ra,sp
    8000050c:	00120213          	addi	tp,tp,1 # 1 <_start-0x7fffffff>
    80000510:	00200293          	li	t0,2
    80000514:	fe5212e3          	bne	tp,t0,800004f8 <test_38+0x4>
    80000518:	fffe0eb7          	lui	t4,0xfffe0
    8000051c:	02600193          	li	gp,38
    80000520:	09de9a63          	bne	t4,t4,800005b4 <fail>

0000000080000524 <test_39>:
    80000524:	00000213          	li	tp,0
    80000528:	01f00113          	li	sp,31
    8000052c:	00000013          	nop
    80000530:	00000013          	nop
    80000534:	800000b7          	lui	ra,0x80000
    80000538:	4020df33          	sra	t5,ra,sp
    8000053c:	00120213          	addi	tp,tp,1 # 1 <_start-0x7fffffff>
    80000540:	00200293          	li	t0,2
    80000544:	fe5212e3          	bne	tp,t0,80000528 <test_39+0x4>
    80000548:	fff00e93          	li	t4,-1
    8000054c:	02700193          	li	gp,39
    80000550:	07de9263          	bne	t4,t4,800005b4 <fail>

0000000080000554 <test_40>:
    80000554:	00f00093          	li	ra,15
    80000558:	40105133          	sra	sp,zero,ra
    8000055c:	00000e93          	li	t4,0
    80000560:	02800193          	li	gp,40
    80000564:	05de9863          	bne	t4,t4,800005b4 <fail>

0000000080000568 <test_41>:
    80000568:	02000093          	li	ra,32
    8000056c:	4000d133          	sra	sp,ra,zero
    80000570:	02000e93          	li	t4,32
    80000574:	02900193          	li	gp,41
    80000578:	03de9e63          	bne	t4,t4,800005b4 <fail>

000000008000057c <test_42>:
    8000057c:	400050b3          	sra	ra,zero,zero
    80000580:	00000e93          	li	t4,0
    80000584:	02a00193          	li	gp,42
    80000588:	03de9663          	bne	t4,t4,800005b4 <fail>

000000008000058c <test_43>:
    8000058c:	40000093          	li	ra,1024
    80000590:	00001137          	lui	sp,0x1
    80000594:	8001011b          	addiw	sp,sp,-2048
    80000598:	4020d033          	sra	zero,ra,sp
    8000059c:	00000e93          	li	t4,0
    800005a0:	02b00193          	li	gp,43
    800005a4:	01de9863          	bne	t4,t4,800005b4 <fail>
    800005a8:	ffff8f93          	addi	t6,t6,-1
    800005ac:	a60f92e3          	bnez	t6,80000010 <LOOP>
    800005b0:	00301a63          	bne	zero,gp,800005c4 <pass>

00000000800005b4 <fail>:
    800005b4:	0ff0000f          	fence
    800005b8:	00018513          	mv	a0,gp
    800005bc:	05d00893          	li	a7,93
    800005c0:	00000073          	ecall

00000000800005c4 <pass>:
    800005c4:	0ff0000f          	fence
    800005c8:	00000513          	li	a0,0
    800005cc:	05d00893          	li	a7,93
    800005d0:	00000073          	ecall
	...
