
isa-200-v2/rv64ua-ps-amomax-d-200.riscv:     file format elf64-littleriscv


Disassembly of section .text.init:

0000000080000000 <_start>:
    80000000:	00000297          	auipc	t0,0x0
    80000004:	00c28293          	addi	t0,t0,12 # 8000000c <_start+0xc>
    80000008:	00028067          	jr	t0
    8000000c:	0c800f93          	li	t6,200

0000000080000010 <LOOP>:
    80000010:	80000537          	lui	a0,0x80000
    80000014:	80000593          	li	a1,-2048
    80000018:	00002697          	auipc	a3,0x2
    8000001c:	fe868693          	addi	a3,a3,-24 # 80002000 <begin_signature>
    80000020:	00a6b023          	sd	a0,0(a3)
    80000024:	a0b6b72f          	amomax.d	a4,a1,(a3)
    80000028:	80000eb7          	lui	t4,0x80000
    8000002c:	00200193          	li	gp,2
    80000030:	05de9463          	bne	t4,t4,80000078 <fail>

0000000080000034 <test_3>:
    80000034:	0006b783          	ld	a5,0(a3)
    80000038:	80000e93          	li	t4,-2048
    8000003c:	00300193          	li	gp,3
    80000040:	03de9c63          	bne	t4,t4,80000078 <fail>

0000000080000044 <test_4>:
    80000044:	00100593          	li	a1,1
    80000048:	0006b023          	sd	zero,0(a3)
    8000004c:	a0b6b72f          	amomax.d	a4,a1,(a3)
    80000050:	00000e93          	li	t4,0
    80000054:	00400193          	li	gp,4
    80000058:	03de9063          	bne	t4,t4,80000078 <fail>

000000008000005c <test_5>:
    8000005c:	0006b783          	ld	a5,0(a3)
    80000060:	00100e93          	li	t4,1
    80000064:	00500193          	li	gp,5
    80000068:	01de9863          	bne	t4,t4,80000078 <fail>
    8000006c:	ffff8f93          	addi	t6,t6,-1
    80000070:	fa0f90e3          	bnez	t6,80000010 <LOOP>
    80000074:	00301a63          	bne	zero,gp,80000088 <pass>

0000000080000078 <fail>:
    80000078:	0ff0000f          	fence
    8000007c:	00018513          	mv	a0,gp
    80000080:	05d00893          	li	a7,93
    80000084:	00000073          	ecall

0000000080000088 <pass>:
    80000088:	0ff0000f          	fence
    8000008c:	00000513          	li	a0,0
    80000090:	05d00893          	li	a7,93
    80000094:	00000073          	ecall
	...
