
isa-200-v2/rv64ui-ps-srai-200.riscv:     file format elf64-littleriscv


Disassembly of section .text.init:

0000000080000000 <_start>:
    80000000:	00000297          	auipc	t0,0x0
    80000004:	00c28293          	addi	t0,t0,12 # 8000000c <_start+0xc>
    80000008:	00028067          	jr	t0
    8000000c:	0c800f93          	li	t6,200

0000000080000010 <LOOP>:
    80000010:	fff0009b          	addiw	ra,zero,-1
    80000014:	02709093          	slli	ra,ra,0x27
    80000018:	4000df13          	srai	t5,ra,0x0
    8000001c:	fff00e9b          	addiw	t4,zero,-1
    80000020:	027e9e93          	slli	t4,t4,0x27
    80000024:	00200193          	li	gp,2
    80000028:	2bde9863          	bne	t4,t4,800002d8 <fail>

000000008000002c <test_3>:
    8000002c:	800000b7          	lui	ra,0x80000
    80000030:	4010df13          	srai	t5,ra,0x1
    80000034:	c0000eb7          	lui	t4,0xc0000
    80000038:	00300193          	li	gp,3
    8000003c:	29de9e63          	bne	t4,t4,800002d8 <fail>

0000000080000040 <test_4>:
    80000040:	800000b7          	lui	ra,0x80000
    80000044:	4070df13          	srai	t5,ra,0x7
    80000048:	ff000eb7          	lui	t4,0xff000
    8000004c:	00400193          	li	gp,4
    80000050:	29de9463          	bne	t4,t4,800002d8 <fail>

0000000080000054 <test_5>:
    80000054:	800000b7          	lui	ra,0x80000
    80000058:	40e0df13          	srai	t5,ra,0xe
    8000005c:	fffe0eb7          	lui	t4,0xfffe0
    80000060:	00500193          	li	gp,5
    80000064:	27de9a63          	bne	t4,t4,800002d8 <fail>

0000000080000068 <test_6>:
    80000068:	800000b7          	lui	ra,0x80000
    8000006c:	0010809b          	addiw	ra,ra,1
    80000070:	41f0df13          	srai	t5,ra,0x1f
    80000074:	fff00e93          	li	t4,-1
    80000078:	00600193          	li	gp,6
    8000007c:	25de9e63          	bne	t4,t4,800002d8 <fail>

0000000080000080 <test_7>:
    80000080:	800000b7          	lui	ra,0x80000
    80000084:	fff0809b          	addiw	ra,ra,-1
    80000088:	4000df13          	srai	t5,ra,0x0
    8000008c:	80000eb7          	lui	t4,0x80000
    80000090:	fffe8e9b          	addiw	t4,t4,-1
    80000094:	00700193          	li	gp,7
    80000098:	25de9063          	bne	t4,t4,800002d8 <fail>

000000008000009c <test_8>:
    8000009c:	800000b7          	lui	ra,0x80000
    800000a0:	fff0809b          	addiw	ra,ra,-1
    800000a4:	4010df13          	srai	t5,ra,0x1
    800000a8:	40000eb7          	lui	t4,0x40000
    800000ac:	fffe8e9b          	addiw	t4,t4,-1
    800000b0:	00800193          	li	gp,8
    800000b4:	23de9263          	bne	t4,t4,800002d8 <fail>

00000000800000b8 <test_9>:
    800000b8:	800000b7          	lui	ra,0x80000
    800000bc:	fff0809b          	addiw	ra,ra,-1
    800000c0:	4070df13          	srai	t5,ra,0x7
    800000c4:	01000eb7          	lui	t4,0x1000
    800000c8:	fffe8e9b          	addiw	t4,t4,-1
    800000cc:	00900193          	li	gp,9
    800000d0:	21de9463          	bne	t4,t4,800002d8 <fail>

00000000800000d4 <test_10>:
    800000d4:	800000b7          	lui	ra,0x80000
    800000d8:	fff0809b          	addiw	ra,ra,-1
    800000dc:	40e0df13          	srai	t5,ra,0xe
    800000e0:	00020eb7          	lui	t4,0x20
    800000e4:	fffe8e9b          	addiw	t4,t4,-1
    800000e8:	00a00193          	li	gp,10
    800000ec:	1fde9663          	bne	t4,t4,800002d8 <fail>

00000000800000f0 <test_11>:
    800000f0:	800000b7          	lui	ra,0x80000
    800000f4:	fff0809b          	addiw	ra,ra,-1
    800000f8:	41f0df13          	srai	t5,ra,0x1f
    800000fc:	00000e93          	li	t4,0
    80000100:	00b00193          	li	gp,11
    80000104:	1dde9a63          	bne	t4,t4,800002d8 <fail>

0000000080000108 <test_12>:
    80000108:	818180b7          	lui	ra,0x81818
    8000010c:	1810809b          	addiw	ra,ra,385
    80000110:	4000df13          	srai	t5,ra,0x0
    80000114:	81818eb7          	lui	t4,0x81818
    80000118:	181e8e9b          	addiw	t4,t4,385
    8000011c:	00c00193          	li	gp,12
    80000120:	1bde9c63          	bne	t4,t4,800002d8 <fail>

0000000080000124 <test_13>:
    80000124:	818180b7          	lui	ra,0x81818
    80000128:	1810809b          	addiw	ra,ra,385
    8000012c:	4010df13          	srai	t5,ra,0x1
    80000130:	c0c0ceb7          	lui	t4,0xc0c0c
    80000134:	0c0e8e9b          	addiw	t4,t4,192
    80000138:	00d00193          	li	gp,13
    8000013c:	19de9e63          	bne	t4,t4,800002d8 <fail>

0000000080000140 <test_14>:
    80000140:	818180b7          	lui	ra,0x81818
    80000144:	1810809b          	addiw	ra,ra,385
    80000148:	4070df13          	srai	t5,ra,0x7
    8000014c:	ff030eb7          	lui	t4,0xff030
    80000150:	303e8e9b          	addiw	t4,t4,771
    80000154:	00e00193          	li	gp,14
    80000158:	19de9063          	bne	t4,t4,800002d8 <fail>

000000008000015c <test_15>:
    8000015c:	818180b7          	lui	ra,0x81818
    80000160:	1810809b          	addiw	ra,ra,385
    80000164:	40e0df13          	srai	t5,ra,0xe
    80000168:	fffe0eb7          	lui	t4,0xfffe0
    8000016c:	606e8e9b          	addiw	t4,t4,1542
    80000170:	00f00193          	li	gp,15
    80000174:	17de9263          	bne	t4,t4,800002d8 <fail>

0000000080000178 <test_16>:
    80000178:	818180b7          	lui	ra,0x81818
    8000017c:	1810809b          	addiw	ra,ra,385
    80000180:	41f0df13          	srai	t5,ra,0x1f
    80000184:	fff00e93          	li	t4,-1
    80000188:	01000193          	li	gp,16
    8000018c:	15de9663          	bne	t4,t4,800002d8 <fail>

0000000080000190 <test_17>:
    80000190:	800000b7          	lui	ra,0x80000
    80000194:	4070d093          	srai	ra,ra,0x7
    80000198:	ff000eb7          	lui	t4,0xff000
    8000019c:	01100193          	li	gp,17
    800001a0:	13de9c63          	bne	t4,t4,800002d8 <fail>

00000000800001a4 <test_18>:
    800001a4:	00000213          	li	tp,0
    800001a8:	800000b7          	lui	ra,0x80000
    800001ac:	4070df13          	srai	t5,ra,0x7
    800001b0:	000f0313          	mv	t1,t5
    800001b4:	00120213          	addi	tp,tp,1 # 1 <_start-0x7fffffff>
    800001b8:	00200293          	li	t0,2
    800001bc:	fe5216e3          	bne	tp,t0,800001a8 <test_18+0x4>
    800001c0:	ff000eb7          	lui	t4,0xff000
    800001c4:	01200193          	li	gp,18
    800001c8:	11de9863          	bne	t4,t4,800002d8 <fail>

00000000800001cc <test_19>:
    800001cc:	00000213          	li	tp,0
    800001d0:	800000b7          	lui	ra,0x80000
    800001d4:	40e0df13          	srai	t5,ra,0xe
    800001d8:	00000013          	nop
    800001dc:	000f0313          	mv	t1,t5
    800001e0:	00120213          	addi	tp,tp,1 # 1 <_start-0x7fffffff>
    800001e4:	00200293          	li	t0,2
    800001e8:	fe5214e3          	bne	tp,t0,800001d0 <test_19+0x4>
    800001ec:	fffe0eb7          	lui	t4,0xfffe0
    800001f0:	01300193          	li	gp,19
    800001f4:	0fde9263          	bne	t4,t4,800002d8 <fail>

00000000800001f8 <test_20>:
    800001f8:	00000213          	li	tp,0
    800001fc:	800000b7          	lui	ra,0x80000
    80000200:	0010809b          	addiw	ra,ra,1
    80000204:	41f0df13          	srai	t5,ra,0x1f
    80000208:	00000013          	nop
    8000020c:	00000013          	nop
    80000210:	000f0313          	mv	t1,t5
    80000214:	00120213          	addi	tp,tp,1 # 1 <_start-0x7fffffff>
    80000218:	00200293          	li	t0,2
    8000021c:	fe5210e3          	bne	tp,t0,800001fc <test_20+0x4>
    80000220:	fff00e93          	li	t4,-1
    80000224:	01400193          	li	gp,20
    80000228:	0bde9863          	bne	t4,t4,800002d8 <fail>

000000008000022c <test_21>:
    8000022c:	00000213          	li	tp,0
    80000230:	800000b7          	lui	ra,0x80000
    80000234:	4070df13          	srai	t5,ra,0x7
    80000238:	00120213          	addi	tp,tp,1 # 1 <_start-0x7fffffff>
    8000023c:	00200293          	li	t0,2
    80000240:	fe5218e3          	bne	tp,t0,80000230 <test_21+0x4>
    80000244:	ff000eb7          	lui	t4,0xff000
    80000248:	01500193          	li	gp,21
    8000024c:	09de9663          	bne	t4,t4,800002d8 <fail>

0000000080000250 <test_22>:
    80000250:	00000213          	li	tp,0
    80000254:	800000b7          	lui	ra,0x80000
    80000258:	00000013          	nop
    8000025c:	40e0df13          	srai	t5,ra,0xe
    80000260:	00120213          	addi	tp,tp,1 # 1 <_start-0x7fffffff>
    80000264:	00200293          	li	t0,2
    80000268:	fe5216e3          	bne	tp,t0,80000254 <test_22+0x4>
    8000026c:	fffe0eb7          	lui	t4,0xfffe0
    80000270:	01600193          	li	gp,22
    80000274:	07de9263          	bne	t4,t4,800002d8 <fail>

0000000080000278 <test_23>:
    80000278:	00000213          	li	tp,0
    8000027c:	800000b7          	lui	ra,0x80000
    80000280:	0010809b          	addiw	ra,ra,1
    80000284:	00000013          	nop
    80000288:	00000013          	nop
    8000028c:	41f0df13          	srai	t5,ra,0x1f
    80000290:	00120213          	addi	tp,tp,1 # 1 <_start-0x7fffffff>
    80000294:	00200293          	li	t0,2
    80000298:	fe5212e3          	bne	tp,t0,8000027c <test_23+0x4>
    8000029c:	fff00e93          	li	t4,-1
    800002a0:	01700193          	li	gp,23
    800002a4:	03de9a63          	bne	t4,t4,800002d8 <fail>

00000000800002a8 <test_24>:
    800002a8:	40405093          	srai	ra,zero,0x4
    800002ac:	00000e93          	li	t4,0
    800002b0:	01800193          	li	gp,24
    800002b4:	03de9263          	bne	t4,t4,800002d8 <fail>

00000000800002b8 <test_25>:
    800002b8:	02100093          	li	ra,33
    800002bc:	40a0d013          	srai	zero,ra,0xa
    800002c0:	00000e93          	li	t4,0
    800002c4:	01900193          	li	gp,25
    800002c8:	01de9863          	bne	t4,t4,800002d8 <fail>
    800002cc:	ffff8f93          	addi	t6,t6,-1
    800002d0:	d40f90e3          	bnez	t6,80000010 <LOOP>
    800002d4:	00301a63          	bne	zero,gp,800002e8 <pass>

00000000800002d8 <fail>:
    800002d8:	0ff0000f          	fence
    800002dc:	00018513          	mv	a0,gp
    800002e0:	05d00893          	li	a7,93
    800002e4:	00000073          	ecall

00000000800002e8 <pass>:
    800002e8:	0ff0000f          	fence
    800002ec:	00000513          	li	a0,0
    800002f0:	05d00893          	li	a7,93
    800002f4:	00000073          	ecall
	...
