
isa-200-v2/rv64ua-ps-amoxor-d-200.riscv:     file format elf64-littleriscv


Disassembly of section .text.init:

0000000080000000 <_start>:
    80000000:	00000297          	auipc	t0,0x0
    80000004:	00c28293          	addi	t0,t0,12 # 8000000c <_start+0xc>
    80000008:	00028067          	jr	t0
    8000000c:	0c800f93          	li	t6,200

0000000080000010 <LOOP>:
    80000010:	80000537          	lui	a0,0x80000
    80000014:	80000593          	li	a1,-2048
    80000018:	00002697          	auipc	a3,0x2
    8000001c:	fe868693          	addi	a3,a3,-24 # 80002000 <begin_signature>
    80000020:	00a6b023          	sd	a0,0(a3)
    80000024:	20b6b72f          	amoxor.d	a4,a1,(a3)
    80000028:	80000eb7          	lui	t4,0x80000
    8000002c:	00200193          	li	gp,2
    80000030:	05de9863          	bne	t4,t4,80000080 <fail>

0000000080000034 <test_3>:
    80000034:	0006b783          	ld	a5,0(a3)
    80000038:	80000eb7          	lui	t4,0x80000
    8000003c:	800e8e9b          	addiw	t4,t4,-2048
    80000040:	00300193          	li	gp,3
    80000044:	03de9e63          	bne	t4,t4,80000080 <fail>

0000000080000048 <test_4>:
    80000048:	00100593          	li	a1,1
    8000004c:	20b6b72f          	amoxor.d	a4,a1,(a3)
    80000050:	80000eb7          	lui	t4,0x80000
    80000054:	800e8e9b          	addiw	t4,t4,-2048
    80000058:	00400193          	li	gp,4
    8000005c:	03de9263          	bne	t4,t4,80000080 <fail>

0000000080000060 <test_5>:
    80000060:	0006b783          	ld	a5,0(a3)
    80000064:	80000eb7          	lui	t4,0x80000
    80000068:	801e8e9b          	addiw	t4,t4,-2047
    8000006c:	00500193          	li	gp,5
    80000070:	01de9863          	bne	t4,t4,80000080 <fail>
    80000074:	ffff8f93          	addi	t6,t6,-1
    80000078:	f80f9ce3          	bnez	t6,80000010 <LOOP>
    8000007c:	00301a63          	bne	zero,gp,80000090 <pass>

0000000080000080 <fail>:
    80000080:	0ff0000f          	fence
    80000084:	00018513          	mv	a0,gp
    80000088:	05d00893          	li	a7,93
    8000008c:	00000073          	ecall

0000000080000090 <pass>:
    80000090:	0ff0000f          	fence
    80000094:	00000513          	li	a0,0
    80000098:	05d00893          	li	a7,93
    8000009c:	00000073          	ecall
	...
