
isa-200-v2/rv64um-ps-mul-200.riscv:     file format elf64-littleriscv


Disassembly of section .text.init:

0000000080000000 <_start>:
    80000000:	00000297          	auipc	t0,0x0
    80000004:	00c28293          	addi	t0,t0,12 # 8000000c <_start+0xc>
    80000008:	00028067          	jr	t0
    8000000c:	0c800f93          	li	t6,200

0000000080000010 <LOOP>:
    80000010:	000080b7          	lui	ra,0x8
    80000014:	e000809b          	addiw	ra,ra,-512
    80000018:	06db7137          	lui	sp,0x6db7
    8000001c:	db71011b          	addiw	sp,sp,-585
    80000020:	00c11113          	slli	sp,sp,0xc
    80000024:	db710113          	addi	sp,sp,-585 # 6db6db7 <_start-0x79249249>
    80000028:	00c11113          	slli	sp,sp,0xc
    8000002c:	db710113          	addi	sp,sp,-585
    80000030:	00c11113          	slli	sp,sp,0xc
    80000034:	db710113          	addi	sp,sp,-585
    80000038:	02208f33          	mul	t5,ra,sp
    8000003c:	00001eb7          	lui	t4,0x1
    80000040:	200e8e9b          	addiw	t4,t4,512
    80000044:	02000193          	li	gp,32
    80000048:	49de9e63          	bne	t4,t4,800004e4 <fail>

000000008000004c <test_33>:
    8000004c:	000080b7          	lui	ra,0x8
    80000050:	fc00809b          	addiw	ra,ra,-64
    80000054:	06db7137          	lui	sp,0x6db7
    80000058:	db71011b          	addiw	sp,sp,-585
    8000005c:	00c11113          	slli	sp,sp,0xc
    80000060:	db710113          	addi	sp,sp,-585 # 6db6db7 <_start-0x79249249>
    80000064:	00c11113          	slli	sp,sp,0xc
    80000068:	db710113          	addi	sp,sp,-585
    8000006c:	00c11113          	slli	sp,sp,0xc
    80000070:	db710113          	addi	sp,sp,-585
    80000074:	02208f33          	mul	t5,ra,sp
    80000078:	00001eb7          	lui	t4,0x1
    8000007c:	240e8e9b          	addiw	t4,t4,576
    80000080:	02100193          	li	gp,33
    80000084:	47de9063          	bne	t4,t4,800004e4 <fail>

0000000080000088 <test_2>:
    80000088:	00000093          	li	ra,0
    8000008c:	00000113          	li	sp,0
    80000090:	02208f33          	mul	t5,ra,sp
    80000094:	00000e93          	li	t4,0
    80000098:	00200193          	li	gp,2
    8000009c:	45de9463          	bne	t4,t4,800004e4 <fail>

00000000800000a0 <test_3>:
    800000a0:	00100093          	li	ra,1
    800000a4:	00100113          	li	sp,1
    800000a8:	02208f33          	mul	t5,ra,sp
    800000ac:	00100e93          	li	t4,1
    800000b0:	00300193          	li	gp,3
    800000b4:	43de9863          	bne	t4,t4,800004e4 <fail>

00000000800000b8 <test_4>:
    800000b8:	00300093          	li	ra,3
    800000bc:	00700113          	li	sp,7
    800000c0:	02208f33          	mul	t5,ra,sp
    800000c4:	01500e93          	li	t4,21
    800000c8:	00400193          	li	gp,4
    800000cc:	41de9c63          	bne	t4,t4,800004e4 <fail>

00000000800000d0 <test_5>:
    800000d0:	00000093          	li	ra,0
    800000d4:	ffff8137          	lui	sp,0xffff8
    800000d8:	02208f33          	mul	t5,ra,sp
    800000dc:	00000e93          	li	t4,0
    800000e0:	00500193          	li	gp,5
    800000e4:	41de9063          	bne	t4,t4,800004e4 <fail>

00000000800000e8 <test_6>:
    800000e8:	800000b7          	lui	ra,0x80000
    800000ec:	00000113          	li	sp,0
    800000f0:	02208f33          	mul	t5,ra,sp
    800000f4:	00000e93          	li	t4,0
    800000f8:	00600193          	li	gp,6
    800000fc:	3fde9463          	bne	t4,t4,800004e4 <fail>

0000000080000100 <test_7>:
    80000100:	800000b7          	lui	ra,0x80000
    80000104:	ffff8137          	lui	sp,0xffff8
    80000108:	02208f33          	mul	t5,ra,sp
    8000010c:	00100e9b          	addiw	t4,zero,1
    80000110:	02ee9e93          	slli	t4,t4,0x2e
    80000114:	00700193          	li	gp,7
    80000118:	3dde9663          	bne	t4,t4,800004e4 <fail>

000000008000011c <test_30>:
    8000011c:	faaab0b7          	lui	ra,0xfaaab
    80000120:	aab0809b          	addiw	ra,ra,-1365
    80000124:	00c09093          	slli	ra,ra,0xc
    80000128:	aab08093          	addi	ra,ra,-1365 # fffffffffaaaaaab <_end+0xffffffff7aaa8aab>
    8000012c:	00c09093          	slli	ra,ra,0xc
    80000130:	aab08093          	addi	ra,ra,-1365
    80000134:	00c09093          	slli	ra,ra,0xc
    80000138:	aab08093          	addi	ra,ra,-1365
    8000013c:	00030137          	lui	sp,0x30
    80000140:	e7d1011b          	addiw	sp,sp,-387
    80000144:	02208f33          	mul	t5,ra,sp
    80000148:	00010eb7          	lui	t4,0x10
    8000014c:	f7fe8e9b          	addiw	t4,t4,-129
    80000150:	01e00193          	li	gp,30
    80000154:	39de9863          	bne	t4,t4,800004e4 <fail>

0000000080000158 <test_31>:
    80000158:	000300b7          	lui	ra,0x30
    8000015c:	e7d0809b          	addiw	ra,ra,-387
    80000160:	faaab137          	lui	sp,0xfaaab
    80000164:	aab1011b          	addiw	sp,sp,-1365
    80000168:	00c11113          	slli	sp,sp,0xc
    8000016c:	aab10113          	addi	sp,sp,-1365 # fffffffffaaaaaab <_end+0xffffffff7aaa8aab>
    80000170:	00c11113          	slli	sp,sp,0xc
    80000174:	aab10113          	addi	sp,sp,-1365
    80000178:	00c11113          	slli	sp,sp,0xc
    8000017c:	aab10113          	addi	sp,sp,-1365
    80000180:	02208f33          	mul	t5,ra,sp
    80000184:	00010eb7          	lui	t4,0x10
    80000188:	f7fe8e9b          	addiw	t4,t4,-129
    8000018c:	01f00193          	li	gp,31
    80000190:	35de9a63          	bne	t4,t4,800004e4 <fail>

0000000080000194 <test_8>:
    80000194:	00d00093          	li	ra,13
    80000198:	00b00113          	li	sp,11
    8000019c:	022080b3          	mul	ra,ra,sp
    800001a0:	08f00e93          	li	t4,143
    800001a4:	00800193          	li	gp,8
    800001a8:	33de9e63          	bne	t4,t4,800004e4 <fail>

00000000800001ac <test_9>:
    800001ac:	00e00093          	li	ra,14
    800001b0:	00b00113          	li	sp,11
    800001b4:	02208133          	mul	sp,ra,sp
    800001b8:	09a00e93          	li	t4,154
    800001bc:	00900193          	li	gp,9
    800001c0:	33de9263          	bne	t4,t4,800004e4 <fail>

00000000800001c4 <test_10>:
    800001c4:	00d00093          	li	ra,13
    800001c8:	021080b3          	mul	ra,ra,ra
    800001cc:	0a900e93          	li	t4,169
    800001d0:	00a00193          	li	gp,10
    800001d4:	31de9863          	bne	t4,t4,800004e4 <fail>

00000000800001d8 <test_11>:
    800001d8:	00000213          	li	tp,0
    800001dc:	00d00093          	li	ra,13
    800001e0:	00b00113          	li	sp,11
    800001e4:	02208f33          	mul	t5,ra,sp
    800001e8:	000f0313          	mv	t1,t5
    800001ec:	00120213          	addi	tp,tp,1 # 1 <_start-0x7fffffff>
    800001f0:	00200293          	li	t0,2
    800001f4:	fe5214e3          	bne	tp,t0,800001dc <test_11+0x4>
    800001f8:	08f00e93          	li	t4,143
    800001fc:	00b00193          	li	gp,11
    80000200:	2fde9263          	bne	t4,t4,800004e4 <fail>

0000000080000204 <test_12>:
    80000204:	00000213          	li	tp,0
    80000208:	00e00093          	li	ra,14
    8000020c:	00b00113          	li	sp,11
    80000210:	02208f33          	mul	t5,ra,sp
    80000214:	00000013          	nop
    80000218:	000f0313          	mv	t1,t5
    8000021c:	00120213          	addi	tp,tp,1 # 1 <_start-0x7fffffff>
    80000220:	00200293          	li	t0,2
    80000224:	fe5212e3          	bne	tp,t0,80000208 <test_12+0x4>
    80000228:	09a00e93          	li	t4,154
    8000022c:	00c00193          	li	gp,12
    80000230:	2bde9a63          	bne	t4,t4,800004e4 <fail>

0000000080000234 <test_13>:
    80000234:	00000213          	li	tp,0
    80000238:	00f00093          	li	ra,15
    8000023c:	00b00113          	li	sp,11
    80000240:	02208f33          	mul	t5,ra,sp
    80000244:	00000013          	nop
    80000248:	00000013          	nop
    8000024c:	000f0313          	mv	t1,t5
    80000250:	00120213          	addi	tp,tp,1 # 1 <_start-0x7fffffff>
    80000254:	00200293          	li	t0,2
    80000258:	fe5210e3          	bne	tp,t0,80000238 <test_13+0x4>
    8000025c:	0a500e93          	li	t4,165
    80000260:	00d00193          	li	gp,13
    80000264:	29de9063          	bne	t4,t4,800004e4 <fail>

0000000080000268 <test_14>:
    80000268:	00000213          	li	tp,0
    8000026c:	00d00093          	li	ra,13
    80000270:	00b00113          	li	sp,11
    80000274:	02208f33          	mul	t5,ra,sp
    80000278:	00120213          	addi	tp,tp,1 # 1 <_start-0x7fffffff>
    8000027c:	00200293          	li	t0,2
    80000280:	fe5216e3          	bne	tp,t0,8000026c <test_14+0x4>
    80000284:	08f00e93          	li	t4,143
    80000288:	00e00193          	li	gp,14
    8000028c:	25de9c63          	bne	t4,t4,800004e4 <fail>

0000000080000290 <test_15>:
    80000290:	00000213          	li	tp,0
    80000294:	00e00093          	li	ra,14
    80000298:	00b00113          	li	sp,11
    8000029c:	00000013          	nop
    800002a0:	02208f33          	mul	t5,ra,sp
    800002a4:	00120213          	addi	tp,tp,1 # 1 <_start-0x7fffffff>
    800002a8:	00200293          	li	t0,2
    800002ac:	fe5214e3          	bne	tp,t0,80000294 <test_15+0x4>
    800002b0:	09a00e93          	li	t4,154
    800002b4:	00f00193          	li	gp,15
    800002b8:	23de9663          	bne	t4,t4,800004e4 <fail>

00000000800002bc <test_16>:
    800002bc:	00000213          	li	tp,0
    800002c0:	00f00093          	li	ra,15
    800002c4:	00b00113          	li	sp,11
    800002c8:	00000013          	nop
    800002cc:	00000013          	nop
    800002d0:	02208f33          	mul	t5,ra,sp
    800002d4:	00120213          	addi	tp,tp,1 # 1 <_start-0x7fffffff>
    800002d8:	00200293          	li	t0,2
    800002dc:	fe5212e3          	bne	tp,t0,800002c0 <test_16+0x4>
    800002e0:	0a500e93          	li	t4,165
    800002e4:	01000193          	li	gp,16
    800002e8:	1fde9e63          	bne	t4,t4,800004e4 <fail>

00000000800002ec <test_17>:
    800002ec:	00000213          	li	tp,0
    800002f0:	00d00093          	li	ra,13
    800002f4:	00000013          	nop
    800002f8:	00b00113          	li	sp,11
    800002fc:	02208f33          	mul	t5,ra,sp
    80000300:	00120213          	addi	tp,tp,1 # 1 <_start-0x7fffffff>
    80000304:	00200293          	li	t0,2
    80000308:	fe5214e3          	bne	tp,t0,800002f0 <test_17+0x4>
    8000030c:	08f00e93          	li	t4,143
    80000310:	01100193          	li	gp,17
    80000314:	1dde9863          	bne	t4,t4,800004e4 <fail>

0000000080000318 <test_18>:
    80000318:	00000213          	li	tp,0
    8000031c:	00e00093          	li	ra,14
    80000320:	00000013          	nop
    80000324:	00b00113          	li	sp,11
    80000328:	00000013          	nop
    8000032c:	02208f33          	mul	t5,ra,sp
    80000330:	00120213          	addi	tp,tp,1 # 1 <_start-0x7fffffff>
    80000334:	00200293          	li	t0,2
    80000338:	fe5212e3          	bne	tp,t0,8000031c <test_18+0x4>
    8000033c:	09a00e93          	li	t4,154
    80000340:	01200193          	li	gp,18
    80000344:	1bde9063          	bne	t4,t4,800004e4 <fail>

0000000080000348 <test_19>:
    80000348:	00000213          	li	tp,0
    8000034c:	00f00093          	li	ra,15
    80000350:	00000013          	nop
    80000354:	00000013          	nop
    80000358:	00b00113          	li	sp,11
    8000035c:	02208f33          	mul	t5,ra,sp
    80000360:	00120213          	addi	tp,tp,1 # 1 <_start-0x7fffffff>
    80000364:	00200293          	li	t0,2
    80000368:	fe5212e3          	bne	tp,t0,8000034c <test_19+0x4>
    8000036c:	0a500e93          	li	t4,165
    80000370:	01300193          	li	gp,19
    80000374:	17de9863          	bne	t4,t4,800004e4 <fail>

0000000080000378 <test_20>:
    80000378:	00000213          	li	tp,0
    8000037c:	00b00113          	li	sp,11
    80000380:	00d00093          	li	ra,13
    80000384:	02208f33          	mul	t5,ra,sp
    80000388:	00120213          	addi	tp,tp,1 # 1 <_start-0x7fffffff>
    8000038c:	00200293          	li	t0,2
    80000390:	fe5216e3          	bne	tp,t0,8000037c <test_20+0x4>
    80000394:	08f00e93          	li	t4,143
    80000398:	01400193          	li	gp,20
    8000039c:	15de9463          	bne	t4,t4,800004e4 <fail>

00000000800003a0 <test_21>:
    800003a0:	00000213          	li	tp,0
    800003a4:	00b00113          	li	sp,11
    800003a8:	00e00093          	li	ra,14
    800003ac:	00000013          	nop
    800003b0:	02208f33          	mul	t5,ra,sp
    800003b4:	00120213          	addi	tp,tp,1 # 1 <_start-0x7fffffff>
    800003b8:	00200293          	li	t0,2
    800003bc:	fe5214e3          	bne	tp,t0,800003a4 <test_21+0x4>
    800003c0:	09a00e93          	li	t4,154
    800003c4:	01500193          	li	gp,21
    800003c8:	11de9e63          	bne	t4,t4,800004e4 <fail>

00000000800003cc <test_22>:
    800003cc:	00000213          	li	tp,0
    800003d0:	00b00113          	li	sp,11
    800003d4:	00f00093          	li	ra,15
    800003d8:	00000013          	nop
    800003dc:	00000013          	nop
    800003e0:	02208f33          	mul	t5,ra,sp
    800003e4:	00120213          	addi	tp,tp,1 # 1 <_start-0x7fffffff>
    800003e8:	00200293          	li	t0,2
    800003ec:	fe5212e3          	bne	tp,t0,800003d0 <test_22+0x4>
    800003f0:	0a500e93          	li	t4,165
    800003f4:	01600193          	li	gp,22
    800003f8:	0fde9663          	bne	t4,t4,800004e4 <fail>

00000000800003fc <test_23>:
    800003fc:	00000213          	li	tp,0
    80000400:	00b00113          	li	sp,11
    80000404:	00000013          	nop
    80000408:	00d00093          	li	ra,13
    8000040c:	02208f33          	mul	t5,ra,sp
    80000410:	00120213          	addi	tp,tp,1 # 1 <_start-0x7fffffff>
    80000414:	00200293          	li	t0,2
    80000418:	fe5214e3          	bne	tp,t0,80000400 <test_23+0x4>
    8000041c:	08f00e93          	li	t4,143
    80000420:	01700193          	li	gp,23
    80000424:	0dde9063          	bne	t4,t4,800004e4 <fail>

0000000080000428 <test_24>:
    80000428:	00000213          	li	tp,0
    8000042c:	00b00113          	li	sp,11
    80000430:	00000013          	nop
    80000434:	00e00093          	li	ra,14
    80000438:	00000013          	nop
    8000043c:	02208f33          	mul	t5,ra,sp
    80000440:	00120213          	addi	tp,tp,1 # 1 <_start-0x7fffffff>
    80000444:	00200293          	li	t0,2
    80000448:	fe5212e3          	bne	tp,t0,8000042c <test_24+0x4>
    8000044c:	09a00e93          	li	t4,154
    80000450:	01800193          	li	gp,24
    80000454:	09de9863          	bne	t4,t4,800004e4 <fail>

0000000080000458 <test_25>:
    80000458:	00000213          	li	tp,0
    8000045c:	00b00113          	li	sp,11
    80000460:	00000013          	nop
    80000464:	00000013          	nop
    80000468:	00f00093          	li	ra,15
    8000046c:	02208f33          	mul	t5,ra,sp
    80000470:	00120213          	addi	tp,tp,1 # 1 <_start-0x7fffffff>
    80000474:	00200293          	li	t0,2
    80000478:	fe5212e3          	bne	tp,t0,8000045c <test_25+0x4>
    8000047c:	0a500e93          	li	t4,165
    80000480:	01900193          	li	gp,25
    80000484:	07de9063          	bne	t4,t4,800004e4 <fail>

0000000080000488 <test_26>:
    80000488:	01f00093          	li	ra,31
    8000048c:	02100133          	mul	sp,zero,ra
    80000490:	00000e93          	li	t4,0
    80000494:	01a00193          	li	gp,26
    80000498:	05de9663          	bne	t4,t4,800004e4 <fail>

000000008000049c <test_27>:
    8000049c:	02000093          	li	ra,32
    800004a0:	02008133          	mul	sp,ra,zero
    800004a4:	00000e93          	li	t4,0
    800004a8:	01b00193          	li	gp,27
    800004ac:	03de9c63          	bne	t4,t4,800004e4 <fail>

00000000800004b0 <test_28>:
    800004b0:	020000b3          	mul	ra,zero,zero
    800004b4:	00000e93          	li	t4,0
    800004b8:	01c00193          	li	gp,28
    800004bc:	03de9463          	bne	t4,t4,800004e4 <fail>

00000000800004c0 <test_29>:
    800004c0:	02100093          	li	ra,33
    800004c4:	02200113          	li	sp,34
    800004c8:	02208033          	mul	zero,ra,sp
    800004cc:	00000e93          	li	t4,0
    800004d0:	01d00193          	li	gp,29
    800004d4:	01de9863          	bne	t4,t4,800004e4 <fail>
    800004d8:	ffff8f93          	addi	t6,t6,-1
    800004dc:	b20f9ae3          	bnez	t6,80000010 <LOOP>
    800004e0:	00301a63          	bne	zero,gp,800004f4 <pass>

00000000800004e4 <fail>:
    800004e4:	0ff0000f          	fence
    800004e8:	00018513          	mv	a0,gp
    800004ec:	05d00893          	li	a7,93
    800004f0:	00000073          	ecall

00000000800004f4 <pass>:
    800004f4:	0ff0000f          	fence
    800004f8:	00000513          	li	a0,0
    800004fc:	05d00893          	li	a7,93
    80000500:	00000073          	ecall
