
isa-200-v2/rv64ui-ps-addi-200.riscv:     file format elf64-littleriscv


Disassembly of section .text.init:

0000000080000000 <_start>:
    80000000:	00000297          	auipc	t0,0x0
    80000004:	00c28293          	addi	t0,t0,12 # 8000000c <_start+0xc>
    80000008:	00028067          	jr	t0
    8000000c:	0c800f93          	li	t6,200

0000000080000010 <LOOP>:
    80000010:	00000093          	li	ra,0
    80000014:	00008f13          	mv	t5,ra
    80000018:	00000e93          	li	t4,0
    8000001c:	00200193          	li	gp,2
    80000020:	29de9663          	bne	t4,t4,800002ac <fail>

0000000080000024 <test_3>:
    80000024:	00100093          	li	ra,1
    80000028:	00108f13          	addi	t5,ra,1
    8000002c:	00200e93          	li	t4,2
    80000030:	00300193          	li	gp,3
    80000034:	27de9c63          	bne	t4,t4,800002ac <fail>

0000000080000038 <test_4>:
    80000038:	00300093          	li	ra,3
    8000003c:	00708f13          	addi	t5,ra,7
    80000040:	00a00e93          	li	t4,10
    80000044:	00400193          	li	gp,4
    80000048:	27de9263          	bne	t4,t4,800002ac <fail>

000000008000004c <test_5>:
    8000004c:	00000093          	li	ra,0
    80000050:	80008f13          	addi	t5,ra,-2048
    80000054:	80000e93          	li	t4,-2048
    80000058:	00500193          	li	gp,5
    8000005c:	25de9863          	bne	t4,t4,800002ac <fail>

0000000080000060 <test_6>:
    80000060:	800000b7          	lui	ra,0x80000
    80000064:	00008f13          	mv	t5,ra
    80000068:	80000eb7          	lui	t4,0x80000
    8000006c:	00600193          	li	gp,6
    80000070:	23de9e63          	bne	t4,t4,800002ac <fail>

0000000080000074 <test_7>:
    80000074:	800000b7          	lui	ra,0x80000
    80000078:	80008f13          	addi	t5,ra,-2048 # ffffffff7ffff800 <_end+0xfffffffeffffd800>
    8000007c:	fff00e9b          	addiw	t4,zero,-1
    80000080:	01fe9e93          	slli	t4,t4,0x1f
    80000084:	800e8e93          	addi	t4,t4,-2048 # ffffffff7ffff800 <_end+0xfffffffeffffd800>
    80000088:	00700193          	li	gp,7
    8000008c:	23de9063          	bne	t4,t4,800002ac <fail>

0000000080000090 <test_8>:
    80000090:	00000093          	li	ra,0
    80000094:	7ff08f13          	addi	t5,ra,2047
    80000098:	7ff00e93          	li	t4,2047
    8000009c:	00800193          	li	gp,8
    800000a0:	21de9663          	bne	t4,t4,800002ac <fail>

00000000800000a4 <test_9>:
    800000a4:	800000b7          	lui	ra,0x80000
    800000a8:	fff0809b          	addiw	ra,ra,-1
    800000ac:	00008f13          	mv	t5,ra
    800000b0:	80000eb7          	lui	t4,0x80000
    800000b4:	fffe8e9b          	addiw	t4,t4,-1
    800000b8:	00900193          	li	gp,9
    800000bc:	1fde9863          	bne	t4,t4,800002ac <fail>

00000000800000c0 <test_10>:
    800000c0:	800000b7          	lui	ra,0x80000
    800000c4:	fff0809b          	addiw	ra,ra,-1
    800000c8:	7ff08f13          	addi	t5,ra,2047 # ffffffff800007ff <_end+0xfffffffeffffe7ff>
    800000cc:	00100e9b          	addiw	t4,zero,1
    800000d0:	01fe9e93          	slli	t4,t4,0x1f
    800000d4:	7fee8e93          	addi	t4,t4,2046 # ffffffff800007fe <_end+0xfffffffeffffe7fe>
    800000d8:	00a00193          	li	gp,10
    800000dc:	1dde9863          	bne	t4,t4,800002ac <fail>

00000000800000e0 <test_11>:
    800000e0:	800000b7          	lui	ra,0x80000
    800000e4:	7ff08f13          	addi	t5,ra,2047 # ffffffff800007ff <_end+0xfffffffeffffe7ff>
    800000e8:	80000eb7          	lui	t4,0x80000
    800000ec:	7ffe8e9b          	addiw	t4,t4,2047
    800000f0:	00b00193          	li	gp,11
    800000f4:	1bde9c63          	bne	t4,t4,800002ac <fail>

00000000800000f8 <test_12>:
    800000f8:	800000b7          	lui	ra,0x80000
    800000fc:	fff0809b          	addiw	ra,ra,-1
    80000100:	80008f13          	addi	t5,ra,-2048 # ffffffff7ffff800 <_end+0xfffffffeffffd800>
    80000104:	7ffffeb7          	lui	t4,0x7ffff
    80000108:	7ffe8e9b          	addiw	t4,t4,2047
    8000010c:	00c00193          	li	gp,12
    80000110:	19de9e63          	bne	t4,t4,800002ac <fail>

0000000080000114 <test_13>:
    80000114:	00000093          	li	ra,0
    80000118:	fff08f13          	addi	t5,ra,-1
    8000011c:	fff00e93          	li	t4,-1
    80000120:	00d00193          	li	gp,13
    80000124:	19de9463          	bne	t4,t4,800002ac <fail>

0000000080000128 <test_14>:
    80000128:	fff00093          	li	ra,-1
    8000012c:	00108f13          	addi	t5,ra,1
    80000130:	00000e93          	li	t4,0
    80000134:	00e00193          	li	gp,14
    80000138:	17de9a63          	bne	t4,t4,800002ac <fail>

000000008000013c <test_15>:
    8000013c:	fff00093          	li	ra,-1
    80000140:	fff08f13          	addi	t5,ra,-1
    80000144:	ffe00e93          	li	t4,-2
    80000148:	00f00193          	li	gp,15
    8000014c:	17de9063          	bne	t4,t4,800002ac <fail>

0000000080000150 <test_16>:
    80000150:	800000b7          	lui	ra,0x80000
    80000154:	fff0809b          	addiw	ra,ra,-1
    80000158:	00108f13          	addi	t5,ra,1 # ffffffff80000001 <_end+0xfffffffeffffe001>
    8000015c:	00100e9b          	addiw	t4,zero,1
    80000160:	01fe9e93          	slli	t4,t4,0x1f
    80000164:	01000193          	li	gp,16
    80000168:	15de9263          	bne	t4,t4,800002ac <fail>

000000008000016c <test_17>:
    8000016c:	00d00093          	li	ra,13
    80000170:	00b08093          	addi	ra,ra,11
    80000174:	01800e93          	li	t4,24
    80000178:	01100193          	li	gp,17
    8000017c:	13de9863          	bne	t4,t4,800002ac <fail>

0000000080000180 <test_18>:
    80000180:	00000213          	li	tp,0
    80000184:	00d00093          	li	ra,13
    80000188:	00b08f13          	addi	t5,ra,11
    8000018c:	000f0313          	mv	t1,t5
    80000190:	00120213          	addi	tp,tp,1 # 1 <_start-0x7fffffff>
    80000194:	00200293          	li	t0,2
    80000198:	fe5216e3          	bne	tp,t0,80000184 <test_18+0x4>
    8000019c:	01800e93          	li	t4,24
    800001a0:	01200193          	li	gp,18
    800001a4:	11de9463          	bne	t4,t4,800002ac <fail>

00000000800001a8 <test_19>:
    800001a8:	00000213          	li	tp,0
    800001ac:	00d00093          	li	ra,13
    800001b0:	00a08f13          	addi	t5,ra,10
    800001b4:	00000013          	nop
    800001b8:	000f0313          	mv	t1,t5
    800001bc:	00120213          	addi	tp,tp,1 # 1 <_start-0x7fffffff>
    800001c0:	00200293          	li	t0,2
    800001c4:	fe5214e3          	bne	tp,t0,800001ac <test_19+0x4>
    800001c8:	01700e93          	li	t4,23
    800001cc:	01300193          	li	gp,19
    800001d0:	0dde9e63          	bne	t4,t4,800002ac <fail>

00000000800001d4 <test_20>:
    800001d4:	00000213          	li	tp,0
    800001d8:	00d00093          	li	ra,13
    800001dc:	00908f13          	addi	t5,ra,9
    800001e0:	00000013          	nop
    800001e4:	00000013          	nop
    800001e8:	000f0313          	mv	t1,t5
    800001ec:	00120213          	addi	tp,tp,1 # 1 <_start-0x7fffffff>
    800001f0:	00200293          	li	t0,2
    800001f4:	fe5212e3          	bne	tp,t0,800001d8 <test_20+0x4>
    800001f8:	01600e93          	li	t4,22
    800001fc:	01400193          	li	gp,20
    80000200:	0bde9663          	bne	t4,t4,800002ac <fail>

0000000080000204 <test_21>:
    80000204:	00000213          	li	tp,0
    80000208:	00d00093          	li	ra,13
    8000020c:	00b08f13          	addi	t5,ra,11
    80000210:	00120213          	addi	tp,tp,1 # 1 <_start-0x7fffffff>
    80000214:	00200293          	li	t0,2
    80000218:	fe5218e3          	bne	tp,t0,80000208 <test_21+0x4>
    8000021c:	01800e93          	li	t4,24
    80000220:	01500193          	li	gp,21
    80000224:	09de9463          	bne	t4,t4,800002ac <fail>

0000000080000228 <test_22>:
    80000228:	00000213          	li	tp,0
    8000022c:	00d00093          	li	ra,13
    80000230:	00000013          	nop
    80000234:	00a08f13          	addi	t5,ra,10
    80000238:	00120213          	addi	tp,tp,1 # 1 <_start-0x7fffffff>
    8000023c:	00200293          	li	t0,2
    80000240:	fe5216e3          	bne	tp,t0,8000022c <test_22+0x4>
    80000244:	01700e93          	li	t4,23
    80000248:	01600193          	li	gp,22
    8000024c:	07de9063          	bne	t4,t4,800002ac <fail>

0000000080000250 <test_23>:
    80000250:	00000213          	li	tp,0
    80000254:	00d00093          	li	ra,13
    80000258:	00000013          	nop
    8000025c:	00000013          	nop
    80000260:	00908f13          	addi	t5,ra,9
    80000264:	00120213          	addi	tp,tp,1 # 1 <_start-0x7fffffff>
    80000268:	00200293          	li	t0,2
    8000026c:	fe5214e3          	bne	tp,t0,80000254 <test_23+0x4>
    80000270:	01600e93          	li	t4,22
    80000274:	01700193          	li	gp,23
    80000278:	03de9a63          	bne	t4,t4,800002ac <fail>

000000008000027c <test_24>:
    8000027c:	02000093          	li	ra,32
    80000280:	02000e93          	li	t4,32
    80000284:	01800193          	li	gp,24
    80000288:	03de9263          	bne	t4,t4,800002ac <fail>

000000008000028c <test_25>:
    8000028c:	02100093          	li	ra,33
    80000290:	03208013          	addi	zero,ra,50
    80000294:	00000e93          	li	t4,0
    80000298:	01900193          	li	gp,25
    8000029c:	01de9863          	bne	t4,t4,800002ac <fail>
    800002a0:	ffff8f93          	addi	t6,t6,-1
    800002a4:	d60f96e3          	bnez	t6,80000010 <LOOP>
    800002a8:	00301a63          	bne	zero,gp,800002bc <pass>

00000000800002ac <fail>:
    800002ac:	0ff0000f          	fence
    800002b0:	00018513          	mv	a0,gp
    800002b4:	05d00893          	li	a7,93
    800002b8:	00000073          	ecall

00000000800002bc <pass>:
    800002bc:	0ff0000f          	fence
    800002c0:	00000513          	li	a0,0
    800002c4:	05d00893          	li	a7,93
    800002c8:	00000073          	ecall
	...
