
isa-200-v2/rv64ui-ps-bne-200.riscv:     file format elf64-littleriscv


Disassembly of section .text.init:

0000000080000000 <_start>:
    80000000:	00000297          	auipc	t0,0x0
    80000004:	00c28293          	addi	t0,t0,12 # 8000000c <_start+0xc>
    80000008:	00028067          	jr	t0
    8000000c:	0c800f93          	li	t6,200

0000000080000010 <LOOP>:
    80000010:	00200193          	li	gp,2
    80000014:	00000093          	li	ra,0
    80000018:	00100113          	li	sp,1
    8000001c:	00209663          	bne	ra,sp,80000028 <LOOP+0x18>
    80000020:	2a319e63          	bne	gp,gp,800002dc <fail>
    80000024:	00301663          	bne	zero,gp,80000030 <test_3>
    80000028:	fe209ee3          	bne	ra,sp,80000024 <LOOP+0x14>
    8000002c:	2a319863          	bne	gp,gp,800002dc <fail>

0000000080000030 <test_3>:
    80000030:	00300193          	li	gp,3
    80000034:	00100093          	li	ra,1
    80000038:	00000113          	li	sp,0
    8000003c:	00209663          	bne	ra,sp,80000048 <test_3+0x18>
    80000040:	28319e63          	bne	gp,gp,800002dc <fail>
    80000044:	00301663          	bne	zero,gp,80000050 <test_4>
    80000048:	fe209ee3          	bne	ra,sp,80000044 <test_3+0x14>
    8000004c:	28319863          	bne	gp,gp,800002dc <fail>

0000000080000050 <test_4>:
    80000050:	00400193          	li	gp,4
    80000054:	fff00093          	li	ra,-1
    80000058:	00100113          	li	sp,1
    8000005c:	00209663          	bne	ra,sp,80000068 <test_4+0x18>
    80000060:	26319e63          	bne	gp,gp,800002dc <fail>
    80000064:	00301663          	bne	zero,gp,80000070 <test_5>
    80000068:	fe209ee3          	bne	ra,sp,80000064 <test_4+0x14>
    8000006c:	26319863          	bne	gp,gp,800002dc <fail>

0000000080000070 <test_5>:
    80000070:	00500193          	li	gp,5
    80000074:	00100093          	li	ra,1
    80000078:	fff00113          	li	sp,-1
    8000007c:	00209663          	bne	ra,sp,80000088 <test_5+0x18>
    80000080:	24319e63          	bne	gp,gp,800002dc <fail>
    80000084:	00301663          	bne	zero,gp,80000090 <test_6>
    80000088:	fe209ee3          	bne	ra,sp,80000084 <test_5+0x14>
    8000008c:	24319863          	bne	gp,gp,800002dc <fail>

0000000080000090 <test_6>:
    80000090:	00600193          	li	gp,6
    80000094:	00000093          	li	ra,0
    80000098:	00000113          	li	sp,0
    8000009c:	00209463          	bne	ra,sp,800000a4 <test_6+0x14>
    800000a0:	00301463          	bne	zero,gp,800000a8 <test_6+0x18>
    800000a4:	22319c63          	bne	gp,gp,800002dc <fail>
    800000a8:	fe209ee3          	bne	ra,sp,800000a4 <test_6+0x14>

00000000800000ac <test_7>:
    800000ac:	00700193          	li	gp,7
    800000b0:	00100093          	li	ra,1
    800000b4:	00100113          	li	sp,1
    800000b8:	00209463          	bne	ra,sp,800000c0 <test_7+0x14>
    800000bc:	00301463          	bne	zero,gp,800000c4 <test_7+0x18>
    800000c0:	20319e63          	bne	gp,gp,800002dc <fail>
    800000c4:	fe209ee3          	bne	ra,sp,800000c0 <test_7+0x14>

00000000800000c8 <test_8>:
    800000c8:	00800193          	li	gp,8
    800000cc:	fff00093          	li	ra,-1
    800000d0:	fff00113          	li	sp,-1
    800000d4:	00209463          	bne	ra,sp,800000dc <test_8+0x14>
    800000d8:	00301463          	bne	zero,gp,800000e0 <test_8+0x18>
    800000dc:	20319063          	bne	gp,gp,800002dc <fail>
    800000e0:	fe209ee3          	bne	ra,sp,800000dc <test_8+0x14>

00000000800000e4 <test_9>:
    800000e4:	00900193          	li	gp,9
    800000e8:	00000213          	li	tp,0
    800000ec:	00000093          	li	ra,0
    800000f0:	00000113          	li	sp,0
    800000f4:	1e211463          	bne	sp,sp,800002dc <fail>
    800000f8:	00120213          	addi	tp,tp,1 # 1 <_start-0x7fffffff>
    800000fc:	00200293          	li	t0,2
    80000100:	fe5216e3          	bne	tp,t0,800000ec <test_9+0x8>

0000000080000104 <test_10>:
    80000104:	00a00193          	li	gp,10
    80000108:	00000213          	li	tp,0
    8000010c:	00000093          	li	ra,0
    80000110:	00000113          	li	sp,0
    80000114:	00000013          	nop
    80000118:	1c211263          	bne	sp,sp,800002dc <fail>
    8000011c:	00120213          	addi	tp,tp,1 # 1 <_start-0x7fffffff>
    80000120:	00200293          	li	t0,2
    80000124:	fe5214e3          	bne	tp,t0,8000010c <test_10+0x8>

0000000080000128 <test_11>:
    80000128:	00b00193          	li	gp,11
    8000012c:	00000213          	li	tp,0
    80000130:	00000093          	li	ra,0
    80000134:	00000113          	li	sp,0
    80000138:	00000013          	nop
    8000013c:	00000013          	nop
    80000140:	18211e63          	bne	sp,sp,800002dc <fail>
    80000144:	00120213          	addi	tp,tp,1 # 1 <_start-0x7fffffff>
    80000148:	00200293          	li	t0,2
    8000014c:	fe5212e3          	bne	tp,t0,80000130 <test_11+0x8>

0000000080000150 <test_12>:
    80000150:	00c00193          	li	gp,12
    80000154:	00000213          	li	tp,0
    80000158:	00000093          	li	ra,0
    8000015c:	00000013          	nop
    80000160:	00000113          	li	sp,0
    80000164:	16211c63          	bne	sp,sp,800002dc <fail>
    80000168:	00120213          	addi	tp,tp,1 # 1 <_start-0x7fffffff>
    8000016c:	00200293          	li	t0,2
    80000170:	fe5214e3          	bne	tp,t0,80000158 <test_12+0x8>

0000000080000174 <test_13>:
    80000174:	00d00193          	li	gp,13
    80000178:	00000213          	li	tp,0
    8000017c:	00000093          	li	ra,0
    80000180:	00000013          	nop
    80000184:	00000113          	li	sp,0
    80000188:	00000013          	nop
    8000018c:	14211863          	bne	sp,sp,800002dc <fail>
    80000190:	00120213          	addi	tp,tp,1 # 1 <_start-0x7fffffff>
    80000194:	00200293          	li	t0,2
    80000198:	fe5212e3          	bne	tp,t0,8000017c <test_13+0x8>

000000008000019c <test_14>:
    8000019c:	00e00193          	li	gp,14
    800001a0:	00000213          	li	tp,0
    800001a4:	00000093          	li	ra,0
    800001a8:	00000013          	nop
    800001ac:	00000013          	nop
    800001b0:	00000113          	li	sp,0
    800001b4:	12211463          	bne	sp,sp,800002dc <fail>
    800001b8:	00120213          	addi	tp,tp,1 # 1 <_start-0x7fffffff>
    800001bc:	00200293          	li	t0,2
    800001c0:	fe5212e3          	bne	tp,t0,800001a4 <test_14+0x8>

00000000800001c4 <test_15>:
    800001c4:	00f00193          	li	gp,15
    800001c8:	00000213          	li	tp,0
    800001cc:	00000093          	li	ra,0
    800001d0:	00000113          	li	sp,0
    800001d4:	10211463          	bne	sp,sp,800002dc <fail>
    800001d8:	00120213          	addi	tp,tp,1 # 1 <_start-0x7fffffff>
    800001dc:	00200293          	li	t0,2
    800001e0:	fe5216e3          	bne	tp,t0,800001cc <test_15+0x8>

00000000800001e4 <test_16>:
    800001e4:	01000193          	li	gp,16
    800001e8:	00000213          	li	tp,0
    800001ec:	00000093          	li	ra,0
    800001f0:	00000113          	li	sp,0
    800001f4:	00000013          	nop
    800001f8:	0e211263          	bne	sp,sp,800002dc <fail>
    800001fc:	00120213          	addi	tp,tp,1 # 1 <_start-0x7fffffff>
    80000200:	00200293          	li	t0,2
    80000204:	fe5214e3          	bne	tp,t0,800001ec <test_16+0x8>

0000000080000208 <test_17>:
    80000208:	01100193          	li	gp,17
    8000020c:	00000213          	li	tp,0
    80000210:	00000093          	li	ra,0
    80000214:	00000113          	li	sp,0
    80000218:	00000013          	nop
    8000021c:	00000013          	nop
    80000220:	0a211e63          	bne	sp,sp,800002dc <fail>
    80000224:	00120213          	addi	tp,tp,1 # 1 <_start-0x7fffffff>
    80000228:	00200293          	li	t0,2
    8000022c:	fe5212e3          	bne	tp,t0,80000210 <test_17+0x8>

0000000080000230 <test_18>:
    80000230:	01200193          	li	gp,18
    80000234:	00000213          	li	tp,0
    80000238:	00000093          	li	ra,0
    8000023c:	00000013          	nop
    80000240:	00000113          	li	sp,0
    80000244:	08211c63          	bne	sp,sp,800002dc <fail>
    80000248:	00120213          	addi	tp,tp,1 # 1 <_start-0x7fffffff>
    8000024c:	00200293          	li	t0,2
    80000250:	fe5214e3          	bne	tp,t0,80000238 <test_18+0x8>

0000000080000254 <test_19>:
    80000254:	01300193          	li	gp,19
    80000258:	00000213          	li	tp,0
    8000025c:	00000093          	li	ra,0
    80000260:	00000013          	nop
    80000264:	00000113          	li	sp,0
    80000268:	00000013          	nop
    8000026c:	06211863          	bne	sp,sp,800002dc <fail>
    80000270:	00120213          	addi	tp,tp,1 # 1 <_start-0x7fffffff>
    80000274:	00200293          	li	t0,2
    80000278:	fe5212e3          	bne	tp,t0,8000025c <test_19+0x8>

000000008000027c <test_20>:
    8000027c:	01400193          	li	gp,20
    80000280:	00000213          	li	tp,0
    80000284:	00000093          	li	ra,0
    80000288:	00000013          	nop
    8000028c:	00000013          	nop
    80000290:	00000113          	li	sp,0
    80000294:	04211463          	bne	sp,sp,800002dc <fail>
    80000298:	00120213          	addi	tp,tp,1 # 1 <_start-0x7fffffff>
    8000029c:	00200293          	li	t0,2
    800002a0:	fe5212e3          	bne	tp,t0,80000284 <test_20+0x8>

00000000800002a4 <test_21>:
    800002a4:	00100093          	li	ra,1
    800002a8:	00009a63          	bnez	ra,800002bc <test_21+0x18>
    800002ac:	00108093          	addi	ra,ra,1
    800002b0:	00108093          	addi	ra,ra,1
    800002b4:	00108093          	addi	ra,ra,1
    800002b8:	00108093          	addi	ra,ra,1
    800002bc:	00108093          	addi	ra,ra,1
    800002c0:	00108093          	addi	ra,ra,1
    800002c4:	00300e93          	li	t4,3
    800002c8:	01500193          	li	gp,21
    800002cc:	01de9863          	bne	t4,t4,800002dc <fail>
    800002d0:	ffff8f93          	addi	t6,t6,-1
    800002d4:	d20f9ee3          	bnez	t6,80000010 <LOOP>
    800002d8:	00301a63          	bne	zero,gp,800002ec <pass>

00000000800002dc <fail>:
    800002dc:	0ff0000f          	fence
    800002e0:	00018513          	mv	a0,gp
    800002e4:	05d00893          	li	a7,93
    800002e8:	00000073          	ecall

00000000800002ec <pass>:
    800002ec:	0ff0000f          	fence
    800002f0:	00000513          	li	a0,0
    800002f4:	05d00893          	li	a7,93
    800002f8:	00000073          	ecall
	...
