
isa-200-v1/rv64ui-ps-slli-200.riscv:     file format elf64-littleriscv


Disassembly of section .text.init:

0000000080000000 <_start>:
    80000000:	00000297          	auipc	t0,0x0
    80000004:	00c28293          	addi	t0,t0,12 # 8000000c <_start+0xc>
    80000008:	00028067          	jr	t0
    8000000c:	0c800f93          	li	t6,200

0000000080000010 <LOOP>:
    80000010:	00100093          	li	ra,1
    80000014:	00009f13          	slli	t5,ra,0x0
    80000018:	00100e93          	li	t4,1
    8000001c:	00200193          	li	gp,2
    80000020:	2fde9e63          	bne	t4,t4,8000031c <fail>

0000000080000024 <test_3>:
    80000024:	00100093          	li	ra,1
    80000028:	00109f13          	slli	t5,ra,0x1
    8000002c:	00200e93          	li	t4,2
    80000030:	00300193          	li	gp,3
    80000034:	2fde9463          	bne	t4,t4,8000031c <fail>

0000000080000038 <test_4>:
    80000038:	00100093          	li	ra,1
    8000003c:	00709f13          	slli	t5,ra,0x7
    80000040:	08000e93          	li	t4,128
    80000044:	00400193          	li	gp,4
    80000048:	2dde9a63          	bne	t4,t4,8000031c <fail>

000000008000004c <test_5>:
    8000004c:	00100093          	li	ra,1
    80000050:	00e09f13          	slli	t5,ra,0xe
    80000054:	00004eb7          	lui	t4,0x4
    80000058:	00500193          	li	gp,5
    8000005c:	2dde9063          	bne	t4,t4,8000031c <fail>

0000000080000060 <test_6>:
    80000060:	00100093          	li	ra,1
    80000064:	01f09f13          	slli	t5,ra,0x1f
    80000068:	00100e9b          	addiw	t4,zero,1
    8000006c:	01fe9e93          	slli	t4,t4,0x1f
    80000070:	00600193          	li	gp,6
    80000074:	2bde9463          	bne	t4,t4,8000031c <fail>

0000000080000078 <test_7>:
    80000078:	fff00093          	li	ra,-1
    8000007c:	00009f13          	slli	t5,ra,0x0
    80000080:	fff00e93          	li	t4,-1
    80000084:	00700193          	li	gp,7
    80000088:	29de9a63          	bne	t4,t4,8000031c <fail>

000000008000008c <test_8>:
    8000008c:	fff00093          	li	ra,-1
    80000090:	00109f13          	slli	t5,ra,0x1
    80000094:	ffe00e93          	li	t4,-2
    80000098:	00800193          	li	gp,8
    8000009c:	29de9063          	bne	t4,t4,8000031c <fail>

00000000800000a0 <test_9>:
    800000a0:	fff00093          	li	ra,-1
    800000a4:	00709f13          	slli	t5,ra,0x7
    800000a8:	f8000e93          	li	t4,-128
    800000ac:	00900193          	li	gp,9
    800000b0:	27de9663          	bne	t4,t4,8000031c <fail>

00000000800000b4 <test_10>:
    800000b4:	fff00093          	li	ra,-1
    800000b8:	00e09f13          	slli	t5,ra,0xe
    800000bc:	ffffceb7          	lui	t4,0xffffc
    800000c0:	00a00193          	li	gp,10
    800000c4:	25de9c63          	bne	t4,t4,8000031c <fail>

00000000800000c8 <test_11>:
    800000c8:	fff00093          	li	ra,-1
    800000cc:	01f09f13          	slli	t5,ra,0x1f
    800000d0:	80000eb7          	lui	t4,0x80000
    800000d4:	00b00193          	li	gp,11
    800000d8:	25de9263          	bne	t4,t4,8000031c <fail>

00000000800000dc <test_12>:
    800000dc:	212120b7          	lui	ra,0x21212
    800000e0:	1210809b          	addiw	ra,ra,289
    800000e4:	00009f13          	slli	t5,ra,0x0
    800000e8:	21212eb7          	lui	t4,0x21212
    800000ec:	121e8e9b          	addiw	t4,t4,289
    800000f0:	00c00193          	li	gp,12
    800000f4:	23de9463          	bne	t4,t4,8000031c <fail>

00000000800000f8 <test_13>:
    800000f8:	212120b7          	lui	ra,0x21212
    800000fc:	1210809b          	addiw	ra,ra,289
    80000100:	00109f13          	slli	t5,ra,0x1
    80000104:	42424eb7          	lui	t4,0x42424
    80000108:	242e8e9b          	addiw	t4,t4,578
    8000010c:	00d00193          	li	gp,13
    80000110:	21de9663          	bne	t4,t4,8000031c <fail>

0000000080000114 <test_14>:
    80000114:	212120b7          	lui	ra,0x21212
    80000118:	1210809b          	addiw	ra,ra,289
    8000011c:	00709f13          	slli	t5,ra,0x7
    80000120:	01091eb7          	lui	t4,0x1091
    80000124:	909e8e9b          	addiw	t4,t4,-1783
    80000128:	00ce9e93          	slli	t4,t4,0xc
    8000012c:	080e8e93          	addi	t4,t4,128 # 1091080 <_start-0x7ef6ef80>
    80000130:	00e00193          	li	gp,14
    80000134:	1fde9463          	bne	t4,t4,8000031c <fail>

0000000080000138 <test_15>:
    80000138:	212120b7          	lui	ra,0x21212
    8000013c:	1210809b          	addiw	ra,ra,289
    80000140:	00e09f13          	slli	t5,ra,0xe
    80000144:	21212eb7          	lui	t4,0x21212
    80000148:	121e8e9b          	addiw	t4,t4,289
    8000014c:	00ee9e93          	slli	t4,t4,0xe
    80000150:	00f00193          	li	gp,15
    80000154:	1dde9463          	bne	t4,t4,8000031c <fail>

0000000080000158 <test_16>:
    80000158:	212120b7          	lui	ra,0x21212
    8000015c:	1210809b          	addiw	ra,ra,289
    80000160:	01f09f13          	slli	t5,ra,0x1f
    80000164:	21212eb7          	lui	t4,0x21212
    80000168:	121e8e9b          	addiw	t4,t4,289
    8000016c:	01fe9e93          	slli	t4,t4,0x1f
    80000170:	01000193          	li	gp,16
    80000174:	1bde9463          	bne	t4,t4,8000031c <fail>

0000000080000178 <test_50>:
    80000178:	00100093          	li	ra,1
    8000017c:	03f00113          	li	sp,63
    80000180:	00209f33          	sll	t5,ra,sp
    80000184:	fff00e9b          	addiw	t4,zero,-1
    80000188:	03fe9e93          	slli	t4,t4,0x3f
    8000018c:	03200193          	li	gp,50
    80000190:	19de9663          	bne	t4,t4,8000031c <fail>

0000000080000194 <test_51>:
    80000194:	fff00093          	li	ra,-1
    80000198:	02700113          	li	sp,39
    8000019c:	00209f33          	sll	t5,ra,sp
    800001a0:	fff00e9b          	addiw	t4,zero,-1
    800001a4:	027e9e93          	slli	t4,t4,0x27
    800001a8:	03300193          	li	gp,51
    800001ac:	17de9863          	bne	t4,t4,8000031c <fail>

00000000800001b0 <test_52>:
    800001b0:	212120b7          	lui	ra,0x21212
    800001b4:	1210809b          	addiw	ra,ra,289
    800001b8:	02b00113          	li	sp,43
    800001bc:	00209f33          	sll	t5,ra,sp
    800001c0:	00012eb7          	lui	t4,0x12
    800001c4:	121e8e9b          	addiw	t4,t4,289
    800001c8:	02be9e93          	slli	t4,t4,0x2b
    800001cc:	03400193          	li	gp,52
    800001d0:	15de9663          	bne	t4,t4,8000031c <fail>

00000000800001d4 <test_17>:
    800001d4:	00100093          	li	ra,1
    800001d8:	00709093          	slli	ra,ra,0x7
    800001dc:	08000e93          	li	t4,128
    800001e0:	01100193          	li	gp,17
    800001e4:	13de9c63          	bne	t4,t4,8000031c <fail>

00000000800001e8 <test_18>:
    800001e8:	00000213          	li	tp,0
    800001ec:	00100093          	li	ra,1
    800001f0:	00709f13          	slli	t5,ra,0x7
    800001f4:	000f0313          	mv	t1,t5
    800001f8:	00120213          	addi	tp,tp,1 # 1 <_start-0x7fffffff>
    800001fc:	00200293          	li	t0,2
    80000200:	fe5216e3          	bne	tp,t0,800001ec <test_18+0x4>
    80000204:	08000e93          	li	t4,128
    80000208:	01200193          	li	gp,18
    8000020c:	11de9863          	bne	t4,t4,8000031c <fail>

0000000080000210 <test_19>:
    80000210:	00000213          	li	tp,0
    80000214:	00100093          	li	ra,1
    80000218:	00e09f13          	slli	t5,ra,0xe
    8000021c:	00000013          	nop
    80000220:	000f0313          	mv	t1,t5
    80000224:	00120213          	addi	tp,tp,1 # 1 <_start-0x7fffffff>
    80000228:	00200293          	li	t0,2
    8000022c:	fe5214e3          	bne	tp,t0,80000214 <test_19+0x4>
    80000230:	00004eb7          	lui	t4,0x4
    80000234:	01300193          	li	gp,19
    80000238:	0fde9263          	bne	t4,t4,8000031c <fail>

000000008000023c <test_20>:
    8000023c:	00000213          	li	tp,0
    80000240:	00100093          	li	ra,1
    80000244:	01f09f13          	slli	t5,ra,0x1f
    80000248:	00000013          	nop
    8000024c:	00000013          	nop
    80000250:	000f0313          	mv	t1,t5
    80000254:	00120213          	addi	tp,tp,1 # 1 <_start-0x7fffffff>
    80000258:	00200293          	li	t0,2
    8000025c:	fe5212e3          	bne	tp,t0,80000240 <test_20+0x4>
    80000260:	00100e9b          	addiw	t4,zero,1
    80000264:	01fe9e93          	slli	t4,t4,0x1f
    80000268:	01400193          	li	gp,20
    8000026c:	0bde9863          	bne	t4,t4,8000031c <fail>

0000000080000270 <test_21>:
    80000270:	00000213          	li	tp,0
    80000274:	00100093          	li	ra,1
    80000278:	00709f13          	slli	t5,ra,0x7
    8000027c:	00120213          	addi	tp,tp,1 # 1 <_start-0x7fffffff>
    80000280:	00200293          	li	t0,2
    80000284:	fe5218e3          	bne	tp,t0,80000274 <test_21+0x4>
    80000288:	08000e93          	li	t4,128
    8000028c:	01500193          	li	gp,21
    80000290:	09de9663          	bne	t4,t4,8000031c <fail>

0000000080000294 <test_22>:
    80000294:	00000213          	li	tp,0
    80000298:	00100093          	li	ra,1
    8000029c:	00000013          	nop
    800002a0:	00e09f13          	slli	t5,ra,0xe
    800002a4:	00120213          	addi	tp,tp,1 # 1 <_start-0x7fffffff>
    800002a8:	00200293          	li	t0,2
    800002ac:	fe5216e3          	bne	tp,t0,80000298 <test_22+0x4>
    800002b0:	00004eb7          	lui	t4,0x4
    800002b4:	01600193          	li	gp,22
    800002b8:	07de9263          	bne	t4,t4,8000031c <fail>

00000000800002bc <test_23>:
    800002bc:	00000213          	li	tp,0
    800002c0:	00100093          	li	ra,1
    800002c4:	00000013          	nop
    800002c8:	00000013          	nop
    800002cc:	01f09f13          	slli	t5,ra,0x1f
    800002d0:	00120213          	addi	tp,tp,1 # 1 <_start-0x7fffffff>
    800002d4:	00200293          	li	t0,2
    800002d8:	fe5214e3          	bne	tp,t0,800002c0 <test_23+0x4>
    800002dc:	00100e9b          	addiw	t4,zero,1
    800002e0:	01fe9e93          	slli	t4,t4,0x1f
    800002e4:	01700193          	li	gp,23
    800002e8:	03de9a63          	bne	t4,t4,8000031c <fail>

00000000800002ec <test_24>:
    800002ec:	01f01093          	slli	ra,zero,0x1f
    800002f0:	00000e93          	li	t4,0
    800002f4:	01800193          	li	gp,24
    800002f8:	03de9263          	bne	t4,t4,8000031c <fail>

00000000800002fc <test_25>:
    800002fc:	02100093          	li	ra,33
    80000300:	01409013          	slli	zero,ra,0x14
    80000304:	00000e93          	li	t4,0
    80000308:	01900193          	li	gp,25
    8000030c:	01de9863          	bne	t4,t4,8000031c <fail>
    80000310:	ffff8f93          	addi	t6,t6,-1
    80000314:	ce0f9ee3          	bnez	t6,80000010 <LOOP>
    80000318:	00301a63          	bne	zero,gp,8000032c <pass>

000000008000031c <fail>:
    8000031c:	0ff0000f          	fence
    80000320:	00018513          	mv	a0,gp
    80000324:	05d00893          	li	a7,93
    80000328:	00000073          	ecall

000000008000032c <pass>:
    8000032c:	0ff0000f          	fence
    80000330:	00000513          	li	a0,0
    80000334:	05d00893          	li	a7,93
    80000338:	00000073          	ecall
	...
