
isa-200-v1/rv64ui-ps-fence-i-200.riscv:     file format elf64-littleriscv


Disassembly of section .text.init:

0000000080000000 <_start>:
    80000000:	00000297          	auipc	t0,0x0
    80000004:	00c28293          	addi	t0,t0,12 # 8000000c <_start+0xc>
    80000008:	00028067          	jr	t0
    8000000c:	0c800f93          	li	t6,200

0000000080000010 <LOOP>:
    80000010:	06f00693          	li	a3,111
    80000014:	00002517          	auipc	a0,0x2
    80000018:	fec51503          	lh	a0,-20(a0) # 80002000 <begin_signature>
    8000001c:	00002597          	auipc	a1,0x2
    80000020:	fe659583          	lh	a1,-26(a1) # 80002002 <begin_signature+0x2>
    80000024:	00000013          	nop
    80000028:	00000013          	nop
    8000002c:	00000013          	nop
    80000030:	00000013          	nop
    80000034:	00000013          	nop
    80000038:	00000013          	nop
    8000003c:	00000013          	nop
    80000040:	00000297          	auipc	t0,0x0
    80000044:	00a29a23          	sh	a0,20(t0) # 80000054 <LOOP+0x44>
    80000048:	00000297          	auipc	t0,0x0
    8000004c:	00b29723          	sh	a1,14(t0) # 80000056 <LOOP+0x46>
    80000050:	0000100f          	fence.i
    80000054:	0de68693          	addi	a3,a3,222

0000000080000058 <test_2>:
    80000058:	00000013          	nop
    8000005c:	1bc00e93          	li	t4,444
    80000060:	00200193          	li	gp,2
    80000064:	07de9e63          	bne	t4,t4,800000e0 <fail>
    80000068:	06400713          	li	a4,100
    8000006c:	fff70713          	addi	a4,a4,-1
    80000070:	fe071ee3          	bnez	a4,8000006c <test_2+0x14>
    80000074:	00000297          	auipc	t0,0x0
    80000078:	04a29623          	sh	a0,76(t0) # 800000c0 <test_2+0x68>
    8000007c:	00000297          	auipc	t0,0x0
    80000080:	04b29323          	sh	a1,70(t0) # 800000c2 <test_2+0x6a>
    80000084:	0000100f          	fence.i
    80000088:	00000013          	nop
    8000008c:	00000013          	nop
    80000090:	00000013          	nop
    80000094:	00000013          	nop
    80000098:	00000013          	nop
    8000009c:	00000013          	nop
    800000a0:	00000013          	nop
    800000a4:	00000013          	nop
    800000a8:	00000013          	nop
    800000ac:	00000013          	nop
    800000b0:	00000013          	nop
    800000b4:	00000013          	nop
    800000b8:	00000013          	nop
    800000bc:	00000013          	nop
    800000c0:	22b68693          	addi	a3,a3,555

00000000800000c4 <test_3>:
    800000c4:	00000013          	nop
    800000c8:	30900e93          	li	t4,777
    800000cc:	00300193          	li	gp,3
    800000d0:	01de9863          	bne	t4,t4,800000e0 <fail>
    800000d4:	ffff8f93          	addi	t6,t6,-1
    800000d8:	f20f9ce3          	bnez	t6,80000010 <LOOP>
    800000dc:	00301a63          	bne	zero,gp,800000f0 <pass>

00000000800000e0 <fail>:
    800000e0:	0ff0000f          	fence
    800000e4:	00018513          	mv	a0,gp
    800000e8:	05d00893          	li	a7,93
    800000ec:	00000073          	ecall

00000000800000f0 <pass>:
    800000f0:	0ff0000f          	fence
    800000f4:	00000513          	li	a0,0
    800000f8:	05d00893          	li	a7,93
    800000fc:	00000073          	ecall
	...
