
isa-200-v1/rv64ud-ps-structural-200.riscv:     file format elf64-littleriscv


Disassembly of section .text.init:

0000000080000000 <_start>:
    80000000:	00000297          	auipc	t0,0x0
    80000004:	00c28293          	addi	t0,t0,12 # 8000000c <_start+0xc>
    80000008:	00028067          	jr	t0
    8000000c:	0c800f93          	li	t6,200

0000000080000010 <LOOP>:
    80000010:	00100c93          	li	s9,1
    80000014:	3ff0011b          	addiw	sp,zero,1023
    80000018:	03411113          	slli	sp,sp,0x34
    8000001c:	3f8000b7          	lui	ra,0x3f800
    80000020:	f2000253          	fmv.d.x	ft4,zero
    80000024:	f00001d3          	fmv.w.x	ft3,zero
    80000028:	f2010153          	fmv.d.x	ft2,sp
    8000002c:	f00080d3          	fmv.w.x	ft1,ra
    80000030:	0100006f          	j	80000040 <LOOP+0x30>
    80000034:	00000013          	nop
    80000038:	00000013          	nop
    8000003c:	00000013          	nop
    80000040:	12217253          	fmul.d	ft4,ft2,ft2
    80000044:	201081d3          	fmv.s	ft3,ft1
    80000048:	e2020253          	fmv.x.d	tp,ft4
    8000004c:	e00182d3          	fmv.x.w	t0,ft3
    80000050:	00508a63          	beq	ra,t0,80000064 <LOOP+0x54>
    80000054:	0ff0000f          	fence
    80000058:	00018513          	mv	a0,gp
    8000005c:	05d00893          	li	a7,93
    80000060:	00000073          	ecall
    80000064:	00410a63          	beq	sp,tp,80000078 <LOOP+0x68>
    80000068:	0ff0000f          	fence
    8000006c:	00018513          	mv	a0,gp
    80000070:	05d00893          	li	a7,93
    80000074:	00000073          	ecall
    80000078:	f2000153          	fmv.d.x	ft2,zero
    8000007c:	f00000d3          	fmv.w.x	ft1,zero
    80000080:	f2000253          	fmv.d.x	ft4,zero
    80000084:	f00001d3          	fmv.w.x	ft3,zero
    80000088:	f2010153          	fmv.d.x	ft2,sp
    8000008c:	f00080d3          	fmv.w.x	ft1,ra
    80000090:	0100006f          	j	800000a0 <LOOP+0x90>
    80000094:	00000013          	nop
    80000098:	00000013          	nop
    8000009c:	00000013          	nop
    800000a0:	12217253          	fmul.d	ft4,ft2,ft2
    800000a4:	00000013          	nop
    800000a8:	201081d3          	fmv.s	ft3,ft1
    800000ac:	e2020253          	fmv.x.d	tp,ft4
    800000b0:	e00182d3          	fmv.x.w	t0,ft3
    800000b4:	00508a63          	beq	ra,t0,800000c8 <LOOP+0xb8>
    800000b8:	0ff0000f          	fence
    800000bc:	00018513          	mv	a0,gp
    800000c0:	05d00893          	li	a7,93
    800000c4:	00000073          	ecall
    800000c8:	00410a63          	beq	sp,tp,800000dc <LOOP+0xcc>
    800000cc:	0ff0000f          	fence
    800000d0:	00018513          	mv	a0,gp
    800000d4:	05d00893          	li	a7,93
    800000d8:	00000073          	ecall
    800000dc:	f2000153          	fmv.d.x	ft2,zero
    800000e0:	f00000d3          	fmv.w.x	ft1,zero
    800000e4:	f2000253          	fmv.d.x	ft4,zero
    800000e8:	f00001d3          	fmv.w.x	ft3,zero
    800000ec:	f2010153          	fmv.d.x	ft2,sp
    800000f0:	f00080d3          	fmv.w.x	ft1,ra
    800000f4:	00c0006f          	j	80000100 <LOOP+0xf0>
    800000f8:	00000013          	nop
    800000fc:	00000013          	nop
    80000100:	12217253          	fmul.d	ft4,ft2,ft2
    80000104:	00000013          	nop
    80000108:	00000013          	nop
    8000010c:	201081d3          	fmv.s	ft3,ft1
    80000110:	e2020253          	fmv.x.d	tp,ft4
    80000114:	e00182d3          	fmv.x.w	t0,ft3
    80000118:	00508a63          	beq	ra,t0,8000012c <LOOP+0x11c>
    8000011c:	0ff0000f          	fence
    80000120:	00018513          	mv	a0,gp
    80000124:	05d00893          	li	a7,93
    80000128:	00000073          	ecall
    8000012c:	00410a63          	beq	sp,tp,80000140 <LOOP+0x130>
    80000130:	0ff0000f          	fence
    80000134:	00018513          	mv	a0,gp
    80000138:	05d00893          	li	a7,93
    8000013c:	00000073          	ecall
    80000140:	f2000153          	fmv.d.x	ft2,zero
    80000144:	f00000d3          	fmv.w.x	ft1,zero
    80000148:	f2000253          	fmv.d.x	ft4,zero
    8000014c:	f00001d3          	fmv.w.x	ft3,zero
    80000150:	f2010153          	fmv.d.x	ft2,sp
    80000154:	f00080d3          	fmv.w.x	ft1,ra
    80000158:	0080006f          	j	80000160 <LOOP+0x150>
    8000015c:	00000013          	nop
    80000160:	12217253          	fmul.d	ft4,ft2,ft2
    80000164:	00000013          	nop
    80000168:	00000013          	nop
    8000016c:	00000013          	nop
    80000170:	201081d3          	fmv.s	ft3,ft1
    80000174:	e2020253          	fmv.x.d	tp,ft4
    80000178:	e00182d3          	fmv.x.w	t0,ft3
    8000017c:	00508a63          	beq	ra,t0,80000190 <LOOP+0x180>
    80000180:	0ff0000f          	fence
    80000184:	00018513          	mv	a0,gp
    80000188:	05d00893          	li	a7,93
    8000018c:	00000073          	ecall
    80000190:	00410a63          	beq	sp,tp,800001a4 <LOOP+0x194>
    80000194:	0ff0000f          	fence
    80000198:	00018513          	mv	a0,gp
    8000019c:	05d00893          	li	a7,93
    800001a0:	00000073          	ecall
    800001a4:	f2000153          	fmv.d.x	ft2,zero
    800001a8:	f00000d3          	fmv.w.x	ft1,zero
    800001ac:	f2000253          	fmv.d.x	ft4,zero
    800001b0:	f00001d3          	fmv.w.x	ft3,zero
    800001b4:	f2010153          	fmv.d.x	ft2,sp
    800001b8:	f00080d3          	fmv.w.x	ft1,ra
    800001bc:	0040006f          	j	800001c0 <LOOP+0x1b0>
    800001c0:	12217253          	fmul.d	ft4,ft2,ft2
    800001c4:	00000013          	nop
    800001c8:	00000013          	nop
    800001cc:	00000013          	nop
    800001d0:	00000013          	nop
    800001d4:	201081d3          	fmv.s	ft3,ft1
    800001d8:	e2020253          	fmv.x.d	tp,ft4
    800001dc:	e00182d3          	fmv.x.w	t0,ft3
    800001e0:	00508a63          	beq	ra,t0,800001f4 <LOOP+0x1e4>
    800001e4:	0ff0000f          	fence
    800001e8:	00018513          	mv	a0,gp
    800001ec:	05d00893          	li	a7,93
    800001f0:	00000073          	ecall
    800001f4:	00410a63          	beq	sp,tp,80000208 <LOOP+0x1f8>
    800001f8:	0ff0000f          	fence
    800001fc:	00018513          	mv	a0,gp
    80000200:	05d00893          	li	a7,93
    80000204:	00000073          	ecall
    80000208:	f2000153          	fmv.d.x	ft2,zero
    8000020c:	f00000d3          	fmv.w.x	ft1,zero
    80000210:	f2000253          	fmv.d.x	ft4,zero
    80000214:	f00001d3          	fmv.w.x	ft3,zero
    80000218:	f2010153          	fmv.d.x	ft2,sp
    8000021c:	f00080d3          	fmv.w.x	ft1,ra
    80000220:	0200006f          	j	80000240 <LOOP+0x230>
    80000224:	00000013          	nop
    80000228:	00000013          	nop
    8000022c:	00000013          	nop
    80000230:	00000013          	nop
    80000234:	00000013          	nop
    80000238:	00000013          	nop
    8000023c:	00000013          	nop
    80000240:	12217253          	fmul.d	ft4,ft2,ft2
    80000244:	00000013          	nop
    80000248:	00000013          	nop
    8000024c:	00000013          	nop
    80000250:	00000013          	nop
    80000254:	00000013          	nop
    80000258:	201081d3          	fmv.s	ft3,ft1
    8000025c:	e2020253          	fmv.x.d	tp,ft4
    80000260:	e00182d3          	fmv.x.w	t0,ft3
    80000264:	00508a63          	beq	ra,t0,80000278 <LOOP+0x268>
    80000268:	0ff0000f          	fence
    8000026c:	00018513          	mv	a0,gp
    80000270:	05d00893          	li	a7,93
    80000274:	00000073          	ecall
    80000278:	00410a63          	beq	sp,tp,8000028c <LOOP+0x27c>
    8000027c:	0ff0000f          	fence
    80000280:	00018513          	mv	a0,gp
    80000284:	05d00893          	li	a7,93
    80000288:	00000073          	ecall
    8000028c:	f2000153          	fmv.d.x	ft2,zero
    80000290:	f00000d3          	fmv.w.x	ft1,zero
    80000294:	f2000253          	fmv.d.x	ft4,zero
    80000298:	f00001d3          	fmv.w.x	ft3,zero
    8000029c:	f2010153          	fmv.d.x	ft2,sp
    800002a0:	f00080d3          	fmv.w.x	ft1,ra
    800002a4:	01c0006f          	j	800002c0 <LOOP+0x2b0>
    800002a8:	00000013          	nop
    800002ac:	00000013          	nop
    800002b0:	00000013          	nop
    800002b4:	00000013          	nop
    800002b8:	00000013          	nop
    800002bc:	00000013          	nop
    800002c0:	12217253          	fmul.d	ft4,ft2,ft2
    800002c4:	00000013          	nop
    800002c8:	00000013          	nop
    800002cc:	00000013          	nop
    800002d0:	00000013          	nop
    800002d4:	00000013          	nop
    800002d8:	00000013          	nop
    800002dc:	201081d3          	fmv.s	ft3,ft1
    800002e0:	e2020253          	fmv.x.d	tp,ft4
    800002e4:	e00182d3          	fmv.x.w	t0,ft3
    800002e8:	00508a63          	beq	ra,t0,800002fc <LOOP+0x2ec>
    800002ec:	0ff0000f          	fence
    800002f0:	00018513          	mv	a0,gp
    800002f4:	05d00893          	li	a7,93
    800002f8:	00000073          	ecall
    800002fc:	00410a63          	beq	sp,tp,80000310 <LOOP+0x300>
    80000300:	0ff0000f          	fence
    80000304:	00018513          	mv	a0,gp
    80000308:	05d00893          	li	a7,93
    8000030c:	00000073          	ecall
    80000310:	f2000153          	fmv.d.x	ft2,zero
    80000314:	f00000d3          	fmv.w.x	ft1,zero
    80000318:	ffff8f93          	addi	t6,t6,-1
    8000031c:	ce0f9ae3          	bnez	t6,80000010 <LOOP>
    80000320:	0ff0000f          	fence
    80000324:	00000513          	li	a0,0
    80000328:	05d00893          	li	a7,93
    8000032c:	00000073          	ecall
	...
