
isa-200-v1/rv64ud-ps-fadd-200.riscv:     file format elf64-littleriscv


Disassembly of section .text.init:

0000000080000000 <_start>:
    80000000:	00000297          	auipc	t0,0x0
    80000004:	00c28293          	addi	t0,t0,12 # 8000000c <_start+0xc>
    80000008:	00028067          	jr	t0
    8000000c:	0c800f93          	li	t6,200

0000000080000010 <LOOP>:
    80000010:	00200193          	li	gp,2
    80000014:	00002517          	auipc	a0,0x2
    80000018:	fec50513          	addi	a0,a0,-20 # 80002000 <test_2_data>
    8000001c:	00053007          	fld	ft0,0(a0)
    80000020:	00853087          	fld	ft1,8(a0)
    80000024:	01053107          	fld	ft2,16(a0)
    80000028:	01853683          	ld	a3,24(a0)
    8000002c:	021071d3          	fadd.d	ft3,ft0,ft1
    80000030:	e2018553          	fmv.x.d	a0,ft3
    80000034:	001015f3          	fsflags	a1,zero
    80000038:	00000613          	li	a2,0
    8000003c:	1ed69463          	bne	a3,a3,80000224 <fail>
    80000040:	1ec61263          	bne	a2,a2,80000224 <fail>

0000000080000044 <test_3>:
    80000044:	00300193          	li	gp,3
    80000048:	00002517          	auipc	a0,0x2
    8000004c:	fd850513          	addi	a0,a0,-40 # 80002020 <test_3_data>
    80000050:	00053007          	fld	ft0,0(a0)
    80000054:	00853087          	fld	ft1,8(a0)
    80000058:	01053107          	fld	ft2,16(a0)
    8000005c:	01853683          	ld	a3,24(a0)
    80000060:	021071d3          	fadd.d	ft3,ft0,ft1
    80000064:	e2018553          	fmv.x.d	a0,ft3
    80000068:	001015f3          	fsflags	a1,zero
    8000006c:	00000613          	li	a2,0
    80000070:	1ad69a63          	bne	a3,a3,80000224 <fail>
    80000074:	1ac61863          	bne	a2,a2,80000224 <fail>

0000000080000078 <test_4>:
    80000078:	00400193          	li	gp,4
    8000007c:	00002517          	auipc	a0,0x2
    80000080:	fc450513          	addi	a0,a0,-60 # 80002040 <test_4_data>
    80000084:	00053007          	fld	ft0,0(a0)
    80000088:	00853087          	fld	ft1,8(a0)
    8000008c:	01053107          	fld	ft2,16(a0)
    80000090:	01853683          	ld	a3,24(a0)
    80000094:	021071d3          	fadd.d	ft3,ft0,ft1
    80000098:	e2018553          	fmv.x.d	a0,ft3
    8000009c:	001015f3          	fsflags	a1,zero
    800000a0:	00000613          	li	a2,0
    800000a4:	18d69063          	bne	a3,a3,80000224 <fail>
    800000a8:	16c61e63          	bne	a2,a2,80000224 <fail>

00000000800000ac <test_5>:
    800000ac:	00500193          	li	gp,5
    800000b0:	00002517          	auipc	a0,0x2
    800000b4:	fb050513          	addi	a0,a0,-80 # 80002060 <test_5_data>
    800000b8:	00053007          	fld	ft0,0(a0)
    800000bc:	00853087          	fld	ft1,8(a0)
    800000c0:	01053107          	fld	ft2,16(a0)
    800000c4:	01853683          	ld	a3,24(a0)
    800000c8:	0a1071d3          	fsub.d	ft3,ft0,ft1
    800000cc:	e2018553          	fmv.x.d	a0,ft3
    800000d0:	001015f3          	fsflags	a1,zero
    800000d4:	00000613          	li	a2,0
    800000d8:	14d69663          	bne	a3,a3,80000224 <fail>
    800000dc:	14c61463          	bne	a2,a2,80000224 <fail>

00000000800000e0 <test_6>:
    800000e0:	00600193          	li	gp,6
    800000e4:	00002517          	auipc	a0,0x2
    800000e8:	f9c50513          	addi	a0,a0,-100 # 80002080 <test_6_data>
    800000ec:	00053007          	fld	ft0,0(a0)
    800000f0:	00853087          	fld	ft1,8(a0)
    800000f4:	01053107          	fld	ft2,16(a0)
    800000f8:	01853683          	ld	a3,24(a0)
    800000fc:	0a1071d3          	fsub.d	ft3,ft0,ft1
    80000100:	e2018553          	fmv.x.d	a0,ft3
    80000104:	001015f3          	fsflags	a1,zero
    80000108:	00000613          	li	a2,0
    8000010c:	10d69c63          	bne	a3,a3,80000224 <fail>
    80000110:	10c61a63          	bne	a2,a2,80000224 <fail>

0000000080000114 <test_7>:
    80000114:	00700193          	li	gp,7
    80000118:	00002517          	auipc	a0,0x2
    8000011c:	f8850513          	addi	a0,a0,-120 # 800020a0 <test_7_data>
    80000120:	00053007          	fld	ft0,0(a0)
    80000124:	00853087          	fld	ft1,8(a0)
    80000128:	01053107          	fld	ft2,16(a0)
    8000012c:	01853683          	ld	a3,24(a0)
    80000130:	0a1071d3          	fsub.d	ft3,ft0,ft1
    80000134:	e2018553          	fmv.x.d	a0,ft3
    80000138:	001015f3          	fsflags	a1,zero
    8000013c:	00000613          	li	a2,0
    80000140:	0ed69263          	bne	a3,a3,80000224 <fail>
    80000144:	0ec61063          	bne	a2,a2,80000224 <fail>

0000000080000148 <test_8>:
    80000148:	00800193          	li	gp,8
    8000014c:	00002517          	auipc	a0,0x2
    80000150:	f7450513          	addi	a0,a0,-140 # 800020c0 <test_8_data>
    80000154:	00053007          	fld	ft0,0(a0)
    80000158:	00853087          	fld	ft1,8(a0)
    8000015c:	01053107          	fld	ft2,16(a0)
    80000160:	01853683          	ld	a3,24(a0)
    80000164:	121071d3          	fmul.d	ft3,ft0,ft1
    80000168:	e2018553          	fmv.x.d	a0,ft3
    8000016c:	001015f3          	fsflags	a1,zero
    80000170:	00000613          	li	a2,0
    80000174:	0ad69863          	bne	a3,a3,80000224 <fail>
    80000178:	0ac61663          	bne	a2,a2,80000224 <fail>

000000008000017c <test_9>:
    8000017c:	00900193          	li	gp,9
    80000180:	00002517          	auipc	a0,0x2
    80000184:	f6050513          	addi	a0,a0,-160 # 800020e0 <test_9_data>
    80000188:	00053007          	fld	ft0,0(a0)
    8000018c:	00853087          	fld	ft1,8(a0)
    80000190:	01053107          	fld	ft2,16(a0)
    80000194:	01853683          	ld	a3,24(a0)
    80000198:	121071d3          	fmul.d	ft3,ft0,ft1
    8000019c:	e2018553          	fmv.x.d	a0,ft3
    800001a0:	001015f3          	fsflags	a1,zero
    800001a4:	00000613          	li	a2,0
    800001a8:	06d69e63          	bne	a3,a3,80000224 <fail>
    800001ac:	06c61c63          	bne	a2,a2,80000224 <fail>

00000000800001b0 <test_10>:
    800001b0:	00a00193          	li	gp,10
    800001b4:	00002517          	auipc	a0,0x2
    800001b8:	f4c50513          	addi	a0,a0,-180 # 80002100 <test_10_data>
    800001bc:	00053007          	fld	ft0,0(a0)
    800001c0:	00853087          	fld	ft1,8(a0)
    800001c4:	01053107          	fld	ft2,16(a0)
    800001c8:	01853683          	ld	a3,24(a0)
    800001cc:	121071d3          	fmul.d	ft3,ft0,ft1
    800001d0:	e2018553          	fmv.x.d	a0,ft3
    800001d4:	001015f3          	fsflags	a1,zero
    800001d8:	00000613          	li	a2,0
    800001dc:	04d69463          	bne	a3,a3,80000224 <fail>
    800001e0:	04c61263          	bne	a2,a2,80000224 <fail>
    800001e4:	ffff8f93          	addi	t6,t6,-1
    800001e8:	e20f94e3          	bnez	t6,80000010 <LOOP>

00000000800001ec <test_11>:
    800001ec:	00b00193          	li	gp,11
    800001f0:	00002517          	auipc	a0,0x2
    800001f4:	f3050513          	addi	a0,a0,-208 # 80002120 <test_11_data>
    800001f8:	00053007          	fld	ft0,0(a0)
    800001fc:	00853087          	fld	ft1,8(a0)
    80000200:	01053107          	fld	ft2,16(a0)
    80000204:	01853683          	ld	a3,24(a0)
    80000208:	0a1071d3          	fsub.d	ft3,ft0,ft1
    8000020c:	e2018553          	fmv.x.d	a0,ft3
    80000210:	001015f3          	fsflags	a1,zero
    80000214:	00000613          	li	a2,0
    80000218:	00d69663          	bne	a3,a3,80000224 <fail>
    8000021c:	00c61463          	bne	a2,a2,80000224 <fail>
    80000220:	00301a63          	bne	zero,gp,80000234 <pass>

0000000080000224 <fail>:
    80000224:	0ff0000f          	fence
    80000228:	00018513          	mv	a0,gp
    8000022c:	05d00893          	li	a7,93
    80000230:	00000073          	ecall

0000000080000234 <pass>:
    80000234:	0ff0000f          	fence
    80000238:	00000513          	li	a0,0
    8000023c:	05d00893          	li	a7,93
    80000240:	00000073          	ecall
