
supp/add-fp.riscv:     file format elf64-littleriscv


Disassembly of section .text:

00000000000100b0 <_start>:
   100b0:	00011197          	auipc	gp,0x11
   100b4:	f8018193          	addi	gp,gp,-128 # 21030 <__global_pointer$>
   100b8:	84818513          	addi	a0,gp,-1976 # 20878 <__malloc_max_total_mem>
   100bc:	8d818613          	addi	a2,gp,-1832 # 20908 <_end>
   100c0:	40a60633          	sub	a2,a2,a0
   100c4:	00000593          	li	a1,0
   100c8:	2ec000ef          	jal	ra,103b4 <memset>
   100cc:	00000517          	auipc	a0,0x0
   100d0:	1d450513          	addi	a0,a0,468 # 102a0 <__libc_fini_array>
   100d4:	188000ef          	jal	ra,1025c <atexit>
   100d8:	23c000ef          	jal	ra,10314 <__libc_init_array>
   100dc:	00012503          	lw	a0,0(sp)
   100e0:	00810593          	addi	a1,sp,8
   100e4:	00000613          	li	a2,0
   100e8:	0fc000ef          	jal	ra,101e4 <main>
   100ec:	1840006f          	j	10270 <exit>

00000000000100f0 <_fini>:
   100f0:	00008067          	ret

00000000000100f4 <deregister_tm_clones>:
   100f4:	00021537          	lui	a0,0x21
   100f8:	000217b7          	lui	a5,0x21
   100fc:	83050713          	addi	a4,a0,-2000 # 20830 <__TMC_END__>
   10100:	83078793          	addi	a5,a5,-2000 # 20830 <__TMC_END__>
   10104:	00e78c63          	beq	a5,a4,1011c <deregister_tm_clones+0x28>
   10108:	00000337          	lui	t1,0x0
   1010c:	00030313          	mv	t1,t1
   10110:	00030663          	beqz	t1,1011c <deregister_tm_clones+0x28>
   10114:	83050513          	addi	a0,a0,-2000
   10118:	00030067          	jr	t1 # 0 <_start-0x100b0>
   1011c:	00008067          	ret

0000000000010120 <register_tm_clones>:
   10120:	000217b7          	lui	a5,0x21
   10124:	00021537          	lui	a0,0x21
   10128:	83078593          	addi	a1,a5,-2000 # 20830 <__TMC_END__>
   1012c:	83050793          	addi	a5,a0,-2000 # 20830 <__TMC_END__>
   10130:	40f585b3          	sub	a1,a1,a5
   10134:	4035d593          	srai	a1,a1,0x3
   10138:	00200793          	li	a5,2
   1013c:	02f5c5b3          	div	a1,a1,a5
   10140:	00058c63          	beqz	a1,10158 <register_tm_clones+0x38>
   10144:	00000337          	lui	t1,0x0
   10148:	00030313          	mv	t1,t1
   1014c:	00030663          	beqz	t1,10158 <register_tm_clones+0x38>
   10150:	83050513          	addi	a0,a0,-2000
   10154:	00030067          	jr	t1 # 0 <_start-0x100b0>
   10158:	00008067          	ret

000000000001015c <__do_global_dtors_aux>:
   1015c:	8701c703          	lbu	a4,-1936(gp) # 208a0 <completed.5212>
   10160:	04071663          	bnez	a4,101ac <__do_global_dtors_aux+0x50>
   10164:	ff010113          	addi	sp,sp,-16
   10168:	00813023          	sd	s0,0(sp)
   1016c:	00113423          	sd	ra,8(sp)
   10170:	00078413          	mv	s0,a5
   10174:	f81ff0ef          	jal	ra,100f4 <deregister_tm_clones>
   10178:	000007b7          	lui	a5,0x0
   1017c:	00078793          	mv	a5,a5
   10180:	00078a63          	beqz	a5,10194 <__do_global_dtors_aux+0x38>
   10184:	0001f537          	lui	a0,0x1f
   10188:	71850513          	addi	a0,a0,1816 # 1f718 <__EH_FRAME_BEGIN__>
   1018c:	ffff0097          	auipc	ra,0xffff0
   10190:	e74080e7          	jalr	-396(ra) # 0 <_start-0x100b0>
   10194:	00100793          	li	a5,1
   10198:	86f18823          	sb	a5,-1936(gp) # 208a0 <completed.5212>
   1019c:	00813083          	ld	ra,8(sp)
   101a0:	00013403          	ld	s0,0(sp)
   101a4:	01010113          	addi	sp,sp,16
   101a8:	00008067          	ret
   101ac:	00008067          	ret

00000000000101b0 <frame_dummy>:
   101b0:	000007b7          	lui	a5,0x0
   101b4:	00078793          	mv	a5,a5
   101b8:	02078463          	beqz	a5,101e0 <frame_dummy+0x30>
   101bc:	0001f537          	lui	a0,0x1f
   101c0:	ff010113          	addi	sp,sp,-16
   101c4:	87818593          	addi	a1,gp,-1928 # 208a8 <object.5217>
   101c8:	71850513          	addi	a0,a0,1816 # 1f718 <__EH_FRAME_BEGIN__>
   101cc:	00113423          	sd	ra,8(sp)
   101d0:	ffff0097          	auipc	ra,0xffff0
   101d4:	e30080e7          	jalr	-464(ra) # 0 <_start-0x100b0>
   101d8:	00813083          	ld	ra,8(sp)
   101dc:	01010113          	addi	sp,sp,16
   101e0:	f41ff06f          	j	10120 <register_tm_clones>

00000000000101e4 <main>:
   101e4:	fe010113          	addi	sp,sp,-32
   101e8:	00113c23          	sd	ra,24(sp)
   101ec:	00813823          	sd	s0,16(sp)
   101f0:	02010413          	addi	s0,sp,32
   101f4:	fe042623          	sw	zero,-20(s0)
   101f8:	03c0006f          	j	10234 <main+0x50>
   101fc:	fec42783          	lw	a5,-20(s0)
   10200:	d007f7d3          	fcvt.s.w	fa5,a5
   10204:	42078753          	fcvt.d.s	fa4,fa5
   10208:	0001e7b7          	lui	a5,0x1e
   1020c:	a207b787          	fld	fa5,-1504(a5) # 1da20 <__clzdi2+0x50>
   10210:	02f777d3          	fadd.d	fa5,fa4,fa5
   10214:	fef43027          	fsd	fa5,-32(s0)
   10218:	fe043583          	ld	a1,-32(s0)
   1021c:	0001e7b7          	lui	a5,0x1e
   10220:	a1078513          	addi	a0,a5,-1520 # 1da10 <__clzdi2+0x40>
   10224:	2ac000ef          	jal	ra,104d0 <printf>
   10228:	fec42783          	lw	a5,-20(s0)
   1022c:	0017879b          	addiw	a5,a5,1
   10230:	fef42623          	sw	a5,-20(s0)
   10234:	fec42783          	lw	a5,-20(s0)
   10238:	0007871b          	sext.w	a4,a5
   1023c:	00400793          	li	a5,4
   10240:	fae7dee3          	bge	a5,a4,101fc <main+0x18>
   10244:	00000793          	li	a5,0
   10248:	00078513          	mv	a0,a5
   1024c:	01813083          	ld	ra,24(sp)
   10250:	01013403          	ld	s0,16(sp)
   10254:	02010113          	addi	sp,sp,32
   10258:	00008067          	ret

000000000001025c <atexit>:
   1025c:	00050593          	mv	a1,a0
   10260:	00000693          	li	a3,0
   10264:	00000613          	li	a2,0
   10268:	00000513          	li	a0,0
   1026c:	2840206f          	j	124f0 <__register_exitproc>

0000000000010270 <exit>:
   10270:	ff010113          	addi	sp,sp,-16
   10274:	00000593          	li	a1,0
   10278:	00813023          	sd	s0,0(sp)
   1027c:	00113423          	sd	ra,8(sp)
   10280:	00050413          	mv	s0,a0
   10284:	2f0020ef          	jal	ra,12574 <__call_exitprocs>
   10288:	8281b503          	ld	a0,-2008(gp) # 20858 <_global_impure_ptr>
   1028c:	05853783          	ld	a5,88(a0)
   10290:	00078463          	beqz	a5,10298 <exit+0x28>
   10294:	000780e7          	jalr	a5
   10298:	00040513          	mv	a0,s0
   1029c:	7e80b0ef          	jal	ra,1ba84 <_exit>

00000000000102a0 <__libc_fini_array>:
   102a0:	fd010113          	addi	sp,sp,-48
   102a4:	0001f7b7          	lui	a5,0x1f
   102a8:	0001f737          	lui	a4,0x1f
   102ac:	02813023          	sd	s0,32(sp)
   102b0:	72870713          	addi	a4,a4,1832 # 1f728 <__do_global_dtors_aux_fini_array_entry>
   102b4:	73078413          	addi	s0,a5,1840 # 1f730 <impure_data>
   102b8:	40e40433          	sub	s0,s0,a4
   102bc:	00913c23          	sd	s1,24(sp)
   102c0:	01213823          	sd	s2,16(sp)
   102c4:	01313423          	sd	s3,8(sp)
   102c8:	02113423          	sd	ra,40(sp)
   102cc:	40345413          	srai	s0,s0,0x3
   102d0:	00000493          	li	s1,0
   102d4:	73078913          	addi	s2,a5,1840
   102d8:	ff800993          	li	s3,-8
   102dc:	02941063          	bne	s0,s1,102fc <__libc_fini_array+0x5c>
   102e0:	02013403          	ld	s0,32(sp)
   102e4:	02813083          	ld	ra,40(sp)
   102e8:	01813483          	ld	s1,24(sp)
   102ec:	01013903          	ld	s2,16(sp)
   102f0:	00813983          	ld	s3,8(sp)
   102f4:	03010113          	addi	sp,sp,48
   102f8:	df9ff06f          	j	100f0 <_fini>
   102fc:	033487b3          	mul	a5,s1,s3
   10300:	00148493          	addi	s1,s1,1
   10304:	00f907b3          	add	a5,s2,a5
   10308:	ff87b783          	ld	a5,-8(a5)
   1030c:	000780e7          	jalr	a5
   10310:	fcdff06f          	j	102dc <__libc_fini_array+0x3c>

0000000000010314 <__libc_init_array>:
   10314:	fe010113          	addi	sp,sp,-32
   10318:	00813823          	sd	s0,16(sp)
   1031c:	00913423          	sd	s1,8(sp)
   10320:	0001f437          	lui	s0,0x1f
   10324:	0001f4b7          	lui	s1,0x1f
   10328:	71c48793          	addi	a5,s1,1820 # 1f71c <__preinit_array_end>
   1032c:	71c40413          	addi	s0,s0,1820 # 1f71c <__preinit_array_end>
   10330:	40f40433          	sub	s0,s0,a5
   10334:	01213023          	sd	s2,0(sp)
   10338:	00113c23          	sd	ra,24(sp)
   1033c:	40345413          	srai	s0,s0,0x3
   10340:	71c48493          	addi	s1,s1,1820
   10344:	00000913          	li	s2,0
   10348:	04891263          	bne	s2,s0,1038c <__libc_init_array+0x78>
   1034c:	0001f4b7          	lui	s1,0x1f
   10350:	da1ff0ef          	jal	ra,100f0 <_fini>
   10354:	0001f437          	lui	s0,0x1f
   10358:	72048793          	addi	a5,s1,1824 # 1f720 <__frame_dummy_init_array_entry>
   1035c:	72840413          	addi	s0,s0,1832 # 1f728 <__do_global_dtors_aux_fini_array_entry>
   10360:	40f40433          	sub	s0,s0,a5
   10364:	40345413          	srai	s0,s0,0x3
   10368:	72048493          	addi	s1,s1,1824
   1036c:	00000913          	li	s2,0
   10370:	02891863          	bne	s2,s0,103a0 <__libc_init_array+0x8c>
   10374:	01813083          	ld	ra,24(sp)
   10378:	01013403          	ld	s0,16(sp)
   1037c:	00813483          	ld	s1,8(sp)
   10380:	00013903          	ld	s2,0(sp)
   10384:	02010113          	addi	sp,sp,32
   10388:	00008067          	ret
   1038c:	0004b783          	ld	a5,0(s1)
   10390:	00190913          	addi	s2,s2,1
   10394:	00848493          	addi	s1,s1,8
   10398:	000780e7          	jalr	a5
   1039c:	fadff06f          	j	10348 <__libc_init_array+0x34>
   103a0:	0004b783          	ld	a5,0(s1)
   103a4:	00190913          	addi	s2,s2,1
   103a8:	00848493          	addi	s1,s1,8
   103ac:	000780e7          	jalr	a5
   103b0:	fc1ff06f          	j	10370 <__libc_init_array+0x5c>

00000000000103b4 <memset>:
   103b4:	00f00313          	li	t1,15
   103b8:	00050713          	mv	a4,a0
   103bc:	02c37a63          	bgeu	t1,a2,103f0 <memset+0x3c>
   103c0:	00f77793          	andi	a5,a4,15
   103c4:	0a079063          	bnez	a5,10464 <memset+0xb0>
   103c8:	06059e63          	bnez	a1,10444 <memset+0x90>
   103cc:	ff067693          	andi	a3,a2,-16
   103d0:	00f67613          	andi	a2,a2,15
   103d4:	00e686b3          	add	a3,a3,a4
   103d8:	00b73023          	sd	a1,0(a4)
   103dc:	00b73423          	sd	a1,8(a4)
   103e0:	01070713          	addi	a4,a4,16
   103e4:	fed76ae3          	bltu	a4,a3,103d8 <memset+0x24>
   103e8:	00061463          	bnez	a2,103f0 <memset+0x3c>
   103ec:	00008067          	ret
   103f0:	40c306b3          	sub	a3,t1,a2
   103f4:	00269693          	slli	a3,a3,0x2
   103f8:	00000297          	auipc	t0,0x0
   103fc:	005686b3          	add	a3,a3,t0
   10400:	00c68067          	jr	12(a3)
   10404:	00b70723          	sb	a1,14(a4)
   10408:	00b706a3          	sb	a1,13(a4)
   1040c:	00b70623          	sb	a1,12(a4)
   10410:	00b705a3          	sb	a1,11(a4)
   10414:	00b70523          	sb	a1,10(a4)
   10418:	00b704a3          	sb	a1,9(a4)
   1041c:	00b70423          	sb	a1,8(a4)
   10420:	00b703a3          	sb	a1,7(a4)
   10424:	00b70323          	sb	a1,6(a4)
   10428:	00b702a3          	sb	a1,5(a4)
   1042c:	00b70223          	sb	a1,4(a4)
   10430:	00b701a3          	sb	a1,3(a4)
   10434:	00b70123          	sb	a1,2(a4)
   10438:	00b700a3          	sb	a1,1(a4)
   1043c:	00b70023          	sb	a1,0(a4)
   10440:	00008067          	ret
   10444:	0ff5f593          	zext.b	a1,a1
   10448:	00859693          	slli	a3,a1,0x8
   1044c:	00d5e5b3          	or	a1,a1,a3
   10450:	01059693          	slli	a3,a1,0x10
   10454:	00d5e5b3          	or	a1,a1,a3
   10458:	02059693          	slli	a3,a1,0x20
   1045c:	00d5e5b3          	or	a1,a1,a3
   10460:	f6dff06f          	j	103cc <memset+0x18>
   10464:	00279693          	slli	a3,a5,0x2
   10468:	00000297          	auipc	t0,0x0
   1046c:	005686b3          	add	a3,a3,t0
   10470:	00008293          	mv	t0,ra
   10474:	f98680e7          	jalr	-104(a3)
   10478:	00028093          	mv	ra,t0
   1047c:	ff078793          	addi	a5,a5,-16
   10480:	40f70733          	sub	a4,a4,a5
   10484:	00f60633          	add	a2,a2,a5
   10488:	f6c374e3          	bgeu	t1,a2,103f0 <memset+0x3c>
   1048c:	f3dff06f          	j	103c8 <memset+0x14>

0000000000010490 <_printf_r>:
   10490:	fb010113          	addi	sp,sp,-80
   10494:	02c13023          	sd	a2,32(sp)
   10498:	02d13423          	sd	a3,40(sp)
   1049c:	02e13823          	sd	a4,48(sp)
   104a0:	02f13c23          	sd	a5,56(sp)
   104a4:	05013023          	sd	a6,64(sp)
   104a8:	05113423          	sd	a7,72(sp)
   104ac:	00058613          	mv	a2,a1
   104b0:	01053583          	ld	a1,16(a0)
   104b4:	02010693          	addi	a3,sp,32
   104b8:	00113c23          	sd	ra,24(sp)
   104bc:	00d13423          	sd	a3,8(sp)
   104c0:	05c000ef          	jal	ra,1051c <_vfprintf_r>
   104c4:	01813083          	ld	ra,24(sp)
   104c8:	05010113          	addi	sp,sp,80
   104cc:	00008067          	ret

00000000000104d0 <printf>:
   104d0:	fa010113          	addi	sp,sp,-96
   104d4:	04f13423          	sd	a5,72(sp)
   104d8:	8301b783          	ld	a5,-2000(gp) # 20860 <_impure_ptr>
   104dc:	02c13823          	sd	a2,48(sp)
   104e0:	02d13c23          	sd	a3,56(sp)
   104e4:	02b13423          	sd	a1,40(sp)
   104e8:	04e13023          	sd	a4,64(sp)
   104ec:	05013823          	sd	a6,80(sp)
   104f0:	05113c23          	sd	a7,88(sp)
   104f4:	0107b583          	ld	a1,16(a5)
   104f8:	02810693          	addi	a3,sp,40
   104fc:	00050613          	mv	a2,a0
   10500:	00078513          	mv	a0,a5
   10504:	00113c23          	sd	ra,24(sp)
   10508:	00d13423          	sd	a3,8(sp)
   1050c:	010000ef          	jal	ra,1051c <_vfprintf_r>
   10510:	01813083          	ld	ra,24(sp)
   10514:	06010113          	addi	sp,sp,96
   10518:	00008067          	ret

000000000001051c <_vfprintf_r>:
   1051c:	d9010113          	addi	sp,sp,-624
   10520:	26113423          	sd	ra,616(sp)
   10524:	24913c23          	sd	s1,600(sp)
   10528:	25213823          	sd	s2,592(sp)
   1052c:	25313423          	sd	s3,584(sp)
   10530:	23713423          	sd	s7,552(sp)
   10534:	00058913          	mv	s2,a1
   10538:	00060493          	mv	s1,a2
   1053c:	00068b93          	mv	s7,a3
   10540:	26813023          	sd	s0,608(sp)
   10544:	25413023          	sd	s4,576(sp)
   10548:	23513c23          	sd	s5,568(sp)
   1054c:	23613823          	sd	s6,560(sp)
   10550:	23813023          	sd	s8,544(sp)
   10554:	21913c23          	sd	s9,536(sp)
   10558:	21a13823          	sd	s10,528(sp)
   1055c:	21b13423          	sd	s11,520(sp)
   10560:	00050993          	mv	s3,a0
   10564:	341040ef          	jal	ra,150a4 <_localeconv_r>
   10568:	00053783          	ld	a5,0(a0)
   1056c:	00078513          	mv	a0,a5
   10570:	04f13423          	sd	a5,72(sp)
   10574:	5ec060ef          	jal	ra,16b60 <strlen>
   10578:	00a13c23          	sd	a0,24(sp)
   1057c:	0e013823          	sd	zero,240(sp)
   10580:	0e013c23          	sd	zero,248(sp)
   10584:	00098a63          	beqz	s3,10598 <_vfprintf_r+0x7c>
   10588:	0509a783          	lw	a5,80(s3)
   1058c:	00079663          	bnez	a5,10598 <_vfprintf_r+0x7c>
   10590:	00098513          	mv	a0,s3
   10594:	488020ef          	jal	ra,12a1c <__sinit>
   10598:	01091783          	lh	a5,16(s2)
   1059c:	03279713          	slli	a4,a5,0x32
   105a0:	02074263          	bltz	a4,105c4 <_vfprintf_r+0xa8>
   105a4:	000026b7          	lui	a3,0x2
   105a8:	0ac92703          	lw	a4,172(s2)
   105ac:	00d7e7b3          	or	a5,a5,a3
   105b0:	00f91823          	sh	a5,16(s2)
   105b4:	ffffe7b7          	lui	a5,0xffffe
   105b8:	fff78793          	addi	a5,a5,-1 # ffffffffffffdfff <__global_pointer$+0xfffffffffffdcfcf>
   105bc:	00f777b3          	and	a5,a4,a5
   105c0:	0af92623          	sw	a5,172(s2)
   105c4:	01095783          	lhu	a5,16(s2)
   105c8:	0087f793          	andi	a5,a5,8
   105cc:	06078e63          	beqz	a5,10648 <_vfprintf_r+0x12c>
   105d0:	01893783          	ld	a5,24(s2)
   105d4:	06078a63          	beqz	a5,10648 <_vfprintf_r+0x12c>
   105d8:	01095783          	lhu	a5,16(s2)
   105dc:	00a00713          	li	a4,10
   105e0:	01a7f793          	andi	a5,a5,26
   105e4:	08e79063          	bne	a5,a4,10664 <_vfprintf_r+0x148>
   105e8:	01291783          	lh	a5,18(s2)
   105ec:	0607cc63          	bltz	a5,10664 <_vfprintf_r+0x148>
   105f0:	000b8693          	mv	a3,s7
   105f4:	00048613          	mv	a2,s1
   105f8:	00090593          	mv	a1,s2
   105fc:	00098513          	mv	a0,s3
   10600:	501010ef          	jal	ra,12300 <__sbprintf>
   10604:	02a13423          	sd	a0,40(sp)
   10608:	26813083          	ld	ra,616(sp)
   1060c:	26013403          	ld	s0,608(sp)
   10610:	02813503          	ld	a0,40(sp)
   10614:	25813483          	ld	s1,600(sp)
   10618:	25013903          	ld	s2,592(sp)
   1061c:	24813983          	ld	s3,584(sp)
   10620:	24013a03          	ld	s4,576(sp)
   10624:	23813a83          	ld	s5,568(sp)
   10628:	23013b03          	ld	s6,560(sp)
   1062c:	22813b83          	ld	s7,552(sp)
   10630:	22013c03          	ld	s8,544(sp)
   10634:	21813c83          	ld	s9,536(sp)
   10638:	21013d03          	ld	s10,528(sp)
   1063c:	20813d83          	ld	s11,520(sp)
   10640:	27010113          	addi	sp,sp,624
   10644:	00008067          	ret
   10648:	00090593          	mv	a1,s2
   1064c:	00098513          	mv	a0,s3
   10650:	56d010ef          	jal	ra,123bc <__swsetup_r>
   10654:	f80502e3          	beqz	a0,105d8 <_vfprintf_r+0xbc>
   10658:	fff00793          	li	a5,-1
   1065c:	02f13423          	sd	a5,40(sp)
   10660:	fa9ff06f          	j	10608 <_vfprintf_r+0xec>
   10664:	0001e7b7          	lui	a5,0x1e
   10668:	a2878793          	addi	a5,a5,-1496 # 1da28 <__clzdi2+0x58>
   1066c:	08f13c23          	sd	a5,152(sp)
   10670:	0001e7b7          	lui	a5,0x1e
   10674:	bc87b783          	ld	a5,-1080(a5) # 1dbc8 <zeroes.4441+0x20>
   10678:	18010a93          	addi	s5,sp,384
   1067c:	11513023          	sd	s5,256(sp)
   10680:	0af13023          	sd	a5,160(sp)
   10684:	0001e7b7          	lui	a5,0x1e
   10688:	bd87b783          	ld	a5,-1064(a5) # 1dbd8 <zeroes.4441+0x30>
   1068c:	10013823          	sd	zero,272(sp)
   10690:	10012423          	sw	zero,264(sp)
   10694:	0af13423          	sd	a5,168(sp)
   10698:	0001e7b7          	lui	a5,0x1e
   1069c:	be87b783          	ld	a5,-1048(a5) # 1dbe8 <zeroes.4441+0x40>
   106a0:	00000a13          	li	s4,0
   106a4:	000a8c93          	mv	s9,s5
   106a8:	06013023          	sd	zero,96(sp)
   106ac:	04013c23          	sd	zero,88(sp)
   106b0:	00013023          	sd	zero,0(sp)
   106b4:	04013023          	sd	zero,64(sp)
   106b8:	04013823          	sd	zero,80(sp)
   106bc:	02013423          	sd	zero,40(sp)
   106c0:	08f13823          	sd	a5,144(sp)
   106c4:	00048413          	mv	s0,s1
   106c8:	02500713          	li	a4,37
   106cc:	00044783          	lbu	a5,0(s0)
   106d0:	00078463          	beqz	a5,106d8 <_vfprintf_r+0x1bc>
   106d4:	0ce79063          	bne	a5,a4,10794 <_vfprintf_r+0x278>
   106d8:	40940b3b          	subw	s6,s0,s1
   106dc:	040b0a63          	beqz	s6,10730 <_vfprintf_r+0x214>
   106e0:	11013783          	ld	a5,272(sp)
   106e4:	009cb023          	sd	s1,0(s9)
   106e8:	016cb423          	sd	s6,8(s9)
   106ec:	016787b3          	add	a5,a5,s6
   106f0:	10f13823          	sd	a5,272(sp)
   106f4:	10812783          	lw	a5,264(sp)
   106f8:	010c8c93          	addi	s9,s9,16
   106fc:	0017871b          	addiw	a4,a5,1
   10700:	10e12423          	sw	a4,264(sp)
   10704:	00700793          	li	a5,7
   10708:	00e7de63          	bge	a5,a4,10724 <_vfprintf_r+0x208>
   1070c:	10010613          	addi	a2,sp,256
   10710:	00090593          	mv	a1,s2
   10714:	00098513          	mv	a0,s3
   10718:	220080ef          	jal	ra,18938 <__sprint_r>
   1071c:	70051e63          	bnez	a0,10e38 <_vfprintf_r+0x91c>
   10720:	000a8c93          	mv	s9,s5
   10724:	02812783          	lw	a5,40(sp)
   10728:	016787bb          	addw	a5,a5,s6
   1072c:	02f13423          	sd	a5,40(sp)
   10730:	00044783          	lbu	a5,0(s0)
   10734:	00079463          	bnez	a5,1073c <_vfprintf_r+0x220>
   10738:	3950106f          	j	122cc <_vfprintf_r+0x1db0>
   1073c:	00140793          	addi	a5,s0,1
   10740:	0c0107a3          	sb	zero,207(sp)
   10744:	fff00d93          	li	s11,-1
   10748:	02013023          	sd	zero,32(sp)
   1074c:	00000413          	li	s0,0
   10750:	05a00d13          	li	s10,90
   10754:	00a00c13          	li	s8,10
   10758:	0007cb03          	lbu	s6,0(a5)
   1075c:	00178713          	addi	a4,a5,1
   10760:	00e13823          	sd	a4,16(sp)
   10764:	00900693          	li	a3,9
   10768:	02a00613          	li	a2,42
   1076c:	fe0b079b          	addiw	a5,s6,-32
   10770:	0007871b          	sext.w	a4,a5
   10774:	00ed7463          	bgeu	s10,a4,1077c <_vfprintf_r+0x260>
   10778:	7e90006f          	j	11760 <_vfprintf_r+0x1244>
   1077c:	09813703          	ld	a4,152(sp)
   10780:	02079793          	slli	a5,a5,0x20
   10784:	01e7d793          	srli	a5,a5,0x1e
   10788:	00e787b3          	add	a5,a5,a4
   1078c:	0007a783          	lw	a5,0(a5)
   10790:	00078067          	jr	a5
   10794:	00140413          	addi	s0,s0,1
   10798:	f35ff06f          	j	106cc <_vfprintf_r+0x1b0>
   1079c:	0001e7b7          	lui	a5,0x1e
   107a0:	c2878793          	addi	a5,a5,-984 # 1dc28 <zeroes.4441+0x80>
   107a4:	06f13023          	sd	a5,96(sp)
   107a8:	008b8793          	addi	a5,s7,8
   107ac:	02f13823          	sd	a5,48(sp)
   107b0:	02047793          	andi	a5,s0,32
   107b4:	60078ce3          	beqz	a5,115cc <_vfprintf_r+0x10b0>
   107b8:	000bbb83          	ld	s7,0(s7)
   107bc:	00147793          	andi	a5,s0,1
   107c0:	00078e63          	beqz	a5,107dc <_vfprintf_r+0x2c0>
   107c4:	000b8c63          	beqz	s7,107dc <_vfprintf_r+0x2c0>
   107c8:	03000793          	li	a5,48
   107cc:	00246413          	ori	s0,s0,2
   107d0:	0cf10823          	sb	a5,208(sp)
   107d4:	0d6108a3          	sb	s6,209(sp)
   107d8:	0004041b          	sext.w	s0,s0
   107dc:	bff47413          	andi	s0,s0,-1025
   107e0:	0004041b          	sext.w	s0,s0
   107e4:	00200793          	li	a5,2
   107e8:	48d0006f          	j	11474 <_vfprintf_r+0xf58>
   107ec:	00098513          	mv	a0,s3
   107f0:	0b5040ef          	jal	ra,150a4 <_localeconv_r>
   107f4:	00853783          	ld	a5,8(a0)
   107f8:	00078513          	mv	a0,a5
   107fc:	04f13823          	sd	a5,80(sp)
   10800:	360060ef          	jal	ra,16b60 <strlen>
   10804:	04a13023          	sd	a0,64(sp)
   10808:	00098513          	mv	a0,s3
   1080c:	099040ef          	jal	ra,150a4 <_localeconv_r>
   10810:	01053783          	ld	a5,16(a0)
   10814:	00f13023          	sd	a5,0(sp)
   10818:	04013783          	ld	a5,64(sp)
   1081c:	02078863          	beqz	a5,1084c <_vfprintf_r+0x330>
   10820:	00013783          	ld	a5,0(sp)
   10824:	02078463          	beqz	a5,1084c <_vfprintf_r+0x330>
   10828:	0007c783          	lbu	a5,0(a5)
   1082c:	02078063          	beqz	a5,1084c <_vfprintf_r+0x330>
   10830:	40046413          	ori	s0,s0,1024
   10834:	0004041b          	sext.w	s0,s0
   10838:	0140006f          	j	1084c <_vfprintf_r+0x330>
   1083c:	0cf14783          	lbu	a5,207(sp)
   10840:	00079663          	bnez	a5,1084c <_vfprintf_r+0x330>
   10844:	02000793          	li	a5,32
   10848:	0cf107a3          	sb	a5,207(sp)
   1084c:	01013783          	ld	a5,16(sp)
   10850:	f09ff06f          	j	10758 <_vfprintf_r+0x23c>
   10854:	00146413          	ori	s0,s0,1
   10858:	fddff06f          	j	10834 <_vfprintf_r+0x318>
   1085c:	000ba783          	lw	a5,0(s7)
   10860:	008b8b93          	addi	s7,s7,8
   10864:	02f13023          	sd	a5,32(sp)
   10868:	fe07d2e3          	bgez	a5,1084c <_vfprintf_r+0x330>
   1086c:	02012783          	lw	a5,32(sp)
   10870:	40f007bb          	negw	a5,a5
   10874:	02f13023          	sd	a5,32(sp)
   10878:	00446413          	ori	s0,s0,4
   1087c:	fb9ff06f          	j	10834 <_vfprintf_r+0x318>
   10880:	02b00793          	li	a5,43
   10884:	fc5ff06f          	j	10848 <_vfprintf_r+0x32c>
   10888:	01013703          	ld	a4,16(sp)
   1088c:	01013783          	ld	a5,16(sp)
   10890:	00074b03          	lbu	s6,0(a4)
   10894:	00178793          	addi	a5,a5,1
   10898:	04cb1463          	bne	s6,a2,108e0 <_vfprintf_r+0x3c4>
   1089c:	000bae03          	lw	t3,0(s7)
   108a0:	008b8713          	addi	a4,s7,8
   108a4:	000e5463          	bgez	t3,108ac <_vfprintf_r+0x390>
   108a8:	fff00e13          	li	t3,-1
   108ac:	000e0d9b          	sext.w	s11,t3
   108b0:	00070b93          	mv	s7,a4
   108b4:	00f13823          	sd	a5,16(sp)
   108b8:	f95ff06f          	j	1084c <_vfprintf_r+0x330>
   108bc:	03bc0e3b          	mulw	t3,s8,s11
   108c0:	00178793          	addi	a5,a5,1
   108c4:	fff7cb03          	lbu	s6,-1(a5)
   108c8:	00ee0dbb          	addw	s11,t3,a4
   108cc:	fd0b059b          	addiw	a1,s6,-48
   108d0:	00058713          	mv	a4,a1
   108d4:	feb6f4e3          	bgeu	a3,a1,108bc <_vfprintf_r+0x3a0>
   108d8:	00f13823          	sd	a5,16(sp)
   108dc:	e91ff06f          	j	1076c <_vfprintf_r+0x250>
   108e0:	00000d93          	li	s11,0
   108e4:	fe9ff06f          	j	108cc <_vfprintf_r+0x3b0>
   108e8:	08046413          	ori	s0,s0,128
   108ec:	f49ff06f          	j	10834 <_vfprintf_r+0x318>
   108f0:	01013783          	ld	a5,16(sp)
   108f4:	02013023          	sd	zero,32(sp)
   108f8:	02012703          	lw	a4,32(sp)
   108fc:	fd0b0b1b          	addiw	s6,s6,-48
   10900:	00178793          	addi	a5,a5,1
   10904:	02ec073b          	mulw	a4,s8,a4
   10908:	00eb073b          	addw	a4,s6,a4
   1090c:	fff7cb03          	lbu	s6,-1(a5)
   10910:	02e13023          	sd	a4,32(sp)
   10914:	fd0b071b          	addiw	a4,s6,-48
   10918:	fee6f0e3          	bgeu	a3,a4,108f8 <_vfprintf_r+0x3dc>
   1091c:	fbdff06f          	j	108d8 <_vfprintf_r+0x3bc>
   10920:	00846413          	ori	s0,s0,8
   10924:	f11ff06f          	j	10834 <_vfprintf_r+0x318>
   10928:	01013783          	ld	a5,16(sp)
   1092c:	0007c703          	lbu	a4,0(a5)
   10930:	06800793          	li	a5,104
   10934:	00f71c63          	bne	a4,a5,1094c <_vfprintf_r+0x430>
   10938:	01013783          	ld	a5,16(sp)
   1093c:	20046413          	ori	s0,s0,512
   10940:	00178793          	addi	a5,a5,1
   10944:	00f13823          	sd	a5,16(sp)
   10948:	eedff06f          	j	10834 <_vfprintf_r+0x318>
   1094c:	04046413          	ori	s0,s0,64
   10950:	ee5ff06f          	j	10834 <_vfprintf_r+0x318>
   10954:	01013783          	ld	a5,16(sp)
   10958:	0007c703          	lbu	a4,0(a5)
   1095c:	06c00793          	li	a5,108
   10960:	00f71c63          	bne	a4,a5,10978 <_vfprintf_r+0x45c>
   10964:	01013783          	ld	a5,16(sp)
   10968:	00178793          	addi	a5,a5,1
   1096c:	00f13823          	sd	a5,16(sp)
   10970:	02046413          	ori	s0,s0,32
   10974:	ec1ff06f          	j	10834 <_vfprintf_r+0x318>
   10978:	01046413          	ori	s0,s0,16
   1097c:	eb9ff06f          	j	10834 <_vfprintf_r+0x318>
   10980:	008b8793          	addi	a5,s7,8
   10984:	02f13823          	sd	a5,48(sp)
   10988:	000ba783          	lw	a5,0(s7)
   1098c:	0c0107a3          	sb	zero,207(sp)
   10990:	10f10c23          	sb	a5,280(sp)
   10994:	00000b93          	li	s7,0
   10998:	00100d93          	li	s11,1
   1099c:	00000713          	li	a4,0
   109a0:	00013423          	sd	zero,8(sp)
   109a4:	00000c13          	li	s8,0
   109a8:	00000d13          	li	s10,0
   109ac:	11810493          	addi	s1,sp,280
   109b0:	00070693          	mv	a3,a4
   109b4:	01b75463          	bge	a4,s11,109bc <_vfprintf_r+0x4a0>
   109b8:	000d8693          	mv	a3,s11
   109bc:	0cf14603          	lbu	a2,207(sp)
   109c0:	0006879b          	sext.w	a5,a3
   109c4:	02f13c23          	sd	a5,56(sp)
   109c8:	00060663          	beqz	a2,109d4 <_vfprintf_r+0x4b8>
   109cc:	0016879b          	addiw	a5,a3,1
   109d0:	02f13c23          	sd	a5,56(sp)
   109d4:	00247693          	andi	a3,s0,2
   109d8:	0006879b          	sext.w	a5,a3
   109dc:	06f13423          	sd	a5,104(sp)
   109e0:	00078863          	beqz	a5,109f0 <_vfprintf_r+0x4d4>
   109e4:	03812783          	lw	a5,56(sp)
   109e8:	0027879b          	addiw	a5,a5,2
   109ec:	02f13c23          	sd	a5,56(sp)
   109f0:	08447793          	andi	a5,s0,132
   109f4:	06f13823          	sd	a5,112(sp)
   109f8:	08079063          	bnez	a5,10a78 <_vfprintf_r+0x55c>
   109fc:	02012783          	lw	a5,32(sp)
   10a00:	03812683          	lw	a3,56(sp)
   10a04:	40d786bb          	subw	a3,a5,a3
   10a08:	06d05863          	blez	a3,10a78 <_vfprintf_r+0x55c>
   10a0c:	0001e837          	lui	a6,0x1e
   10a10:	01000893          	li	a7,16
   10a14:	b9880813          	addi	a6,a6,-1128 # 1db98 <blanks.4440>
   10a18:	00700e93          	li	t4,7
   10a1c:	10812583          	lw	a1,264(sp)
   10a20:	010cb023          	sd	a6,0(s9)
   10a24:	11013603          	ld	a2,272(sp)
   10a28:	0015851b          	addiw	a0,a1,1
   10a2c:	00050593          	mv	a1,a0
   10a30:	010c8f13          	addi	t5,s9,16
   10a34:	54d8c0e3          	blt	a7,a3,11774 <_vfprintf_r+0x1258>
   10a38:	00dcb423          	sd	a3,8(s9)
   10a3c:	00c686b3          	add	a3,a3,a2
   10a40:	10d13823          	sd	a3,272(sp)
   10a44:	10a12423          	sw	a0,264(sp)
   10a48:	00700693          	li	a3,7
   10a4c:	000f0c93          	mv	s9,t5
   10a50:	02a6d463          	bge	a3,a0,10a78 <_vfprintf_r+0x55c>
   10a54:	10010613          	addi	a2,sp,256
   10a58:	00090593          	mv	a1,s2
   10a5c:	00098513          	mv	a0,s3
   10a60:	06e13c23          	sd	a4,120(sp)
   10a64:	6d5070ef          	jal	ra,18938 <__sprint_r>
   10a68:	00050463          	beqz	a0,10a70 <_vfprintf_r+0x554>
   10a6c:	0010106f          	j	1226c <_vfprintf_r+0x1d50>
   10a70:	07813703          	ld	a4,120(sp)
   10a74:	000a8c93          	mv	s9,s5
   10a78:	0cf14683          	lbu	a3,207(sp)
   10a7c:	04068e63          	beqz	a3,10ad8 <_vfprintf_r+0x5bc>
   10a80:	0cf10693          	addi	a3,sp,207
   10a84:	00dcb023          	sd	a3,0(s9)
   10a88:	00100693          	li	a3,1
   10a8c:	00dcb423          	sd	a3,8(s9)
   10a90:	11013683          	ld	a3,272(sp)
   10a94:	010c8c93          	addi	s9,s9,16
   10a98:	00168693          	addi	a3,a3,1 # 2001 <_start-0xe0af>
   10a9c:	10d13823          	sd	a3,272(sp)
   10aa0:	10812683          	lw	a3,264(sp)
   10aa4:	0016861b          	addiw	a2,a3,1
   10aa8:	10c12423          	sw	a2,264(sp)
   10aac:	00700693          	li	a3,7
   10ab0:	02c6d463          	bge	a3,a2,10ad8 <_vfprintf_r+0x5bc>
   10ab4:	10010613          	addi	a2,sp,256
   10ab8:	00090593          	mv	a1,s2
   10abc:	00098513          	mv	a0,s3
   10ac0:	06e13c23          	sd	a4,120(sp)
   10ac4:	675070ef          	jal	ra,18938 <__sprint_r>
   10ac8:	00050463          	beqz	a0,10ad0 <_vfprintf_r+0x5b4>
   10acc:	7a00106f          	j	1226c <_vfprintf_r+0x1d50>
   10ad0:	07813703          	ld	a4,120(sp)
   10ad4:	000a8c93          	mv	s9,s5
   10ad8:	06813783          	ld	a5,104(sp)
   10adc:	04078e63          	beqz	a5,10b38 <_vfprintf_r+0x61c>
   10ae0:	0d010693          	addi	a3,sp,208
   10ae4:	00dcb023          	sd	a3,0(s9)
   10ae8:	00200693          	li	a3,2
   10aec:	00dcb423          	sd	a3,8(s9)
   10af0:	11013683          	ld	a3,272(sp)
   10af4:	010c8c93          	addi	s9,s9,16
   10af8:	00268693          	addi	a3,a3,2
   10afc:	10d13823          	sd	a3,272(sp)
   10b00:	10812683          	lw	a3,264(sp)
   10b04:	0016861b          	addiw	a2,a3,1
   10b08:	10c12423          	sw	a2,264(sp)
   10b0c:	00700693          	li	a3,7
   10b10:	02c6d463          	bge	a3,a2,10b38 <_vfprintf_r+0x61c>
   10b14:	10010613          	addi	a2,sp,256
   10b18:	00090593          	mv	a1,s2
   10b1c:	00098513          	mv	a0,s3
   10b20:	06e13423          	sd	a4,104(sp)
   10b24:	615070ef          	jal	ra,18938 <__sprint_r>
   10b28:	00050463          	beqz	a0,10b30 <_vfprintf_r+0x614>
   10b2c:	7400106f          	j	1226c <_vfprintf_r+0x1d50>
   10b30:	06813703          	ld	a4,104(sp)
   10b34:	000a8c93          	mv	s9,s5
   10b38:	07013783          	ld	a5,112(sp)
   10b3c:	08000693          	li	a3,128
   10b40:	08d79063          	bne	a5,a3,10bc0 <_vfprintf_r+0x6a4>
   10b44:	02012783          	lw	a5,32(sp)
   10b48:	03812683          	lw	a3,56(sp)
   10b4c:	40d786bb          	subw	a3,a5,a3
   10b50:	06d05863          	blez	a3,10bc0 <_vfprintf_r+0x6a4>
   10b54:	0001e837          	lui	a6,0x1e
   10b58:	01000893          	li	a7,16
   10b5c:	ba880813          	addi	a6,a6,-1112 # 1dba8 <zeroes.4441>
   10b60:	00700e93          	li	t4,7
   10b64:	10812583          	lw	a1,264(sp)
   10b68:	010cb023          	sd	a6,0(s9)
   10b6c:	11013603          	ld	a2,272(sp)
   10b70:	0015851b          	addiw	a0,a1,1
   10b74:	00050593          	mv	a1,a0
   10b78:	010c8f13          	addi	t5,s9,16
   10b7c:	44d8cce3          	blt	a7,a3,117d4 <_vfprintf_r+0x12b8>
   10b80:	00dcb423          	sd	a3,8(s9)
   10b84:	00c686b3          	add	a3,a3,a2
   10b88:	10d13823          	sd	a3,272(sp)
   10b8c:	10a12423          	sw	a0,264(sp)
   10b90:	00700693          	li	a3,7
   10b94:	000f0c93          	mv	s9,t5
   10b98:	02a6d463          	bge	a3,a0,10bc0 <_vfprintf_r+0x6a4>
   10b9c:	10010613          	addi	a2,sp,256
   10ba0:	00090593          	mv	a1,s2
   10ba4:	00098513          	mv	a0,s3
   10ba8:	06e13423          	sd	a4,104(sp)
   10bac:	58d070ef          	jal	ra,18938 <__sprint_r>
   10bb0:	00050463          	beqz	a0,10bb8 <_vfprintf_r+0x69c>
   10bb4:	6b80106f          	j	1226c <_vfprintf_r+0x1d50>
   10bb8:	06813703          	ld	a4,104(sp)
   10bbc:	000a8c93          	mv	s9,s5
   10bc0:	41b7073b          	subw	a4,a4,s11
   10bc4:	06e05463          	blez	a4,10c2c <_vfprintf_r+0x710>
   10bc8:	0001e837          	lui	a6,0x1e
   10bcc:	01000893          	li	a7,16
   10bd0:	ba880813          	addi	a6,a6,-1112 # 1dba8 <zeroes.4441>
   10bd4:	00700e93          	li	t4,7
   10bd8:	10812603          	lw	a2,264(sp)
   10bdc:	010cb023          	sd	a6,0(s9)
   10be0:	11013683          	ld	a3,272(sp)
   10be4:	0016059b          	addiw	a1,a2,1
   10be8:	00058613          	mv	a2,a1
   10bec:	010c8513          	addi	a0,s9,16
   10bf0:	44e8c2e3          	blt	a7,a4,11834 <_vfprintf_r+0x1318>
   10bf4:	00ecb423          	sd	a4,8(s9)
   10bf8:	00d70733          	add	a4,a4,a3
   10bfc:	10e13823          	sd	a4,272(sp)
   10c00:	10b12423          	sw	a1,264(sp)
   10c04:	00700713          	li	a4,7
   10c08:	00050c93          	mv	s9,a0
   10c0c:	02b75063          	bge	a4,a1,10c2c <_vfprintf_r+0x710>
   10c10:	10010613          	addi	a2,sp,256
   10c14:	00090593          	mv	a1,s2
   10c18:	00098513          	mv	a0,s3
   10c1c:	51d070ef          	jal	ra,18938 <__sprint_r>
   10c20:	00050463          	beqz	a0,10c28 <_vfprintf_r+0x70c>
   10c24:	6480106f          	j	1226c <_vfprintf_r+0x1d50>
   10c28:	000a8c93          	mv	s9,s5
   10c2c:	10047693          	andi	a3,s0,256
   10c30:	11013703          	ld	a4,272(sp)
   10c34:	44069ce3          	bnez	a3,1188c <_vfprintf_r+0x1370>
   10c38:	10812783          	lw	a5,264(sp)
   10c3c:	00ed8e33          	add	t3,s11,a4
   10c40:	009cb023          	sd	s1,0(s9)
   10c44:	0017871b          	addiw	a4,a5,1
   10c48:	01bcb423          	sd	s11,8(s9)
   10c4c:	11c13823          	sd	t3,272(sp)
   10c50:	10e12423          	sw	a4,264(sp)
   10c54:	00700793          	li	a5,7
   10c58:	010c8c93          	addi	s9,s9,16
   10c5c:	54e7dae3          	bge	a5,a4,119b0 <_vfprintf_r+0x1494>
   10c60:	10010613          	addi	a2,sp,256
   10c64:	00090593          	mv	a1,s2
   10c68:	00098513          	mv	a0,s3
   10c6c:	4cd070ef          	jal	ra,18938 <__sprint_r>
   10c70:	00050463          	beqz	a0,10c78 <_vfprintf_r+0x75c>
   10c74:	5f80106f          	j	1226c <_vfprintf_r+0x1d50>
   10c78:	000a8c93          	mv	s9,s5
   10c7c:	5350006f          	j	119b0 <_vfprintf_r+0x1494>
   10c80:	01046413          	ori	s0,s0,16
   10c84:	0004041b          	sext.w	s0,s0
   10c88:	008b8793          	addi	a5,s7,8
   10c8c:	02f13823          	sd	a5,48(sp)
   10c90:	02047793          	andi	a5,s0,32
   10c94:	02078c63          	beqz	a5,10ccc <_vfprintf_r+0x7b0>
   10c98:	000bbb83          	ld	s7,0(s7)
   10c9c:	000bd863          	bgez	s7,10cac <_vfprintf_r+0x790>
   10ca0:	02d00793          	li	a5,45
   10ca4:	41700bb3          	neg	s7,s7
   10ca8:	0cf107a3          	sb	a5,207(sp)
   10cac:	fff00793          	li	a5,-1
   10cb0:	14fd9ce3          	bne	s11,a5,11608 <_vfprintf_r+0x10ec>
   10cb4:	00900793          	li	a5,9
   10cb8:	1d77e4e3          	bltu	a5,s7,11680 <_vfprintf_r+0x1164>
   10cbc:	030b8b9b          	addiw	s7,s7,48
   10cc0:	17710da3          	sb	s7,379(sp)
   10cc4:	17b10493          	addi	s1,sp,379
   10cc8:	1910006f          	j	11658 <_vfprintf_r+0x113c>
   10ccc:	01047793          	andi	a5,s0,16
   10cd0:	fc0794e3          	bnez	a5,10c98 <_vfprintf_r+0x77c>
   10cd4:	04047793          	andi	a5,s0,64
   10cd8:	00078663          	beqz	a5,10ce4 <_vfprintf_r+0x7c8>
   10cdc:	000b9b83          	lh	s7,0(s7)
   10ce0:	fbdff06f          	j	10c9c <_vfprintf_r+0x780>
   10ce4:	20047793          	andi	a5,s0,512
   10ce8:	00078663          	beqz	a5,10cf4 <_vfprintf_r+0x7d8>
   10cec:	000b8b83          	lb	s7,0(s7)
   10cf0:	fadff06f          	j	10c9c <_vfprintf_r+0x780>
   10cf4:	000bab83          	lw	s7,0(s7)
   10cf8:	fa5ff06f          	j	10c9c <_vfprintf_r+0x780>
   10cfc:	00847793          	andi	a5,s0,8
   10d00:	08078063          	beqz	a5,10d80 <_vfprintf_r+0x864>
   10d04:	00fb8b93          	addi	s7,s7,15
   10d08:	ff0bfb93          	andi	s7,s7,-16
   10d0c:	010b8793          	addi	a5,s7,16
   10d10:	02f13823          	sd	a5,48(sp)
   10d14:	000bb783          	ld	a5,0(s7)
   10d18:	0ef13823          	sd	a5,240(sp)
   10d1c:	008bb783          	ld	a5,8(s7)
   10d20:	0ef13c23          	sd	a5,248(sp)
   10d24:	0f010513          	addi	a0,sp,240
   10d28:	320040ef          	jal	ra,15048 <_ldcheck>
   10d2c:	0ca12c23          	sw	a0,216(sp)
   10d30:	00200793          	li	a5,2
   10d34:	06f51a63          	bne	a0,a5,10da8 <_vfprintf_r+0x88c>
   10d38:	0f013503          	ld	a0,240(sp)
   10d3c:	0f813583          	ld	a1,248(sp)
   10d40:	00000613          	li	a2,0
   10d44:	00000693          	li	a3,0
   10d48:	2280b0ef          	jal	ra,1bf70 <__letf2>
   10d4c:	00055663          	bgez	a0,10d58 <_vfprintf_r+0x83c>
   10d50:	02d00793          	li	a5,45
   10d54:	0cf107a3          	sb	a5,207(sp)
   10d58:	04700793          	li	a5,71
   10d5c:	0567c063          	blt	a5,s6,10d9c <_vfprintf_r+0x880>
   10d60:	0001e4b7          	lui	s1,0x1e
   10d64:	bf048493          	addi	s1,s1,-1040 # 1dbf0 <zeroes.4441+0x48>
   10d68:	f7f47413          	andi	s0,s0,-129
   10d6c:	0004041b          	sext.w	s0,s0
   10d70:	00000b93          	li	s7,0
   10d74:	00300d93          	li	s11,3
   10d78:	00000713          	li	a4,0
   10d7c:	0ed0006f          	j	11668 <_vfprintf_r+0x114c>
   10d80:	000bb507          	fld	fa0,0(s7)
   10d84:	008b8793          	addi	a5,s7,8
   10d88:	02f13823          	sd	a5,48(sp)
   10d8c:	7d40c0ef          	jal	ra,1d560 <__extenddftf2>
   10d90:	0ea13823          	sd	a0,240(sp)
   10d94:	0eb13c23          	sd	a1,248(sp)
   10d98:	f8dff06f          	j	10d24 <_vfprintf_r+0x808>
   10d9c:	0001e4b7          	lui	s1,0x1e
   10da0:	bf848493          	addi	s1,s1,-1032 # 1dbf8 <zeroes.4441+0x50>
   10da4:	fc5ff06f          	j	10d68 <_vfprintf_r+0x84c>
   10da8:	00100793          	li	a5,1
   10dac:	02f51a63          	bne	a0,a5,10de0 <_vfprintf_r+0x8c4>
   10db0:	0f813783          	ld	a5,248(sp)
   10db4:	0007d663          	bgez	a5,10dc0 <_vfprintf_r+0x8a4>
   10db8:	02d00793          	li	a5,45
   10dbc:	0cf107a3          	sb	a5,207(sp)
   10dc0:	04700793          	li	a5,71
   10dc4:	0167c863          	blt	a5,s6,10dd4 <_vfprintf_r+0x8b8>
   10dc8:	0001e4b7          	lui	s1,0x1e
   10dcc:	c0048493          	addi	s1,s1,-1024 # 1dc00 <zeroes.4441+0x58>
   10dd0:	f99ff06f          	j	10d68 <_vfprintf_r+0x84c>
   10dd4:	0001e4b7          	lui	s1,0x1e
   10dd8:	c0848493          	addi	s1,s1,-1016 # 1dc08 <zeroes.4441+0x60>
   10ddc:	f8dff06f          	j	10d68 <_vfprintf_r+0x84c>
   10de0:	fdfb7c13          	andi	s8,s6,-33
   10de4:	04100793          	li	a5,65
   10de8:	06fc1063          	bne	s8,a5,10e48 <_vfprintf_r+0x92c>
   10dec:	03000793          	li	a5,48
   10df0:	0cf10823          	sb	a5,208(sp)
   10df4:	06100713          	li	a4,97
   10df8:	05800793          	li	a5,88
   10dfc:	00eb1463          	bne	s6,a4,10e04 <_vfprintf_r+0x8e8>
   10e00:	07800793          	li	a5,120
   10e04:	0cf108a3          	sb	a5,209(sp)
   10e08:	00246413          	ori	s0,s0,2
   10e0c:	06300793          	li	a5,99
   10e10:	0004041b          	sext.w	s0,s0
   10e14:	1fb7d663          	bge	a5,s11,11000 <_vfprintf_r+0xae4>
   10e18:	001d859b          	addiw	a1,s11,1
   10e1c:	00098513          	mv	a0,s3
   10e20:	448040ef          	jal	ra,15268 <_malloc_r>
   10e24:	00050493          	mv	s1,a0
   10e28:	1e051263          	bnez	a0,1100c <_vfprintf_r+0xaf0>
   10e2c:	01095783          	lhu	a5,16(s2)
   10e30:	0407e793          	ori	a5,a5,64
   10e34:	00f91823          	sh	a5,16(s2)
   10e38:	01095783          	lhu	a5,16(s2)
   10e3c:	0407f793          	andi	a5,a5,64
   10e40:	fc078463          	beqz	a5,10608 <_vfprintf_r+0xec>
   10e44:	815ff06f          	j	10658 <_vfprintf_r+0x13c>
   10e48:	fff00793          	li	a5,-1
   10e4c:	1cfd8463          	beq	s11,a5,11014 <_vfprintf_r+0xaf8>
   10e50:	04700793          	li	a5,71
   10e54:	00000b93          	li	s7,0
   10e58:	00fc1463          	bne	s8,a5,10e60 <_vfprintf_r+0x944>
   10e5c:	1c0d8263          	beqz	s11,11020 <_vfprintf_r+0xb04>
   10e60:	10046793          	ori	a5,s0,256
   10e64:	0f813a03          	ld	s4,248(sp)
   10e68:	0007879b          	sext.w	a5,a5
   10e6c:	02f13c23          	sd	a5,56(sp)
   10e70:	06013c23          	sd	zero,120(sp)
   10e74:	0f013e83          	ld	t4,240(sp)
   10e78:	000a5c63          	bgez	s4,10e90 <_vfprintf_r+0x974>
   10e7c:	fff00793          	li	a5,-1
   10e80:	03f79793          	slli	a5,a5,0x3f
   10e84:	00fa4a33          	xor	s4,s4,a5
   10e88:	02d00793          	li	a5,45
   10e8c:	06f13c23          	sd	a5,120(sp)
   10e90:	04100793          	li	a5,65
   10e94:	30fc1663          	bne	s8,a5,111a0 <_vfprintf_r+0xc84>
   10e98:	000e8513          	mv	a0,t4
   10e9c:	000a0593          	mv	a1,s4
   10ea0:	01d0c0ef          	jal	ra,1d6bc <__trunctfdf2>
   10ea4:	0d810513          	addi	a0,sp,216
   10ea8:	1ad050ef          	jal	ra,16854 <frexp>
   10eac:	6b40c0ef          	jal	ra,1d560 <__extenddftf2>
   10eb0:	0a013683          	ld	a3,160(sp)
   10eb4:	00000613          	li	a2,0
   10eb8:	1c00b0ef          	jal	ra,1c078 <__multf3>
   10ebc:	00000613          	li	a2,0
   10ec0:	00000693          	li	a3,0
   10ec4:	08a13023          	sd	a0,128(sp)
   10ec8:	08b13423          	sd	a1,136(sp)
   10ecc:	6b90a0ef          	jal	ra,1bd84 <__eqtf2>
   10ed0:	00051663          	bnez	a0,10edc <_vfprintf_r+0x9c0>
   10ed4:	00100793          	li	a5,1
   10ed8:	0cf12c23          	sw	a5,216(sp)
   10edc:	06100793          	li	a5,97
   10ee0:	14fb1663          	bne	s6,a5,1102c <_vfprintf_r+0xb10>
   10ee4:	0001e7b7          	lui	a5,0x1e
   10ee8:	c1078793          	addi	a5,a5,-1008 # 1dc10 <zeroes.4441+0x68>
   10eec:	00f13423          	sd	a5,8(sp)
   10ef0:	fffd871b          	addiw	a4,s11,-1
   10ef4:	00048a13          	mv	s4,s1
   10ef8:	0a813683          	ld	a3,168(sp)
   10efc:	08013503          	ld	a0,128(sp)
   10f00:	08813583          	ld	a1,136(sp)
   10f04:	00000613          	li	a2,0
   10f08:	0ae13823          	sd	a4,176(sp)
   10f0c:	16c0b0ef          	jal	ra,1c078 <__multf3>
   10f10:	00050d13          	mv	s10,a0
   10f14:	06b13423          	sd	a1,104(sp)
   10f18:	4ac0c0ef          	jal	ra,1d3c4 <__fixtfsi>
   10f1c:	0005079b          	sext.w	a5,a0
   10f20:	06f13823          	sd	a5,112(sp)
   10f24:	5780c0ef          	jal	ra,1d49c <__floatsitf>
   10f28:	06813783          	ld	a5,104(sp)
   10f2c:	00058693          	mv	a3,a1
   10f30:	00050613          	mv	a2,a0
   10f34:	00078593          	mv	a1,a5
   10f38:	000d0513          	mv	a0,s10
   10f3c:	1dd0b0ef          	jal	ra,1c918 <__subtf3>
   10f40:	00813783          	ld	a5,8(sp)
   10f44:	07013703          	ld	a4,112(sp)
   10f48:	001a0a13          	addi	s4,s4,1
   10f4c:	08a13023          	sd	a0,128(sp)
   10f50:	00e786b3          	add	a3,a5,a4
   10f54:	0b013703          	ld	a4,176(sp)
   10f58:	0006c683          	lbu	a3,0(a3)
   10f5c:	08b13423          	sd	a1,136(sp)
   10f60:	0007079b          	sext.w	a5,a4
   10f64:	06f13423          	sd	a5,104(sp)
   10f68:	feda0fa3          	sb	a3,-1(s4)
   10f6c:	fff00793          	li	a5,-1
   10f70:	00050893          	mv	a7,a0
   10f74:	00058d13          	mv	s10,a1
   10f78:	0cf70063          	beq	a4,a5,11038 <_vfprintf_r+0xb1c>
   10f7c:	fff7071b          	addiw	a4,a4,-1
   10f80:	00000613          	li	a2,0
   10f84:	00000693          	li	a3,0
   10f88:	0ae13823          	sd	a4,176(sp)
   10f8c:	0aa13c23          	sd	a0,184(sp)
   10f90:	5f50a0ef          	jal	ra,1bd84 <__eqtf2>
   10f94:	0b013703          	ld	a4,176(sp)
   10f98:	0b813883          	ld	a7,184(sp)
   10f9c:	f4051ee3          	bnez	a0,10ef8 <_vfprintf_r+0x9dc>
   10fa0:	09013683          	ld	a3,144(sp)
   10fa4:	00000613          	li	a2,0
   10fa8:	00088513          	mv	a0,a7
   10fac:	000d0593          	mv	a1,s10
   10fb0:	09113023          	sd	a7,128(sp)
   10fb4:	6b50a0ef          	jal	ra,1be68 <__getf2>
   10fb8:	08a04663          	bgtz	a0,11044 <_vfprintf_r+0xb28>
   10fbc:	08013883          	ld	a7,128(sp)
   10fc0:	09013683          	ld	a3,144(sp)
   10fc4:	00000613          	li	a2,0
   10fc8:	00088513          	mv	a0,a7
   10fcc:	000d0593          	mv	a1,s10
   10fd0:	5b50a0ef          	jal	ra,1bd84 <__eqtf2>
   10fd4:	00051863          	bnez	a0,10fe4 <_vfprintf_r+0xac8>
   10fd8:	07013783          	ld	a5,112(sp)
   10fdc:	0017f713          	andi	a4,a5,1
   10fe0:	06071263          	bnez	a4,11044 <_vfprintf_r+0xb28>
   10fe4:	06812703          	lw	a4,104(sp)
   10fe8:	03000693          	li	a3,48
   10fec:	08074863          	bltz	a4,1107c <_vfprintf_r+0xb60>
   10ff0:	001a0a13          	addi	s4,s4,1
   10ff4:	feda0fa3          	sb	a3,-1(s4)
   10ff8:	fff7071b          	addiw	a4,a4,-1
   10ffc:	ff1ff06f          	j	10fec <_vfprintf_r+0xad0>
   11000:	00000b93          	li	s7,0
   11004:	11810493          	addi	s1,sp,280
   11008:	e59ff06f          	j	10e60 <_vfprintf_r+0x944>
   1100c:	00050b93          	mv	s7,a0
   11010:	e51ff06f          	j	10e60 <_vfprintf_r+0x944>
   11014:	00000b93          	li	s7,0
   11018:	00600d93          	li	s11,6
   1101c:	e45ff06f          	j	10e60 <_vfprintf_r+0x944>
   11020:	000d8b93          	mv	s7,s11
   11024:	00100d93          	li	s11,1
   11028:	e39ff06f          	j	10e60 <_vfprintf_r+0x944>
   1102c:	0001e7b7          	lui	a5,0x1e
   11030:	c2878793          	addi	a5,a5,-984 # 1dc28 <zeroes.4441+0x80>
   11034:	eb9ff06f          	j	10eec <_vfprintf_r+0x9d0>
   11038:	fff00793          	li	a5,-1
   1103c:	06f13423          	sd	a5,104(sp)
   11040:	f61ff06f          	j	10fa0 <_vfprintf_r+0xa84>
   11044:	00813783          	ld	a5,8(sp)
   11048:	0f413423          	sd	s4,232(sp)
   1104c:	03000593          	li	a1,48
   11050:	00f7c603          	lbu	a2,15(a5)
   11054:	0e813683          	ld	a3,232(sp)
   11058:	fff68713          	addi	a4,a3,-1
   1105c:	0ee13423          	sd	a4,232(sp)
   11060:	fff6c703          	lbu	a4,-1(a3)
   11064:	12c70463          	beq	a4,a2,1118c <_vfprintf_r+0xc70>
   11068:	03900613          	li	a2,57
   1106c:	12c71463          	bne	a4,a2,11194 <_vfprintf_r+0xc78>
   11070:	00813783          	ld	a5,8(sp)
   11074:	00a7c703          	lbu	a4,10(a5)
   11078:	fee68fa3          	sb	a4,-1(a3)
   1107c:	04700713          	li	a4,71
   11080:	409a0a3b          	subw	s4,s4,s1
   11084:	0d812d03          	lw	s10,216(sp)
   11088:	20ec1c63          	bne	s8,a4,112a0 <_vfprintf_r+0xd84>
   1108c:	ffd00713          	li	a4,-3
   11090:	00ed4463          	blt	s10,a4,11098 <_vfprintf_r+0xb7c>
   11094:	29add863          	bge	s11,s10,11324 <_vfprintf_r+0xe08>
   11098:	ffeb0b1b          	addiw	s6,s6,-2
   1109c:	fffd069b          	addiw	a3,s10,-1
   110a0:	0cd12c23          	sw	a3,216(sp)
   110a4:	fdfb7613          	andi	a2,s6,-33
   110a8:	04100513          	li	a0,65
   110ac:	0ffb7713          	zext.b	a4,s6
   110b0:	00000593          	li	a1,0
   110b4:	00a61863          	bne	a2,a0,110c4 <_vfprintf_r+0xba8>
   110b8:	00f7071b          	addiw	a4,a4,15
   110bc:	0ff77713          	zext.b	a4,a4
   110c0:	00100593          	li	a1,1
   110c4:	0ee10023          	sb	a4,224(sp)
   110c8:	02b00793          	li	a5,43
   110cc:	0006d863          	bgez	a3,110dc <_vfprintf_r+0xbc0>
   110d0:	00100693          	li	a3,1
   110d4:	41a686bb          	subw	a3,a3,s10
   110d8:	02d00793          	li	a5,45
   110dc:	0ef100a3          	sb	a5,225(sp)
   110e0:	00900793          	li	a5,9
   110e4:	20d7d263          	bge	a5,a3,112e8 <_vfprintf_r+0xdcc>
   110e8:	0ef10713          	addi	a4,sp,239
   110ec:	00070513          	mv	a0,a4
   110f0:	00a00593          	li	a1,10
   110f4:	00900813          	li	a6,9
   110f8:	02b6e7bb          	remw	a5,a3,a1
   110fc:	fff70613          	addi	a2,a4,-1
   11100:	02b6c6bb          	divw	a3,a3,a1
   11104:	0307879b          	addiw	a5,a5,48
   11108:	fef70fa3          	sb	a5,-1(a4)
   1110c:	1cd84063          	blt	a6,a3,112cc <_vfprintf_r+0xdb0>
   11110:	0306879b          	addiw	a5,a3,48
   11114:	fef60fa3          	sb	a5,-1(a2)
   11118:	ffe70713          	addi	a4,a4,-2
   1111c:	0e210613          	addi	a2,sp,226
   11120:	1aa76a63          	bltu	a4,a0,112d4 <_vfprintf_r+0xdb8>
   11124:	0e010793          	addi	a5,sp,224
   11128:	40f607bb          	subw	a5,a2,a5
   1112c:	04f13c23          	sd	a5,88(sp)
   11130:	05812783          	lw	a5,88(sp)
   11134:	00100713          	li	a4,1
   11138:	01478dbb          	addw	s11,a5,s4
   1113c:	000d8793          	mv	a5,s11
   11140:	01474663          	blt	a4,s4,1114c <_vfprintf_r+0xc30>
   11144:	00147713          	andi	a4,s0,1
   11148:	00070663          	beqz	a4,11154 <_vfprintf_r+0xc38>
   1114c:	01812703          	lw	a4,24(sp)
   11150:	00e78dbb          	addw	s11,a5,a4
   11154:	bff47413          	andi	s0,s0,-1025
   11158:	0004041b          	sext.w	s0,s0
   1115c:	10046793          	ori	a5,s0,256
   11160:	02f13c23          	sd	a5,56(sp)
   11164:	00013423          	sd	zero,8(sp)
   11168:	00000c13          	li	s8,0
   1116c:	00000d13          	li	s10,0
   11170:	07813783          	ld	a5,120(sp)
   11174:	00078663          	beqz	a5,11180 <_vfprintf_r+0xc64>
   11178:	02d00713          	li	a4,45
   1117c:	0ce107a3          	sb	a4,207(sp)
   11180:	03813403          	ld	s0,56(sp)
   11184:	00000713          	li	a4,0
   11188:	829ff06f          	j	109b0 <_vfprintf_r+0x494>
   1118c:	feb68fa3          	sb	a1,-1(a3)
   11190:	ec5ff06f          	j	11054 <_vfprintf_r+0xb38>
   11194:	0017071b          	addiw	a4,a4,1
   11198:	0ff77713          	zext.b	a4,a4
   1119c:	eddff06f          	j	11078 <_vfprintf_r+0xb5c>
   111a0:	04600793          	li	a5,70
   111a4:	00fc0e63          	beq	s8,a5,111c0 <_vfprintf_r+0xca4>
   111a8:	04500793          	li	a5,69
   111ac:	000d8d13          	mv	s10,s11
   111b0:	00fc1463          	bne	s8,a5,111b8 <_vfprintf_r+0xc9c>
   111b4:	001d8d1b          	addiw	s10,s11,1
   111b8:	00200693          	li	a3,2
   111bc:	00c0006f          	j	111c8 <_vfprintf_r+0xcac>
   111c0:	000d8d13          	mv	s10,s11
   111c4:	00300693          	li	a3,3
   111c8:	0d810793          	addi	a5,sp,216
   111cc:	000e8593          	mv	a1,t4
   111d0:	0e810893          	addi	a7,sp,232
   111d4:	0dc10813          	addi	a6,sp,220
   111d8:	000d0713          	mv	a4,s10
   111dc:	000a0613          	mv	a2,s4
   111e0:	00098513          	mv	a0,s3
   111e4:	01d13423          	sd	t4,8(sp)
   111e8:	21c030ef          	jal	ra,14404 <_ldtoa_r>
   111ec:	04700793          	li	a5,71
   111f0:	00050493          	mv	s1,a0
   111f4:	00813e83          	ld	t4,8(sp)
   111f8:	00fc1663          	bne	s8,a5,11204 <_vfprintf_r+0xce8>
   111fc:	00147793          	andi	a5,s0,1
   11200:	08078063          	beqz	a5,11280 <_vfprintf_r+0xd64>
   11204:	04600713          	li	a4,70
   11208:	01a487b3          	add	a5,s1,s10
   1120c:	04ec1663          	bne	s8,a4,11258 <_vfprintf_r+0xd3c>
   11210:	0004c683          	lbu	a3,0(s1)
   11214:	03000713          	li	a4,48
   11218:	02e69c63          	bne	a3,a4,11250 <_vfprintf_r+0xd34>
   1121c:	000e8513          	mv	a0,t4
   11220:	00000613          	li	a2,0
   11224:	00000693          	li	a3,0
   11228:	000a0593          	mv	a1,s4
   1122c:	06f13423          	sd	a5,104(sp)
   11230:	01d13423          	sd	t4,8(sp)
   11234:	3510a0ef          	jal	ra,1bd84 <__eqtf2>
   11238:	00813e83          	ld	t4,8(sp)
   1123c:	06813783          	ld	a5,104(sp)
   11240:	00050863          	beqz	a0,11250 <_vfprintf_r+0xd34>
   11244:	00100713          	li	a4,1
   11248:	41a70d3b          	subw	s10,a4,s10
   1124c:	0da12c23          	sw	s10,216(sp)
   11250:	0d812703          	lw	a4,216(sp)
   11254:	00e787b3          	add	a5,a5,a4
   11258:	00000693          	li	a3,0
   1125c:	00000613          	li	a2,0
   11260:	000e8513          	mv	a0,t4
   11264:	000a0593          	mv	a1,s4
   11268:	00f13423          	sd	a5,8(sp)
   1126c:	3190a0ef          	jal	ra,1bd84 <__eqtf2>
   11270:	00813783          	ld	a5,8(sp)
   11274:	03000693          	li	a3,48
   11278:	00051e63          	bnez	a0,11294 <_vfprintf_r+0xd78>
   1127c:	0ef13423          	sd	a5,232(sp)
   11280:	0e813a03          	ld	s4,232(sp)
   11284:	df9ff06f          	j	1107c <_vfprintf_r+0xb60>
   11288:	00170613          	addi	a2,a4,1
   1128c:	0ec13423          	sd	a2,232(sp)
   11290:	00d70023          	sb	a3,0(a4)
   11294:	0e813703          	ld	a4,232(sp)
   11298:	fef768e3          	bltu	a4,a5,11288 <_vfprintf_r+0xd6c>
   1129c:	fe5ff06f          	j	11280 <_vfprintf_r+0xd64>
   112a0:	04600713          	li	a4,70
   112a4:	deec1ce3          	bne	s8,a4,1109c <_vfprintf_r+0xb80>
   112a8:	07a05263          	blez	s10,1130c <_vfprintf_r+0xdf0>
   112ac:	000d9663          	bnez	s11,112b8 <_vfprintf_r+0xd9c>
   112b0:	00147713          	andi	a4,s0,1
   112b4:	0c070463          	beqz	a4,1137c <_vfprintf_r+0xe60>
   112b8:	01812783          	lw	a5,24(sp)
   112bc:	01a7873b          	addw	a4,a5,s10
   112c0:	01b70dbb          	addw	s11,a4,s11
   112c4:	06600b13          	li	s6,102
   112c8:	0940006f          	j	1135c <_vfprintf_r+0xe40>
   112cc:	00060713          	mv	a4,a2
   112d0:	e29ff06f          	j	110f8 <_vfprintf_r+0xbdc>
   112d4:	00170713          	addi	a4,a4,1
   112d8:	fff74783          	lbu	a5,-1(a4)
   112dc:	00160613          	addi	a2,a2,1
   112e0:	fef60fa3          	sb	a5,-1(a2)
   112e4:	e3dff06f          	j	11120 <_vfprintf_r+0xc04>
   112e8:	0e210713          	addi	a4,sp,226
   112ec:	00059863          	bnez	a1,112fc <_vfprintf_r+0xde0>
   112f0:	03000793          	li	a5,48
   112f4:	0ef10123          	sb	a5,226(sp)
   112f8:	0e310713          	addi	a4,sp,227
   112fc:	0306879b          	addiw	a5,a3,48
   11300:	00170613          	addi	a2,a4,1
   11304:	00f70023          	sb	a5,0(a4)
   11308:	e1dff06f          	j	11124 <_vfprintf_r+0xc08>
   1130c:	000d9663          	bnez	s11,11318 <_vfprintf_r+0xdfc>
   11310:	00147713          	andi	a4,s0,1
   11314:	06070863          	beqz	a4,11384 <_vfprintf_r+0xe68>
   11318:	01812783          	lw	a5,24(sp)
   1131c:	0017871b          	addiw	a4,a5,1
   11320:	fa1ff06f          	j	112c0 <_vfprintf_r+0xda4>
   11324:	034d4063          	blt	s10,s4,11344 <_vfprintf_r+0xe28>
   11328:	00147713          	andi	a4,s0,1
   1132c:	000d0d93          	mv	s11,s10
   11330:	00070663          	beqz	a4,1133c <_vfprintf_r+0xe20>
   11334:	01812783          	lw	a5,24(sp)
   11338:	01a78dbb          	addw	s11,a5,s10
   1133c:	06700b13          	li	s6,103
   11340:	01c0006f          	j	1135c <_vfprintf_r+0xe40>
   11344:	01812783          	lw	a5,24(sp)
   11348:	06700b13          	li	s6,103
   1134c:	01478dbb          	addw	s11,a5,s4
   11350:	01a04663          	bgtz	s10,1135c <_vfprintf_r+0xe40>
   11354:	41ad8e3b          	subw	t3,s11,s10
   11358:	001e0d9b          	addiw	s11,t3,1
   1135c:	40047413          	andi	s0,s0,1024
   11360:	00040c1b          	sext.w	s8,s0
   11364:	00013423          	sd	zero,8(sp)
   11368:	e00c04e3          	beqz	s8,11170 <_vfprintf_r+0xc54>
   1136c:	00000c13          	li	s8,0
   11370:	e1a050e3          	blez	s10,11170 <_vfprintf_r+0xc54>
   11374:	0ff00693          	li	a3,255
   11378:	03c0006f          	j	113b4 <_vfprintf_r+0xe98>
   1137c:	000d0d93          	mv	s11,s10
   11380:	f45ff06f          	j	112c4 <_vfprintf_r+0xda8>
   11384:	06600b13          	li	s6,102
   11388:	00100d93          	li	s11,1
   1138c:	fd1ff06f          	j	1135c <_vfprintf_r+0xe40>
   11390:	0007071b          	sext.w	a4,a4
   11394:	03a75663          	bge	a4,s10,113c0 <_vfprintf_r+0xea4>
   11398:	00013783          	ld	a5,0(sp)
   1139c:	40ed0d3b          	subw	s10,s10,a4
   113a0:	0017c703          	lbu	a4,1(a5)
   113a4:	02070a63          	beqz	a4,113d8 <_vfprintf_r+0xebc>
   113a8:	00178793          	addi	a5,a5,1
   113ac:	001c0c1b          	addiw	s8,s8,1
   113b0:	00f13023          	sd	a5,0(sp)
   113b4:	00013783          	ld	a5,0(sp)
   113b8:	0007c703          	lbu	a4,0(a5)
   113bc:	fcd71ae3          	bne	a4,a3,11390 <_vfprintf_r+0xe74>
   113c0:	00812783          	lw	a5,8(sp)
   113c4:	00fc073b          	addw	a4,s8,a5
   113c8:	04012783          	lw	a5,64(sp)
   113cc:	02f7073b          	mulw	a4,a4,a5
   113d0:	01b70dbb          	addw	s11,a4,s11
   113d4:	d9dff06f          	j	11170 <_vfprintf_r+0xc54>
   113d8:	00812783          	lw	a5,8(sp)
   113dc:	0017879b          	addiw	a5,a5,1
   113e0:	00f13423          	sd	a5,8(sp)
   113e4:	fd1ff06f          	j	113b4 <_vfprintf_r+0xe98>
   113e8:	008b8713          	addi	a4,s7,8
   113ec:	02e13823          	sd	a4,48(sp)
   113f0:	02047713          	andi	a4,s0,32
   113f4:	000bb783          	ld	a5,0(s7)
   113f8:	00070c63          	beqz	a4,11410 <_vfprintf_r+0xef4>
   113fc:	02813703          	ld	a4,40(sp)
   11400:	00e7b023          	sd	a4,0(a5)
   11404:	03013b83          	ld	s7,48(sp)
   11408:	01013483          	ld	s1,16(sp)
   1140c:	ab8ff06f          	j	106c4 <_vfprintf_r+0x1a8>
   11410:	01047713          	andi	a4,s0,16
   11414:	fe0714e3          	bnez	a4,113fc <_vfprintf_r+0xee0>
   11418:	04047713          	andi	a4,s0,64
   1141c:	00070863          	beqz	a4,1142c <_vfprintf_r+0xf10>
   11420:	02815703          	lhu	a4,40(sp)
   11424:	00e79023          	sh	a4,0(a5)
   11428:	fddff06f          	j	11404 <_vfprintf_r+0xee8>
   1142c:	20047413          	andi	s0,s0,512
   11430:	00040863          	beqz	s0,11440 <_vfprintf_r+0xf24>
   11434:	02814703          	lbu	a4,40(sp)
   11438:	00e78023          	sb	a4,0(a5)
   1143c:	fc9ff06f          	j	11404 <_vfprintf_r+0xee8>
   11440:	02812703          	lw	a4,40(sp)
   11444:	00e7a023          	sw	a4,0(a5)
   11448:	fbdff06f          	j	11404 <_vfprintf_r+0xee8>
   1144c:	01046413          	ori	s0,s0,16
   11450:	0004041b          	sext.w	s0,s0
   11454:	008b8793          	addi	a5,s7,8
   11458:	02f13823          	sd	a5,48(sp)
   1145c:	02047793          	andi	a5,s0,32
   11460:	04078063          	beqz	a5,114a0 <_vfprintf_r+0xf84>
   11464:	000bbb83          	ld	s7,0(s7)
   11468:	bff47413          	andi	s0,s0,-1025
   1146c:	0004041b          	sext.w	s0,s0
   11470:	00000793          	li	a5,0
   11474:	0c0107a3          	sb	zero,207(sp)
   11478:	fff00713          	li	a4,-1
   1147c:	18ed8c63          	beq	s11,a4,11614 <_vfprintf_r+0x10f8>
   11480:	00040713          	mv	a4,s0
   11484:	f7f47413          	andi	s0,s0,-129
   11488:	0004041b          	sext.w	s0,s0
   1148c:	180b9463          	bnez	s7,11614 <_vfprintf_r+0x10f8>
   11490:	2a0d8a63          	beqz	s11,11744 <_vfprintf_r+0x1228>
   11494:	00100713          	li	a4,1
   11498:	18e79263          	bne	a5,a4,1161c <_vfprintf_r+0x1100>
   1149c:	821ff06f          	j	10cbc <_vfprintf_r+0x7a0>
   114a0:	01047793          	andi	a5,s0,16
   114a4:	fc0790e3          	bnez	a5,11464 <_vfprintf_r+0xf48>
   114a8:	04047793          	andi	a5,s0,64
   114ac:	000bab83          	lw	s7,0(s7)
   114b0:	00078863          	beqz	a5,114c0 <_vfprintf_r+0xfa4>
   114b4:	030b9b93          	slli	s7,s7,0x30
   114b8:	030bdb93          	srli	s7,s7,0x30
   114bc:	fadff06f          	j	11468 <_vfprintf_r+0xf4c>
   114c0:	20047793          	andi	a5,s0,512
   114c4:	00078663          	beqz	a5,114d0 <_vfprintf_r+0xfb4>
   114c8:	0ffbfb93          	zext.b	s7,s7
   114cc:	f9dff06f          	j	11468 <_vfprintf_r+0xf4c>
   114d0:	020b9b93          	slli	s7,s7,0x20
   114d4:	020bdb93          	srli	s7,s7,0x20
   114d8:	f91ff06f          	j	11468 <_vfprintf_r+0xf4c>
   114dc:	008b8793          	addi	a5,s7,8
   114e0:	02f13823          	sd	a5,48(sp)
   114e4:	ffff87b7          	lui	a5,0xffff8
   114e8:	8307c793          	xori	a5,a5,-2000
   114ec:	0cf11823          	sh	a5,208(sp)
   114f0:	0001e7b7          	lui	a5,0x1e
   114f4:	c1078793          	addi	a5,a5,-1008 # 1dc10 <zeroes.4441+0x68>
   114f8:	00246413          	ori	s0,s0,2
   114fc:	06f13023          	sd	a5,96(sp)
   11500:	000bbb83          	ld	s7,0(s7)
   11504:	0004041b          	sext.w	s0,s0
   11508:	00200793          	li	a5,2
   1150c:	07800b13          	li	s6,120
   11510:	f65ff06f          	j	11474 <_vfprintf_r+0xf58>
   11514:	008b8793          	addi	a5,s7,8
   11518:	02f13823          	sd	a5,48(sp)
   1151c:	0c0107a3          	sb	zero,207(sp)
   11520:	fff00793          	li	a5,-1
   11524:	000bb483          	ld	s1,0(s7)
   11528:	02fd8463          	beq	s11,a5,11550 <_vfprintf_r+0x1034>
   1152c:	000d8613          	mv	a2,s11
   11530:	00000593          	li	a1,0
   11534:	00048513          	mv	a0,s1
   11538:	3d4040ef          	jal	ra,1590c <memchr>
   1153c:	00050b93          	mv	s7,a0
   11540:	82050ce3          	beqz	a0,10d78 <_vfprintf_r+0x85c>
   11544:	40950dbb          	subw	s11,a0,s1
   11548:	00000b93          	li	s7,0
   1154c:	82dff06f          	j	10d78 <_vfprintf_r+0x85c>
   11550:	00048513          	mv	a0,s1
   11554:	60c050ef          	jal	ra,16b60 <strlen>
   11558:	00050d9b          	sext.w	s11,a0
   1155c:	fedff06f          	j	11548 <_vfprintf_r+0x102c>
   11560:	01046413          	ori	s0,s0,16
   11564:	0004041b          	sext.w	s0,s0
   11568:	008b8793          	addi	a5,s7,8
   1156c:	02f13823          	sd	a5,48(sp)
   11570:	02047793          	andi	a5,s0,32
   11574:	00078863          	beqz	a5,11584 <_vfprintf_r+0x1068>
   11578:	000bbb83          	ld	s7,0(s7)
   1157c:	00100793          	li	a5,1
   11580:	ef5ff06f          	j	11474 <_vfprintf_r+0xf58>
   11584:	01047793          	andi	a5,s0,16
   11588:	fe0798e3          	bnez	a5,11578 <_vfprintf_r+0x105c>
   1158c:	04047793          	andi	a5,s0,64
   11590:	000bab83          	lw	s7,0(s7)
   11594:	00078863          	beqz	a5,115a4 <_vfprintf_r+0x1088>
   11598:	030b9b93          	slli	s7,s7,0x30
   1159c:	030bdb93          	srli	s7,s7,0x30
   115a0:	fddff06f          	j	1157c <_vfprintf_r+0x1060>
   115a4:	20047793          	andi	a5,s0,512
   115a8:	00078663          	beqz	a5,115b4 <_vfprintf_r+0x1098>
   115ac:	0ffbfb93          	zext.b	s7,s7
   115b0:	fcdff06f          	j	1157c <_vfprintf_r+0x1060>
   115b4:	020b9b93          	slli	s7,s7,0x20
   115b8:	020bdb93          	srli	s7,s7,0x20
   115bc:	fc1ff06f          	j	1157c <_vfprintf_r+0x1060>
   115c0:	0001e7b7          	lui	a5,0x1e
   115c4:	c1078793          	addi	a5,a5,-1008 # 1dc10 <zeroes.4441+0x68>
   115c8:	9dcff06f          	j	107a4 <_vfprintf_r+0x288>
   115cc:	01047793          	andi	a5,s0,16
   115d0:	9e079463          	bnez	a5,107b8 <_vfprintf_r+0x29c>
   115d4:	04047793          	andi	a5,s0,64
   115d8:	000bab83          	lw	s7,0(s7)
   115dc:	00078863          	beqz	a5,115ec <_vfprintf_r+0x10d0>
   115e0:	030b9b93          	slli	s7,s7,0x30
   115e4:	030bdb93          	srli	s7,s7,0x30
   115e8:	9d4ff06f          	j	107bc <_vfprintf_r+0x2a0>
   115ec:	20047793          	andi	a5,s0,512
   115f0:	00078663          	beqz	a5,115fc <_vfprintf_r+0x10e0>
   115f4:	0ffbfb93          	zext.b	s7,s7
   115f8:	9c4ff06f          	j	107bc <_vfprintf_r+0x2a0>
   115fc:	020b9b93          	slli	s7,s7,0x20
   11600:	020bdb93          	srli	s7,s7,0x20
   11604:	9b8ff06f          	j	107bc <_vfprintf_r+0x2a0>
   11608:	00040713          	mv	a4,s0
   1160c:	00100793          	li	a5,1
   11610:	e75ff06f          	j	11484 <_vfprintf_r+0xf68>
   11614:	00100713          	li	a4,1
   11618:	e8e78e63          	beq	a5,a4,10cb4 <_vfprintf_r+0x798>
   1161c:	00200713          	li	a4,2
   11620:	0ee78e63          	beq	a5,a4,1171c <_vfprintf_r+0x1200>
   11624:	17c10793          	addi	a5,sp,380
   11628:	007bf713          	andi	a4,s7,7
   1162c:	03070713          	addi	a4,a4,48
   11630:	fee78fa3          	sb	a4,-1(a5)
   11634:	003bdb93          	srli	s7,s7,0x3
   11638:	fff78493          	addi	s1,a5,-1
   1163c:	020b9e63          	bnez	s7,11678 <_vfprintf_r+0x115c>
   11640:	00147693          	andi	a3,s0,1
   11644:	00068a63          	beqz	a3,11658 <_vfprintf_r+0x113c>
   11648:	03000693          	li	a3,48
   1164c:	00d70663          	beq	a4,a3,11658 <_vfprintf_r+0x113c>
   11650:	fed48fa3          	sb	a3,-1(s1)
   11654:	ffe78493          	addi	s1,a5,-2
   11658:	17c10e13          	addi	t3,sp,380
   1165c:	000d8713          	mv	a4,s11
   11660:	00000b93          	li	s7,0
   11664:	409e0dbb          	subw	s11,t3,s1
   11668:	00013423          	sd	zero,8(sp)
   1166c:	00000c13          	li	s8,0
   11670:	00000d13          	li	s10,0
   11674:	b3cff06f          	j	109b0 <_vfprintf_r+0x494>
   11678:	00048793          	mv	a5,s1
   1167c:	fadff06f          	j	11628 <_vfprintf_r+0x110c>
   11680:	40047c13          	andi	s8,s0,1024
   11684:	00000a13          	li	s4,0
   11688:	17c10793          	addi	a5,sp,380
   1168c:	00a00d13          	li	s10,10
   11690:	000c0c1b          	sext.w	s8,s8
   11694:	0ff00693          	li	a3,255
   11698:	00900813          	li	a6,9
   1169c:	03abf733          	remu	a4,s7,s10
   116a0:	fff78493          	addi	s1,a5,-1
   116a4:	001a0a1b          	addiw	s4,s4,1
   116a8:	0307071b          	addiw	a4,a4,48
   116ac:	fee78fa3          	sb	a4,-1(a5)
   116b0:	040c0e63          	beqz	s8,1170c <_vfprintf_r+0x11f0>
   116b4:	00013783          	ld	a5,0(sp)
   116b8:	0007c783          	lbu	a5,0(a5)
   116bc:	04fa1863          	bne	s4,a5,1170c <_vfprintf_r+0x11f0>
   116c0:	04d78663          	beq	a5,a3,1170c <_vfprintf_r+0x11f0>
   116c4:	05787463          	bgeu	a6,s7,1170c <_vfprintf_r+0x11f0>
   116c8:	04013783          	ld	a5,64(sp)
   116cc:	05013583          	ld	a1,80(sp)
   116d0:	03013c23          	sd	a6,56(sp)
   116d4:	40f484b3          	sub	s1,s1,a5
   116d8:	00078613          	mv	a2,a5
   116dc:	00048513          	mv	a0,s1
   116e0:	00d13423          	sd	a3,8(sp)
   116e4:	498050ef          	jal	ra,16b7c <strncpy>
   116e8:	00013783          	ld	a5,0(sp)
   116ec:	00000a13          	li	s4,0
   116f0:	00813683          	ld	a3,8(sp)
   116f4:	0017c783          	lbu	a5,1(a5)
   116f8:	03813803          	ld	a6,56(sp)
   116fc:	00078863          	beqz	a5,1170c <_vfprintf_r+0x11f0>
   11700:	00013783          	ld	a5,0(sp)
   11704:	00178793          	addi	a5,a5,1
   11708:	00f13023          	sd	a5,0(sp)
   1170c:	03abdbb3          	divu	s7,s7,s10
   11710:	f40b84e3          	beqz	s7,11658 <_vfprintf_r+0x113c>
   11714:	00048793          	mv	a5,s1
   11718:	f85ff06f          	j	1169c <_vfprintf_r+0x1180>
   1171c:	17c10493          	addi	s1,sp,380
   11720:	06013703          	ld	a4,96(sp)
   11724:	00fbf793          	andi	a5,s7,15
   11728:	fff48493          	addi	s1,s1,-1
   1172c:	00f707b3          	add	a5,a4,a5
   11730:	0007c783          	lbu	a5,0(a5)
   11734:	004bdb93          	srli	s7,s7,0x4
   11738:	00f48023          	sb	a5,0(s1)
   1173c:	fe0b92e3          	bnez	s7,11720 <_vfprintf_r+0x1204>
   11740:	f19ff06f          	j	11658 <_vfprintf_r+0x113c>
   11744:	17c10493          	addi	s1,sp,380
   11748:	f00798e3          	bnez	a5,11658 <_vfprintf_r+0x113c>
   1174c:	00177713          	andi	a4,a4,1
   11750:	f00704e3          	beqz	a4,11658 <_vfprintf_r+0x113c>
   11754:	03000793          	li	a5,48
   11758:	16f10da3          	sb	a5,379(sp)
   1175c:	d68ff06f          	j	10cc4 <_vfprintf_r+0x7a8>
   11760:	360b06e3          	beqz	s6,122cc <_vfprintf_r+0x1db0>
   11764:	11610c23          	sb	s6,280(sp)
   11768:	0c0107a3          	sb	zero,207(sp)
   1176c:	03713823          	sd	s7,48(sp)
   11770:	a24ff06f          	j	10994 <_vfprintf_r+0x478>
   11774:	01060613          	addi	a2,a2,16
   11778:	011cb423          	sd	a7,8(s9)
   1177c:	10c13823          	sd	a2,272(sp)
   11780:	10b12423          	sw	a1,264(sp)
   11784:	04aed263          	bge	t4,a0,117c8 <_vfprintf_r+0x12ac>
   11788:	10010613          	addi	a2,sp,256
   1178c:	00090593          	mv	a1,s2
   11790:	00098513          	mv	a0,s3
   11794:	0bd13c23          	sd	t4,184(sp)
   11798:	0b013823          	sd	a6,176(sp)
   1179c:	09113423          	sd	a7,136(sp)
   117a0:	08e13023          	sd	a4,128(sp)
   117a4:	06d13c23          	sd	a3,120(sp)
   117a8:	190070ef          	jal	ra,18938 <__sprint_r>
   117ac:	2c0510e3          	bnez	a0,1226c <_vfprintf_r+0x1d50>
   117b0:	0b813e83          	ld	t4,184(sp)
   117b4:	0b013803          	ld	a6,176(sp)
   117b8:	08813883          	ld	a7,136(sp)
   117bc:	08013703          	ld	a4,128(sp)
   117c0:	07813683          	ld	a3,120(sp)
   117c4:	000a8f13          	mv	t5,s5
   117c8:	ff06869b          	addiw	a3,a3,-16
   117cc:	000f0c93          	mv	s9,t5
   117d0:	a4cff06f          	j	10a1c <_vfprintf_r+0x500>
   117d4:	01060613          	addi	a2,a2,16
   117d8:	011cb423          	sd	a7,8(s9)
   117dc:	10c13823          	sd	a2,272(sp)
   117e0:	10b12423          	sw	a1,264(sp)
   117e4:	04aed263          	bge	t4,a0,11828 <_vfprintf_r+0x130c>
   117e8:	10010613          	addi	a2,sp,256
   117ec:	00090593          	mv	a1,s2
   117f0:	00098513          	mv	a0,s3
   117f4:	09d13423          	sd	t4,136(sp)
   117f8:	09013023          	sd	a6,128(sp)
   117fc:	07113c23          	sd	a7,120(sp)
   11800:	06e13823          	sd	a4,112(sp)
   11804:	06d13423          	sd	a3,104(sp)
   11808:	130070ef          	jal	ra,18938 <__sprint_r>
   1180c:	260510e3          	bnez	a0,1226c <_vfprintf_r+0x1d50>
   11810:	08813e83          	ld	t4,136(sp)
   11814:	08013803          	ld	a6,128(sp)
   11818:	07813883          	ld	a7,120(sp)
   1181c:	07013703          	ld	a4,112(sp)
   11820:	06813683          	ld	a3,104(sp)
   11824:	000a8f13          	mv	t5,s5
   11828:	ff06869b          	addiw	a3,a3,-16
   1182c:	000f0c93          	mv	s9,t5
   11830:	b34ff06f          	j	10b64 <_vfprintf_r+0x648>
   11834:	01068693          	addi	a3,a3,16
   11838:	011cb423          	sd	a7,8(s9)
   1183c:	10d13823          	sd	a3,272(sp)
   11840:	10c12423          	sw	a2,264(sp)
   11844:	02bede63          	bge	t4,a1,11880 <_vfprintf_r+0x1364>
   11848:	10010613          	addi	a2,sp,256
   1184c:	00090593          	mv	a1,s2
   11850:	00098513          	mv	a0,s3
   11854:	09d13023          	sd	t4,128(sp)
   11858:	07013c23          	sd	a6,120(sp)
   1185c:	07113823          	sd	a7,112(sp)
   11860:	06e13423          	sd	a4,104(sp)
   11864:	0d4070ef          	jal	ra,18938 <__sprint_r>
   11868:	200512e3          	bnez	a0,1226c <_vfprintf_r+0x1d50>
   1186c:	08013e83          	ld	t4,128(sp)
   11870:	07813803          	ld	a6,120(sp)
   11874:	07013883          	ld	a7,112(sp)
   11878:	06813703          	ld	a4,104(sp)
   1187c:	000a8513          	mv	a0,s5
   11880:	ff07071b          	addiw	a4,a4,-16
   11884:	00050c93          	mv	s9,a0
   11888:	b50ff06f          	j	10bd8 <_vfprintf_r+0x6bc>
   1188c:	06500693          	li	a3,101
   11890:	7966dc63          	bge	a3,s6,12028 <_vfprintf_r+0x1b0c>
   11894:	0f013503          	ld	a0,240(sp)
   11898:	0f813583          	ld	a1,248(sp)
   1189c:	00000613          	li	a2,0
   118a0:	00000693          	li	a3,0
   118a4:	06e13423          	sd	a4,104(sp)
   118a8:	4dc0a0ef          	jal	ra,1bd84 <__eqtf2>
   118ac:	06813703          	ld	a4,104(sp)
   118b0:	18051663          	bnez	a0,11a3c <_vfprintf_r+0x1520>
   118b4:	0001e7b7          	lui	a5,0x1e
   118b8:	c4078793          	addi	a5,a5,-960 # 1dc40 <zeroes.4441+0x98>
   118bc:	00fcb023          	sd	a5,0(s9)
   118c0:	00100793          	li	a5,1
   118c4:	00fcb423          	sd	a5,8(s9)
   118c8:	10812783          	lw	a5,264(sp)
   118cc:	00170713          	addi	a4,a4,1
   118d0:	10e13823          	sd	a4,272(sp)
   118d4:	0017871b          	addiw	a4,a5,1
   118d8:	10e12423          	sw	a4,264(sp)
   118dc:	00700793          	li	a5,7
   118e0:	010c8c93          	addi	s9,s9,16
   118e4:	00e7de63          	bge	a5,a4,11900 <_vfprintf_r+0x13e4>
   118e8:	10010613          	addi	a2,sp,256
   118ec:	00090593          	mv	a1,s2
   118f0:	00098513          	mv	a0,s3
   118f4:	044070ef          	jal	ra,18938 <__sprint_r>
   118f8:	16051ae3          	bnez	a0,1226c <_vfprintf_r+0x1d50>
   118fc:	000a8c93          	mv	s9,s5
   11900:	0d812783          	lw	a5,216(sp)
   11904:	0147c663          	blt	a5,s4,11910 <_vfprintf_r+0x13f4>
   11908:	00147793          	andi	a5,s0,1
   1190c:	0a078263          	beqz	a5,119b0 <_vfprintf_r+0x1494>
   11910:	04813783          	ld	a5,72(sp)
   11914:	01813703          	ld	a4,24(sp)
   11918:	010c8c93          	addi	s9,s9,16
   1191c:	fefcb823          	sd	a5,-16(s9)
   11920:	01813783          	ld	a5,24(sp)
   11924:	fefcbc23          	sd	a5,-8(s9)
   11928:	11013783          	ld	a5,272(sp)
   1192c:	00e787b3          	add	a5,a5,a4
   11930:	10f13823          	sd	a5,272(sp)
   11934:	10812783          	lw	a5,264(sp)
   11938:	0017871b          	addiw	a4,a5,1
   1193c:	10e12423          	sw	a4,264(sp)
   11940:	00700793          	li	a5,7
   11944:	00e7de63          	bge	a5,a4,11960 <_vfprintf_r+0x1444>
   11948:	10010613          	addi	a2,sp,256
   1194c:	00090593          	mv	a1,s2
   11950:	00098513          	mv	a0,s3
   11954:	7e5060ef          	jal	ra,18938 <__sprint_r>
   11958:	10051ae3          	bnez	a0,1226c <_vfprintf_r+0x1d50>
   1195c:	000a8c93          	mv	s9,s5
   11960:	fffa049b          	addiw	s1,s4,-1
   11964:	04905663          	blez	s1,119b0 <_vfprintf_r+0x1494>
   11968:	0001eb37          	lui	s6,0x1e
   1196c:	01000c13          	li	s8,16
   11970:	ba8b0b13          	addi	s6,s6,-1112 # 1dba8 <zeroes.4441>
   11974:	00700d13          	li	s10,7
   11978:	10812703          	lw	a4,264(sp)
   1197c:	016cb023          	sd	s6,0(s9)
   11980:	11013783          	ld	a5,272(sp)
   11984:	0017069b          	addiw	a3,a4,1
   11988:	00068713          	mv	a4,a3
   1198c:	010c8613          	addi	a2,s9,16
   11990:	069c4a63          	blt	s8,s1,11a04 <_vfprintf_r+0x14e8>
   11994:	009cb423          	sd	s1,8(s9)
   11998:	00f484b3          	add	s1,s1,a5
   1199c:	10913823          	sd	s1,272(sp)
   119a0:	10d12423          	sw	a3,264(sp)
   119a4:	00700793          	li	a5,7
   119a8:	00060c93          	mv	s9,a2
   119ac:	aad7ca63          	blt	a5,a3,10c60 <_vfprintf_r+0x744>
   119b0:	00447413          	andi	s0,s0,4
   119b4:	04041ae3          	bnez	s0,12208 <_vfprintf_r+0x1cec>
   119b8:	02013703          	ld	a4,32(sp)
   119bc:	03813683          	ld	a3,56(sp)
   119c0:	02012783          	lw	a5,32(sp)
   119c4:	00d75463          	bge	a4,a3,119cc <_vfprintf_r+0x14b0>
   119c8:	03812783          	lw	a5,56(sp)
   119cc:	02812703          	lw	a4,40(sp)
   119d0:	00e787bb          	addw	a5,a5,a4
   119d4:	02f13423          	sd	a5,40(sp)
   119d8:	11013783          	ld	a5,272(sp)
   119dc:	00078c63          	beqz	a5,119f4 <_vfprintf_r+0x14d8>
   119e0:	10010613          	addi	a2,sp,256
   119e4:	00090593          	mv	a1,s2
   119e8:	00098513          	mv	a0,s3
   119ec:	74d060ef          	jal	ra,18938 <__sprint_r>
   119f0:	06051ee3          	bnez	a0,1226c <_vfprintf_r+0x1d50>
   119f4:	10012423          	sw	zero,264(sp)
   119f8:	0c0b92e3          	bnez	s7,122bc <_vfprintf_r+0x1da0>
   119fc:	000a8c93          	mv	s9,s5
   11a00:	a05ff06f          	j	11404 <_vfprintf_r+0xee8>
   11a04:	01078793          	addi	a5,a5,16
   11a08:	018cb423          	sd	s8,8(s9)
   11a0c:	10f13823          	sd	a5,272(sp)
   11a10:	10e12423          	sw	a4,264(sp)
   11a14:	00dd5e63          	bge	s10,a3,11a30 <_vfprintf_r+0x1514>
   11a18:	10010613          	addi	a2,sp,256
   11a1c:	00090593          	mv	a1,s2
   11a20:	00098513          	mv	a0,s3
   11a24:	715060ef          	jal	ra,18938 <__sprint_r>
   11a28:	040512e3          	bnez	a0,1226c <_vfprintf_r+0x1d50>
   11a2c:	000a8613          	mv	a2,s5
   11a30:	ff04849b          	addiw	s1,s1,-16
   11a34:	00060c93          	mv	s9,a2
   11a38:	f41ff06f          	j	11978 <_vfprintf_r+0x145c>
   11a3c:	0d812683          	lw	a3,216(sp)
   11a40:	18d04463          	bgtz	a3,11bc8 <_vfprintf_r+0x16ac>
   11a44:	0001e7b7          	lui	a5,0x1e
   11a48:	c4078793          	addi	a5,a5,-960 # 1dc40 <zeroes.4441+0x98>
   11a4c:	00fcb023          	sd	a5,0(s9)
   11a50:	00100793          	li	a5,1
   11a54:	00fcb423          	sd	a5,8(s9)
   11a58:	10812783          	lw	a5,264(sp)
   11a5c:	00170713          	addi	a4,a4,1
   11a60:	10e13823          	sd	a4,272(sp)
   11a64:	0017871b          	addiw	a4,a5,1
   11a68:	10e12423          	sw	a4,264(sp)
   11a6c:	00700793          	li	a5,7
   11a70:	010c8c93          	addi	s9,s9,16
   11a74:	00e7de63          	bge	a5,a4,11a90 <_vfprintf_r+0x1574>
   11a78:	10010613          	addi	a2,sp,256
   11a7c:	00090593          	mv	a1,s2
   11a80:	00098513          	mv	a0,s3
   11a84:	6b5060ef          	jal	ra,18938 <__sprint_r>
   11a88:	7e051263          	bnez	a0,1226c <_vfprintf_r+0x1d50>
   11a8c:	000a8c93          	mv	s9,s5
   11a90:	0d812783          	lw	a5,216(sp)
   11a94:	00079863          	bnez	a5,11aa4 <_vfprintf_r+0x1588>
   11a98:	000a1663          	bnez	s4,11aa4 <_vfprintf_r+0x1588>
   11a9c:	00147793          	andi	a5,s0,1
   11aa0:	f00788e3          	beqz	a5,119b0 <_vfprintf_r+0x1494>
   11aa4:	04813783          	ld	a5,72(sp)
   11aa8:	01813703          	ld	a4,24(sp)
   11aac:	010c8313          	addi	t1,s9,16
   11ab0:	00fcb023          	sd	a5,0(s9)
   11ab4:	01813783          	ld	a5,24(sp)
   11ab8:	00fcb423          	sd	a5,8(s9)
   11abc:	11013783          	ld	a5,272(sp)
   11ac0:	00e787b3          	add	a5,a5,a4
   11ac4:	10f13823          	sd	a5,272(sp)
   11ac8:	10812783          	lw	a5,264(sp)
   11acc:	0017871b          	addiw	a4,a5,1
   11ad0:	10e12423          	sw	a4,264(sp)
   11ad4:	00700793          	li	a5,7
   11ad8:	00e7de63          	bge	a5,a4,11af4 <_vfprintf_r+0x15d8>
   11adc:	10010613          	addi	a2,sp,256
   11ae0:	00090593          	mv	a1,s2
   11ae4:	00098513          	mv	a0,s3
   11ae8:	651060ef          	jal	ra,18938 <__sprint_r>
   11aec:	78051063          	bnez	a0,1226c <_vfprintf_r+0x1d50>
   11af0:	000a8313          	mv	t1,s5
   11af4:	0d812b03          	lw	s6,216(sp)
   11af8:	060b5463          	bgez	s6,11b60 <_vfprintf_r+0x1644>
   11afc:	0001ec37          	lui	s8,0x1e
   11b00:	41600b3b          	negw	s6,s6
   11b04:	00030793          	mv	a5,t1
   11b08:	01000d13          	li	s10,16
   11b0c:	ba8c0c13          	addi	s8,s8,-1112 # 1dba8 <zeroes.4441>
   11b10:	00700c93          	li	s9,7
   11b14:	10812683          	lw	a3,264(sp)
   11b18:	0187b023          	sd	s8,0(a5)
   11b1c:	11013703          	ld	a4,272(sp)
   11b20:	0016861b          	addiw	a2,a3,1
   11b24:	00060693          	mv	a3,a2
   11b28:	01030313          	addi	t1,t1,16
   11b2c:	076d4263          	blt	s10,s6,11b90 <_vfprintf_r+0x1674>
   11b30:	0167b423          	sd	s6,8(a5)
   11b34:	00eb0b33          	add	s6,s6,a4
   11b38:	11613823          	sd	s6,272(sp)
   11b3c:	10c12423          	sw	a2,264(sp)
   11b40:	00700793          	li	a5,7
   11b44:	00c7de63          	bge	a5,a2,11b60 <_vfprintf_r+0x1644>
   11b48:	10010613          	addi	a2,sp,256
   11b4c:	00090593          	mv	a1,s2
   11b50:	00098513          	mv	a0,s3
   11b54:	5e5060ef          	jal	ra,18938 <__sprint_r>
   11b58:	70051a63          	bnez	a0,1226c <_vfprintf_r+0x1d50>
   11b5c:	000a8313          	mv	t1,s5
   11b60:	11013783          	ld	a5,272(sp)
   11b64:	00933023          	sd	s1,0(t1)
   11b68:	01433423          	sd	s4,8(t1)
   11b6c:	014787b3          	add	a5,a5,s4
   11b70:	10f13823          	sd	a5,272(sp)
   11b74:	10812783          	lw	a5,264(sp)
   11b78:	01030c93          	addi	s9,t1,16
   11b7c:	0017871b          	addiw	a4,a5,1
   11b80:	10e12423          	sw	a4,264(sp)
   11b84:	00700793          	li	a5,7
   11b88:	e2e7d4e3          	bge	a5,a4,119b0 <_vfprintf_r+0x1494>
   11b8c:	8d4ff06f          	j	10c60 <_vfprintf_r+0x744>
   11b90:	01070713          	addi	a4,a4,16
   11b94:	01a7b423          	sd	s10,8(a5)
   11b98:	10e13823          	sd	a4,272(sp)
   11b9c:	10d12423          	sw	a3,264(sp)
   11ba0:	00ccde63          	bge	s9,a2,11bbc <_vfprintf_r+0x16a0>
   11ba4:	10010613          	addi	a2,sp,256
   11ba8:	00090593          	mv	a1,s2
   11bac:	00098513          	mv	a0,s3
   11bb0:	589060ef          	jal	ra,18938 <__sprint_r>
   11bb4:	6a051c63          	bnez	a0,1226c <_vfprintf_r+0x1d50>
   11bb8:	000a8313          	mv	t1,s5
   11bbc:	ff0b0b1b          	addiw	s6,s6,-16
   11bc0:	00030793          	mv	a5,t1
   11bc4:	f51ff06f          	j	11b14 <_vfprintf_r+0x15f8>
   11bc8:	000d0b1b          	sext.w	s6,s10
   11bcc:	01aa5463          	bge	s4,s10,11bd4 <_vfprintf_r+0x16b8>
   11bd0:	000a0b1b          	sext.w	s6,s4
   11bd4:	05605263          	blez	s6,11c18 <_vfprintf_r+0x16fc>
   11bd8:	00eb0733          	add	a4,s6,a4
   11bdc:	10e13823          	sd	a4,272(sp)
   11be0:	10812703          	lw	a4,264(sp)
   11be4:	009cb023          	sd	s1,0(s9)
   11be8:	016cb423          	sd	s6,8(s9)
   11bec:	0017069b          	addiw	a3,a4,1
   11bf0:	10d12423          	sw	a3,264(sp)
   11bf4:	00700713          	li	a4,7
   11bf8:	010c8c93          	addi	s9,s9,16
   11bfc:	00d75e63          	bge	a4,a3,11c18 <_vfprintf_r+0x16fc>
   11c00:	10010613          	addi	a2,sp,256
   11c04:	00090593          	mv	a1,s2
   11c08:	00098513          	mv	a0,s3
   11c0c:	52d060ef          	jal	ra,18938 <__sprint_r>
   11c10:	64051e63          	bnez	a0,1226c <_vfprintf_r+0x1d50>
   11c14:	000a8c93          	mv	s9,s5
   11c18:	000b0713          	mv	a4,s6
   11c1c:	000b5463          	bgez	s6,11c24 <_vfprintf_r+0x1708>
   11c20:	00000713          	li	a4,0
   11c24:	40ed0b3b          	subw	s6,s10,a4
   11c28:	07605263          	blez	s6,11c8c <_vfprintf_r+0x1770>
   11c2c:	0001e6b7          	lui	a3,0x1e
   11c30:	01000813          	li	a6,16
   11c34:	ba868d93          	addi	s11,a3,-1112 # 1dba8 <zeroes.4441>
   11c38:	00700893          	li	a7,7
   11c3c:	10812603          	lw	a2,264(sp)
   11c40:	01bcb023          	sd	s11,0(s9)
   11c44:	11013703          	ld	a4,272(sp)
   11c48:	0016059b          	addiw	a1,a2,1
   11c4c:	00058613          	mv	a2,a1
   11c50:	010c8513          	addi	a0,s9,16
   11c54:	1b684c63          	blt	a6,s6,11e0c <_vfprintf_r+0x18f0>
   11c58:	016cb423          	sd	s6,8(s9)
   11c5c:	00eb0b33          	add	s6,s6,a4
   11c60:	11613823          	sd	s6,272(sp)
   11c64:	10b12423          	sw	a1,264(sp)
   11c68:	00700713          	li	a4,7
   11c6c:	00050c93          	mv	s9,a0
   11c70:	00b75e63          	bge	a4,a1,11c8c <_vfprintf_r+0x1770>
   11c74:	10010613          	addi	a2,sp,256
   11c78:	00090593          	mv	a1,s2
   11c7c:	00098513          	mv	a0,s3
   11c80:	4b9060ef          	jal	ra,18938 <__sprint_r>
   11c84:	5e051463          	bnez	a0,1226c <_vfprintf_r+0x1d50>
   11c88:	000a8c93          	mv	s9,s5
   11c8c:	40047793          	andi	a5,s0,1024
   11c90:	01a48b33          	add	s6,s1,s10
   11c94:	02078a63          	beqz	a5,11cc8 <_vfprintf_r+0x17ac>
   11c98:	014487b3          	add	a5,s1,s4
   11c9c:	06f13423          	sd	a5,104(sp)
   11ca0:	0001e7b7          	lui	a5,0x1e
   11ca4:	ba878793          	addi	a5,a5,-1112 # 1dba8 <zeroes.4441>
   11ca8:	00700d93          	li	s11,7
   11cac:	00078d13          	mv	s10,a5
   11cb0:	00813783          	ld	a5,8(sp)
   11cb4:	1a0c1063          	bnez	s8,11e54 <_vfprintf_r+0x1938>
   11cb8:	1a079063          	bnez	a5,11e58 <_vfprintf_r+0x193c>
   11cbc:	014487b3          	add	a5,s1,s4
   11cc0:	0167f463          	bgeu	a5,s6,11cc8 <_vfprintf_r+0x17ac>
   11cc4:	00078b13          	mv	s6,a5
   11cc8:	0d812783          	lw	a5,216(sp)
   11ccc:	0147c663          	blt	a5,s4,11cd8 <_vfprintf_r+0x17bc>
   11cd0:	00147793          	andi	a5,s0,1
   11cd4:	04078a63          	beqz	a5,11d28 <_vfprintf_r+0x180c>
   11cd8:	04813783          	ld	a5,72(sp)
   11cdc:	01813703          	ld	a4,24(sp)
   11ce0:	010c8c93          	addi	s9,s9,16
   11ce4:	fefcb823          	sd	a5,-16(s9)
   11ce8:	01813783          	ld	a5,24(sp)
   11cec:	fefcbc23          	sd	a5,-8(s9)
   11cf0:	11013783          	ld	a5,272(sp)
   11cf4:	00e787b3          	add	a5,a5,a4
   11cf8:	10f13823          	sd	a5,272(sp)
   11cfc:	10812783          	lw	a5,264(sp)
   11d00:	0017871b          	addiw	a4,a5,1
   11d04:	10e12423          	sw	a4,264(sp)
   11d08:	00700793          	li	a5,7
   11d0c:	00e7de63          	bge	a5,a4,11d28 <_vfprintf_r+0x180c>
   11d10:	10010613          	addi	a2,sp,256
   11d14:	00090593          	mv	a1,s2
   11d18:	00098513          	mv	a0,s3
   11d1c:	41d060ef          	jal	ra,18938 <__sprint_r>
   11d20:	54051663          	bnez	a0,1226c <_vfprintf_r+0x1d50>
   11d24:	000a8c93          	mv	s9,s5
   11d28:	0d812c03          	lw	s8,216(sp)
   11d2c:	014484b3          	add	s1,s1,s4
   11d30:	416484bb          	subw	s1,s1,s6
   11d34:	418a07bb          	subw	a5,s4,s8
   11d38:	00078c13          	mv	s8,a5
   11d3c:	00f4d463          	bge	s1,a5,11d44 <_vfprintf_r+0x1828>
   11d40:	00048c1b          	sext.w	s8,s1
   11d44:	05805463          	blez	s8,11d8c <_vfprintf_r+0x1870>
   11d48:	11013783          	ld	a5,272(sp)
   11d4c:	016cb023          	sd	s6,0(s9)
   11d50:	018cb423          	sd	s8,8(s9)
   11d54:	00fc07b3          	add	a5,s8,a5
   11d58:	10f13823          	sd	a5,272(sp)
   11d5c:	10812783          	lw	a5,264(sp)
   11d60:	010c8c93          	addi	s9,s9,16
   11d64:	0017871b          	addiw	a4,a5,1
   11d68:	10e12423          	sw	a4,264(sp)
   11d6c:	00700793          	li	a5,7
   11d70:	00e7de63          	bge	a5,a4,11d8c <_vfprintf_r+0x1870>
   11d74:	10010613          	addi	a2,sp,256
   11d78:	00090593          	mv	a1,s2
   11d7c:	00098513          	mv	a0,s3
   11d80:	3b9060ef          	jal	ra,18938 <__sprint_r>
   11d84:	4e051463          	bnez	a0,1226c <_vfprintf_r+0x1d50>
   11d88:	000a8c93          	mv	s9,s5
   11d8c:	000c0793          	mv	a5,s8
   11d90:	000c5463          	bgez	s8,11d98 <_vfprintf_r+0x187c>
   11d94:	00000793          	li	a5,0
   11d98:	0d812483          	lw	s1,216(sp)
   11d9c:	409a04bb          	subw	s1,s4,s1
   11da0:	40f484bb          	subw	s1,s1,a5
   11da4:	c09056e3          	blez	s1,119b0 <_vfprintf_r+0x1494>
   11da8:	0001eb37          	lui	s6,0x1e
   11dac:	01000c13          	li	s8,16
   11db0:	ba8b0b13          	addi	s6,s6,-1112 # 1dba8 <zeroes.4441>
   11db4:	00700d13          	li	s10,7
   11db8:	10812703          	lw	a4,264(sp)
   11dbc:	016cb023          	sd	s6,0(s9)
   11dc0:	11013783          	ld	a5,272(sp)
   11dc4:	0017069b          	addiw	a3,a4,1
   11dc8:	00068713          	mv	a4,a3
   11dcc:	010c8613          	addi	a2,s9,16
   11dd0:	229c4063          	blt	s8,s1,11ff0 <_vfprintf_r+0x1ad4>
   11dd4:	009cb423          	sd	s1,8(s9)
   11dd8:	00f484b3          	add	s1,s1,a5
   11ddc:	10913823          	sd	s1,272(sp)
   11de0:	10d12423          	sw	a3,264(sp)
   11de4:	00700793          	li	a5,7
   11de8:	00060c93          	mv	s9,a2
   11dec:	bcd7d2e3          	bge	a5,a3,119b0 <_vfprintf_r+0x1494>
   11df0:	10010613          	addi	a2,sp,256
   11df4:	00090593          	mv	a1,s2
   11df8:	00098513          	mv	a0,s3
   11dfc:	33d060ef          	jal	ra,18938 <__sprint_r>
   11e00:	46051663          	bnez	a0,1226c <_vfprintf_r+0x1d50>
   11e04:	18010c93          	addi	s9,sp,384
   11e08:	ba9ff06f          	j	119b0 <_vfprintf_r+0x1494>
   11e0c:	01070713          	addi	a4,a4,16
   11e10:	010cb423          	sd	a6,8(s9)
   11e14:	10e13823          	sd	a4,272(sp)
   11e18:	10c12423          	sw	a2,264(sp)
   11e1c:	02b8d663          	bge	a7,a1,11e48 <_vfprintf_r+0x192c>
   11e20:	10010613          	addi	a2,sp,256
   11e24:	00090593          	mv	a1,s2
   11e28:	00098513          	mv	a0,s3
   11e2c:	07113823          	sd	a7,112(sp)
   11e30:	07013423          	sd	a6,104(sp)
   11e34:	305060ef          	jal	ra,18938 <__sprint_r>
   11e38:	42051a63          	bnez	a0,1226c <_vfprintf_r+0x1d50>
   11e3c:	07013883          	ld	a7,112(sp)
   11e40:	06813803          	ld	a6,104(sp)
   11e44:	000a8513          	mv	a0,s5
   11e48:	ff0b0b1b          	addiw	s6,s6,-16
   11e4c:	00050c93          	mv	s9,a0
   11e50:	dedff06f          	j	11c3c <_vfprintf_r+0x1720>
   11e54:	0e078863          	beqz	a5,11f44 <_vfprintf_r+0x1a28>
   11e58:	00812783          	lw	a5,8(sp)
   11e5c:	fff7879b          	addiw	a5,a5,-1
   11e60:	00f13423          	sd	a5,8(sp)
   11e64:	05013783          	ld	a5,80(sp)
   11e68:	04013703          	ld	a4,64(sp)
   11e6c:	010c8c93          	addi	s9,s9,16
   11e70:	fefcb823          	sd	a5,-16(s9)
   11e74:	04013783          	ld	a5,64(sp)
   11e78:	fefcbc23          	sd	a5,-8(s9)
   11e7c:	11013783          	ld	a5,272(sp)
   11e80:	00e787b3          	add	a5,a5,a4
   11e84:	10f13823          	sd	a5,272(sp)
   11e88:	10812783          	lw	a5,264(sp)
   11e8c:	0017871b          	addiw	a4,a5,1
   11e90:	10e12423          	sw	a4,264(sp)
   11e94:	00edde63          	bge	s11,a4,11eb0 <_vfprintf_r+0x1994>
   11e98:	10010613          	addi	a2,sp,256
   11e9c:	00090593          	mv	a1,s2
   11ea0:	00098513          	mv	a0,s3
   11ea4:	295060ef          	jal	ra,18938 <__sprint_r>
   11ea8:	3c051263          	bnez	a0,1226c <_vfprintf_r+0x1d50>
   11eac:	000a8c93          	mv	s9,s5
   11eb0:	00013703          	ld	a4,0(sp)
   11eb4:	06812783          	lw	a5,104(sp)
   11eb8:	00074703          	lbu	a4,0(a4)
   11ebc:	416787bb          	subw	a5,a5,s6
   11ec0:	00e7d463          	bge	a5,a4,11ec8 <_vfprintf_r+0x19ac>
   11ec4:	0007871b          	sext.w	a4,a5
   11ec8:	04e05663          	blez	a4,11f14 <_vfprintf_r+0x19f8>
   11ecc:	11013783          	ld	a5,272(sp)
   11ed0:	016cb023          	sd	s6,0(s9)
   11ed4:	00ecb423          	sd	a4,8(s9)
   11ed8:	00f707b3          	add	a5,a4,a5
   11edc:	10f13823          	sd	a5,272(sp)
   11ee0:	10812783          	lw	a5,264(sp)
   11ee4:	010c8c93          	addi	s9,s9,16
   11ee8:	0017869b          	addiw	a3,a5,1
   11eec:	10d12423          	sw	a3,264(sp)
   11ef0:	02ddd263          	bge	s11,a3,11f14 <_vfprintf_r+0x19f8>
   11ef4:	10010613          	addi	a2,sp,256
   11ef8:	00090593          	mv	a1,s2
   11efc:	00098513          	mv	a0,s3
   11f00:	06e13823          	sd	a4,112(sp)
   11f04:	235060ef          	jal	ra,18938 <__sprint_r>
   11f08:	36051263          	bnez	a0,1226c <_vfprintf_r+0x1d50>
   11f0c:	07013703          	ld	a4,112(sp)
   11f10:	18010c93          	addi	s9,sp,384
   11f14:	00070693          	mv	a3,a4
   11f18:	00075463          	bgez	a4,11f20 <_vfprintf_r+0x1a04>
   11f1c:	00000693          	li	a3,0
   11f20:	00013783          	ld	a5,0(sp)
   11f24:	01000813          	li	a6,16
   11f28:	0007c783          	lbu	a5,0(a5)
   11f2c:	40d787bb          	subw	a5,a5,a3
   11f30:	06f04863          	bgtz	a5,11fa0 <_vfprintf_r+0x1a84>
   11f34:	00013783          	ld	a5,0(sp)
   11f38:	0007c783          	lbu	a5,0(a5)
   11f3c:	00fb0b33          	add	s6,s6,a5
   11f40:	d71ff06f          	j	11cb0 <_vfprintf_r+0x1794>
   11f44:	00013783          	ld	a5,0(sp)
   11f48:	fffc0c1b          	addiw	s8,s8,-1
   11f4c:	fff78793          	addi	a5,a5,-1
   11f50:	00f13023          	sd	a5,0(sp)
   11f54:	f11ff06f          	j	11e64 <_vfprintf_r+0x1948>
   11f58:	01070713          	addi	a4,a4,16
   11f5c:	01acb023          	sd	s10,0(s9)
   11f60:	010cb423          	sd	a6,8(s9)
   11f64:	10e13823          	sd	a4,272(sp)
   11f68:	10d12423          	sw	a3,264(sp)
   11f6c:	02cdd663          	bge	s11,a2,11f98 <_vfprintf_r+0x1a7c>
   11f70:	10010613          	addi	a2,sp,256
   11f74:	00090593          	mv	a1,s2
   11f78:	00098513          	mv	a0,s3
   11f7c:	07013c23          	sd	a6,120(sp)
   11f80:	06f13823          	sd	a5,112(sp)
   11f84:	1b5060ef          	jal	ra,18938 <__sprint_r>
   11f88:	2e051263          	bnez	a0,1226c <_vfprintf_r+0x1d50>
   11f8c:	07813803          	ld	a6,120(sp)
   11f90:	07013783          	ld	a5,112(sp)
   11f94:	18010593          	addi	a1,sp,384
   11f98:	ff07879b          	addiw	a5,a5,-16
   11f9c:	00058c93          	mv	s9,a1
   11fa0:	10812683          	lw	a3,264(sp)
   11fa4:	11013703          	ld	a4,272(sp)
   11fa8:	010c8593          	addi	a1,s9,16
   11fac:	0016861b          	addiw	a2,a3,1
   11fb0:	00060693          	mv	a3,a2
   11fb4:	faf842e3          	blt	a6,a5,11f58 <_vfprintf_r+0x1a3c>
   11fb8:	00fcb423          	sd	a5,8(s9)
   11fbc:	00e787b3          	add	a5,a5,a4
   11fc0:	01acb023          	sd	s10,0(s9)
   11fc4:	10f13823          	sd	a5,272(sp)
   11fc8:	10c12423          	sw	a2,264(sp)
   11fcc:	00058c93          	mv	s9,a1
   11fd0:	f6cdd2e3          	bge	s11,a2,11f34 <_vfprintf_r+0x1a18>
   11fd4:	10010613          	addi	a2,sp,256
   11fd8:	00090593          	mv	a1,s2
   11fdc:	00098513          	mv	a0,s3
   11fe0:	159060ef          	jal	ra,18938 <__sprint_r>
   11fe4:	28051463          	bnez	a0,1226c <_vfprintf_r+0x1d50>
   11fe8:	18010c93          	addi	s9,sp,384
   11fec:	f49ff06f          	j	11f34 <_vfprintf_r+0x1a18>
   11ff0:	01078793          	addi	a5,a5,16
   11ff4:	018cb423          	sd	s8,8(s9)
   11ff8:	10f13823          	sd	a5,272(sp)
   11ffc:	10e12423          	sw	a4,264(sp)
   12000:	00dd5e63          	bge	s10,a3,1201c <_vfprintf_r+0x1b00>
   12004:	10010613          	addi	a2,sp,256
   12008:	00090593          	mv	a1,s2
   1200c:	00098513          	mv	a0,s3
   12010:	129060ef          	jal	ra,18938 <__sprint_r>
   12014:	24051c63          	bnez	a0,1226c <_vfprintf_r+0x1d50>
   12018:	18010613          	addi	a2,sp,384
   1201c:	ff04849b          	addiw	s1,s1,-16
   12020:	00060c93          	mv	s9,a2
   12024:	d95ff06f          	j	11db8 <_vfprintf_r+0x189c>
   12028:	10812783          	lw	a5,264(sp)
   1202c:	00100613          	li	a2,1
   12030:	009cb023          	sd	s1,0(s9)
   12034:	0017869b          	addiw	a3,a5,1
   12038:	00170713          	addi	a4,a4,1
   1203c:	00068793          	mv	a5,a3
   12040:	010c8c13          	addi	s8,s9,16
   12044:	01464663          	blt	a2,s4,12050 <_vfprintf_r+0x1b34>
   12048:	00147593          	andi	a1,s0,1
   1204c:	1a058463          	beqz	a1,121f4 <_vfprintf_r+0x1cd8>
   12050:	00100613          	li	a2,1
   12054:	10f12423          	sw	a5,264(sp)
   12058:	00ccb423          	sd	a2,8(s9)
   1205c:	10e13823          	sd	a4,272(sp)
   12060:	00700793          	li	a5,7
   12064:	00d7de63          	bge	a5,a3,12080 <_vfprintf_r+0x1b64>
   12068:	10010613          	addi	a2,sp,256
   1206c:	00090593          	mv	a1,s2
   12070:	00098513          	mv	a0,s3
   12074:	0c5060ef          	jal	ra,18938 <__sprint_r>
   12078:	1e051a63          	bnez	a0,1226c <_vfprintf_r+0x1d50>
   1207c:	000a8c13          	mv	s8,s5
   12080:	04813783          	ld	a5,72(sp)
   12084:	01813703          	ld	a4,24(sp)
   12088:	010c0c13          	addi	s8,s8,16
   1208c:	fefc3823          	sd	a5,-16(s8)
   12090:	01813783          	ld	a5,24(sp)
   12094:	fefc3c23          	sd	a5,-8(s8)
   12098:	11013783          	ld	a5,272(sp)
   1209c:	00e787b3          	add	a5,a5,a4
   120a0:	10f13823          	sd	a5,272(sp)
   120a4:	10812783          	lw	a5,264(sp)
   120a8:	0017871b          	addiw	a4,a5,1
   120ac:	10e12423          	sw	a4,264(sp)
   120b0:	00700793          	li	a5,7
   120b4:	00e7de63          	bge	a5,a4,120d0 <_vfprintf_r+0x1bb4>
   120b8:	10010613          	addi	a2,sp,256
   120bc:	00090593          	mv	a1,s2
   120c0:	00098513          	mv	a0,s3
   120c4:	075060ef          	jal	ra,18938 <__sprint_r>
   120c8:	1a051263          	bnez	a0,1226c <_vfprintf_r+0x1d50>
   120cc:	000a8c13          	mv	s8,s5
   120d0:	0f013503          	ld	a0,240(sp)
   120d4:	0f813583          	ld	a1,248(sp)
   120d8:	00000613          	li	a2,0
   120dc:	00000693          	li	a3,0
   120e0:	fffa0b1b          	addiw	s6,s4,-1
   120e4:	4a1090ef          	jal	ra,1bd84 <__eqtf2>
   120e8:	08050463          	beqz	a0,12170 <_vfprintf_r+0x1c54>
   120ec:	10812703          	lw	a4,264(sp)
   120f0:	11013783          	ld	a5,272(sp)
   120f4:	00148493          	addi	s1,s1,1
   120f8:	0017069b          	addiw	a3,a4,1
   120fc:	00fb07b3          	add	a5,s6,a5
   12100:	009c3023          	sd	s1,0(s8)
   12104:	016c3423          	sd	s6,8(s8)
   12108:	10f13823          	sd	a5,272(sp)
   1210c:	10d12423          	sw	a3,264(sp)
   12110:	00700793          	li	a5,7
   12114:	010c0c13          	addi	s8,s8,16
   12118:	00d7de63          	bge	a5,a3,12134 <_vfprintf_r+0x1c18>
   1211c:	10010613          	addi	a2,sp,256
   12120:	00090593          	mv	a1,s2
   12124:	00098513          	mv	a0,s3
   12128:	011060ef          	jal	ra,18938 <__sprint_r>
   1212c:	14051063          	bnez	a0,1226c <_vfprintf_r+0x1d50>
   12130:	000a8c13          	mv	s8,s5
   12134:	0e010793          	addi	a5,sp,224
   12138:	00fc3023          	sd	a5,0(s8)
   1213c:	05813783          	ld	a5,88(sp)
   12140:	05813703          	ld	a4,88(sp)
   12144:	010c0c93          	addi	s9,s8,16
   12148:	00fc3423          	sd	a5,8(s8)
   1214c:	11013783          	ld	a5,272(sp)
   12150:	00e787b3          	add	a5,a5,a4
   12154:	10f13823          	sd	a5,272(sp)
   12158:	10812783          	lw	a5,264(sp)
   1215c:	0017871b          	addiw	a4,a5,1
   12160:	10e12423          	sw	a4,264(sp)
   12164:	00700793          	li	a5,7
   12168:	84e7d4e3          	bge	a5,a4,119b0 <_vfprintf_r+0x1494>
   1216c:	af5fe06f          	j	10c60 <_vfprintf_r+0x744>
   12170:	fd6052e3          	blez	s6,12134 <_vfprintf_r+0x1c18>
   12174:	0001e4b7          	lui	s1,0x1e
   12178:	01000d13          	li	s10,16
   1217c:	ba848493          	addi	s1,s1,-1112 # 1dba8 <zeroes.4441>
   12180:	00700c93          	li	s9,7
   12184:	10812703          	lw	a4,264(sp)
   12188:	009c3023          	sd	s1,0(s8)
   1218c:	11013783          	ld	a5,272(sp)
   12190:	0017069b          	addiw	a3,a4,1
   12194:	00068713          	mv	a4,a3
   12198:	010c0613          	addi	a2,s8,16
   1219c:	036d4063          	blt	s10,s6,121bc <_vfprintf_r+0x1ca0>
   121a0:	00fb07b3          	add	a5,s6,a5
   121a4:	016c3423          	sd	s6,8(s8)
   121a8:	10f13823          	sd	a5,272(sp)
   121ac:	10d12423          	sw	a3,264(sp)
   121b0:	00700793          	li	a5,7
   121b4:	00060c13          	mv	s8,a2
   121b8:	f61ff06f          	j	12118 <_vfprintf_r+0x1bfc>
   121bc:	01078793          	addi	a5,a5,16
   121c0:	01ac3423          	sd	s10,8(s8)
   121c4:	10f13823          	sd	a5,272(sp)
   121c8:	10e12423          	sw	a4,264(sp)
   121cc:	00dcde63          	bge	s9,a3,121e8 <_vfprintf_r+0x1ccc>
   121d0:	10010613          	addi	a2,sp,256
   121d4:	00090593          	mv	a1,s2
   121d8:	00098513          	mv	a0,s3
   121dc:	75c060ef          	jal	ra,18938 <__sprint_r>
   121e0:	08051663          	bnez	a0,1226c <_vfprintf_r+0x1d50>
   121e4:	000a8613          	mv	a2,s5
   121e8:	ff0b0b1b          	addiw	s6,s6,-16
   121ec:	00060c13          	mv	s8,a2
   121f0:	f95ff06f          	j	12184 <_vfprintf_r+0x1c68>
   121f4:	00ccb423          	sd	a2,8(s9)
   121f8:	10e13823          	sd	a4,272(sp)
   121fc:	10d12423          	sw	a3,264(sp)
   12200:	00700793          	li	a5,7
   12204:	f15ff06f          	j	12118 <_vfprintf_r+0x1bfc>
   12208:	02012783          	lw	a5,32(sp)
   1220c:	03812703          	lw	a4,56(sp)
   12210:	40e7843b          	subw	s0,a5,a4
   12214:	fa805263          	blez	s0,119b8 <_vfprintf_r+0x149c>
   12218:	0001e4b7          	lui	s1,0x1e
   1221c:	01000b13          	li	s6,16
   12220:	b9848493          	addi	s1,s1,-1128 # 1db98 <blanks.4440>
   12224:	00700c13          	li	s8,7
   12228:	10812703          	lw	a4,264(sp)
   1222c:	009cb023          	sd	s1,0(s9)
   12230:	11013783          	ld	a5,272(sp)
   12234:	0017069b          	addiw	a3,a4,1
   12238:	00068713          	mv	a4,a3
   1223c:	048b4463          	blt	s6,s0,12284 <_vfprintf_r+0x1d68>
   12240:	008cb423          	sd	s0,8(s9)
   12244:	00f40433          	add	s0,s0,a5
   12248:	10813823          	sd	s0,272(sp)
   1224c:	10d12423          	sw	a3,264(sp)
   12250:	00700793          	li	a5,7
   12254:	f6d7d263          	bge	a5,a3,119b8 <_vfprintf_r+0x149c>
   12258:	10010613          	addi	a2,sp,256
   1225c:	00090593          	mv	a1,s2
   12260:	00098513          	mv	a0,s3
   12264:	6d4060ef          	jal	ra,18938 <__sprint_r>
   12268:	f4050863          	beqz	a0,119b8 <_vfprintf_r+0x149c>
   1226c:	000b9463          	bnez	s7,12274 <_vfprintf_r+0x1d58>
   12270:	bc9fe06f          	j	10e38 <_vfprintf_r+0x91c>
   12274:	000b8593          	mv	a1,s7
   12278:	00098513          	mv	a0,s3
   1227c:	249000ef          	jal	ra,12cc4 <_free_r>
   12280:	bb9fe06f          	j	10e38 <_vfprintf_r+0x91c>
   12284:	01078793          	addi	a5,a5,16
   12288:	016cb423          	sd	s6,8(s9)
   1228c:	10f13823          	sd	a5,272(sp)
   12290:	10e12423          	sw	a4,264(sp)
   12294:	010c8c93          	addi	s9,s9,16
   12298:	00dc5e63          	bge	s8,a3,122b4 <_vfprintf_r+0x1d98>
   1229c:	10010613          	addi	a2,sp,256
   122a0:	00090593          	mv	a1,s2
   122a4:	00098513          	mv	a0,s3
   122a8:	690060ef          	jal	ra,18938 <__sprint_r>
   122ac:	fc0510e3          	bnez	a0,1226c <_vfprintf_r+0x1d50>
   122b0:	000a8c93          	mv	s9,s5
   122b4:	ff04041b          	addiw	s0,s0,-16
   122b8:	f71ff06f          	j	12228 <_vfprintf_r+0x1d0c>
   122bc:	000b8593          	mv	a1,s7
   122c0:	00098513          	mv	a0,s3
   122c4:	201000ef          	jal	ra,12cc4 <_free_r>
   122c8:	f34ff06f          	j	119fc <_vfprintf_r+0x14e0>
   122cc:	11013783          	ld	a5,272(sp)
   122d0:	00079463          	bnez	a5,122d8 <_vfprintf_r+0x1dbc>
   122d4:	b65fe06f          	j	10e38 <_vfprintf_r+0x91c>
   122d8:	10010613          	addi	a2,sp,256
   122dc:	00090593          	mv	a1,s2
   122e0:	00098513          	mv	a0,s3
   122e4:	654060ef          	jal	ra,18938 <__sprint_r>
   122e8:	b51fe06f          	j	10e38 <_vfprintf_r+0x91c>

00000000000122ec <vfprintf>:
   122ec:	00060693          	mv	a3,a2
   122f0:	00058613          	mv	a2,a1
   122f4:	00050593          	mv	a1,a0
   122f8:	8301b503          	ld	a0,-2000(gp) # 20860 <_impure_ptr>
   122fc:	a20fe06f          	j	1051c <_vfprintf_r>

0000000000012300 <__sbprintf>:
   12300:	0105d783          	lhu	a5,16(a1)
   12304:	b3010113          	addi	sp,sp,-1232
   12308:	4c813023          	sd	s0,1216(sp)
   1230c:	ffd7f793          	andi	a5,a5,-3
   12310:	00f11823          	sh	a5,16(sp)
   12314:	0ac5a783          	lw	a5,172(a1)
   12318:	00058413          	mv	s0,a1
   1231c:	4a913c23          	sd	s1,1208(sp)
   12320:	0af12623          	sw	a5,172(sp)
   12324:	0125d783          	lhu	a5,18(a1)
   12328:	4b213823          	sd	s2,1200(sp)
   1232c:	4c113423          	sd	ra,1224(sp)
   12330:	00f11923          	sh	a5,18(sp)
   12334:	0305b783          	ld	a5,48(a1)
   12338:	00050913          	mv	s2,a0
   1233c:	02012423          	sw	zero,40(sp)
   12340:	02f13823          	sd	a5,48(sp)
   12344:	0405b783          	ld	a5,64(a1)
   12348:	00010593          	mv	a1,sp
   1234c:	04f13023          	sd	a5,64(sp)
   12350:	0b010793          	addi	a5,sp,176
   12354:	00f13023          	sd	a5,0(sp)
   12358:	00f13c23          	sd	a5,24(sp)
   1235c:	40000793          	li	a5,1024
   12360:	00f12623          	sw	a5,12(sp)
   12364:	02f12023          	sw	a5,32(sp)
   12368:	9b4fe0ef          	jal	ra,1051c <_vfprintf_r>
   1236c:	00050493          	mv	s1,a0
   12370:	00054c63          	bltz	a0,12388 <__sbprintf+0x88>
   12374:	00010593          	mv	a1,sp
   12378:	00090513          	mv	a0,s2
   1237c:	514000ef          	jal	ra,12890 <_fflush_r>
   12380:	00050463          	beqz	a0,12388 <__sbprintf+0x88>
   12384:	fff00493          	li	s1,-1
   12388:	01015783          	lhu	a5,16(sp)
   1238c:	0407f793          	andi	a5,a5,64
   12390:	00078863          	beqz	a5,123a0 <__sbprintf+0xa0>
   12394:	01045783          	lhu	a5,16(s0)
   12398:	0407e793          	ori	a5,a5,64
   1239c:	00f41823          	sh	a5,16(s0)
   123a0:	4c813083          	ld	ra,1224(sp)
   123a4:	4c013403          	ld	s0,1216(sp)
   123a8:	00048513          	mv	a0,s1
   123ac:	4b013903          	ld	s2,1200(sp)
   123b0:	4b813483          	ld	s1,1208(sp)
   123b4:	4d010113          	addi	sp,sp,1232
   123b8:	00008067          	ret

00000000000123bc <__swsetup_r>:
   123bc:	fe010113          	addi	sp,sp,-32
   123c0:	00913423          	sd	s1,8(sp)
   123c4:	00050493          	mv	s1,a0
   123c8:	8301b503          	ld	a0,-2000(gp) # 20860 <_impure_ptr>
   123cc:	00813823          	sd	s0,16(sp)
   123d0:	00113c23          	sd	ra,24(sp)
   123d4:	00058413          	mv	s0,a1
   123d8:	00050863          	beqz	a0,123e8 <__swsetup_r+0x2c>
   123dc:	05052783          	lw	a5,80(a0)
   123e0:	00079463          	bnez	a5,123e8 <__swsetup_r+0x2c>
   123e4:	638000ef          	jal	ra,12a1c <__sinit>
   123e8:	01041703          	lh	a4,16(s0)
   123ec:	03071793          	slli	a5,a4,0x30
   123f0:	0307d793          	srli	a5,a5,0x30
   123f4:	0087f693          	andi	a3,a5,8
   123f8:	06069e63          	bnez	a3,12474 <__swsetup_r+0xb8>
   123fc:	0107f693          	andi	a3,a5,16
   12400:	02069663          	bnez	a3,1242c <__swsetup_r+0x70>
   12404:	00900793          	li	a5,9
   12408:	00f4a023          	sw	a5,0(s1)
   1240c:	04076713          	ori	a4,a4,64
   12410:	00e41823          	sh	a4,16(s0)
   12414:	fff00513          	li	a0,-1
   12418:	01813083          	ld	ra,24(sp)
   1241c:	01013403          	ld	s0,16(sp)
   12420:	00813483          	ld	s1,8(sp)
   12424:	02010113          	addi	sp,sp,32
   12428:	00008067          	ret
   1242c:	0047f793          	andi	a5,a5,4
   12430:	02078c63          	beqz	a5,12468 <__swsetup_r+0xac>
   12434:	05843583          	ld	a1,88(s0)
   12438:	00058c63          	beqz	a1,12450 <__swsetup_r+0x94>
   1243c:	07440793          	addi	a5,s0,116
   12440:	00f58663          	beq	a1,a5,1244c <__swsetup_r+0x90>
   12444:	00048513          	mv	a0,s1
   12448:	07d000ef          	jal	ra,12cc4 <_free_r>
   1244c:	04043c23          	sd	zero,88(s0)
   12450:	01045783          	lhu	a5,16(s0)
   12454:	00042423          	sw	zero,8(s0)
   12458:	fdb7f793          	andi	a5,a5,-37
   1245c:	00f41823          	sh	a5,16(s0)
   12460:	01843783          	ld	a5,24(s0)
   12464:	00f43023          	sd	a5,0(s0)
   12468:	01045783          	lhu	a5,16(s0)
   1246c:	0087e793          	ori	a5,a5,8
   12470:	00f41823          	sh	a5,16(s0)
   12474:	01843783          	ld	a5,24(s0)
   12478:	02079063          	bnez	a5,12498 <__swsetup_r+0xdc>
   1247c:	01045783          	lhu	a5,16(s0)
   12480:	20000713          	li	a4,512
   12484:	2807f793          	andi	a5,a5,640
   12488:	00e78863          	beq	a5,a4,12498 <__swsetup_r+0xdc>
   1248c:	00040593          	mv	a1,s0
   12490:	00048513          	mv	a0,s1
   12494:	4e5020ef          	jal	ra,15178 <__smakebuf_r>
   12498:	01045783          	lhu	a5,16(s0)
   1249c:	0017f713          	andi	a4,a5,1
   124a0:	02070c63          	beqz	a4,124d8 <__swsetup_r+0x11c>
   124a4:	02042783          	lw	a5,32(s0)
   124a8:	00042623          	sw	zero,12(s0)
   124ac:	40f007bb          	negw	a5,a5
   124b0:	02f42423          	sw	a5,40(s0)
   124b4:	01843783          	ld	a5,24(s0)
   124b8:	00000513          	li	a0,0
   124bc:	f4079ee3          	bnez	a5,12418 <__swsetup_r+0x5c>
   124c0:	01041783          	lh	a5,16(s0)
   124c4:	0807f713          	andi	a4,a5,128
   124c8:	f40708e3          	beqz	a4,12418 <__swsetup_r+0x5c>
   124cc:	0407e793          	ori	a5,a5,64
   124d0:	00f41823          	sh	a5,16(s0)
   124d4:	f41ff06f          	j	12414 <__swsetup_r+0x58>
   124d8:	0027f793          	andi	a5,a5,2
   124dc:	00000713          	li	a4,0
   124e0:	00079463          	bnez	a5,124e8 <__swsetup_r+0x12c>
   124e4:	02042703          	lw	a4,32(s0)
   124e8:	00e42623          	sw	a4,12(s0)
   124ec:	fc9ff06f          	j	124b4 <__swsetup_r+0xf8>

00000000000124f0 <__register_exitproc>:
   124f0:	8281b703          	ld	a4,-2008(gp) # 20858 <_global_impure_ptr>
   124f4:	00050313          	mv	t1,a0
   124f8:	1f873783          	ld	a5,504(a4)
   124fc:	00079663          	bnez	a5,12508 <__register_exitproc+0x18>
   12500:	20070793          	addi	a5,a4,512
   12504:	1ef73c23          	sd	a5,504(a4)
   12508:	0087a703          	lw	a4,8(a5)
   1250c:	01f00813          	li	a6,31
   12510:	fff00513          	li	a0,-1
   12514:	04e84e63          	blt	a6,a4,12570 <__register_exitproc+0x80>
   12518:	02030e63          	beqz	t1,12554 <__register_exitproc+0x64>
   1251c:	00371813          	slli	a6,a4,0x3
   12520:	01078833          	add	a6,a5,a6
   12524:	10c83823          	sd	a2,272(a6)
   12528:	3107a883          	lw	a7,784(a5)
   1252c:	00100613          	li	a2,1
   12530:	00e6163b          	sllw	a2,a2,a4
   12534:	00c8e8b3          	or	a7,a7,a2
   12538:	3117a823          	sw	a7,784(a5)
   1253c:	20d83823          	sd	a3,528(a6)
   12540:	00200693          	li	a3,2
   12544:	00d31863          	bne	t1,a3,12554 <__register_exitproc+0x64>
   12548:	3147a683          	lw	a3,788(a5)
   1254c:	00c6e633          	or	a2,a3,a2
   12550:	30c7aa23          	sw	a2,788(a5)
   12554:	0017069b          	addiw	a3,a4,1
   12558:	00270713          	addi	a4,a4,2
   1255c:	00371713          	slli	a4,a4,0x3
   12560:	00d7a423          	sw	a3,8(a5)
   12564:	00e787b3          	add	a5,a5,a4
   12568:	00b7b023          	sd	a1,0(a5)
   1256c:	00000513          	li	a0,0
   12570:	00008067          	ret

0000000000012574 <__call_exitprocs>:
   12574:	fb010113          	addi	sp,sp,-80
   12578:	03313423          	sd	s3,40(sp)
   1257c:	8281b983          	ld	s3,-2008(gp) # 20858 <_global_impure_ptr>
   12580:	03413023          	sd	s4,32(sp)
   12584:	01513c23          	sd	s5,24(sp)
   12588:	01613823          	sd	s6,16(sp)
   1258c:	04113423          	sd	ra,72(sp)
   12590:	04813023          	sd	s0,64(sp)
   12594:	02913c23          	sd	s1,56(sp)
   12598:	03213823          	sd	s2,48(sp)
   1259c:	01713423          	sd	s7,8(sp)
   125a0:	00050a93          	mv	s5,a0
   125a4:	00058a13          	mv	s4,a1
   125a8:	00100b13          	li	s6,1
   125ac:	1f89b403          	ld	s0,504(s3)
   125b0:	00040c63          	beqz	s0,125c8 <__call_exitprocs+0x54>
   125b4:	00842483          	lw	s1,8(s0)
   125b8:	fff4849b          	addiw	s1,s1,-1
   125bc:	00349913          	slli	s2,s1,0x3
   125c0:	01240933          	add	s2,s0,s2
   125c4:	0204d863          	bgez	s1,125f4 <__call_exitprocs+0x80>
   125c8:	04813083          	ld	ra,72(sp)
   125cc:	04013403          	ld	s0,64(sp)
   125d0:	03813483          	ld	s1,56(sp)
   125d4:	03013903          	ld	s2,48(sp)
   125d8:	02813983          	ld	s3,40(sp)
   125dc:	02013a03          	ld	s4,32(sp)
   125e0:	01813a83          	ld	s5,24(sp)
   125e4:	01013b03          	ld	s6,16(sp)
   125e8:	00813b83          	ld	s7,8(sp)
   125ec:	05010113          	addi	sp,sp,80
   125f0:	00008067          	ret
   125f4:	000a0c63          	beqz	s4,1260c <__call_exitprocs+0x98>
   125f8:	21093783          	ld	a5,528(s2)
   125fc:	01478863          	beq	a5,s4,1260c <__call_exitprocs+0x98>
   12600:	fff4849b          	addiw	s1,s1,-1
   12604:	ff890913          	addi	s2,s2,-8
   12608:	fbdff06f          	j	125c4 <__call_exitprocs+0x50>
   1260c:	00842783          	lw	a5,8(s0)
   12610:	01093683          	ld	a3,16(s2)
   12614:	fff7879b          	addiw	a5,a5,-1
   12618:	02979e63          	bne	a5,s1,12654 <__call_exitprocs+0xe0>
   1261c:	00942423          	sw	s1,8(s0)
   12620:	fe0680e3          	beqz	a3,12600 <__call_exitprocs+0x8c>
   12624:	31042703          	lw	a4,784(s0)
   12628:	009b163b          	sllw	a2,s6,s1
   1262c:	00842b83          	lw	s7,8(s0)
   12630:	00c77733          	and	a4,a4,a2
   12634:	0007071b          	sext.w	a4,a4
   12638:	02071263          	bnez	a4,1265c <__call_exitprocs+0xe8>
   1263c:	000680e7          	jalr	a3
   12640:	00842703          	lw	a4,8(s0)
   12644:	1f89b783          	ld	a5,504(s3)
   12648:	f77712e3          	bne	a4,s7,125ac <__call_exitprocs+0x38>
   1264c:	faf40ae3          	beq	s0,a5,12600 <__call_exitprocs+0x8c>
   12650:	f5dff06f          	j	125ac <__call_exitprocs+0x38>
   12654:	00093823          	sd	zero,16(s2)
   12658:	fc9ff06f          	j	12620 <__call_exitprocs+0xac>
   1265c:	31442783          	lw	a5,788(s0)
   12660:	11093583          	ld	a1,272(s2)
   12664:	00c7f7b3          	and	a5,a5,a2
   12668:	0007879b          	sext.w	a5,a5
   1266c:	00079863          	bnez	a5,1267c <__call_exitprocs+0x108>
   12670:	000a8513          	mv	a0,s5
   12674:	000680e7          	jalr	a3
   12678:	fc9ff06f          	j	12640 <__call_exitprocs+0xcc>
   1267c:	00058513          	mv	a0,a1
   12680:	000680e7          	jalr	a3
   12684:	fbdff06f          	j	12640 <__call_exitprocs+0xcc>

0000000000012688 <__sflush_r>:
   12688:	01059783          	lh	a5,16(a1)
   1268c:	fd010113          	addi	sp,sp,-48
   12690:	02813023          	sd	s0,32(sp)
   12694:	03079713          	slli	a4,a5,0x30
   12698:	03075713          	srli	a4,a4,0x30
   1269c:	00913c23          	sd	s1,24(sp)
   126a0:	02113423          	sd	ra,40(sp)
   126a4:	01213823          	sd	s2,16(sp)
   126a8:	01313423          	sd	s3,8(sp)
   126ac:	00877693          	andi	a3,a4,8
   126b0:	00050493          	mv	s1,a0
   126b4:	00058413          	mv	s0,a1
   126b8:	16069c63          	bnez	a3,12830 <__sflush_r+0x1a8>
   126bc:	00001737          	lui	a4,0x1
   126c0:	80070713          	addi	a4,a4,-2048 # 800 <_start-0xf8b0>
   126c4:	00e7e7b3          	or	a5,a5,a4
   126c8:	0085a703          	lw	a4,8(a1)
   126cc:	00f59823          	sh	a5,16(a1)
   126d0:	02e04663          	bgtz	a4,126fc <__sflush_r+0x74>
   126d4:	0705a703          	lw	a4,112(a1)
   126d8:	02e04263          	bgtz	a4,126fc <__sflush_r+0x74>
   126dc:	00000513          	li	a0,0
   126e0:	02813083          	ld	ra,40(sp)
   126e4:	02013403          	ld	s0,32(sp)
   126e8:	01813483          	ld	s1,24(sp)
   126ec:	01013903          	ld	s2,16(sp)
   126f0:	00813983          	ld	s3,8(sp)
   126f4:	03010113          	addi	sp,sp,48
   126f8:	00008067          	ret
   126fc:	04843703          	ld	a4,72(s0)
   12700:	fc070ee3          	beqz	a4,126dc <__sflush_r+0x54>
   12704:	0004a903          	lw	s2,0(s1)
   12708:	03379693          	slli	a3,a5,0x33
   1270c:	0004a023          	sw	zero,0(s1)
   12710:	03043583          	ld	a1,48(s0)
   12714:	0c06d863          	bgez	a3,127e4 <__sflush_r+0x15c>
   12718:	09043603          	ld	a2,144(s0)
   1271c:	01045783          	lhu	a5,16(s0)
   12720:	0047f793          	andi	a5,a5,4
   12724:	00078e63          	beqz	a5,12740 <__sflush_r+0xb8>
   12728:	00842783          	lw	a5,8(s0)
   1272c:	40f60633          	sub	a2,a2,a5
   12730:	05843783          	ld	a5,88(s0)
   12734:	00078663          	beqz	a5,12740 <__sflush_r+0xb8>
   12738:	07042783          	lw	a5,112(s0)
   1273c:	40f60633          	sub	a2,a2,a5
   12740:	04843783          	ld	a5,72(s0)
   12744:	03043583          	ld	a1,48(s0)
   12748:	00000693          	li	a3,0
   1274c:	00048513          	mv	a0,s1
   12750:	000780e7          	jalr	a5
   12754:	fff00793          	li	a5,-1
   12758:	01045683          	lhu	a3,16(s0)
   1275c:	02f51263          	bne	a0,a5,12780 <__sflush_r+0xf8>
   12760:	0004a783          	lw	a5,0(s1)
   12764:	01d00713          	li	a4,29
   12768:	0af76c63          	bltu	a4,a5,12820 <__sflush_r+0x198>
   1276c:	20400737          	lui	a4,0x20400
   12770:	00170713          	addi	a4,a4,1 # 20400001 <__global_pointer$+0x203defd1>
   12774:	00f75733          	srl	a4,a4,a5
   12778:	00177713          	andi	a4,a4,1
   1277c:	0a070263          	beqz	a4,12820 <__sflush_r+0x198>
   12780:	fffff7b7          	lui	a5,0xfffff
   12784:	7ff78793          	addi	a5,a5,2047 # fffffffffffff7ff <__global_pointer$+0xfffffffffffde7cf>
   12788:	01843703          	ld	a4,24(s0)
   1278c:	00d7f7b3          	and	a5,a5,a3
   12790:	0107979b          	slliw	a5,a5,0x10
   12794:	4107d79b          	sraiw	a5,a5,0x10
   12798:	00e43023          	sd	a4,0(s0)
   1279c:	00f41823          	sh	a5,16(s0)
   127a0:	00042423          	sw	zero,8(s0)
   127a4:	03379713          	slli	a4,a5,0x33
   127a8:	00075c63          	bgez	a4,127c0 <__sflush_r+0x138>
   127ac:	fff00793          	li	a5,-1
   127b0:	00f51663          	bne	a0,a5,127bc <__sflush_r+0x134>
   127b4:	0004a783          	lw	a5,0(s1)
   127b8:	00079463          	bnez	a5,127c0 <__sflush_r+0x138>
   127bc:	08a43823          	sd	a0,144(s0)
   127c0:	05843583          	ld	a1,88(s0)
   127c4:	0124a023          	sw	s2,0(s1)
   127c8:	f0058ae3          	beqz	a1,126dc <__sflush_r+0x54>
   127cc:	07440793          	addi	a5,s0,116
   127d0:	00f58663          	beq	a1,a5,127dc <__sflush_r+0x154>
   127d4:	00048513          	mv	a0,s1
   127d8:	4ec000ef          	jal	ra,12cc4 <_free_r>
   127dc:	04043c23          	sd	zero,88(s0)
   127e0:	efdff06f          	j	126dc <__sflush_r+0x54>
   127e4:	00000613          	li	a2,0
   127e8:	00100693          	li	a3,1
   127ec:	00048513          	mv	a0,s1
   127f0:	000700e7          	jalr	a4
   127f4:	fff00793          	li	a5,-1
   127f8:	00050613          	mv	a2,a0
   127fc:	f2f510e3          	bne	a0,a5,1271c <__sflush_r+0x94>
   12800:	0004a783          	lw	a5,0(s1)
   12804:	f0078ce3          	beqz	a5,1271c <__sflush_r+0x94>
   12808:	01d00713          	li	a4,29
   1280c:	00e78663          	beq	a5,a4,12818 <__sflush_r+0x190>
   12810:	01600713          	li	a4,22
   12814:	06e79263          	bne	a5,a4,12878 <__sflush_r+0x1f0>
   12818:	0124a023          	sw	s2,0(s1)
   1281c:	ec1ff06f          	j	126dc <__sflush_r+0x54>
   12820:	0406e793          	ori	a5,a3,64
   12824:	00f41823          	sh	a5,16(s0)
   12828:	fff00513          	li	a0,-1
   1282c:	eb5ff06f          	j	126e0 <__sflush_r+0x58>
   12830:	0185b983          	ld	s3,24(a1)
   12834:	ea0984e3          	beqz	s3,126dc <__sflush_r+0x54>
   12838:	0005b903          	ld	s2,0(a1)
   1283c:	00377713          	andi	a4,a4,3
   12840:	0135b023          	sd	s3,0(a1)
   12844:	4139093b          	subw	s2,s2,s3
   12848:	00000793          	li	a5,0
   1284c:	00071463          	bnez	a4,12854 <__sflush_r+0x1cc>
   12850:	0205a783          	lw	a5,32(a1)
   12854:	00f42623          	sw	a5,12(s0)
   12858:	e92052e3          	blez	s2,126dc <__sflush_r+0x54>
   1285c:	04043783          	ld	a5,64(s0)
   12860:	03043583          	ld	a1,48(s0)
   12864:	00090693          	mv	a3,s2
   12868:	00098613          	mv	a2,s3
   1286c:	00048513          	mv	a0,s1
   12870:	000780e7          	jalr	a5
   12874:	00a04863          	bgtz	a0,12884 <__sflush_r+0x1fc>
   12878:	01045783          	lhu	a5,16(s0)
   1287c:	0407e793          	ori	a5,a5,64
   12880:	fa5ff06f          	j	12824 <__sflush_r+0x19c>
   12884:	00a989b3          	add	s3,s3,a0
   12888:	40a9093b          	subw	s2,s2,a0
   1288c:	fcdff06f          	j	12858 <__sflush_r+0x1d0>

0000000000012890 <_fflush_r>:
   12890:	fe010113          	addi	sp,sp,-32
   12894:	00813823          	sd	s0,16(sp)
   12898:	00113c23          	sd	ra,24(sp)
   1289c:	00050413          	mv	s0,a0
   128a0:	00050c63          	beqz	a0,128b8 <_fflush_r+0x28>
   128a4:	05052783          	lw	a5,80(a0)
   128a8:	00079863          	bnez	a5,128b8 <_fflush_r+0x28>
   128ac:	00b13423          	sd	a1,8(sp)
   128b0:	16c000ef          	jal	ra,12a1c <__sinit>
   128b4:	00813583          	ld	a1,8(sp)
   128b8:	01059783          	lh	a5,16(a1)
   128bc:	00078c63          	beqz	a5,128d4 <_fflush_r+0x44>
   128c0:	00040513          	mv	a0,s0
   128c4:	01013403          	ld	s0,16(sp)
   128c8:	01813083          	ld	ra,24(sp)
   128cc:	02010113          	addi	sp,sp,32
   128d0:	db9ff06f          	j	12688 <__sflush_r>
   128d4:	01813083          	ld	ra,24(sp)
   128d8:	01013403          	ld	s0,16(sp)
   128dc:	00000513          	li	a0,0
   128e0:	02010113          	addi	sp,sp,32
   128e4:	00008067          	ret

00000000000128e8 <fflush>:
   128e8:	00050593          	mv	a1,a0
   128ec:	00051a63          	bnez	a0,12900 <fflush+0x18>
   128f0:	8281b503          	ld	a0,-2008(gp) # 20858 <_global_impure_ptr>
   128f4:	000135b7          	lui	a1,0x13
   128f8:	89058593          	addi	a1,a1,-1904 # 12890 <_fflush_r>
   128fc:	6d40006f          	j	12fd0 <_fwalk_reent>
   12900:	8301b503          	ld	a0,-2000(gp) # 20860 <_impure_ptr>
   12904:	f8dff06f          	j	12890 <_fflush_r>

0000000000012908 <__fp_lock>:
   12908:	00000513          	li	a0,0
   1290c:	00008067          	ret

0000000000012910 <_cleanup_r>:
   12910:	0001a5b7          	lui	a1,0x1a
   12914:	82c58593          	addi	a1,a1,-2004 # 1982c <_fclose_r>
   12918:	6b80006f          	j	12fd0 <_fwalk_reent>

000000000001291c <std.isra.0>:
   1291c:	ff010113          	addi	sp,sp,-16
   12920:	00813023          	sd	s0,0(sp)
   12924:	00113423          	sd	ra,8(sp)
   12928:	00050413          	mv	s0,a0
   1292c:	00b51823          	sh	a1,16(a0)
   12930:	00c51923          	sh	a2,18(a0)
   12934:	00053023          	sd	zero,0(a0)
   12938:	00053423          	sd	zero,8(a0)
   1293c:	0a052623          	sw	zero,172(a0)
   12940:	00053c23          	sd	zero,24(a0)
   12944:	02052023          	sw	zero,32(a0)
   12948:	02052423          	sw	zero,40(a0)
   1294c:	00800613          	li	a2,8
   12950:	00000593          	li	a1,0
   12954:	0a450513          	addi	a0,a0,164
   12958:	a5dfd0ef          	jal	ra,103b4 <memset>
   1295c:	000177b7          	lui	a5,0x17
   12960:	a0878793          	addi	a5,a5,-1528 # 16a08 <__sread>
   12964:	02f43c23          	sd	a5,56(s0)
   12968:	000177b7          	lui	a5,0x17
   1296c:	a6078793          	addi	a5,a5,-1440 # 16a60 <__swrite>
   12970:	04f43023          	sd	a5,64(s0)
   12974:	000177b7          	lui	a5,0x17
   12978:	ae478793          	addi	a5,a5,-1308 # 16ae4 <__sseek>
   1297c:	04f43423          	sd	a5,72(s0)
   12980:	000177b7          	lui	a5,0x17
   12984:	b3c78793          	addi	a5,a5,-1220 # 16b3c <__sclose>
   12988:	02843823          	sd	s0,48(s0)
   1298c:	04f43823          	sd	a5,80(s0)
   12990:	00813083          	ld	ra,8(sp)
   12994:	00013403          	ld	s0,0(sp)
   12998:	01010113          	addi	sp,sp,16
   1299c:	00008067          	ret

00000000000129a0 <__fp_unlock>:
   129a0:	00000513          	li	a0,0
   129a4:	00008067          	ret

00000000000129a8 <__sfmoreglue>:
   129a8:	fe010113          	addi	sp,sp,-32
   129ac:	00913423          	sd	s1,8(sp)
   129b0:	0b000613          	li	a2,176
   129b4:	fff5849b          	addiw	s1,a1,-1
   129b8:	02c484b3          	mul	s1,s1,a2
   129bc:	01213023          	sd	s2,0(sp)
   129c0:	00058913          	mv	s2,a1
   129c4:	00813823          	sd	s0,16(sp)
   129c8:	00113c23          	sd	ra,24(sp)
   129cc:	0c848593          	addi	a1,s1,200
   129d0:	099020ef          	jal	ra,15268 <_malloc_r>
   129d4:	00050413          	mv	s0,a0
   129d8:	02050063          	beqz	a0,129f8 <__sfmoreglue+0x50>
   129dc:	00053023          	sd	zero,0(a0)
   129e0:	01252423          	sw	s2,8(a0)
   129e4:	01850513          	addi	a0,a0,24
   129e8:	00a43823          	sd	a0,16(s0)
   129ec:	0b048613          	addi	a2,s1,176
   129f0:	00000593          	li	a1,0
   129f4:	9c1fd0ef          	jal	ra,103b4 <memset>
   129f8:	00040513          	mv	a0,s0
   129fc:	01813083          	ld	ra,24(sp)
   12a00:	01013403          	ld	s0,16(sp)
   12a04:	00813483          	ld	s1,8(sp)
   12a08:	00013903          	ld	s2,0(sp)
   12a0c:	02010113          	addi	sp,sp,32
   12a10:	00008067          	ret

0000000000012a14 <_cleanup>:
   12a14:	8281b503          	ld	a0,-2008(gp) # 20858 <_global_impure_ptr>
   12a18:	ef9ff06f          	j	12910 <_cleanup_r>

0000000000012a1c <__sinit>:
   12a1c:	05052783          	lw	a5,80(a0)
   12a20:	06079e63          	bnez	a5,12a9c <__sinit+0x80>
   12a24:	ff010113          	addi	sp,sp,-16
   12a28:	000137b7          	lui	a5,0x13
   12a2c:	00113423          	sd	ra,8(sp)
   12a30:	00813023          	sd	s0,0(sp)
   12a34:	91078793          	addi	a5,a5,-1776 # 12910 <_cleanup_r>
   12a38:	04f53c23          	sd	a5,88(a0)
   12a3c:	00300793          	li	a5,3
   12a40:	52f52423          	sw	a5,1320(a0)
   12a44:	53850793          	addi	a5,a0,1336
   12a48:	00050413          	mv	s0,a0
   12a4c:	52f53823          	sd	a5,1328(a0)
   12a50:	52053023          	sd	zero,1312(a0)
   12a54:	00853503          	ld	a0,8(a0)
   12a58:	00000613          	li	a2,0
   12a5c:	00400593          	li	a1,4
   12a60:	ebdff0ef          	jal	ra,1291c <std.isra.0>
   12a64:	01043503          	ld	a0,16(s0)
   12a68:	00100613          	li	a2,1
   12a6c:	00900593          	li	a1,9
   12a70:	eadff0ef          	jal	ra,1291c <std.isra.0>
   12a74:	01843503          	ld	a0,24(s0)
   12a78:	00200613          	li	a2,2
   12a7c:	01200593          	li	a1,18
   12a80:	e9dff0ef          	jal	ra,1291c <std.isra.0>
   12a84:	00100793          	li	a5,1
   12a88:	04f42823          	sw	a5,80(s0)
   12a8c:	00813083          	ld	ra,8(sp)
   12a90:	00013403          	ld	s0,0(sp)
   12a94:	01010113          	addi	sp,sp,16
   12a98:	00008067          	ret
   12a9c:	00008067          	ret

0000000000012aa0 <__sfp>:
   12aa0:	fe010113          	addi	sp,sp,-32
   12aa4:	00913423          	sd	s1,8(sp)
   12aa8:	8281b483          	ld	s1,-2008(gp) # 20858 <_global_impure_ptr>
   12aac:	01213023          	sd	s2,0(sp)
   12ab0:	00113c23          	sd	ra,24(sp)
   12ab4:	0504a783          	lw	a5,80(s1)
   12ab8:	00813823          	sd	s0,16(sp)
   12abc:	00050913          	mv	s2,a0
   12ac0:	00079663          	bnez	a5,12acc <__sfp+0x2c>
   12ac4:	00048513          	mv	a0,s1
   12ac8:	f55ff0ef          	jal	ra,12a1c <__sinit>
   12acc:	52048493          	addi	s1,s1,1312
   12ad0:	0104b403          	ld	s0,16(s1)
   12ad4:	0084a783          	lw	a5,8(s1)
   12ad8:	fff7879b          	addiw	a5,a5,-1
   12adc:	0007da63          	bgez	a5,12af0 <__sfp+0x50>
   12ae0:	0004b783          	ld	a5,0(s1)
   12ae4:	00078e63          	beqz	a5,12b00 <__sfp+0x60>
   12ae8:	0004b483          	ld	s1,0(s1)
   12aec:	fe5ff06f          	j	12ad0 <__sfp+0x30>
   12af0:	01041703          	lh	a4,16(s0)
   12af4:	04070463          	beqz	a4,12b3c <__sfp+0x9c>
   12af8:	0b040413          	addi	s0,s0,176
   12afc:	fddff06f          	j	12ad8 <__sfp+0x38>
   12b00:	00400593          	li	a1,4
   12b04:	00090513          	mv	a0,s2
   12b08:	ea1ff0ef          	jal	ra,129a8 <__sfmoreglue>
   12b0c:	00a4b023          	sd	a0,0(s1)
   12b10:	fc051ce3          	bnez	a0,12ae8 <__sfp+0x48>
   12b14:	00c00793          	li	a5,12
   12b18:	00f92023          	sw	a5,0(s2)
   12b1c:	00000413          	li	s0,0
   12b20:	00040513          	mv	a0,s0
   12b24:	01813083          	ld	ra,24(sp)
   12b28:	01013403          	ld	s0,16(sp)
   12b2c:	00813483          	ld	s1,8(sp)
   12b30:	00013903          	ld	s2,0(sp)
   12b34:	02010113          	addi	sp,sp,32
   12b38:	00008067          	ret
   12b3c:	ffff07b7          	lui	a5,0xffff0
   12b40:	0017879b          	addiw	a5,a5,1
   12b44:	0a042623          	sw	zero,172(s0)
   12b48:	00043023          	sd	zero,0(s0)
   12b4c:	00043423          	sd	zero,8(s0)
   12b50:	00f42823          	sw	a5,16(s0)
   12b54:	00043c23          	sd	zero,24(s0)
   12b58:	02042023          	sw	zero,32(s0)
   12b5c:	02042423          	sw	zero,40(s0)
   12b60:	00800613          	li	a2,8
   12b64:	00000593          	li	a1,0
   12b68:	0a440513          	addi	a0,s0,164
   12b6c:	849fd0ef          	jal	ra,103b4 <memset>
   12b70:	04043c23          	sd	zero,88(s0)
   12b74:	06042023          	sw	zero,96(s0)
   12b78:	06043c23          	sd	zero,120(s0)
   12b7c:	08042023          	sw	zero,128(s0)
   12b80:	fa1ff06f          	j	12b20 <__sfp+0x80>

0000000000012b84 <__sfp_lock_acquire>:
   12b84:	00008067          	ret

0000000000012b88 <__sfp_lock_release>:
   12b88:	00008067          	ret

0000000000012b8c <__sinit_lock_acquire>:
   12b8c:	00008067          	ret

0000000000012b90 <__sinit_lock_release>:
   12b90:	00008067          	ret

0000000000012b94 <__fp_lock_all>:
   12b94:	8301b503          	ld	a0,-2000(gp) # 20860 <_impure_ptr>
   12b98:	000135b7          	lui	a1,0x13
   12b9c:	90858593          	addi	a1,a1,-1784 # 12908 <__fp_lock>
   12ba0:	38c0006f          	j	12f2c <_fwalk>

0000000000012ba4 <__fp_unlock_all>:
   12ba4:	8301b503          	ld	a0,-2000(gp) # 20860 <_impure_ptr>
   12ba8:	000135b7          	lui	a1,0x13
   12bac:	9a058593          	addi	a1,a1,-1632 # 129a0 <__fp_unlock>
   12bb0:	37c0006f          	j	12f2c <_fwalk>

0000000000012bb4 <_malloc_trim_r>:
   12bb4:	fc010113          	addi	sp,sp,-64
   12bb8:	03213023          	sd	s2,32(sp)
   12bbc:	00020937          	lui	s2,0x20
   12bc0:	02813823          	sd	s0,48(sp)
   12bc4:	02913423          	sd	s1,40(sp)
   12bc8:	01313c23          	sd	s3,24(sp)
   12bcc:	00b13423          	sd	a1,8(sp)
   12bd0:	02113c23          	sd	ra,56(sp)
   12bd4:	00050993          	mv	s3,a0
   12bd8:	e7890913          	addi	s2,s2,-392 # 1fe78 <__malloc_av_>
   12bdc:	555020ef          	jal	ra,15930 <__malloc_lock>
   12be0:	01093783          	ld	a5,16(s2)
   12be4:	00813583          	ld	a1,8(sp)
   12be8:	0087b483          	ld	s1,8(a5) # ffffffffffff0008 <__global_pointer$+0xfffffffffffcefd8>
   12bec:	000017b7          	lui	a5,0x1
   12bf0:	fdf78413          	addi	s0,a5,-33 # fdf <_start-0xf0d1>
   12bf4:	ffc4f493          	andi	s1,s1,-4
   12bf8:	40b40433          	sub	s0,s0,a1
   12bfc:	00940433          	add	s0,s0,s1
   12c00:	00c45413          	srli	s0,s0,0xc
   12c04:	fff40413          	addi	s0,s0,-1
   12c08:	00c41413          	slli	s0,s0,0xc
   12c0c:	02f45663          	bge	s0,a5,12c38 <_malloc_trim_r+0x84>
   12c10:	00098513          	mv	a0,s3
   12c14:	521020ef          	jal	ra,15934 <__malloc_unlock>
   12c18:	00000513          	li	a0,0
   12c1c:	03813083          	ld	ra,56(sp)
   12c20:	03013403          	ld	s0,48(sp)
   12c24:	02813483          	ld	s1,40(sp)
   12c28:	02013903          	ld	s2,32(sp)
   12c2c:	01813983          	ld	s3,24(sp)
   12c30:	04010113          	addi	sp,sp,64
   12c34:	00008067          	ret
   12c38:	00000593          	li	a1,0
   12c3c:	00098513          	mv	a0,s3
   12c40:	4ad030ef          	jal	ra,168ec <_sbrk_r>
   12c44:	01093783          	ld	a5,16(s2)
   12c48:	009787b3          	add	a5,a5,s1
   12c4c:	fcf512e3          	bne	a0,a5,12c10 <_malloc_trim_r+0x5c>
   12c50:	408005b3          	neg	a1,s0
   12c54:	00098513          	mv	a0,s3
   12c58:	495030ef          	jal	ra,168ec <_sbrk_r>
   12c5c:	fff00793          	li	a5,-1
   12c60:	02f51c63          	bne	a0,a5,12c98 <_malloc_trim_r+0xe4>
   12c64:	00000593          	li	a1,0
   12c68:	00098513          	mv	a0,s3
   12c6c:	481030ef          	jal	ra,168ec <_sbrk_r>
   12c70:	01093703          	ld	a4,16(s2)
   12c74:	01f00693          	li	a3,31
   12c78:	40e507b3          	sub	a5,a0,a4
   12c7c:	f8f6dae3          	bge	a3,a5,12c10 <_malloc_trim_r+0x5c>
   12c80:	8381b683          	ld	a3,-1992(gp) # 20868 <__malloc_sbrk_base>
   12c84:	0017e793          	ori	a5,a5,1
   12c88:	00f73423          	sd	a5,8(a4)
   12c8c:	40d50533          	sub	a0,a0,a3
   12c90:	8aa1a423          	sw	a0,-1880(gp) # 208d8 <__malloc_current_mallinfo>
   12c94:	f7dff06f          	j	12c10 <_malloc_trim_r+0x5c>
   12c98:	01093783          	ld	a5,16(s2)
   12c9c:	408484b3          	sub	s1,s1,s0
   12ca0:	0014e493          	ori	s1,s1,1
   12ca4:	0097b423          	sd	s1,8(a5)
   12ca8:	8a81a783          	lw	a5,-1880(gp) # 208d8 <__malloc_current_mallinfo>
   12cac:	00098513          	mv	a0,s3
   12cb0:	4087843b          	subw	s0,a5,s0
   12cb4:	8a81a423          	sw	s0,-1880(gp) # 208d8 <__malloc_current_mallinfo>
   12cb8:	47d020ef          	jal	ra,15934 <__malloc_unlock>
   12cbc:	00100513          	li	a0,1
   12cc0:	f5dff06f          	j	12c1c <_malloc_trim_r+0x68>

0000000000012cc4 <_free_r>:
   12cc4:	26058263          	beqz	a1,12f28 <_free_r+0x264>
   12cc8:	fe010113          	addi	sp,sp,-32
   12ccc:	00813823          	sd	s0,16(sp)
   12cd0:	00913423          	sd	s1,8(sp)
   12cd4:	00050413          	mv	s0,a0
   12cd8:	00058493          	mv	s1,a1
   12cdc:	00113c23          	sd	ra,24(sp)
   12ce0:	451020ef          	jal	ra,15930 <__malloc_lock>
   12ce4:	ff84b503          	ld	a0,-8(s1)
   12ce8:	00020637          	lui	a2,0x20
   12cec:	ff048693          	addi	a3,s1,-16
   12cf0:	ffe57793          	andi	a5,a0,-2
   12cf4:	e7860813          	addi	a6,a2,-392 # 1fe78 <__malloc_av_>
   12cf8:	00f685b3          	add	a1,a3,a5
   12cfc:	0085b703          	ld	a4,8(a1)
   12d00:	01083803          	ld	a6,16(a6)
   12d04:	e7860613          	addi	a2,a2,-392
   12d08:	ffc77713          	andi	a4,a4,-4
   12d0c:	00157513          	andi	a0,a0,1
   12d10:	06b81063          	bne	a6,a1,12d70 <_free_r+0xac>
   12d14:	00e787b3          	add	a5,a5,a4
   12d18:	02051063          	bnez	a0,12d38 <_free_r+0x74>
   12d1c:	ff04b703          	ld	a4,-16(s1)
   12d20:	40e686b3          	sub	a3,a3,a4
   12d24:	0106b583          	ld	a1,16(a3)
   12d28:	00e787b3          	add	a5,a5,a4
   12d2c:	0186b703          	ld	a4,24(a3)
   12d30:	00e5bc23          	sd	a4,24(a1)
   12d34:	00b73823          	sd	a1,16(a4)
   12d38:	0017e713          	ori	a4,a5,1
   12d3c:	00e6b423          	sd	a4,8(a3)
   12d40:	8401b703          	ld	a4,-1984(gp) # 20870 <__malloc_trim_threshold>
   12d44:	00d63823          	sd	a3,16(a2)
   12d48:	00e7e863          	bltu	a5,a4,12d58 <_free_r+0x94>
   12d4c:	8581b583          	ld	a1,-1960(gp) # 20888 <__malloc_top_pad>
   12d50:	00040513          	mv	a0,s0
   12d54:	e61ff0ef          	jal	ra,12bb4 <_malloc_trim_r>
   12d58:	00040513          	mv	a0,s0
   12d5c:	01013403          	ld	s0,16(sp)
   12d60:	01813083          	ld	ra,24(sp)
   12d64:	00813483          	ld	s1,8(sp)
   12d68:	02010113          	addi	sp,sp,32
   12d6c:	3c90206f          	j	15934 <__malloc_unlock>
   12d70:	00e5b423          	sd	a4,8(a1)
   12d74:	00000813          	li	a6,0
   12d78:	02051663          	bnez	a0,12da4 <_free_r+0xe0>
   12d7c:	ff04b503          	ld	a0,-16(s1)
   12d80:	000208b7          	lui	a7,0x20
   12d84:	e8888893          	addi	a7,a7,-376 # 1fe88 <__malloc_av_+0x10>
   12d88:	40a686b3          	sub	a3,a3,a0
   12d8c:	00a787b3          	add	a5,a5,a0
   12d90:	0106b503          	ld	a0,16(a3)
   12d94:	0b150a63          	beq	a0,a7,12e48 <_free_r+0x184>
   12d98:	0186b883          	ld	a7,24(a3)
   12d9c:	01153c23          	sd	a7,24(a0)
   12da0:	00a8b823          	sd	a0,16(a7)
   12da4:	00e58533          	add	a0,a1,a4
   12da8:	00853503          	ld	a0,8(a0)
   12dac:	00157513          	andi	a0,a0,1
   12db0:	02051863          	bnez	a0,12de0 <_free_r+0x11c>
   12db4:	00e787b3          	add	a5,a5,a4
   12db8:	0105b703          	ld	a4,16(a1)
   12dbc:	08081a63          	bnez	a6,12e50 <_free_r+0x18c>
   12dc0:	00020537          	lui	a0,0x20
   12dc4:	e8850513          	addi	a0,a0,-376 # 1fe88 <__malloc_av_+0x10>
   12dc8:	08a71463          	bne	a4,a0,12e50 <_free_r+0x18c>
   12dcc:	02d63423          	sd	a3,40(a2)
   12dd0:	02d63023          	sd	a3,32(a2)
   12dd4:	00e6bc23          	sd	a4,24(a3)
   12dd8:	00e6b823          	sd	a4,16(a3)
   12ddc:	00100813          	li	a6,1
   12de0:	0017e713          	ori	a4,a5,1
   12de4:	00e6b423          	sd	a4,8(a3)
   12de8:	00f68733          	add	a4,a3,a5
   12dec:	00f73023          	sd	a5,0(a4)
   12df0:	f60814e3          	bnez	a6,12d58 <_free_r+0x94>
   12df4:	1ff00713          	li	a4,511
   12df8:	06f76463          	bltu	a4,a5,12e60 <_free_r+0x19c>
   12dfc:	0037d793          	srli	a5,a5,0x3
   12e00:	0007879b          	sext.w	a5,a5
   12e04:	4027d59b          	sraiw	a1,a5,0x2
   12e08:	00100713          	li	a4,1
   12e0c:	00b71733          	sll	a4,a4,a1
   12e10:	0017879b          	addiw	a5,a5,1
   12e14:	00863583          	ld	a1,8(a2)
   12e18:	0017979b          	slliw	a5,a5,0x1
   12e1c:	00379793          	slli	a5,a5,0x3
   12e20:	00f607b3          	add	a5,a2,a5
   12e24:	00b76733          	or	a4,a4,a1
   12e28:	00e63423          	sd	a4,8(a2)
   12e2c:	0007b703          	ld	a4,0(a5)
   12e30:	ff078613          	addi	a2,a5,-16
   12e34:	00c6bc23          	sd	a2,24(a3)
   12e38:	00e6b823          	sd	a4,16(a3)
   12e3c:	00d7b023          	sd	a3,0(a5)
   12e40:	00d73c23          	sd	a3,24(a4)
   12e44:	f15ff06f          	j	12d58 <_free_r+0x94>
   12e48:	00100813          	li	a6,1
   12e4c:	f59ff06f          	j	12da4 <_free_r+0xe0>
   12e50:	0185b583          	ld	a1,24(a1)
   12e54:	00b73c23          	sd	a1,24(a4)
   12e58:	00e5b823          	sd	a4,16(a1)
   12e5c:	f85ff06f          	j	12de0 <_free_r+0x11c>
   12e60:	0097d593          	srli	a1,a5,0x9
   12e64:	00400713          	li	a4,4
   12e68:	04b76a63          	bltu	a4,a1,12ebc <_free_r+0x1f8>
   12e6c:	0067d713          	srli	a4,a5,0x6
   12e70:	0387071b          	addiw	a4,a4,56
   12e74:	0017059b          	addiw	a1,a4,1
   12e78:	0015959b          	slliw	a1,a1,0x1
   12e7c:	00359593          	slli	a1,a1,0x3
   12e80:	00b605b3          	add	a1,a2,a1
   12e84:	ff058513          	addi	a0,a1,-16
   12e88:	0005b583          	ld	a1,0(a1)
   12e8c:	08b51463          	bne	a0,a1,12f14 <_free_r+0x250>
   12e90:	00100793          	li	a5,1
   12e94:	4027571b          	sraiw	a4,a4,0x2
   12e98:	00e79733          	sll	a4,a5,a4
   12e9c:	00863783          	ld	a5,8(a2)
   12ea0:	00f76733          	or	a4,a4,a5
   12ea4:	00e63423          	sd	a4,8(a2)
   12ea8:	00a6bc23          	sd	a0,24(a3)
   12eac:	00b6b823          	sd	a1,16(a3)
   12eb0:	00d53823          	sd	a3,16(a0)
   12eb4:	00d5bc23          	sd	a3,24(a1)
   12eb8:	ea1ff06f          	j	12d58 <_free_r+0x94>
   12ebc:	01400713          	li	a4,20
   12ec0:	00b76663          	bltu	a4,a1,12ecc <_free_r+0x208>
   12ec4:	05b5871b          	addiw	a4,a1,91
   12ec8:	fadff06f          	j	12e74 <_free_r+0x1b0>
   12ecc:	05400713          	li	a4,84
   12ed0:	00b76863          	bltu	a4,a1,12ee0 <_free_r+0x21c>
   12ed4:	00c7d713          	srli	a4,a5,0xc
   12ed8:	06e7071b          	addiw	a4,a4,110
   12edc:	f99ff06f          	j	12e74 <_free_r+0x1b0>
   12ee0:	15400713          	li	a4,340
   12ee4:	00b76863          	bltu	a4,a1,12ef4 <_free_r+0x230>
   12ee8:	00f7d713          	srli	a4,a5,0xf
   12eec:	0777071b          	addiw	a4,a4,119
   12ef0:	f85ff06f          	j	12e74 <_free_r+0x1b0>
   12ef4:	55400513          	li	a0,1364
   12ef8:	07e00713          	li	a4,126
   12efc:	f6b56ce3          	bltu	a0,a1,12e74 <_free_r+0x1b0>
   12f00:	0127d713          	srli	a4,a5,0x12
   12f04:	07c7071b          	addiw	a4,a4,124
   12f08:	f6dff06f          	j	12e74 <_free_r+0x1b0>
   12f0c:	0105b583          	ld	a1,16(a1)
   12f10:	00b50863          	beq	a0,a1,12f20 <_free_r+0x25c>
   12f14:	0085b703          	ld	a4,8(a1)
   12f18:	ffc77713          	andi	a4,a4,-4
   12f1c:	fee7e8e3          	bltu	a5,a4,12f0c <_free_r+0x248>
   12f20:	0185b503          	ld	a0,24(a1)
   12f24:	f85ff06f          	j	12ea8 <_free_r+0x1e4>
   12f28:	00008067          	ret

0000000000012f2c <_fwalk>:
   12f2c:	fb010113          	addi	sp,sp,-80
   12f30:	04813023          	sd	s0,64(sp)
   12f34:	02913c23          	sd	s1,56(sp)
   12f38:	03413023          	sd	s4,32(sp)
   12f3c:	01513c23          	sd	s5,24(sp)
   12f40:	04113423          	sd	ra,72(sp)
   12f44:	03213823          	sd	s2,48(sp)
   12f48:	03313423          	sd	s3,40(sp)
   12f4c:	52050493          	addi	s1,a0,1312
   12f50:	00000413          	li	s0,0
   12f54:	00100a13          	li	s4,1
   12f58:	fff00a93          	li	s5,-1
   12f5c:	02049663          	bnez	s1,12f88 <_fwalk+0x5c>
   12f60:	00040513          	mv	a0,s0
   12f64:	04813083          	ld	ra,72(sp)
   12f68:	04013403          	ld	s0,64(sp)
   12f6c:	03813483          	ld	s1,56(sp)
   12f70:	03013903          	ld	s2,48(sp)
   12f74:	02813983          	ld	s3,40(sp)
   12f78:	02013a03          	ld	s4,32(sp)
   12f7c:	01813a83          	ld	s5,24(sp)
   12f80:	05010113          	addi	sp,sp,80
   12f84:	00008067          	ret
   12f88:	0104b903          	ld	s2,16(s1)
   12f8c:	0084a983          	lw	s3,8(s1)
   12f90:	fff9899b          	addiw	s3,s3,-1
   12f94:	0009d663          	bgez	s3,12fa0 <_fwalk+0x74>
   12f98:	0004b483          	ld	s1,0(s1)
   12f9c:	fc1ff06f          	j	12f5c <_fwalk+0x30>
   12fa0:	01095783          	lhu	a5,16(s2)
   12fa4:	02fa7263          	bgeu	s4,a5,12fc8 <_fwalk+0x9c>
   12fa8:	01291783          	lh	a5,18(s2)
   12fac:	01578e63          	beq	a5,s5,12fc8 <_fwalk+0x9c>
   12fb0:	00090513          	mv	a0,s2
   12fb4:	00b13423          	sd	a1,8(sp)
   12fb8:	000580e7          	jalr	a1
   12fbc:	00813583          	ld	a1,8(sp)
   12fc0:	00a46433          	or	s0,s0,a0
   12fc4:	0004041b          	sext.w	s0,s0
   12fc8:	0b090913          	addi	s2,s2,176
   12fcc:	fc5ff06f          	j	12f90 <_fwalk+0x64>

0000000000012fd0 <_fwalk_reent>:
   12fd0:	fb010113          	addi	sp,sp,-80
   12fd4:	04813023          	sd	s0,64(sp)
   12fd8:	02913c23          	sd	s1,56(sp)
   12fdc:	03413023          	sd	s4,32(sp)
   12fe0:	01513c23          	sd	s5,24(sp)
   12fe4:	01613823          	sd	s6,16(sp)
   12fe8:	01713423          	sd	s7,8(sp)
   12fec:	04113423          	sd	ra,72(sp)
   12ff0:	03213823          	sd	s2,48(sp)
   12ff4:	03313423          	sd	s3,40(sp)
   12ff8:	00050a13          	mv	s4,a0
   12ffc:	00058a93          	mv	s5,a1
   13000:	52050493          	addi	s1,a0,1312
   13004:	00000413          	li	s0,0
   13008:	00100b13          	li	s6,1
   1300c:	fff00b93          	li	s7,-1
   13010:	02049a63          	bnez	s1,13044 <_fwalk_reent+0x74>
   13014:	00040513          	mv	a0,s0
   13018:	04813083          	ld	ra,72(sp)
   1301c:	04013403          	ld	s0,64(sp)
   13020:	03813483          	ld	s1,56(sp)
   13024:	03013903          	ld	s2,48(sp)
   13028:	02813983          	ld	s3,40(sp)
   1302c:	02013a03          	ld	s4,32(sp)
   13030:	01813a83          	ld	s5,24(sp)
   13034:	01013b03          	ld	s6,16(sp)
   13038:	00813b83          	ld	s7,8(sp)
   1303c:	05010113          	addi	sp,sp,80
   13040:	00008067          	ret
   13044:	0104b903          	ld	s2,16(s1)
   13048:	0084a983          	lw	s3,8(s1)
   1304c:	fff9899b          	addiw	s3,s3,-1
   13050:	0009d663          	bgez	s3,1305c <_fwalk_reent+0x8c>
   13054:	0004b483          	ld	s1,0(s1)
   13058:	fb9ff06f          	j	13010 <_fwalk_reent+0x40>
   1305c:	01095783          	lhu	a5,16(s2)
   13060:	02fb7063          	bgeu	s6,a5,13080 <_fwalk_reent+0xb0>
   13064:	01291783          	lh	a5,18(s2)
   13068:	01778c63          	beq	a5,s7,13080 <_fwalk_reent+0xb0>
   1306c:	00090593          	mv	a1,s2
   13070:	000a0513          	mv	a0,s4
   13074:	000a80e7          	jalr	s5
   13078:	00a46433          	or	s0,s0,a0
   1307c:	0004041b          	sext.w	s0,s0
   13080:	0b090913          	addi	s2,s2,176
   13084:	fc9ff06f          	j	1304c <_fwalk_reent+0x7c>

0000000000013088 <eclear>:
   13088:	01450793          	addi	a5,a0,20
   1308c:	00250513          	addi	a0,a0,2
   13090:	fe051f23          	sh	zero,-2(a0)
   13094:	fef51ce3          	bne	a0,a5,1308c <eclear+0x4>
   13098:	00008067          	ret

000000000001309c <emov>:
   1309c:	01450793          	addi	a5,a0,20
   130a0:	00250513          	addi	a0,a0,2
   130a4:	ffe55703          	lhu	a4,-2(a0)
   130a8:	00258593          	addi	a1,a1,2
   130ac:	fee59f23          	sh	a4,-2(a1)
   130b0:	fea798e3          	bne	a5,a0,130a0 <emov+0x4>
   130b4:	00008067          	ret

00000000000130b8 <ecleaz>:
   130b8:	01a50793          	addi	a5,a0,26
   130bc:	00250513          	addi	a0,a0,2
   130c0:	fe051f23          	sh	zero,-2(a0)
   130c4:	fef51ce3          	bne	a0,a5,130bc <ecleaz+0x4>
   130c8:	00008067          	ret

00000000000130cc <emovz>:
   130cc:	01850713          	addi	a4,a0,24
   130d0:	00058793          	mv	a5,a1
   130d4:	00250513          	addi	a0,a0,2
   130d8:	ffe55683          	lhu	a3,-2(a0)
   130dc:	00278793          	addi	a5,a5,2
   130e0:	fed79f23          	sh	a3,-2(a5)
   130e4:	fea718e3          	bne	a4,a0,130d4 <emovz+0x8>
   130e8:	00059c23          	sh	zero,24(a1)
   130ec:	00008067          	ret

00000000000130f0 <ecmpm>:
   130f0:	00450793          	addi	a5,a0,4
   130f4:	00458593          	addi	a1,a1,4
   130f8:	01a50513          	addi	a0,a0,26
   130fc:	00278793          	addi	a5,a5,2
   13100:	00258593          	addi	a1,a1,2
   13104:	ffe7d683          	lhu	a3,-2(a5)
   13108:	ffe5d703          	lhu	a4,-2(a1)
   1310c:	00e69863          	bne	a3,a4,1311c <ecmpm+0x2c>
   13110:	fef516e3          	bne	a0,a5,130fc <ecmpm+0xc>
   13114:	00000513          	li	a0,0
   13118:	00008067          	ret
   1311c:	00100513          	li	a0,1
   13120:	00d76463          	bltu	a4,a3,13128 <ecmpm+0x38>
   13124:	fff00513          	li	a0,-1
   13128:	00008067          	ret

000000000001312c <eshdn1>:
   1312c:	00450693          	addi	a3,a0,4
   13130:	00000793          	li	a5,0
   13134:	01a50513          	addi	a0,a0,26
   13138:	ffff8637          	lui	a2,0xffff8
   1313c:	0006d703          	lhu	a4,0(a3)
   13140:	00177593          	andi	a1,a4,1
   13144:	00058463          	beqz	a1,1314c <eshdn1+0x20>
   13148:	0017e793          	ori	a5,a5,1
   1314c:	0027f593          	andi	a1,a5,2
   13150:	00175713          	srli	a4,a4,0x1
   13154:	02059063          	bnez	a1,13174 <eshdn1+0x48>
   13158:	0017979b          	slliw	a5,a5,0x1
   1315c:	00e69023          	sh	a4,0(a3)
   13160:	03079793          	slli	a5,a5,0x30
   13164:	00268693          	addi	a3,a3,2
   13168:	0307d793          	srli	a5,a5,0x30
   1316c:	fcd518e3          	bne	a0,a3,1313c <eshdn1+0x10>
   13170:	00008067          	ret
   13174:	00c76733          	or	a4,a4,a2
   13178:	fe1ff06f          	j	13158 <eshdn1+0x2c>

000000000001317c <eshup1>:
   1317c:	01650693          	addi	a3,a0,22
   13180:	00000713          	li	a4,0
   13184:	0026d783          	lhu	a5,2(a3)
   13188:	0107961b          	slliw	a2,a5,0x10
   1318c:	4106561b          	sraiw	a2,a2,0x10
   13190:	00065463          	bgez	a2,13198 <eshup1+0x1c>
   13194:	00176713          	ori	a4,a4,1
   13198:	0017979b          	slliw	a5,a5,0x1
   1319c:	03079793          	slli	a5,a5,0x30
   131a0:	00277613          	andi	a2,a4,2
   131a4:	0307d793          	srli	a5,a5,0x30
   131a8:	02061063          	bnez	a2,131c8 <eshup1+0x4c>
   131ac:	0017171b          	slliw	a4,a4,0x1
   131b0:	00f69123          	sh	a5,2(a3)
   131b4:	03071713          	slli	a4,a4,0x30
   131b8:	ffe68693          	addi	a3,a3,-2
   131bc:	03075713          	srli	a4,a4,0x30
   131c0:	fcd512e3          	bne	a0,a3,13184 <eshup1+0x8>
   131c4:	00008067          	ret
   131c8:	0017e793          	ori	a5,a5,1
   131cc:	fe1ff06f          	j	131ac <eshup1+0x30>

00000000000131d0 <eshdn8>:
   131d0:	00450793          	addi	a5,a0,4
   131d4:	00000713          	li	a4,0
   131d8:	01a50513          	addi	a0,a0,26
   131dc:	0007d683          	lhu	a3,0(a5)
   131e0:	00278793          	addi	a5,a5,2
   131e4:	0086d61b          	srliw	a2,a3,0x8
   131e8:	00c76733          	or	a4,a4,a2
   131ec:	fee79f23          	sh	a4,-2(a5)
   131f0:	0086971b          	slliw	a4,a3,0x8
   131f4:	03071713          	slli	a4,a4,0x30
   131f8:	03075713          	srli	a4,a4,0x30
   131fc:	fef510e3          	bne	a0,a5,131dc <eshdn8+0xc>
   13200:	00008067          	ret

0000000000013204 <eshup8>:
   13204:	01650793          	addi	a5,a0,22
   13208:	00000713          	li	a4,0
   1320c:	0027d683          	lhu	a3,2(a5)
   13210:	ffe78793          	addi	a5,a5,-2
   13214:	00869613          	slli	a2,a3,0x8
   13218:	00c76733          	or	a4,a4,a2
   1321c:	00e79223          	sh	a4,4(a5)
   13220:	0086d713          	srli	a4,a3,0x8
   13224:	fef514e3          	bne	a0,a5,1320c <eshup8+0x8>
   13228:	00008067          	ret

000000000001322c <eshup6>:
   1322c:	00450793          	addi	a5,a0,4
   13230:	01850713          	addi	a4,a0,24
   13234:	00278793          	addi	a5,a5,2
   13238:	0007d683          	lhu	a3,0(a5)
   1323c:	fed79f23          	sh	a3,-2(a5)
   13240:	fef71ae3          	bne	a4,a5,13234 <eshup6+0x8>
   13244:	00051c23          	sh	zero,24(a0)
   13248:	00008067          	ret

000000000001324c <eshdn6>:
   1324c:	01850793          	addi	a5,a0,24
   13250:	01a50713          	addi	a4,a0,26
   13254:	00450693          	addi	a3,a0,4
   13258:	ffe78793          	addi	a5,a5,-2
   1325c:	0007d603          	lhu	a2,0(a5)
   13260:	ffe70713          	addi	a4,a4,-2
   13264:	00c71023          	sh	a2,0(a4)
   13268:	fef698e3          	bne	a3,a5,13258 <eshdn6+0xc>
   1326c:	00051223          	sh	zero,4(a0)
   13270:	00008067          	ret

0000000000013274 <eaddm>:
   13274:	01858593          	addi	a1,a1,24
   13278:	01650713          	addi	a4,a0,22
   1327c:	00000693          	li	a3,0
   13280:	0005d783          	lhu	a5,0(a1)
   13284:	ffe70713          	addi	a4,a4,-2
   13288:	ffe58593          	addi	a1,a1,-2
   1328c:	00d787b3          	add	a5,a5,a3
   13290:	00475683          	lhu	a3,4(a4)
   13294:	00d787b3          	add	a5,a5,a3
   13298:	00f59123          	sh	a5,2(a1)
   1329c:	0107d793          	srli	a5,a5,0x10
   132a0:	0017f693          	andi	a3,a5,1
   132a4:	fce51ee3          	bne	a0,a4,13280 <eaddm+0xc>
   132a8:	00008067          	ret

00000000000132ac <esubm>:
   132ac:	01858593          	addi	a1,a1,24
   132b0:	01650713          	addi	a4,a0,22
   132b4:	00000693          	li	a3,0
   132b8:	0005d783          	lhu	a5,0(a1)
   132bc:	00275603          	lhu	a2,2(a4)
   132c0:	ffe70713          	addi	a4,a4,-2
   132c4:	ffe58593          	addi	a1,a1,-2
   132c8:	40c787b3          	sub	a5,a5,a2
   132cc:	40d787b3          	sub	a5,a5,a3
   132d0:	00f59123          	sh	a5,2(a1)
   132d4:	0107d793          	srli	a5,a5,0x10
   132d8:	0017f693          	andi	a3,a5,1
   132dc:	fce51ee3          	bne	a0,a4,132b8 <esubm+0xc>
   132e0:	00008067          	ret

00000000000132e4 <m16m>:
   132e4:	fe010113          	addi	sp,sp,-32
   132e8:	00010337          	lui	t1,0x10
   132ec:	01858893          	addi	a7,a1,24
   132f0:	00011b23          	sh	zero,22(sp)
   132f4:	00011c23          	sh	zero,24(sp)
   132f8:	00458593          	addi	a1,a1,4
   132fc:	01810693          	addi	a3,sp,24
   13300:	fff30313          	addi	t1,t1,-1 # ffff <_start-0xb1>
   13304:	0008d703          	lhu	a4,0(a7)
   13308:	ffe68693          	addi	a3,a3,-2
   1330c:	ffe88893          	addi	a7,a7,-2
   13310:	02071a63          	bnez	a4,13344 <m16m+0x60>
   13314:	fe069f23          	sh	zero,-2(a3)
   13318:	ff1596e3          	bne	a1,a7,13304 <m16m+0x20>
   1331c:	00400793          	li	a5,4
   13320:	01a00713          	li	a4,26
   13324:	00f105b3          	add	a1,sp,a5
   13328:	0005d583          	lhu	a1,0(a1)
   1332c:	00f606b3          	add	a3,a2,a5
   13330:	00278793          	addi	a5,a5,2
   13334:	00b69023          	sh	a1,0(a3)
   13338:	fee796e3          	bne	a5,a4,13324 <m16m+0x40>
   1333c:	02010113          	addi	sp,sp,32
   13340:	00008067          	ret
   13344:	02a70733          	mul	a4,a4,a0
   13348:	0026d803          	lhu	a6,2(a3)
   1334c:	006777b3          	and	a5,a4,t1
   13350:	010787b3          	add	a5,a5,a6
   13354:	0107d813          	srli	a6,a5,0x10
   13358:	00f69123          	sh	a5,2(a3)
   1335c:	01075793          	srli	a5,a4,0x10
   13360:	0006d703          	lhu	a4,0(a3)
   13364:	00e787b3          	add	a5,a5,a4
   13368:	010787b3          	add	a5,a5,a6
   1336c:	00f69023          	sh	a5,0(a3)
   13370:	0107d793          	srli	a5,a5,0x10
   13374:	fef69f23          	sh	a5,-2(a3)
   13378:	fa1ff06f          	j	13318 <m16m+0x34>

000000000001337c <eisnan>:
   1337c:	01255783          	lhu	a5,18(a0)
   13380:	fff7c793          	not	a5,a5
   13384:	03179713          	slli	a4,a5,0x31
   13388:	00071c63          	bnez	a4,133a0 <eisnan+0x24>
   1338c:	01250793          	addi	a5,a0,18
   13390:	00250513          	addi	a0,a0,2
   13394:	ffe55703          	lhu	a4,-2(a0)
   13398:	00071863          	bnez	a4,133a8 <eisnan+0x2c>
   1339c:	fea79ae3          	bne	a5,a0,13390 <eisnan+0x14>
   133a0:	00000513          	li	a0,0
   133a4:	00008067          	ret
   133a8:	00100513          	li	a0,1
   133ac:	00008067          	ret

00000000000133b0 <eisneg>:
   133b0:	ff010113          	addi	sp,sp,-16
   133b4:	00813023          	sd	s0,0(sp)
   133b8:	00113423          	sd	ra,8(sp)
   133bc:	00050413          	mv	s0,a0
   133c0:	fbdff0ef          	jal	ra,1337c <eisnan>
   133c4:	00051e63          	bnez	a0,133e0 <eisneg+0x30>
   133c8:	01344503          	lbu	a0,19(s0)
   133cc:	00755513          	srli	a0,a0,0x7
   133d0:	00813083          	ld	ra,8(sp)
   133d4:	00013403          	ld	s0,0(sp)
   133d8:	01010113          	addi	sp,sp,16
   133dc:	00008067          	ret
   133e0:	00000513          	li	a0,0
   133e4:	fedff06f          	j	133d0 <eisneg+0x20>

00000000000133e8 <emovi>:
   133e8:	01251783          	lh	a5,18(a0)
   133ec:	fe010113          	addi	sp,sp,-32
   133f0:	00113c23          	sd	ra,24(sp)
   133f4:	00813823          	sd	s0,16(sp)
   133f8:	00913423          	sd	s1,8(sp)
   133fc:	01213023          	sd	s2,0(sp)
   13400:	0607d863          	bgez	a5,13470 <emovi+0x88>
   13404:	fff00793          	li	a5,-1
   13408:	00f59023          	sh	a5,0(a1)
   1340c:	01255703          	lhu	a4,18(a0)
   13410:	000087b7          	lui	a5,0x8
   13414:	fff78793          	addi	a5,a5,-1 # 7fff <_start-0x80b1>
   13418:	00e7f733          	and	a4,a5,a4
   1341c:	00e59123          	sh	a4,2(a1)
   13420:	01050913          	addi	s2,a0,16
   13424:	06f71663          	bne	a4,a5,13490 <emovi+0xa8>
   13428:	00058413          	mv	s0,a1
   1342c:	00050493          	mv	s1,a0
   13430:	f4dff0ef          	jal	ra,1337c <eisnan>
   13434:	04050263          	beqz	a0,13478 <emovi+0x90>
   13438:	00640793          	addi	a5,s0,6
   1343c:	00041223          	sh	zero,4(s0)
   13440:	ffc48513          	addi	a0,s1,-4
   13444:	ffe90913          	addi	s2,s2,-2
   13448:	00295703          	lhu	a4,2(s2)
   1344c:	00278793          	addi	a5,a5,2
   13450:	fee79f23          	sh	a4,-2(a5)
   13454:	fea918e3          	bne	s2,a0,13444 <emovi+0x5c>
   13458:	01813083          	ld	ra,24(sp)
   1345c:	01013403          	ld	s0,16(sp)
   13460:	00813483          	ld	s1,8(sp)
   13464:	00013903          	ld	s2,0(sp)
   13468:	02010113          	addi	sp,sp,32
   1346c:	00008067          	ret
   13470:	00059023          	sh	zero,0(a1)
   13474:	f99ff06f          	j	1340c <emovi+0x24>
   13478:	00440793          	addi	a5,s0,4
   1347c:	01a40593          	addi	a1,s0,26
   13480:	00278793          	addi	a5,a5,2
   13484:	fe079f23          	sh	zero,-2(a5)
   13488:	feb79ce3          	bne	a5,a1,13480 <emovi+0x98>
   1348c:	fcdff06f          	j	13458 <emovi+0x70>
   13490:	00658793          	addi	a5,a1,6
   13494:	00059223          	sh	zero,4(a1)
   13498:	ffe50513          	addi	a0,a0,-2
   1349c:	ffe90913          	addi	s2,s2,-2
   134a0:	00295703          	lhu	a4,2(s2)
   134a4:	00278793          	addi	a5,a5,2
   134a8:	fee79f23          	sh	a4,-2(a5)
   134ac:	fea918e3          	bne	s2,a0,1349c <emovi+0xb4>
   134b0:	00059c23          	sh	zero,24(a1)
   134b4:	fa5ff06f          	j	13458 <emovi+0x70>

00000000000134b8 <ecmp>:
   134b8:	fa010113          	addi	sp,sp,-96
   134bc:	04913423          	sd	s1,72(sp)
   134c0:	05213023          	sd	s2,64(sp)
   134c4:	04113c23          	sd	ra,88(sp)
   134c8:	04813823          	sd	s0,80(sp)
   134cc:	00050913          	mv	s2,a0
   134d0:	00058493          	mv	s1,a1
   134d4:	ea9ff0ef          	jal	ra,1337c <eisnan>
   134d8:	0c051c63          	bnez	a0,135b0 <ecmp+0xf8>
   134dc:	00048513          	mv	a0,s1
   134e0:	e9dff0ef          	jal	ra,1337c <eisnan>
   134e4:	00050413          	mv	s0,a0
   134e8:	0c051463          	bnez	a0,135b0 <ecmp+0xf8>
   134ec:	00010593          	mv	a1,sp
   134f0:	00090513          	mv	a0,s2
   134f4:	ef5ff0ef          	jal	ra,133e8 <emovi>
   134f8:	02010593          	addi	a1,sp,32
   134fc:	00048513          	mv	a0,s1
   13500:	ee9ff0ef          	jal	ra,133e8 <emovi>
   13504:	00015703          	lhu	a4,0(sp)
   13508:	02015783          	lhu	a5,32(sp)
   1350c:	04e78e63          	beq	a5,a4,13568 <ecmp+0xb0>
   13510:	00200793          	li	a5,2
   13514:	01800693          	li	a3,24
   13518:	00f10633          	add	a2,sp,a5
   1351c:	00065603          	lhu	a2,0(a2) # ffffffffffff8000 <__global_pointer$+0xfffffffffffd6fd0>
   13520:	02061c63          	bnez	a2,13558 <ecmp+0xa0>
   13524:	02010613          	addi	a2,sp,32
   13528:	00f60633          	add	a2,a2,a5
   1352c:	00065603          	lhu	a2,0(a2)
   13530:	02061463          	bnez	a2,13558 <ecmp+0xa0>
   13534:	00278793          	addi	a5,a5,2
   13538:	fed790e3          	bne	a5,a3,13518 <ecmp+0x60>
   1353c:	00040513          	mv	a0,s0
   13540:	05813083          	ld	ra,88(sp)
   13544:	05013403          	ld	s0,80(sp)
   13548:	04813483          	ld	s1,72(sp)
   1354c:	04013903          	ld	s2,64(sp)
   13550:	06010113          	addi	sp,sp,96
   13554:	00008067          	ret
   13558:	00100413          	li	s0,1
   1355c:	fe0700e3          	beqz	a4,1353c <ecmp+0x84>
   13560:	fff00413          	li	s0,-1
   13564:	fd9ff06f          	j	1353c <ecmp+0x84>
   13568:	00100613          	li	a2,1
   1356c:	00070463          	beqz	a4,13574 <ecmp+0xbc>
   13570:	fff00613          	li	a2,-1
   13574:	00000793          	li	a5,0
   13578:	01800593          	li	a1,24
   1357c:	00f10733          	add	a4,sp,a5
   13580:	00075683          	lhu	a3,0(a4)
   13584:	02010713          	addi	a4,sp,32
   13588:	00f70733          	add	a4,a4,a5
   1358c:	00075703          	lhu	a4,0(a4)
   13590:	00e69863          	bne	a3,a4,135a0 <ecmp+0xe8>
   13594:	00278793          	addi	a5,a5,2
   13598:	feb792e3          	bne	a5,a1,1357c <ecmp+0xc4>
   1359c:	fa1ff06f          	j	1353c <ecmp+0x84>
   135a0:	00060413          	mv	s0,a2
   135a4:	f8d76ce3          	bltu	a4,a3,1353c <ecmp+0x84>
   135a8:	40c0043b          	negw	s0,a2
   135ac:	f91ff06f          	j	1353c <ecmp+0x84>
   135b0:	ffe00413          	li	s0,-2
   135b4:	f89ff06f          	j	1353c <ecmp+0x84>

00000000000135b8 <eisinf>:
   135b8:	01255783          	lhu	a5,18(a0)
   135bc:	fff7c793          	not	a5,a5
   135c0:	03179713          	slli	a4,a5,0x31
   135c4:	02071063          	bnez	a4,135e4 <eisinf+0x2c>
   135c8:	ff010113          	addi	sp,sp,-16
   135cc:	00113423          	sd	ra,8(sp)
   135d0:	dadff0ef          	jal	ra,1337c <eisnan>
   135d4:	00813083          	ld	ra,8(sp)
   135d8:	00153513          	seqz	a0,a0
   135dc:	01010113          	addi	sp,sp,16
   135e0:	00008067          	ret
   135e4:	00000513          	li	a0,0
   135e8:	00008067          	ret

00000000000135ec <einfin.isra.2>:
   135ec:	01250793          	addi	a5,a0,18
   135f0:	00250513          	addi	a0,a0,2
   135f4:	fe051f23          	sh	zero,-2(a0)
   135f8:	fef51ce3          	bne	a0,a5,135f0 <einfin.isra.2+0x4>
   135fc:	00055783          	lhu	a5,0(a0)
   13600:	00008737          	lui	a4,0x8
   13604:	fff70713          	addi	a4,a4,-1 # 7fff <_start-0x80b1>
   13608:	00e7e7b3          	or	a5,a5,a4
   1360c:	00f51023          	sh	a5,0(a0)
   13610:	00008067          	ret

0000000000013614 <eshift.part.3>:
   13614:	fc010113          	addi	sp,sp,-64
   13618:	02813823          	sd	s0,48(sp)
   1361c:	01313c23          	sd	s3,24(sp)
   13620:	02113c23          	sd	ra,56(sp)
   13624:	02913423          	sd	s1,40(sp)
   13628:	03213023          	sd	s2,32(sp)
   1362c:	01413823          	sd	s4,16(sp)
   13630:	01513423          	sd	s5,8(sp)
   13634:	00050993          	mv	s3,a0
   13638:	00058413          	mv	s0,a1
   1363c:	1005d263          	bgez	a1,13740 <eshift.part.3+0x12c>
   13640:	40b00a3b          	negw	s4,a1
   13644:	000a0913          	mv	s2,s4
   13648:	00000493          	li	s1,0
   1364c:	00f00a93          	li	s5,15
   13650:	034ace63          	blt	s5,s4,1368c <eshift.part.3+0x78>
   13654:	0049591b          	srliw	s2,s2,0x4
   13658:	ff000593          	li	a1,-16
   1365c:	02b905bb          	mulw	a1,s2,a1
   13660:	00700a13          	li	s4,7
   13664:	4085893b          	subw	s2,a1,s0
   13668:	00090413          	mv	s0,s2
   1366c:	032a4c63          	blt	s4,s2,136a4 <eshift.part.3+0x90>
   13670:	0034559b          	srliw	a1,s0,0x3
   13674:	ff800793          	li	a5,-8
   13678:	02f585bb          	mulw	a1,a1,a5
   1367c:	0085843b          	addw	s0,a1,s0
   13680:	02041e63          	bnez	s0,136bc <eshift.part.3+0xa8>
   13684:	00903533          	snez	a0,s1
   13688:	0940006f          	j	1371c <eshift.part.3+0x108>
   1368c:	0189d783          	lhu	a5,24(s3)
   13690:	00098513          	mv	a0,s3
   13694:	ff0a0a1b          	addiw	s4,s4,-16
   13698:	00f4e4b3          	or	s1,s1,a5
   1369c:	bb1ff0ef          	jal	ra,1324c <eshdn6>
   136a0:	fb1ff06f          	j	13650 <eshift.part.3+0x3c>
   136a4:	0189c783          	lbu	a5,24(s3)
   136a8:	00098513          	mv	a0,s3
   136ac:	ff89091b          	addiw	s2,s2,-8
   136b0:	0097e4b3          	or	s1,a5,s1
   136b4:	b1dff0ef          	jal	ra,131d0 <eshdn8>
   136b8:	fb5ff06f          	j	1366c <eshift.part.3+0x58>
   136bc:	0189d783          	lhu	a5,24(s3)
   136c0:	00098513          	mv	a0,s3
   136c4:	fff4041b          	addiw	s0,s0,-1
   136c8:	0017f793          	andi	a5,a5,1
   136cc:	0097e4b3          	or	s1,a5,s1
   136d0:	a5dff0ef          	jal	ra,1312c <eshdn1>
   136d4:	fadff06f          	j	13680 <eshift.part.3+0x6c>
   136d8:	00098513          	mv	a0,s3
   136dc:	b51ff0ef          	jal	ra,1322c <eshup6>
   136e0:	ff04849b          	addiw	s1,s1,-16
   136e4:	fe994ae3          	blt	s2,s1,136d8 <eshift.part.3+0xc4>
   136e8:	0044559b          	srliw	a1,s0,0x4
   136ec:	ff000793          	li	a5,-16
   136f0:	02f585bb          	mulw	a1,a1,a5
   136f4:	00700913          	li	s2,7
   136f8:	00b404bb          	addw	s1,s0,a1
   136fc:	00048413          	mv	s0,s1
   13700:	04994663          	blt	s2,s1,1374c <eshift.part.3+0x138>
   13704:	0034559b          	srliw	a1,s0,0x3
   13708:	ff800793          	li	a5,-8
   1370c:	02f585bb          	mulw	a1,a1,a5
   13710:	00b4043b          	addw	s0,s0,a1
   13714:	04041463          	bnez	s0,1375c <eshift.part.3+0x148>
   13718:	00000513          	li	a0,0
   1371c:	03813083          	ld	ra,56(sp)
   13720:	03013403          	ld	s0,48(sp)
   13724:	02813483          	ld	s1,40(sp)
   13728:	02013903          	ld	s2,32(sp)
   1372c:	01813983          	ld	s3,24(sp)
   13730:	01013a03          	ld	s4,16(sp)
   13734:	00813a83          	ld	s5,8(sp)
   13738:	04010113          	addi	sp,sp,64
   1373c:	00008067          	ret
   13740:	00058493          	mv	s1,a1
   13744:	00f00913          	li	s2,15
   13748:	f9dff06f          	j	136e4 <eshift.part.3+0xd0>
   1374c:	00098513          	mv	a0,s3
   13750:	ab5ff0ef          	jal	ra,13204 <eshup8>
   13754:	ff84849b          	addiw	s1,s1,-8
   13758:	fa9ff06f          	j	13700 <eshift.part.3+0xec>
   1375c:	00098513          	mv	a0,s3
   13760:	a1dff0ef          	jal	ra,1317c <eshup1>
   13764:	fff4041b          	addiw	s0,s0,-1
   13768:	fadff06f          	j	13714 <eshift.part.3+0x100>

000000000001376c <enormlz>:
   1376c:	00455783          	lhu	a5,4(a0)
   13770:	fe010113          	addi	sp,sp,-32
   13774:	00913423          	sd	s1,8(sp)
   13778:	00113c23          	sd	ra,24(sp)
   1377c:	00813823          	sd	s0,16(sp)
   13780:	01213023          	sd	s2,0(sp)
   13784:	00050493          	mv	s1,a0
   13788:	08079263          	bnez	a5,1380c <enormlz+0xa0>
   1378c:	00651783          	lh	a5,6(a0)
   13790:	00000413          	li	s0,0
   13794:	0a000913          	li	s2,160
   13798:	0207d863          	bgez	a5,137c8 <enormlz+0x5c>
   1379c:	00040513          	mv	a0,s0
   137a0:	01813083          	ld	ra,24(sp)
   137a4:	01013403          	ld	s0,16(sp)
   137a8:	00813483          	ld	s1,8(sp)
   137ac:	00013903          	ld	s2,0(sp)
   137b0:	02010113          	addi	sp,sp,32
   137b4:	00008067          	ret
   137b8:	00048513          	mv	a0,s1
   137bc:	0104041b          	addiw	s0,s0,16
   137c0:	a6dff0ef          	jal	ra,1322c <eshup6>
   137c4:	fd240ce3          	beq	s0,s2,1379c <enormlz+0x30>
   137c8:	0064d783          	lhu	a5,6(s1)
   137cc:	fe0786e3          	beqz	a5,137b8 <enormlz+0x4c>
   137d0:	0064d783          	lhu	a5,6(s1)
   137d4:	f007f793          	andi	a5,a5,-256
   137d8:	02078263          	beqz	a5,137fc <enormlz+0x90>
   137dc:	0a000913          	li	s2,160
   137e0:	00649783          	lh	a5,6(s1)
   137e4:	fa07cce3          	bltz	a5,1379c <enormlz+0x30>
   137e8:	00048513          	mv	a0,s1
   137ec:	0014041b          	addiw	s0,s0,1
   137f0:	98dff0ef          	jal	ra,1317c <eshup1>
   137f4:	fe8956e3          	bge	s2,s0,137e0 <enormlz+0x74>
   137f8:	fa5ff06f          	j	1379c <enormlz+0x30>
   137fc:	00048513          	mv	a0,s1
   13800:	a05ff0ef          	jal	ra,13204 <eshup8>
   13804:	0084041b          	addiw	s0,s0,8
   13808:	fc9ff06f          	j	137d0 <enormlz+0x64>
   1380c:	f007f793          	andi	a5,a5,-256
   13810:	00000413          	li	s0,0
   13814:	00078663          	beqz	a5,13820 <enormlz+0xb4>
   13818:	9b9ff0ef          	jal	ra,131d0 <eshdn8>
   1381c:	ff800413          	li	s0,-8
   13820:	f7000913          	li	s2,-144
   13824:	0140006f          	j	13838 <enormlz+0xcc>
   13828:	00048513          	mv	a0,s1
   1382c:	fff4041b          	addiw	s0,s0,-1
   13830:	8fdff0ef          	jal	ra,1312c <eshdn1>
   13834:	f72444e3          	blt	s0,s2,1379c <enormlz+0x30>
   13838:	0044d783          	lhu	a5,4(s1)
   1383c:	fe0796e3          	bnez	a5,13828 <enormlz+0xbc>
   13840:	f5dff06f          	j	1379c <enormlz+0x30>

0000000000013844 <enan.constprop.12>:
   13844:	01050793          	addi	a5,a0,16
   13848:	00250513          	addi	a0,a0,2
   1384c:	fe051f23          	sh	zero,-2(a0)
   13850:	fef51ce3          	bne	a0,a5,13848 <enan.constprop.12+0x4>
   13854:	ffffc7b7          	lui	a5,0xffffc
   13858:	00f51023          	sh	a5,0(a0)
   1385c:	ffff87b7          	lui	a5,0xffff8
   13860:	fff7c793          	not	a5,a5
   13864:	00f51123          	sh	a5,2(a0)
   13868:	00008067          	ret

000000000001386c <emovo.isra.6>:
   1386c:	00050713          	mv	a4,a0
   13870:	00075683          	lhu	a3,0(a4)
   13874:	00058513          	mv	a0,a1
   13878:	00275783          	lhu	a5,2(a4)
   1387c:	00068663          	beqz	a3,13888 <emovo.isra.6+0x1c>
   13880:	ffff86b7          	lui	a3,0xffff8
   13884:	00d7e7b3          	or	a5,a5,a3
   13888:	00f51923          	sh	a5,18(a0)
   1388c:	00275603          	lhu	a2,2(a4)
   13890:	000086b7          	lui	a3,0x8
   13894:	fff68693          	addi	a3,a3,-1 # 7fff <_start-0x80b1>
   13898:	00670793          	addi	a5,a4,6
   1389c:	00d61e63          	bne	a2,a3,138b8 <emovo.isra.6+0x4c>
   138a0:	01a70713          	addi	a4,a4,26
   138a4:	0007d683          	lhu	a3,0(a5) # ffffffffffff8000 <__global_pointer$+0xfffffffffffd6fd0>
   138a8:	02069863          	bnez	a3,138d8 <emovo.isra.6+0x6c>
   138ac:	00278793          	addi	a5,a5,2
   138b0:	fee79ae3          	bne	a5,a4,138a4 <emovo.isra.6+0x38>
   138b4:	d39ff06f          	j	135ec <einfin.isra.2>
   138b8:	01050513          	addi	a0,a0,16
   138bc:	01870713          	addi	a4,a4,24
   138c0:	00278793          	addi	a5,a5,2
   138c4:	ffe7d683          	lhu	a3,-2(a5)
   138c8:	ffe50513          	addi	a0,a0,-2
   138cc:	00d51123          	sh	a3,2(a0)
   138d0:	fee798e3          	bne	a5,a4,138c0 <emovo.isra.6+0x54>
   138d4:	00008067          	ret
   138d8:	f6dff06f          	j	13844 <enan.constprop.12>

00000000000138dc <e113toe.isra.8>:
   138dc:	fc010113          	addi	sp,sp,-64
   138e0:	02913423          	sd	s1,40(sp)
   138e4:	00050493          	mv	s1,a0
   138e8:	00010513          	mv	a0,sp
   138ec:	02813823          	sd	s0,48(sp)
   138f0:	02113c23          	sd	ra,56(sp)
   138f4:	00058413          	mv	s0,a1
   138f8:	fc0ff0ef          	jal	ra,130b8 <ecleaz>
   138fc:	00e4d703          	lhu	a4,14(s1)
   13900:	0107179b          	slliw	a5,a4,0x10
   13904:	4107d79b          	sraiw	a5,a5,0x10
   13908:	0407c263          	bltz	a5,1394c <e113toe.isra.8+0x70>
   1390c:	00011023          	sh	zero,0(sp)
   13910:	000086b7          	lui	a3,0x8
   13914:	fff68693          	addi	a3,a3,-1 # 7fff <_start-0x80b1>
   13918:	00d77733          	and	a4,a4,a3
   1391c:	00e48793          	addi	a5,s1,14
   13920:	06d71c63          	bne	a4,a3,13998 <e113toe.isra.8+0xbc>
   13924:	00048713          	mv	a4,s1
   13928:	00075683          	lhu	a3,0(a4)
   1392c:	02068663          	beqz	a3,13958 <e113toe.isra.8+0x7c>
   13930:	00040513          	mv	a0,s0
   13934:	f11ff0ef          	jal	ra,13844 <enan.constprop.12>
   13938:	03813083          	ld	ra,56(sp)
   1393c:	03013403          	ld	s0,48(sp)
   13940:	02813483          	ld	s1,40(sp)
   13944:	04010113          	addi	sp,sp,64
   13948:	00008067          	ret
   1394c:	fff00793          	li	a5,-1
   13950:	00f11023          	sh	a5,0(sp)
   13954:	fbdff06f          	j	13910 <e113toe.isra.8+0x34>
   13958:	00270713          	addi	a4,a4,2
   1395c:	fce796e3          	bne	a5,a4,13928 <e113toe.isra.8+0x4c>
   13960:	00040513          	mv	a0,s0
   13964:	f24ff0ef          	jal	ra,13088 <eclear>
   13968:	00040513          	mv	a0,s0
   1396c:	c81ff0ef          	jal	ra,135ec <einfin.isra.2>
   13970:	00e49783          	lh	a5,14(s1)
   13974:	fc07d2e3          	bgez	a5,13938 <e113toe.isra.8+0x5c>
   13978:	00040513          	mv	a0,s0
   1397c:	a01ff0ef          	jal	ra,1337c <eisnan>
   13980:	fa051ce3          	bnez	a0,13938 <e113toe.isra.8+0x5c>
   13984:	01245783          	lhu	a5,18(s0)
   13988:	ffff8737          	lui	a4,0xffff8
   1398c:	00e7c7b3          	xor	a5,a5,a4
   13990:	00f41923          	sh	a5,18(s0)
   13994:	fa5ff06f          	j	13938 <e113toe.isra.8+0x5c>
   13998:	00e11123          	sh	a4,2(sp)
   1399c:	00010693          	mv	a3,sp
   139a0:	ffe78793          	addi	a5,a5,-2
   139a4:	0007d603          	lhu	a2,0(a5)
   139a8:	00268693          	addi	a3,a3,2
   139ac:	00c69223          	sh	a2,4(a3)
   139b0:	fef498e3          	bne	s1,a5,139a0 <e113toe.isra.8+0xc4>
   139b4:	00071c63          	bnez	a4,139cc <e113toe.isra.8+0xf0>
   139b8:	00011223          	sh	zero,4(sp)
   139bc:	00040593          	mv	a1,s0
   139c0:	00010513          	mv	a0,sp
   139c4:	ea9ff0ef          	jal	ra,1386c <emovo.isra.6>
   139c8:	f71ff06f          	j	13938 <e113toe.isra.8+0x5c>
   139cc:	00100793          	li	a5,1
   139d0:	fff00593          	li	a1,-1
   139d4:	00010513          	mv	a0,sp
   139d8:	00f11223          	sh	a5,4(sp)
   139dc:	c39ff0ef          	jal	ra,13614 <eshift.part.3>
   139e0:	fddff06f          	j	139bc <e113toe.isra.8+0xe0>

00000000000139e4 <emdnorm>:
   139e4:	fc010113          	addi	sp,sp,-64
   139e8:	02813823          	sd	s0,48(sp)
   139ec:	02913423          	sd	s1,40(sp)
   139f0:	03213023          	sd	s2,32(sp)
   139f4:	01313c23          	sd	s3,24(sp)
   139f8:	01413823          	sd	s4,16(sp)
   139fc:	01513423          	sd	s5,8(sp)
   13a00:	00068913          	mv	s2,a3
   13a04:	00078413          	mv	s0,a5
   13a08:	02113c23          	sd	ra,56(sp)
   13a0c:	00050493          	mv	s1,a0
   13a10:	00058993          	mv	s3,a1
   13a14:	00060a13          	mv	s4,a2
   13a18:	00070a93          	mv	s5,a4
   13a1c:	d51ff0ef          	jal	ra,1376c <enormlz>
   13a20:	09000793          	li	a5,144
   13a24:	40a90933          	sub	s2,s2,a0
   13a28:	04a7d463          	bge	a5,a0,13a70 <emdnorm+0x8c>
   13a2c:	000087b7          	lui	a5,0x8
   13a30:	ffe78793          	addi	a5,a5,-2 # 7ffe <_start-0x80b2>
   13a34:	2f27c663          	blt	a5,s2,13d20 <emdnorm+0x33c>
   13a38:	00248793          	addi	a5,s1,2
   13a3c:	01a48493          	addi	s1,s1,26
   13a40:	00278793          	addi	a5,a5,2
   13a44:	fe079f23          	sh	zero,-2(a5)
   13a48:	fe979ce3          	bne	a5,s1,13a40 <emdnorm+0x5c>
   13a4c:	03813083          	ld	ra,56(sp)
   13a50:	03013403          	ld	s0,48(sp)
   13a54:	02813483          	ld	s1,40(sp)
   13a58:	02013903          	ld	s2,32(sp)
   13a5c:	01813983          	ld	s3,24(sp)
   13a60:	01013a03          	ld	s4,16(sp)
   13a64:	00813a83          	ld	s5,8(sp)
   13a68:	04010113          	addi	sp,sp,64
   13a6c:	00008067          	ret
   13a70:	00095e63          	bgez	s2,13a8c <emdnorm+0xa8>
   13a74:	f7000793          	li	a5,-144
   13a78:	12f94e63          	blt	s2,a5,13bb4 <emdnorm+0x1d0>
   13a7c:	0009059b          	sext.w	a1,s2
   13a80:	00048513          	mv	a0,s1
   13a84:	b91ff0ef          	jal	ra,13614 <eshift.part.3>
   13a88:	14051263          	bnez	a0,13bcc <emdnorm+0x1e8>
   13a8c:	240a8663          	beqz	s5,13cd8 <emdnorm+0x2f4>
   13a90:	00442703          	lw	a4,4(s0)
   13a94:	00042783          	lw	a5,0(s0)
   13a98:	06f70663          	beq	a4,a5,13b04 <emdnorm+0x120>
   13a9c:	01a40513          	addi	a0,s0,26
   13aa0:	e18ff0ef          	jal	ra,130b8 <ecleaz>
   13aa4:	00442783          	lw	a5,4(s0)
   13aa8:	03800713          	li	a4,56
   13aac:	18e78063          	beq	a5,a4,13c2c <emdnorm+0x248>
   13ab0:	12f74263          	blt	a4,a5,13bd4 <emdnorm+0x1f0>
   13ab4:	01800713          	li	a4,24
   13ab8:	1ae78863          	beq	a5,a4,13c68 <emdnorm+0x284>
   13abc:	03500713          	li	a4,53
   13ac0:	18e78863          	beq	a5,a4,13c50 <emdnorm+0x26c>
   13ac4:	80010737          	lui	a4,0x80010
   13ac8:	fff7071b          	addiw	a4,a4,-1
   13acc:	00e42a23          	sw	a4,20(s0)
   13ad0:	00100713          	li	a4,1
   13ad4:	00e41c23          	sh	a4,24(s0)
   13ad8:	00b00713          	li	a4,11
   13adc:	02071713          	slli	a4,a4,0x20
   13ae0:	00c70713          	addi	a4,a4,12 # ffffffff8001000c <__global_pointer$+0xffffffff7ffeefdc>
   13ae4:	00e43423          	sd	a4,8(s0)
   13ae8:	00c42703          	lw	a4,12(s0)
   13aec:	01845683          	lhu	a3,24(s0)
   13af0:	00870713          	addi	a4,a4,8
   13af4:	00171713          	slli	a4,a4,0x1
   13af8:	00e40733          	add	a4,s0,a4
   13afc:	00d71523          	sh	a3,10(a4)
   13b00:	00f42023          	sw	a5,0(s0)
   13b04:	03204263          	bgtz	s2,13b28 <emdnorm+0x144>
   13b08:	00442703          	lw	a4,4(s0)
   13b0c:	09000793          	li	a5,144
   13b10:	00f70c63          	beq	a4,a5,13b28 <emdnorm+0x144>
   13b14:	0184d783          	lhu	a5,24(s1)
   13b18:	00048513          	mv	a0,s1
   13b1c:	0017f793          	andi	a5,a5,1
   13b20:	00f9e9b3          	or	s3,s3,a5
   13b24:	e08ff0ef          	jal	ra,1312c <eshdn1>
   13b28:	00842683          	lw	a3,8(s0)
   13b2c:	01445583          	lhu	a1,20(s0)
   13b30:	00442503          	lw	a0,4(s0)
   13b34:	00169793          	slli	a5,a3,0x1
   13b38:	00f48633          	add	a2,s1,a5
   13b3c:	00065703          	lhu	a4,0(a2)
   13b40:	00b77733          	and	a4,a4,a1
   13b44:	08f00593          	li	a1,143
   13b48:	00a5cc63          	blt	a1,a0,13b60 <emdnorm+0x17c>
   13b4c:	00278793          	addi	a5,a5,2
   13b50:	0016869b          	addiw	a3,a3,1
   13b54:	00f487b3          	add	a5,s1,a5
   13b58:	00c00593          	li	a1,12
   13b5c:	12d5d863          	bge	a1,a3,13c8c <emdnorm+0x2a8>
   13b60:	01445783          	lhu	a5,20(s0)
   13b64:	00065683          	lhu	a3,0(a2)
   13b68:	fff7c793          	not	a5,a5
   13b6c:	00d7f7b3          	and	a5,a5,a3
   13b70:	00f61023          	sh	a5,0(a2)
   13b74:	01645783          	lhu	a5,22(s0)
   13b78:	00e7f6b3          	and	a3,a5,a4
   13b7c:	12068863          	beqz	a3,13cac <emdnorm+0x2c8>
   13b80:	02e79263          	bne	a5,a4,13ba4 <emdnorm+0x1c0>
   13b84:	12099263          	bnez	s3,13ca8 <emdnorm+0x2c4>
   13b88:	00c42783          	lw	a5,12(s0)
   13b8c:	01845703          	lhu	a4,24(s0)
   13b90:	00179793          	slli	a5,a5,0x1
   13b94:	00f487b3          	add	a5,s1,a5
   13b98:	0007d783          	lhu	a5,0(a5)
   13b9c:	00e7f7b3          	and	a5,a5,a4
   13ba0:	10078663          	beqz	a5,13cac <emdnorm+0x2c8>
   13ba4:	00048593          	mv	a1,s1
   13ba8:	01a40513          	addi	a0,s0,26
   13bac:	ec8ff0ef          	jal	ra,13274 <eaddm>
   13bb0:	0fc0006f          	j	13cac <emdnorm+0x2c8>
   13bb4:	00248793          	addi	a5,s1,2
   13bb8:	01a48493          	addi	s1,s1,26
   13bbc:	00278793          	addi	a5,a5,2
   13bc0:	fe079f23          	sh	zero,-2(a5)
   13bc4:	fe979ce3          	bne	a5,s1,13bbc <emdnorm+0x1d8>
   13bc8:	e85ff06f          	j	13a4c <emdnorm+0x68>
   13bcc:	00100993          	li	s3,1
   13bd0:	ebdff06f          	j	13a8c <emdnorm+0xa8>
   13bd4:	04000713          	li	a4,64
   13bd8:	02e78863          	beq	a5,a4,13c08 <emdnorm+0x224>
   13bdc:	07100713          	li	a4,113
   13be0:	eee792e3          	bne	a5,a4,13ac4 <emdnorm+0xe0>
   13be4:	40008737          	lui	a4,0x40008
   13be8:	fff7071b          	addiw	a4,a4,-1
   13bec:	00e42a23          	sw	a4,20(s0)
   13bf0:	ffff8737          	lui	a4,0xffff8
   13bf4:	00e41c23          	sh	a4,24(s0)
   13bf8:	00a00713          	li	a4,10
   13bfc:	02071713          	slli	a4,a4,0x20
   13c00:	00a70713          	addi	a4,a4,10 # ffffffffffff800a <__global_pointer$+0xfffffffffffd6fda>
   13c04:	ee1ff06f          	j	13ae4 <emdnorm+0x100>
   13c08:	80010737          	lui	a4,0x80010
   13c0c:	fff7071b          	addiw	a4,a4,-1
   13c10:	00e42a23          	sw	a4,20(s0)
   13c14:	00100713          	li	a4,1
   13c18:	00e41c23          	sh	a4,24(s0)
   13c1c:	00300713          	li	a4,3
   13c20:	02171713          	slli	a4,a4,0x21
   13c24:	00770713          	addi	a4,a4,7 # ffffffff80010007 <__global_pointer$+0xffffffff7ffeefd7>
   13c28:	ebdff06f          	j	13ae4 <emdnorm+0x100>
   13c2c:	00800737          	lui	a4,0x800
   13c30:	0ff7071b          	addiw	a4,a4,255
   13c34:	00e42a23          	sw	a4,20(s0)
   13c38:	10000713          	li	a4,256
   13c3c:	00e41c23          	sh	a4,24(s0)
   13c40:	00600713          	li	a4,6
   13c44:	02071713          	slli	a4,a4,0x20
   13c48:	00670713          	addi	a4,a4,6 # 800006 <__global_pointer$+0x7defd6>
   13c4c:	e99ff06f          	j	13ae4 <emdnorm+0x100>
   13c50:	04000737          	lui	a4,0x4000
   13c54:	7ff7071b          	addiw	a4,a4,2047
   13c58:	00e42a23          	sw	a4,20(s0)
   13c5c:	00001737          	lui	a4,0x1
   13c60:	8007071b          	addiw	a4,a4,-2048
   13c64:	fd9ff06f          	j	13c3c <emdnorm+0x258>
   13c68:	00800737          	lui	a4,0x800
   13c6c:	0ff7071b          	addiw	a4,a4,255
   13c70:	00e42a23          	sw	a4,20(s0)
   13c74:	10000713          	li	a4,256
   13c78:	00e41c23          	sh	a4,24(s0)
   13c7c:	00400713          	li	a4,4
   13c80:	02071713          	slli	a4,a4,0x20
   13c84:	00470713          	addi	a4,a4,4 # 800004 <__global_pointer$+0x7defd4>
   13c88:	e5dff06f          	j	13ae4 <emdnorm+0x100>
   13c8c:	0007d503          	lhu	a0,0(a5)
   13c90:	00050463          	beqz	a0,13c98 <emdnorm+0x2b4>
   13c94:	00176713          	ori	a4,a4,1
   13c98:	00079023          	sh	zero,0(a5)
   13c9c:	0016869b          	addiw	a3,a3,1
   13ca0:	00278793          	addi	a5,a5,2
   13ca4:	eb9ff06f          	j	13b5c <emdnorm+0x178>
   13ca8:	ee0a0ee3          	beqz	s4,13ba4 <emdnorm+0x1c0>
   13cac:	01204c63          	bgtz	s2,13cc4 <emdnorm+0x2e0>
   13cb0:	00442703          	lw	a4,4(s0)
   13cb4:	09000793          	li	a5,144
   13cb8:	00f70663          	beq	a4,a5,13cc4 <emdnorm+0x2e0>
   13cbc:	00048513          	mv	a0,s1
   13cc0:	cbcff0ef          	jal	ra,1317c <eshup1>
   13cc4:	0044d783          	lhu	a5,4(s1)
   13cc8:	00078863          	beqz	a5,13cd8 <emdnorm+0x2f4>
   13ccc:	00048513          	mv	a0,s1
   13cd0:	c5cff0ef          	jal	ra,1312c <eshdn1>
   13cd4:	00190913          	addi	s2,s2,1
   13cd8:	000087b7          	lui	a5,0x8
   13cdc:	00049c23          	sh	zero,24(s1)
   13ce0:	ffe78793          	addi	a5,a5,-2 # 7ffe <_start-0x80b2>
   13ce4:	0327d463          	bge	a5,s2,13d0c <emdnorm+0x328>
   13ce8:	ffff87b7          	lui	a5,0xffff8
   13cec:	fff7c793          	not	a5,a5
   13cf0:	00f49123          	sh	a5,2(s1)
   13cf4:	00448793          	addi	a5,s1,4
   13cf8:	01848493          	addi	s1,s1,24
   13cfc:	00079023          	sh	zero,0(a5) # ffffffffffff8000 <__global_pointer$+0xfffffffffffd6fd0>
   13d00:	00278793          	addi	a5,a5,2
   13d04:	fef49ce3          	bne	s1,a5,13cfc <emdnorm+0x318>
   13d08:	d45ff06f          	j	13a4c <emdnorm+0x68>
   13d0c:	00095663          	bgez	s2,13d18 <emdnorm+0x334>
   13d10:	00049123          	sh	zero,2(s1)
   13d14:	d39ff06f          	j	13a4c <emdnorm+0x68>
   13d18:	01249123          	sh	s2,2(s1)
   13d1c:	d31ff06f          	j	13a4c <emdnorm+0x68>
   13d20:	d60a98e3          	bnez	s5,13a90 <emdnorm+0xac>
   13d24:	00049c23          	sh	zero,24(s1)
   13d28:	fc1ff06f          	j	13ce8 <emdnorm+0x304>

0000000000013d2c <eiremain>:
   13d2c:	fc010113          	addi	sp,sp,-64
   13d30:	01413823          	sd	s4,16(sp)
   13d34:	00255a03          	lhu	s4,2(a0)
   13d38:	02813823          	sd	s0,48(sp)
   13d3c:	00058413          	mv	s0,a1
   13d40:	02113c23          	sd	ra,56(sp)
   13d44:	02913423          	sd	s1,40(sp)
   13d48:	03213023          	sd	s2,32(sp)
   13d4c:	01513423          	sd	s5,8(sp)
   13d50:	01613023          	sd	s6,0(sp)
   13d54:	00060913          	mv	s2,a2
   13d58:	03460b13          	addi	s6,a2,52
   13d5c:	01313c23          	sd	s3,24(sp)
   13d60:	00050a93          	mv	s5,a0
   13d64:	a09ff0ef          	jal	ra,1376c <enormlz>
   13d68:	00245483          	lhu	s1,2(s0)
   13d6c:	40aa0a33          	sub	s4,s4,a0
   13d70:	00040513          	mv	a0,s0
   13d74:	9f9ff0ef          	jal	ra,1376c <enormlz>
   13d78:	40a484b3          	sub	s1,s1,a0
   13d7c:	000b0513          	mv	a0,s6
   13d80:	b38ff0ef          	jal	ra,130b8 <ecleaz>
   13d84:	0544d263          	bge	s1,s4,13dc8 <eiremain+0x9c>
   13d88:	00040513          	mv	a0,s0
   13d8c:	03013403          	ld	s0,48(sp)
   13d90:	03813083          	ld	ra,56(sp)
   13d94:	01813983          	ld	s3,24(sp)
   13d98:	01013a03          	ld	s4,16(sp)
   13d9c:	00813a83          	ld	s5,8(sp)
   13da0:	00013b03          	ld	s6,0(sp)
   13da4:	00090793          	mv	a5,s2
   13da8:	00048693          	mv	a3,s1
   13dac:	02013903          	ld	s2,32(sp)
   13db0:	02813483          	ld	s1,40(sp)
   13db4:	00000713          	li	a4,0
   13db8:	00000613          	li	a2,0
   13dbc:	00000593          	li	a1,0
   13dc0:	04010113          	addi	sp,sp,64
   13dc4:	c21ff06f          	j	139e4 <emdnorm>
   13dc8:	00040593          	mv	a1,s0
   13dcc:	000a8513          	mv	a0,s5
   13dd0:	b20ff0ef          	jal	ra,130f0 <ecmpm>
   13dd4:	00000993          	li	s3,0
   13dd8:	00a04a63          	bgtz	a0,13dec <eiremain+0xc0>
   13ddc:	00040593          	mv	a1,s0
   13de0:	000a8513          	mv	a0,s5
   13de4:	cc8ff0ef          	jal	ra,132ac <esubm>
   13de8:	00100993          	li	s3,1
   13dec:	000b0513          	mv	a0,s6
   13df0:	b8cff0ef          	jal	ra,1317c <eshup1>
   13df4:	04c95783          	lhu	a5,76(s2)
   13df8:	00040513          	mv	a0,s0
   13dfc:	fff48493          	addi	s1,s1,-1
   13e00:	00f9e9b3          	or	s3,s3,a5
   13e04:	05391623          	sh	s3,76(s2)
   13e08:	b74ff0ef          	jal	ra,1317c <eshup1>
   13e0c:	f79ff06f          	j	13d84 <eiremain+0x58>

0000000000013e10 <emul>:
   13e10:	f4010113          	addi	sp,sp,-192
   13e14:	0a813823          	sd	s0,176(sp)
   13e18:	0a913423          	sd	s1,168(sp)
   13e1c:	0b213023          	sd	s2,160(sp)
   13e20:	09313c23          	sd	s3,152(sp)
   13e24:	0a113c23          	sd	ra,184(sp)
   13e28:	09413823          	sd	s4,144(sp)
   13e2c:	09513423          	sd	s5,136(sp)
   13e30:	09613023          	sd	s6,128(sp)
   13e34:	07713c23          	sd	s7,120(sp)
   13e38:	07813823          	sd	s8,112(sp)
   13e3c:	07913423          	sd	s9,104(sp)
   13e40:	00050493          	mv	s1,a0
   13e44:	00058413          	mv	s0,a1
   13e48:	00060913          	mv	s2,a2
   13e4c:	00068993          	mv	s3,a3
   13e50:	d2cff0ef          	jal	ra,1337c <eisnan>
   13e54:	04050263          	beqz	a0,13e98 <emul+0x88>
   13e58:	00090593          	mv	a1,s2
   13e5c:	00048513          	mv	a0,s1
   13e60:	a3cff0ef          	jal	ra,1309c <emov>
   13e64:	0b813083          	ld	ra,184(sp)
   13e68:	0b013403          	ld	s0,176(sp)
   13e6c:	0a813483          	ld	s1,168(sp)
   13e70:	0a013903          	ld	s2,160(sp)
   13e74:	09813983          	ld	s3,152(sp)
   13e78:	09013a03          	ld	s4,144(sp)
   13e7c:	08813a83          	ld	s5,136(sp)
   13e80:	08013b03          	ld	s6,128(sp)
   13e84:	07813b83          	ld	s7,120(sp)
   13e88:	07013c03          	ld	s8,112(sp)
   13e8c:	06813c83          	ld	s9,104(sp)
   13e90:	0c010113          	addi	sp,sp,192
   13e94:	00008067          	ret
   13e98:	00040513          	mv	a0,s0
   13e9c:	ce0ff0ef          	jal	ra,1337c <eisnan>
   13ea0:	00050863          	beqz	a0,13eb0 <emul+0xa0>
   13ea4:	00090593          	mv	a1,s2
   13ea8:	00040513          	mv	a0,s0
   13eac:	fb5ff06f          	j	13e60 <emul+0x50>
   13eb0:	00048513          	mv	a0,s1
   13eb4:	f04ff0ef          	jal	ra,135b8 <eisinf>
   13eb8:	06051463          	bnez	a0,13f20 <emul+0x110>
   13ebc:	00040513          	mv	a0,s0
   13ec0:	ef8ff0ef          	jal	ra,135b8 <eisinf>
   13ec4:	00050c63          	beqz	a0,13edc <emul+0xcc>
   13ec8:	0001e5b7          	lui	a1,0x1e
   13ecc:	c4858593          	addi	a1,a1,-952 # 1dc48 <ezero>
   13ed0:	00048513          	mv	a0,s1
   13ed4:	de4ff0ef          	jal	ra,134b8 <ecmp>
   13ed8:	04050e63          	beqz	a0,13f34 <emul+0x124>
   13edc:	00048513          	mv	a0,s1
   13ee0:	ed8ff0ef          	jal	ra,135b8 <eisinf>
   13ee4:	00051863          	bnez	a0,13ef4 <emul+0xe4>
   13ee8:	00040513          	mv	a0,s0
   13eec:	eccff0ef          	jal	ra,135b8 <eisinf>
   13ef0:	04050c63          	beqz	a0,13f48 <emul+0x138>
   13ef4:	00048513          	mv	a0,s1
   13ef8:	cb8ff0ef          	jal	ra,133b0 <eisneg>
   13efc:	00050493          	mv	s1,a0
   13f00:	00040513          	mv	a0,s0
   13f04:	cacff0ef          	jal	ra,133b0 <eisneg>
   13f08:	02a48c63          	beq	s1,a0,13f40 <emul+0x130>
   13f0c:	ffff87b7          	lui	a5,0xffff8
   13f10:	00f91923          	sh	a5,18(s2)
   13f14:	00090513          	mv	a0,s2
   13f18:	ed4ff0ef          	jal	ra,135ec <einfin.isra.2>
   13f1c:	f49ff06f          	j	13e64 <emul+0x54>
   13f20:	0001e5b7          	lui	a1,0x1e
   13f24:	c4858593          	addi	a1,a1,-952 # 1dc48 <ezero>
   13f28:	00040513          	mv	a0,s0
   13f2c:	d8cff0ef          	jal	ra,134b8 <ecmp>
   13f30:	f80516e3          	bnez	a0,13ebc <emul+0xac>
   13f34:	00090513          	mv	a0,s2
   13f38:	90dff0ef          	jal	ra,13844 <enan.constprop.12>
   13f3c:	f29ff06f          	j	13e64 <emul+0x54>
   13f40:	00091923          	sh	zero,18(s2)
   13f44:	fd1ff06f          	j	13f14 <emul+0x104>
   13f48:	00048513          	mv	a0,s1
   13f4c:	00010593          	mv	a1,sp
   13f50:	c98ff0ef          	jal	ra,133e8 <emovi>
   13f54:	00040513          	mv	a0,s0
   13f58:	02010593          	addi	a1,sp,32
   13f5c:	c8cff0ef          	jal	ra,133e8 <emovi>
   13f60:	00215403          	lhu	s0,2(sp)
   13f64:	02215483          	lhu	s1,34(sp)
   13f68:	02041263          	bnez	s0,13f8c <emul+0x17c>
   13f6c:	00000793          	li	a5,0
   13f70:	01600713          	li	a4,22
   13f74:	00f106b3          	add	a3,sp,a5
   13f78:	0026d683          	lhu	a3,2(a3)
   13f7c:	10068863          	beqz	a3,1408c <emul+0x27c>
   13f80:	00010513          	mv	a0,sp
   13f84:	fe8ff0ef          	jal	ra,1376c <enormlz>
   13f88:	40a00433          	neg	s0,a0
   13f8c:	02215783          	lhu	a5,34(sp)
   13f90:	00048c13          	mv	s8,s1
   13f94:	02079263          	bnez	a5,13fb8 <emul+0x1a8>
   13f98:	01600713          	li	a4,22
   13f9c:	02010693          	addi	a3,sp,32
   13fa0:	00f686b3          	add	a3,a3,a5
   13fa4:	0026d683          	lhu	a3,2(a3)
   13fa8:	0e068c63          	beqz	a3,140a0 <emul+0x290>
   13fac:	02010513          	addi	a0,sp,32
   13fb0:	fbcff0ef          	jal	ra,1376c <enormlz>
   13fb4:	40a48c33          	sub	s8,s1,a0
   13fb8:	02015783          	lhu	a5,32(sp)
   13fbc:	03498b93          	addi	s7,s3,52
   13fc0:	03898493          	addi	s1,s3,56
   13fc4:	02f99a23          	sh	a5,52(s3)
   13fc8:	02215783          	lhu	a5,34(sp)
   13fcc:	000b8a13          	mv	s4,s7
   13fd0:	02f99b23          	sh	a5,54(s3)
   13fd4:	04e98793          	addi	a5,s3,78
   13fd8:	00049023          	sh	zero,0(s1)
   13fdc:	00248493          	addi	s1,s1,2
   13fe0:	fe979ce3          	bne	a5,s1,13fd8 <emul+0x1c8>
   13fe4:	00000a93          	li	s5,0
   13fe8:	00000b13          	li	s6,0
   13fec:	fec00c93          	li	s9,-20
   13ff0:	015107b3          	add	a5,sp,s5
   13ff4:	0187d503          	lhu	a0,24(a5) # ffffffffffff8018 <__global_pointer$+0xfffffffffffd6fe8>
   13ff8:	00050e63          	beqz	a0,14014 <emul+0x204>
   13ffc:	02010593          	addi	a1,sp,32
   14000:	04010613          	addi	a2,sp,64
   14004:	ae0ff0ef          	jal	ra,132e4 <m16m>
   14008:	000b8593          	mv	a1,s7
   1400c:	04010513          	addi	a0,sp,64
   14010:	a64ff0ef          	jal	ra,13274 <eaddm>
   14014:	04c9d783          	lhu	a5,76(s3)
   14018:	000b8513          	mv	a0,s7
   1401c:	ffea8a93          	addi	s5,s5,-2
   14020:	00fb6b33          	or	s6,s6,a5
   14024:	a28ff0ef          	jal	ra,1324c <eshdn6>
   14028:	fd9a94e3          	bne	s5,s9,13ff0 <emul+0x1e0>
   1402c:	02010793          	addi	a5,sp,32
   14030:	000a5703          	lhu	a4,0(s4)
   14034:	002a0a13          	addi	s4,s4,2
   14038:	00278793          	addi	a5,a5,2
   1403c:	fee79f23          	sh	a4,-2(a5)
   14040:	fe9a18e3          	bne	s4,s1,14030 <emul+0x220>
   14044:	ffffc6b7          	lui	a3,0xffffc
   14048:	01840433          	add	s0,s0,s8
   1404c:	00268693          	addi	a3,a3,2 # ffffffffffffc002 <__global_pointer$+0xfffffffffffdafd2>
   14050:	00098793          	mv	a5,s3
   14054:	04000713          	li	a4,64
   14058:	00d406b3          	add	a3,s0,a3
   1405c:	00000613          	li	a2,0
   14060:	000b0593          	mv	a1,s6
   14064:	02010513          	addi	a0,sp,32
   14068:	97dff0ef          	jal	ra,139e4 <emdnorm>
   1406c:	00015703          	lhu	a4,0(sp)
   14070:	02015783          	lhu	a5,32(sp)
   14074:	02f71c63          	bne	a4,a5,140ac <emul+0x29c>
   14078:	02011023          	sh	zero,32(sp)
   1407c:	00090593          	mv	a1,s2
   14080:	02010513          	addi	a0,sp,32
   14084:	fe8ff0ef          	jal	ra,1386c <emovo.isra.6>
   14088:	dddff06f          	j	13e64 <emul+0x54>
   1408c:	00278793          	addi	a5,a5,2
   14090:	eee792e3          	bne	a5,a4,13f74 <emul+0x164>
   14094:	00090513          	mv	a0,s2
   14098:	ff1fe0ef          	jal	ra,13088 <eclear>
   1409c:	dc9ff06f          	j	13e64 <emul+0x54>
   140a0:	00278793          	addi	a5,a5,2
   140a4:	eee79ce3          	bne	a5,a4,13f9c <emul+0x18c>
   140a8:	fedff06f          	j	14094 <emul+0x284>
   140ac:	fff00793          	li	a5,-1
   140b0:	02f11023          	sh	a5,32(sp)
   140b4:	fc9ff06f          	j	1407c <emul+0x26c>

00000000000140b8 <ediv>:
   140b8:	f4010113          	addi	sp,sp,-192
   140bc:	0a813823          	sd	s0,176(sp)
   140c0:	0a913423          	sd	s1,168(sp)
   140c4:	0b213023          	sd	s2,160(sp)
   140c8:	09513423          	sd	s5,136(sp)
   140cc:	0a113c23          	sd	ra,184(sp)
   140d0:	09313c23          	sd	s3,152(sp)
   140d4:	09413823          	sd	s4,144(sp)
   140d8:	09613023          	sd	s6,128(sp)
   140dc:	07713c23          	sd	s7,120(sp)
   140e0:	07813823          	sd	s8,112(sp)
   140e4:	07913423          	sd	s9,104(sp)
   140e8:	07a13023          	sd	s10,96(sp)
   140ec:	00050493          	mv	s1,a0
   140f0:	00058413          	mv	s0,a1
   140f4:	00060913          	mv	s2,a2
   140f8:	00068a93          	mv	s5,a3
   140fc:	a80ff0ef          	jal	ra,1337c <eisnan>
   14100:	04050463          	beqz	a0,14148 <ediv+0x90>
   14104:	00090593          	mv	a1,s2
   14108:	00048513          	mv	a0,s1
   1410c:	f91fe0ef          	jal	ra,1309c <emov>
   14110:	0b813083          	ld	ra,184(sp)
   14114:	0b013403          	ld	s0,176(sp)
   14118:	0a813483          	ld	s1,168(sp)
   1411c:	0a013903          	ld	s2,160(sp)
   14120:	09813983          	ld	s3,152(sp)
   14124:	09013a03          	ld	s4,144(sp)
   14128:	08813a83          	ld	s5,136(sp)
   1412c:	08013b03          	ld	s6,128(sp)
   14130:	07813b83          	ld	s7,120(sp)
   14134:	07013c03          	ld	s8,112(sp)
   14138:	06813c83          	ld	s9,104(sp)
   1413c:	06013d03          	ld	s10,96(sp)
   14140:	0c010113          	addi	sp,sp,192
   14144:	00008067          	ret
   14148:	00040513          	mv	a0,s0
   1414c:	a30ff0ef          	jal	ra,1337c <eisnan>
   14150:	00050863          	beqz	a0,14160 <ediv+0xa8>
   14154:	00090593          	mv	a1,s2
   14158:	00040513          	mv	a0,s0
   1415c:	fb1ff06f          	j	1410c <ediv+0x54>
   14160:	0001e9b7          	lui	s3,0x1e
   14164:	c4898593          	addi	a1,s3,-952 # 1dc48 <ezero>
   14168:	00048513          	mv	a0,s1
   1416c:	b4cff0ef          	jal	ra,134b8 <ecmp>
   14170:	1e050663          	beqz	a0,1435c <ediv+0x2a4>
   14174:	00048513          	mv	a0,s1
   14178:	c40ff0ef          	jal	ra,135b8 <eisinf>
   1417c:	00050993          	mv	s3,a0
   14180:	00040513          	mv	a0,s0
   14184:	c34ff0ef          	jal	ra,135b8 <eisinf>
   14188:	1e099863          	bnez	s3,14378 <ediv+0x2c0>
   1418c:	1e051e63          	bnez	a0,14388 <ediv+0x2d0>
   14190:	00048513          	mv	a0,s1
   14194:	00010593          	mv	a1,sp
   14198:	a50ff0ef          	jal	ra,133e8 <emovi>
   1419c:	00040513          	mv	a0,s0
   141a0:	02010593          	addi	a1,sp,32
   141a4:	a44ff0ef          	jal	ra,133e8 <emovi>
   141a8:	02215483          	lhu	s1,34(sp)
   141ac:	00215403          	lhu	s0,2(sp)
   141b0:	02049463          	bnez	s1,141d8 <ediv+0x120>
   141b4:	00000793          	li	a5,0
   141b8:	01600713          	li	a4,22
   141bc:	02010693          	addi	a3,sp,32
   141c0:	00f686b3          	add	a3,a3,a5
   141c4:	0026d683          	lhu	a3,2(a3)
   141c8:	1e068663          	beqz	a3,143b4 <ediv+0x2fc>
   141cc:	02010513          	addi	a0,sp,32
   141d0:	d9cff0ef          	jal	ra,1376c <enormlz>
   141d4:	40a004b3          	neg	s1,a0
   141d8:	00215783          	lhu	a5,2(sp)
   141dc:	00040b93          	mv	s7,s0
   141e0:	02079063          	bnez	a5,14200 <ediv+0x148>
   141e4:	01600713          	li	a4,22
   141e8:	00f106b3          	add	a3,sp,a5
   141ec:	0026d683          	lhu	a3,2(a3)
   141f0:	1c068863          	beqz	a3,143c0 <ediv+0x308>
   141f4:	00010513          	mv	a0,sp
   141f8:	d74ff0ef          	jal	ra,1376c <enormlz>
   141fc:	40a40bb3          	sub	s7,s0,a0
   14200:	02015783          	lhu	a5,32(sp)
   14204:	02215703          	lhu	a4,34(sp)
   14208:	034a8993          	addi	s3,s5,52
   1420c:	02fa9a23          	sh	a5,52(s5)
   14210:	038a8793          	addi	a5,s5,56
   14214:	02ea9b23          	sh	a4,54(s5)
   14218:	00078a13          	mv	s4,a5
   1421c:	04ea8713          	addi	a4,s5,78
   14220:	00278793          	addi	a5,a5,2
   14224:	fe079f23          	sh	zero,-2(a5)
   14228:	fee79ce3          	bne	a5,a4,14220 <ediv+0x168>
   1422c:	02010513          	addi	a0,sp,32
   14230:	efdfe0ef          	jal	ra,1312c <eshdn1>
   14234:	00615c03          	lhu	s8,6(sp)
   14238:	00010b37          	lui	s6,0x10
   1423c:	fffb0b13          	addi	s6,s6,-1 # ffff <_start-0xb1>
   14240:	036c0d33          	mul	s10,s8,s6
   14244:	01a98c93          	addi	s9,s3,26
   14248:	02415783          	lhu	a5,36(sp)
   1424c:	02615403          	lhu	s0,38(sp)
   14250:	01079793          	slli	a5,a5,0x10
   14254:	008787b3          	add	a5,a5,s0
   14258:	000b0413          	mv	s0,s6
   1425c:	00fd6863          	bltu	s10,a5,1426c <ediv+0x1b4>
   14260:	0387d433          	divu	s0,a5,s8
   14264:	03041413          	slli	s0,s0,0x30
   14268:	03045413          	srli	s0,s0,0x30
   1426c:	00010593          	mv	a1,sp
   14270:	00040513          	mv	a0,s0
   14274:	04010613          	addi	a2,sp,64
   14278:	86cff0ef          	jal	ra,132e4 <m16m>
   1427c:	02010593          	addi	a1,sp,32
   14280:	04010513          	addi	a0,sp,64
   14284:	e6dfe0ef          	jal	ra,130f0 <ecmpm>
   14288:	02a05663          	blez	a0,142b4 <ediv+0x1fc>
   1428c:	04010593          	addi	a1,sp,64
   14290:	00010513          	mv	a0,sp
   14294:	818ff0ef          	jal	ra,132ac <esubm>
   14298:	02010593          	addi	a1,sp,32
   1429c:	04010513          	addi	a0,sp,64
   142a0:	e51fe0ef          	jal	ra,130f0 <ecmpm>
   142a4:	12a04c63          	bgtz	a0,143dc <ediv+0x324>
   142a8:	fff4041b          	addiw	s0,s0,-1
   142ac:	03041413          	slli	s0,s0,0x30
   142b0:	03045413          	srli	s0,s0,0x30
   142b4:	02010593          	addi	a1,sp,32
   142b8:	04010513          	addi	a0,sp,64
   142bc:	ff1fe0ef          	jal	ra,132ac <esubm>
   142c0:	02010513          	addi	a0,sp,32
   142c4:	008a1023          	sh	s0,0(s4)
   142c8:	002a0a13          	addi	s4,s4,2
   142cc:	f61fe0ef          	jal	ra,1322c <eshup6>
   142d0:	f79a1ce3          	bne	s4,s9,14248 <ediv+0x190>
   142d4:	00000793          	li	a5,0
   142d8:	00000593          	li	a1,0
   142dc:	01600713          	li	a4,22
   142e0:	02010693          	addi	a3,sp,32
   142e4:	00f686b3          	add	a3,a3,a5
   142e8:	0046d683          	lhu	a3,4(a3)
   142ec:	00278793          	addi	a5,a5,2
   142f0:	00d5e5b3          	or	a1,a1,a3
   142f4:	fee796e3          	bne	a5,a4,142e0 <ediv+0x228>
   142f8:	0005859b          	sext.w	a1,a1
   142fc:	00b035b3          	snez	a1,a1
   14300:	02010793          	addi	a5,sp,32
   14304:	0009d703          	lhu	a4,0(s3)
   14308:	00298993          	addi	s3,s3,2
   1430c:	00278793          	addi	a5,a5,2
   14310:	fee79f23          	sh	a4,-2(a5)
   14314:	ff3a18e3          	bne	s4,s3,14304 <ediv+0x24c>
   14318:	000046b7          	lui	a3,0x4
   1431c:	417484b3          	sub	s1,s1,s7
   14320:	fff68693          	addi	a3,a3,-1 # 3fff <_start-0xc0b1>
   14324:	000a8793          	mv	a5,s5
   14328:	04000713          	li	a4,64
   1432c:	00d486b3          	add	a3,s1,a3
   14330:	00000613          	li	a2,0
   14334:	02010513          	addi	a0,sp,32
   14338:	eacff0ef          	jal	ra,139e4 <emdnorm>
   1433c:	00015703          	lhu	a4,0(sp)
   14340:	02015783          	lhu	a5,32(sp)
   14344:	0af71a63          	bne	a4,a5,143f8 <ediv+0x340>
   14348:	02011023          	sh	zero,32(sp)
   1434c:	00090593          	mv	a1,s2
   14350:	02010513          	addi	a0,sp,32
   14354:	d18ff0ef          	jal	ra,1386c <emovo.isra.6>
   14358:	db9ff06f          	j	14110 <ediv+0x58>
   1435c:	c4898593          	addi	a1,s3,-952
   14360:	00040513          	mv	a0,s0
   14364:	954ff0ef          	jal	ra,134b8 <ecmp>
   14368:	e00516e3          	bnez	a0,14174 <ediv+0xbc>
   1436c:	00090513          	mv	a0,s2
   14370:	cd4ff0ef          	jal	ra,13844 <enan.constprop.12>
   14374:	d9dff06f          	j	14110 <ediv+0x58>
   14378:	fe051ae3          	bnez	a0,1436c <ediv+0x2b4>
   1437c:	00090513          	mv	a0,s2
   14380:	d09fe0ef          	jal	ra,13088 <eclear>
   14384:	d8dff06f          	j	14110 <ediv+0x58>
   14388:	00048513          	mv	a0,s1
   1438c:	824ff0ef          	jal	ra,133b0 <eisneg>
   14390:	00050493          	mv	s1,a0
   14394:	00040513          	mv	a0,s0
   14398:	818ff0ef          	jal	ra,133b0 <eisneg>
   1439c:	02a48c63          	beq	s1,a0,143d4 <ediv+0x31c>
   143a0:	ffff87b7          	lui	a5,0xffff8
   143a4:	00f91923          	sh	a5,18(s2)
   143a8:	00090513          	mv	a0,s2
   143ac:	a40ff0ef          	jal	ra,135ec <einfin.isra.2>
   143b0:	d61ff06f          	j	14110 <ediv+0x58>
   143b4:	00278793          	addi	a5,a5,2 # ffffffffffff8002 <__global_pointer$+0xfffffffffffd6fd2>
   143b8:	e0e792e3          	bne	a5,a4,141bc <ediv+0x104>
   143bc:	fc1ff06f          	j	1437c <ediv+0x2c4>
   143c0:	00278793          	addi	a5,a5,2
   143c4:	e2e792e3          	bne	a5,a4,141e8 <ediv+0x130>
   143c8:	00015703          	lhu	a4,0(sp)
   143cc:	02015783          	lhu	a5,32(sp)
   143d0:	fcf718e3          	bne	a4,a5,143a0 <ediv+0x2e8>
   143d4:	00091923          	sh	zero,18(s2)
   143d8:	fd1ff06f          	j	143a8 <ediv+0x2f0>
   143dc:	ffe4041b          	addiw	s0,s0,-2
   143e0:	03041413          	slli	s0,s0,0x30
   143e4:	04010593          	addi	a1,sp,64
   143e8:	00010513          	mv	a0,sp
   143ec:	03045413          	srli	s0,s0,0x30
   143f0:	ebdfe0ef          	jal	ra,132ac <esubm>
   143f4:	ec1ff06f          	j	142b4 <ediv+0x1fc>
   143f8:	fff00793          	li	a5,-1
   143fc:	02f11023          	sh	a5,32(sp)
   14400:	f4dff06f          	j	1434c <ediv+0x294>

0000000000014404 <_ldtoa_r>:
   14404:	db010113          	addi	sp,sp,-592
   14408:	1f913c23          	sd	s9,504(sp)
   1440c:	00078c93          	mv	s9,a5
   14410:	09100793          	li	a5,145
   14414:	04b13023          	sd	a1,64(sp)
   14418:	02079793          	slli	a5,a5,0x20
   1441c:	06053583          	ld	a1,96(a0)
   14420:	fff78793          	addi	a5,a5,-1
   14424:	24813023          	sd	s0,576(sp)
   14428:	23413023          	sd	s4,544(sp)
   1442c:	21513c23          	sd	s5,536(sp)
   14430:	21713423          	sd	s7,520(sp)
   14434:	24113423          	sd	ra,584(sp)
   14438:	22913c23          	sd	s1,568(sp)
   1443c:	23213823          	sd	s2,560(sp)
   14440:	23313423          	sd	s3,552(sp)
   14444:	21613823          	sd	s6,528(sp)
   14448:	21813023          	sd	s8,512(sp)
   1444c:	1fa13823          	sd	s10,496(sp)
   14450:	1fb13423          	sd	s11,488(sp)
   14454:	01113c23          	sd	a7,24(sp)
   14458:	04c13423          	sd	a2,72(sp)
   1445c:	18f13823          	sd	a5,400(sp)
   14460:	00050a13          	mv	s4,a0
   14464:	00068b93          	mv	s7,a3
   14468:	00070a93          	mv	s5,a4
   1446c:	00080413          	mv	s0,a6
   14470:	02058063          	beqz	a1,14490 <_ldtoa_r+0x8c>
   14474:	06852703          	lw	a4,104(a0)
   14478:	00100793          	li	a5,1
   1447c:	00e797bb          	sllw	a5,a5,a4
   14480:	00e5a423          	sw	a4,8(a1)
   14484:	00f5a623          	sw	a5,12(a1)
   14488:	558010ef          	jal	ra,159e0 <_Bfree>
   1448c:	060a3023          	sd	zero,96(s4)
   14490:	04010513          	addi	a0,sp,64
   14494:	07010593          	addi	a1,sp,112
   14498:	c44ff0ef          	jal	ra,138dc <e113toe.isra.8>
   1449c:	07010513          	addi	a0,sp,112
   144a0:	f11fe0ef          	jal	ra,133b0 <eisneg>
   144a4:	0e050463          	beqz	a0,1458c <_ldtoa_r+0x188>
   144a8:	00100793          	li	a5,1
   144ac:	00f42023          	sw	a5,0(s0)
   144b0:	00300793          	li	a5,3
   144b4:	0efb8063          	beq	s7,a5,14594 <_ldtoa_r+0x190>
   144b8:	01400913          	li	s2,20
   144bc:	000b8c63          	beqz	s7,144d4 <_ldtoa_r+0xd0>
   144c0:	fffa879b          	addiw	a5,s5,-1
   144c4:	02a00713          	li	a4,42
   144c8:	0007891b          	sext.w	s2,a5
   144cc:	00f75463          	bge	a4,a5,144d4 <_ldtoa_r+0xd0>
   144d0:	02a00913          	li	s2,42
   144d4:	19412783          	lw	a5,404(sp)
   144d8:	07010513          	addi	a0,sp,112
   144dc:	02f13023          	sd	a5,32(sp)
   144e0:	e9dfe0ef          	jal	ra,1337c <eisnan>
   144e4:	00050413          	mv	s0,a0
   144e8:	0a050a63          	beqz	a0,1459c <_ldtoa_r+0x198>
   144ec:	0001e5b7          	lui	a1,0x1e
   144f0:	eb058593          	addi	a1,a1,-336 # 1deb0 <emtens+0x108>
   144f4:	15010513          	addi	a0,sp,336
   144f8:	00002437          	lui	s0,0x2
   144fc:	49c020ef          	jal	ra,16998 <sprintf>
   14500:	70f40413          	addi	s0,s0,1807 # 270f <_start-0xd9a1>
   14504:	02012783          	lw	a5,32(sp)
   14508:	07010513          	addi	a0,sp,112
   1450c:	1a812023          	sw	s0,416(sp)
   14510:	18f12a23          	sw	a5,404(sp)
   14514:	8a4ff0ef          	jal	ra,135b8 <eisinf>
   14518:	15010993          	addi	s3,sp,336
   1451c:	00051863          	bnez	a0,1452c <_ldtoa_r+0x128>
   14520:	07010513          	addi	a0,sp,112
   14524:	e59fe0ef          	jal	ra,1337c <eisnan>
   14528:	18050ae3          	beqz	a0,14ebc <_ldtoa_r+0xab8>
   1452c:	000027b7          	lui	a5,0x2
   14530:	70f7879b          	addiw	a5,a5,1807
   14534:	00fca023          	sw	a5,0(s9)
   14538:	00098793          	mv	a5,s3
   1453c:	02000613          	li	a2,32
   14540:	02d00693          	li	a3,45
   14544:	0007c703          	lbu	a4,0(a5) # 2000 <_start-0xe0b0>
   14548:	1cc708e3          	beq	a4,a2,14f18 <_ldtoa_r+0xb14>
   1454c:	1cd706e3          	beq	a4,a3,14f18 <_ldtoa_r+0xb14>
   14550:	00098413          	mv	s0,s3
   14554:	00178793          	addi	a5,a5,1
   14558:	fff7c703          	lbu	a4,-1(a5)
   1455c:	00140693          	addi	a3,s0,1
   14560:	fee68fa3          	sb	a4,-1(a3)
   14564:	1a071ee3          	bnez	a4,14f20 <_ldtoa_r+0xb1c>
   14568:	00200713          	li	a4,2
   1456c:	00100793          	li	a5,1
   14570:	00eb8a63          	beq	s7,a4,14584 <_ldtoa_r+0x180>
   14574:	1a012783          	lw	a5,416(sp)
   14578:	0127d463          	bge	a5,s2,14580 <_ldtoa_r+0x17c>
   1457c:	00090793          	mv	a5,s2
   14580:	0007879b          	sext.w	a5,a5
   14584:	03000693          	li	a3,48
   14588:	1a90006f          	j	14f30 <_ldtoa_r+0xb2c>
   1458c:	00042023          	sw	zero,0(s0)
   14590:	f21ff06f          	j	144b0 <_ldtoa_r+0xac>
   14594:	000a8793          	mv	a5,s5
   14598:	f2dff06f          	j	144c4 <_ldtoa_r+0xc0>
   1459c:	09000793          	li	a5,144
   145a0:	09010593          	addi	a1,sp,144
   145a4:	07010513          	addi	a0,sp,112
   145a8:	18f12a23          	sw	a5,404(sp)
   145ac:	af1fe0ef          	jal	ra,1309c <emov>
   145b0:	0a215783          	lhu	a5,162(sp)
   145b4:	00013423          	sd	zero,8(sp)
   145b8:	0107971b          	slliw	a4,a5,0x10
   145bc:	4107571b          	sraiw	a4,a4,0x10
   145c0:	02075063          	bgez	a4,145e0 <_ldtoa_r+0x1dc>
   145c4:	00008737          	lui	a4,0x8
   145c8:	fff70713          	addi	a4,a4,-1 # 7fff <_start-0x80b1>
   145cc:	00e7f7b3          	and	a5,a5,a4
   145d0:	0af11123          	sh	a5,162(sp)
   145d4:	000107b7          	lui	a5,0x10
   145d8:	fff78793          	addi	a5,a5,-1 # ffff <_start-0xb1>
   145dc:	00f13423          	sd	a5,8(sp)
   145e0:	0001eb37          	lui	s6,0x1e
   145e4:	c48b0513          	addi	a0,s6,-952 # 1dc48 <ezero>
   145e8:	0b010593          	addi	a1,sp,176
   145ec:	01850513          	addi	a0,a0,24
   145f0:	aadfe0ef          	jal	ra,1309c <emov>
   145f4:	0a215703          	lhu	a4,162(sp)
   145f8:	0001e4b7          	lui	s1,0x1e
   145fc:	c48b0993          	addi	s3,s6,-952
   14600:	c6048493          	addi	s1,s1,-928 # 1dc60 <eone>
   14604:	1e071ce3          	bnez	a4,14ffc <_ldtoa_r+0xbf8>
   14608:	09010793          	addi	a5,sp,144
   1460c:	0a210713          	addi	a4,sp,162
   14610:	0007d683          	lhu	a3,0(a5)
   14614:	0e069e63          	bnez	a3,14710 <_ldtoa_r+0x30c>
   14618:	00278793          	addi	a5,a5,2
   1461c:	fef71ae3          	bne	a4,a5,14610 <_ldtoa_r+0x20c>
   14620:	0f010593          	addi	a1,sp,240
   14624:	0b010513          	addi	a0,sp,176
   14628:	dc1fe0ef          	jal	ra,133e8 <emovi>
   1462c:	0b010593          	addi	a1,sp,176
   14630:	0f010513          	addi	a0,sp,240
   14634:	a99fe0ef          	jal	ra,130cc <emovz>
   14638:	0f010593          	addi	a1,sp,240
   1463c:	09010513          	addi	a0,sp,144
   14640:	da9fe0ef          	jal	ra,133e8 <emovi>
   14644:	09010593          	addi	a1,sp,144
   14648:	0f010513          	addi	a0,sp,240
   1464c:	a81fe0ef          	jal	ra,130cc <emovz>
   14650:	19010613          	addi	a2,sp,400
   14654:	09010593          	addi	a1,sp,144
   14658:	0b010513          	addi	a0,sp,176
   1465c:	ed0ff0ef          	jal	ra,13d2c <eiremain>
   14660:	1dc15483          	lhu	s1,476(sp)
   14664:	00049a63          	bnez	s1,14678 <_ldtoa_r+0x274>
   14668:	c48b0593          	addi	a1,s6,-952
   1466c:	09010513          	addi	a0,sp,144
   14670:	e49fe0ef          	jal	ra,134b8 <ecmp>
   14674:	6a051a63          	bnez	a0,14d28 <_ldtoa_r+0x924>
   14678:	00813783          	ld	a5,8(sp)
   1467c:	6e078c63          	beqz	a5,14d74 <_ldtoa_r+0x970>
   14680:	02d00793          	li	a5,45
   14684:	14f10823          	sb	a5,336(sp)
   14688:	00300793          	li	a5,3
   1468c:	00090993          	mv	s3,s2
   14690:	00fb9863          	bne	s7,a5,146a0 <_ldtoa_r+0x29c>
   14694:	008909bb          	addw	s3,s2,s0
   14698:	02a00793          	li	a5,42
   1469c:	1937c0e3          	blt	a5,s3,1501c <_ldtoa_r+0xc18>
   146a0:	00a00793          	li	a5,10
   146a4:	6cf49c63          	bne	s1,a5,14d7c <_ldtoa_r+0x978>
   146a8:	03100793          	li	a5,49
   146ac:	14f108a3          	sb	a5,337(sp)
   146b0:	02e00793          	li	a5,46
   146b4:	14f10923          	sb	a5,338(sp)
   146b8:	15310c13          	addi	s8,sp,339
   146bc:	01305a63          	blez	s3,146d0 <_ldtoa_r+0x2cc>
   146c0:	03000793          	li	a5,48
   146c4:	14f109a3          	sb	a5,339(sp)
   146c8:	fff9899b          	addiw	s3,s3,-1
   146cc:	15410c13          	addi	s8,sp,340
   146d0:	0014041b          	addiw	s0,s0,1
   146d4:	6a09de63          	bgez	s3,14d90 <_ldtoa_r+0x98c>
   146d8:	0001e5b7          	lui	a1,0x1e
   146dc:	00040613          	mv	a2,s0
   146e0:	ee058593          	addi	a1,a1,-288 # 1dee0 <emtens+0x138>
   146e4:	000c0513          	mv	a0,s8
   146e8:	2b0020ef          	jal	ra,16998 <sprintf>
   146ec:	e19ff06f          	j	14504 <_ldtoa_r+0x100>
   146f0:	0001e5b7          	lui	a1,0x1e
   146f4:	ec858593          	addi	a1,a1,-312 # 1dec8 <emtens+0x120>
   146f8:	dfdff06f          	j	144f4 <_ldtoa_r+0xf0>
   146fc:	0a011783          	lh	a5,160(sp)
   14700:	0007c863          	bltz	a5,14710 <_ldtoa_r+0x30c>
   14704:	0001e5b7          	lui	a1,0x1e
   14708:	ed858593          	addi	a1,a1,-296 # 1ded8 <emtens+0x130>
   1470c:	de9ff06f          	j	144f4 <_ldtoa_r+0xf0>
   14710:	09010593          	addi	a1,sp,144
   14714:	00048513          	mv	a0,s1
   14718:	da1fe0ef          	jal	ra,134b8 <ecmp>
   1471c:	f00502e3          	beqz	a0,14620 <_ldtoa_r+0x21c>
   14720:	46055c63          	bgez	a0,14b98 <_ldtoa_r+0x794>
   14724:	0d010593          	addi	a1,sp,208
   14728:	09010513          	addi	a0,sp,144
   1472c:	971fe0ef          	jal	ra,1309c <emov>
   14730:	000047b7          	lui	a5,0x4
   14734:	08e7879b          	addiw	a5,a5,142
   14738:	0ef11123          	sh	a5,226(sp)
   1473c:	01000793          	li	a5,16
   14740:	00f13823          	sd	a5,16(sp)
   14744:	000087b7          	lui	a5,0x8
   14748:	fff78793          	addi	a5,a5,-1 # 7fff <_start-0x80b1>
   1474c:	02f13423          	sd	a5,40(sp)
   14750:	ffffc7b7          	lui	a5,0xffffc
   14754:	0027879b          	addiw	a5,a5,2
   14758:	00000d13          	li	s10,0
   1475c:	02f12a23          	sw	a5,52(sp)
   14760:	0001e7b7          	lui	a5,0x1e
   14764:	d1878793          	addi	a5,a5,-744 # 1dd18 <etens+0xa0>
   14768:	01a78533          	add	a0,a5,s10
   1476c:	19010693          	addi	a3,sp,400
   14770:	0b010613          	addi	a2,sp,176
   14774:	0d010593          	addi	a1,sp,208
   14778:	941ff0ef          	jal	ra,140b8 <ediv>
   1477c:	05810593          	addi	a1,sp,88
   14780:	0b010513          	addi	a0,sp,176
   14784:	919fe0ef          	jal	ra,1309c <emov>
   14788:	02813783          	ld	a5,40(sp)
   1478c:	06a15c03          	lhu	s8,106(sp)
   14790:	00fc76b3          	and	a3,s8,a5
   14794:	03412783          	lw	a5,52(sp)
   14798:	00f686bb          	addw	a3,a3,a5
   1479c:	04d04a63          	bgtz	a3,147f0 <_ldtoa_r+0x3ec>
   147a0:	0f010513          	addi	a0,sp,240
   147a4:	8e5fe0ef          	jal	ra,13088 <eclear>
   147a8:	010c1c1b          	slliw	s8,s8,0x10
   147ac:	410c5c1b          	sraiw	s8,s8,0x10
   147b0:	100c5a63          	bgez	s8,148c4 <_ldtoa_r+0x4c0>
   147b4:	00000793          	li	a5,0
   147b8:	05810713          	addi	a4,sp,88
   147bc:	00f70733          	add	a4,a4,a5
   147c0:	00075683          	lhu	a3,0(a4)
   147c4:	0f010713          	addi	a4,sp,240
   147c8:	00f70733          	add	a4,a4,a5
   147cc:	00075703          	lhu	a4,0(a4)
   147d0:	3ae68c63          	beq	a3,a4,14b88 <_ldtoa_r+0x784>
   147d4:	00048513          	mv	a0,s1
   147d8:	ba5fe0ef          	jal	ra,1337c <eisnan>
   147dc:	08050863          	beqz	a0,1486c <_ldtoa_r+0x468>
   147e0:	0f010593          	addi	a1,sp,240
   147e4:	00048513          	mv	a0,s1
   147e8:	8b5fe0ef          	jal	ra,1309c <emov>
   147ec:	0d80006f          	j	148c4 <_ldtoa_r+0x4c0>
   147f0:	09000793          	li	a5,144
   147f4:	40d7873b          	subw	a4,a5,a3
   147f8:	0f010593          	addi	a1,sp,240
   147fc:	05810513          	addi	a0,sp,88
   14800:	00070d93          	mv	s11,a4
   14804:	02e13c23          	sd	a4,56(sp)
   14808:	895fe0ef          	jal	ra,1309c <emov>
   1480c:	03813703          	ld	a4,56(sp)
   14810:	0ae05a63          	blez	a4,148c4 <_ldtoa_r+0x4c0>
   14814:	0f010793          	addi	a5,sp,240
   14818:	00f00613          	li	a2,15
   1481c:	04e64063          	blt	a2,a4,1485c <_ldtoa_r+0x458>
   14820:	004dd61b          	srliw	a2,s11,0x4
   14824:	02061713          	slli	a4,a2,0x20
   14828:	0f010793          	addi	a5,sp,240
   1482c:	01f75713          	srli	a4,a4,0x1f
   14830:	00e78733          	add	a4,a5,a4
   14834:	ff000793          	li	a5,-16
   14838:	02c787bb          	mulw	a5,a5,a2
   1483c:	00075683          	lhu	a3,0(a4)
   14840:	01b787bb          	addw	a5,a5,s11
   14844:	00179793          	slli	a5,a5,0x1
   14848:	00f987b3          	add	a5,s3,a5
   1484c:	1387d783          	lhu	a5,312(a5)
   14850:	00d7f7b3          	and	a5,a5,a3
   14854:	00f71023          	sh	a5,0(a4)
   14858:	f51ff06f          	j	147a8 <_ldtoa_r+0x3a4>
   1485c:	00079023          	sh	zero,0(a5)
   14860:	ff07071b          	addiw	a4,a4,-16
   14864:	00278793          	addi	a5,a5,2
   14868:	fb5ff06f          	j	1481c <_ldtoa_r+0x418>
   1486c:	0f010513          	addi	a0,sp,240
   14870:	b0dfe0ef          	jal	ra,1337c <eisnan>
   14874:	00050863          	beqz	a0,14884 <_ldtoa_r+0x480>
   14878:	0f010593          	addi	a1,sp,240
   1487c:	00058513          	mv	a0,a1
   14880:	f69ff06f          	j	147e8 <_ldtoa_r+0x3e4>
   14884:	00048513          	mv	a0,s1
   14888:	d31fe0ef          	jal	ra,135b8 <eisinf>
   1488c:	00050d93          	mv	s11,a0
   14890:	0f010513          	addi	a0,sp,240
   14894:	d25fe0ef          	jal	ra,135b8 <eisinf>
   14898:	00050c13          	mv	s8,a0
   1489c:	140d8c63          	beqz	s11,149f4 <_ldtoa_r+0x5f0>
   148a0:	12050463          	beqz	a0,149c8 <_ldtoa_r+0x5c4>
   148a4:	00048513          	mv	a0,s1
   148a8:	b09fe0ef          	jal	ra,133b0 <eisneg>
   148ac:	00050c13          	mv	s8,a0
   148b0:	0f010513          	addi	a0,sp,240
   148b4:	afdfe0ef          	jal	ra,133b0 <eisneg>
   148b8:	10ac1863          	bne	s8,a0,149c8 <_ldtoa_r+0x5c4>
   148bc:	0f010513          	addi	a0,sp,240
   148c0:	f85fe0ef          	jal	ra,13844 <enan.constprop.12>
   148c4:	00000793          	li	a5,0
   148c8:	0b010713          	addi	a4,sp,176
   148cc:	00f70733          	add	a4,a4,a5
   148d0:	00075683          	lhu	a3,0(a4)
   148d4:	0f010713          	addi	a4,sp,240
   148d8:	00f70733          	add	a4,a4,a5
   148dc:	00075703          	lhu	a4,0(a4)
   148e0:	02e69263          	bne	a3,a4,14904 <_ldtoa_r+0x500>
   148e4:	00278793          	addi	a5,a5,2
   148e8:	01200713          	li	a4,18
   148ec:	fce79ee3          	bne	a5,a4,148c8 <_ldtoa_r+0x4c4>
   148f0:	0d010593          	addi	a1,sp,208
   148f4:	0b010513          	addi	a0,sp,176
   148f8:	fa4fe0ef          	jal	ra,1309c <emov>
   148fc:	01012783          	lw	a5,16(sp)
   14900:	0087843b          	addw	s0,a5,s0
   14904:	01013783          	ld	a5,16(sp)
   14908:	014d0d13          	addi	s10,s10,20
   1490c:	0017d793          	srli	a5,a5,0x1
   14910:	00f13823          	sd	a5,16(sp)
   14914:	06400793          	li	a5,100
   14918:	e4fd14e3          	bne	s10,a5,14760 <_ldtoa_r+0x35c>
   1491c:	0e215783          	lhu	a5,226(sp)
   14920:	0a215703          	lhu	a4,162(sp)
   14924:	09010593          	addi	a1,sp,144
   14928:	0d010513          	addi	a0,sp,208
   1492c:	00e787bb          	addw	a5,a5,a4
   14930:	ffffc737          	lui	a4,0xffffc
   14934:	f727071b          	addiw	a4,a4,-142
   14938:	00e787bb          	addw	a5,a5,a4
   1493c:	0ef11123          	sh	a5,226(sp)
   14940:	f5cfe0ef          	jal	ra,1309c <emov>
   14944:	00048513          	mv	a0,s1
   14948:	0b010593          	addi	a1,sp,176
   1494c:	f50fe0ef          	jal	ra,1309c <emov>
   14950:	00000493          	li	s1,0
   14954:	00001d37          	lui	s10,0x1
   14958:	12098993          	addi	s3,s3,288
   1495c:	10400d93          	li	s11,260
   14960:	0001e7b7          	lui	a5,0x1e
   14964:	c7878793          	addi	a5,a5,-904 # 1dc78 <etens>
   14968:	0d010593          	addi	a1,sp,208
   1496c:	00098513          	mv	a0,s3
   14970:	00f48c33          	add	s8,s1,a5
   14974:	b45fe0ef          	jal	ra,134b8 <ecmp>
   14978:	caa044e3          	bgtz	a0,14620 <_ldtoa_r+0x21c>
   1497c:	0d010593          	addi	a1,sp,208
   14980:	000c0513          	mv	a0,s8
   14984:	b35fe0ef          	jal	ra,134b8 <ecmp>
   14988:	02a04863          	bgtz	a0,149b8 <_ldtoa_r+0x5b4>
   1498c:	0d010613          	addi	a2,sp,208
   14990:	00060593          	mv	a1,a2
   14994:	19010693          	addi	a3,sp,400
   14998:	000c0513          	mv	a0,s8
   1499c:	f1cff0ef          	jal	ra,140b8 <ediv>
   149a0:	0b010613          	addi	a2,sp,176
   149a4:	19010693          	addi	a3,sp,400
   149a8:	00060593          	mv	a1,a2
   149ac:	000c0513          	mv	a0,s8
   149b0:	c60ff0ef          	jal	ra,13e10 <emul>
   149b4:	008d043b          	addw	s0,s10,s0
   149b8:	01448493          	addi	s1,s1,20
   149bc:	001d5d13          	srli	s10,s10,0x1
   149c0:	fbb490e3          	bne	s1,s11,14960 <_ldtoa_r+0x55c>
   149c4:	c5dff06f          	j	14620 <_ldtoa_r+0x21c>
   149c8:	00048513          	mv	a0,s1
   149cc:	0f010593          	addi	a1,sp,240
   149d0:	eccfe0ef          	jal	ra,1309c <emov>
   149d4:	0f010513          	addi	a0,sp,240
   149d8:	9a5fe0ef          	jal	ra,1337c <eisnan>
   149dc:	ee0514e3          	bnez	a0,148c4 <_ldtoa_r+0x4c0>
   149e0:	10215783          	lhu	a5,258(sp)
   149e4:	ffff8737          	lui	a4,0xffff8
   149e8:	00e7c7b3          	xor	a5,a5,a4
   149ec:	10f11123          	sh	a5,258(sp)
   149f0:	ed5ff06f          	j	148c4 <_ldtoa_r+0x4c0>
   149f4:	e80512e3          	bnez	a0,14878 <_ldtoa_r+0x474>
   149f8:	11010593          	addi	a1,sp,272
   149fc:	00048513          	mv	a0,s1
   14a00:	9e9fe0ef          	jal	ra,133e8 <emovi>
   14a04:	13010593          	addi	a1,sp,304
   14a08:	0f010513          	addi	a0,sp,240
   14a0c:	9ddfe0ef          	jal	ra,133e8 <emovi>
   14a10:	11015703          	lhu	a4,272(sp)
   14a14:	13215d83          	lhu	s11,306(sp)
   14a18:	11215783          	lhu	a5,274(sp)
   14a1c:	fff74713          	not	a4,a4
   14a20:	03071713          	slli	a4,a4,0x30
   14a24:	03075713          	srli	a4,a4,0x30
   14a28:	10e11823          	sh	a4,272(sp)
   14a2c:	41b787b3          	sub	a5,a5,s11
   14a30:	08f05863          	blez	a5,14ac0 <_ldtoa_r+0x6bc>
   14a34:	15010593          	addi	a1,sp,336
   14a38:	13010513          	addi	a0,sp,304
   14a3c:	02f13c23          	sd	a5,56(sp)
   14a40:	e8cfe0ef          	jal	ra,130cc <emovz>
   14a44:	13010593          	addi	a1,sp,304
   14a48:	11010513          	addi	a0,sp,272
   14a4c:	e80fe0ef          	jal	ra,130cc <emovz>
   14a50:	11010593          	addi	a1,sp,272
   14a54:	15010513          	addi	a0,sp,336
   14a58:	e74fe0ef          	jal	ra,130cc <emovz>
   14a5c:	03813783          	ld	a5,56(sp)
   14a60:	13215d83          	lhu	s11,306(sp)
   14a64:	40f007b3          	neg	a5,a5
   14a68:	f6f00713          	li	a4,-145
   14a6c:	08e7ce63          	blt	a5,a4,14b08 <_ldtoa_r+0x704>
   14a70:	00078593          	mv	a1,a5
   14a74:	11010513          	addi	a0,sp,272
   14a78:	b9dfe0ef          	jal	ra,13614 <eshift.part.3>
   14a7c:	00050813          	mv	a6,a0
   14a80:	11015703          	lhu	a4,272(sp)
   14a84:	13015783          	lhu	a5,304(sp)
   14a88:	03013c23          	sd	a6,56(sp)
   14a8c:	13010593          	addi	a1,sp,304
   14a90:	11010513          	addi	a0,sp,272
   14a94:	0ef71463          	bne	a4,a5,14b7c <_ldtoa_r+0x778>
   14a98:	fdcfe0ef          	jal	ra,13274 <eaddm>
   14a9c:	03813803          	ld	a6,56(sp)
   14aa0:	19010793          	addi	a5,sp,400
   14aa4:	04000713          	li	a4,64
   14aa8:	000d8693          	mv	a3,s11
   14aac:	000c0613          	mv	a2,s8
   14ab0:	00080593          	mv	a1,a6
   14ab4:	13010513          	addi	a0,sp,304
   14ab8:	f2dfe0ef          	jal	ra,139e4 <emdnorm>
   14abc:	04c0006f          	j	14b08 <_ldtoa_r+0x704>
   14ac0:	fa0794e3          	bnez	a5,14a68 <_ldtoa_r+0x664>
   14ac4:	13010593          	addi	a1,sp,304
   14ac8:	11010513          	addi	a0,sp,272
   14acc:	02e13c23          	sd	a4,56(sp)
   14ad0:	e20fe0ef          	jal	ra,130f0 <ecmpm>
   14ad4:	06051a63          	bnez	a0,14b48 <_ldtoa_r+0x744>
   14ad8:	13015783          	lhu	a5,304(sp)
   14adc:	03813703          	ld	a4,56(sp)
   14ae0:	00e78863          	beq	a5,a4,14af0 <_ldtoa_r+0x6ec>
   14ae4:	0f010513          	addi	a0,sp,240
   14ae8:	da0fe0ef          	jal	ra,13088 <eclear>
   14aec:	dd9ff06f          	j	148c4 <_ldtoa_r+0x4c0>
   14af0:	020d9463          	bnez	s11,14b18 <_ldtoa_r+0x714>
   14af4:	13611703          	lh	a4,310(sp)
   14af8:	00000793          	li	a5,0
   14afc:	02074063          	bltz	a4,14b1c <_ldtoa_r+0x718>
   14b00:	13010513          	addi	a0,sp,304
   14b04:	e78fe0ef          	jal	ra,1317c <eshup1>
   14b08:	0f010593          	addi	a1,sp,240
   14b0c:	13010513          	addi	a0,sp,304
   14b10:	d5dfe0ef          	jal	ra,1386c <emovo.isra.6>
   14b14:	db1ff06f          	j	148c4 <_ldtoa_r+0x4c0>
   14b18:	00000793          	li	a5,0
   14b1c:	01600713          	li	a4,22
   14b20:	13010693          	addi	a3,sp,304
   14b24:	00f68633          	add	a2,a3,a5
   14b28:	00265603          	lhu	a2,2(a2)
   14b2c:	00060863          	beqz	a2,14b3c <_ldtoa_r+0x738>
   14b30:	001d8d93          	addi	s11,s11,1
   14b34:	13b11923          	sh	s11,306(sp)
   14b38:	fd1ff06f          	j	14b08 <_ldtoa_r+0x704>
   14b3c:	00278793          	addi	a5,a5,2
   14b40:	fee790e3          	bne	a5,a4,14b20 <_ldtoa_r+0x71c>
   14b44:	ff1ff06f          	j	14b34 <_ldtoa_r+0x730>
   14b48:	00000813          	li	a6,0
   14b4c:	f2a05ae3          	blez	a0,14a80 <_ldtoa_r+0x67c>
   14b50:	15010593          	addi	a1,sp,336
   14b54:	13010513          	addi	a0,sp,304
   14b58:	d74fe0ef          	jal	ra,130cc <emovz>
   14b5c:	13010593          	addi	a1,sp,304
   14b60:	11010513          	addi	a0,sp,272
   14b64:	d68fe0ef          	jal	ra,130cc <emovz>
   14b68:	11010593          	addi	a1,sp,272
   14b6c:	15010513          	addi	a0,sp,336
   14b70:	d5cfe0ef          	jal	ra,130cc <emovz>
   14b74:	000c0813          	mv	a6,s8
   14b78:	f09ff06f          	j	14a80 <_ldtoa_r+0x67c>
   14b7c:	f30fe0ef          	jal	ra,132ac <esubm>
   14b80:	00100c13          	li	s8,1
   14b84:	f19ff06f          	j	14a9c <_ldtoa_r+0x698>
   14b88:	00278793          	addi	a5,a5,2
   14b8c:	01200713          	li	a4,18
   14b90:	c2e794e3          	bne	a5,a4,147b8 <_ldtoa_r+0x3b4>
   14b94:	d31ff06f          	j	148c4 <_ldtoa_r+0x4c0>
   14b98:	0a215783          	lhu	a5,162(sp)
   14b9c:	12098c13          	addi	s8,s3,288
   14ba0:	0a078863          	beqz	a5,14c50 <_ldtoa_r+0x84c>
   14ba4:	0f010593          	addi	a1,sp,240
   14ba8:	09010513          	addi	a0,sp,144
   14bac:	00004c37          	lui	s8,0x4
   14bb0:	839fe0ef          	jal	ra,133e8 <emovi>
   14bb4:	ffec0c13          	addi	s8,s8,-2 # 3ffe <_start-0xc0b2>
   14bb8:	fd500d13          	li	s10,-43
   14bbc:	10815783          	lhu	a5,264(sp)
   14bc0:	0077f793          	andi	a5,a5,7
   14bc4:	06079263          	bnez	a5,14c28 <_ldtoa_r+0x824>
   14bc8:	0d010593          	addi	a1,sp,208
   14bcc:	0f010513          	addi	a0,sp,240
   14bd0:	cfcfe0ef          	jal	ra,130cc <emovz>
   14bd4:	0d010513          	addi	a0,sp,208
   14bd8:	d54fe0ef          	jal	ra,1312c <eshdn1>
   14bdc:	0d010513          	addi	a0,sp,208
   14be0:	d4cfe0ef          	jal	ra,1312c <eshdn1>
   14be4:	0d010593          	addi	a1,sp,208
   14be8:	0f010513          	addi	a0,sp,240
   14bec:	e88fe0ef          	jal	ra,13274 <eaddm>
   14bf0:	0d215783          	lhu	a5,210(sp)
   14bf4:	0037879b          	addiw	a5,a5,3
   14bf8:	0cf11923          	sh	a5,210(sp)
   14bfc:	0d415783          	lhu	a5,212(sp)
   14c00:	10079a63          	bnez	a5,14d14 <_ldtoa_r+0x910>
   14c04:	0e815783          	lhu	a5,232(sp)
   14c08:	02079063          	bnez	a5,14c28 <_ldtoa_r+0x824>
   14c0c:	0d215783          	lhu	a5,210(sp)
   14c10:	00fc6c63          	bltu	s8,a5,14c28 <_ldtoa_r+0x824>
   14c14:	0f010593          	addi	a1,sp,240
   14c18:	0d010513          	addi	a0,sp,208
   14c1c:	fff4041b          	addiw	s0,s0,-1
   14c20:	cacfe0ef          	jal	ra,130cc <emovz>
   14c24:	f9a41ce3          	bne	s0,s10,14bbc <_ldtoa_r+0x7b8>
   14c28:	09010593          	addi	a1,sp,144
   14c2c:	0f010513          	addi	a0,sp,240
   14c30:	c3dfe0ef          	jal	ra,1386c <emovo.isra.6>
   14c34:	0240006f          	j	14c58 <_ldtoa_r+0x854>
   14c38:	09010613          	addi	a2,sp,144
   14c3c:	19010693          	addi	a3,sp,400
   14c40:	00060593          	mv	a1,a2
   14c44:	000c0513          	mv	a0,s8
   14c48:	9c8ff0ef          	jal	ra,13e10 <emul>
   14c4c:	fff4041b          	addiw	s0,s0,-1
   14c50:	0a011783          	lh	a5,160(sp)
   14c54:	fe07d2e3          	bgez	a5,14c38 <_ldtoa_r+0x834>
   14c58:	0f010593          	addi	a1,sp,240
   14c5c:	09010513          	addi	a0,sp,144
   14c60:	c3cfe0ef          	jal	ra,1309c <emov>
   14c64:	0b010593          	addi	a1,sp,176
   14c68:	00048513          	mv	a0,s1
   14c6c:	c30fe0ef          	jal	ra,1309c <emov>
   14c70:	16098793          	addi	a5,s3,352
   14c74:	00000d13          	li	s10,0
   14c78:	fffffc37          	lui	s8,0xfffff
   14c7c:	00f13823          	sd	a5,16(sp)
   14c80:	00200d93          	li	s11,2
   14c84:	0001e7b7          	lui	a5,0x1e
   14c88:	c7878793          	addi	a5,a5,-904 # 1dc78 <etens>
   14c8c:	01a789b3          	add	s3,a5,s10
   14c90:	01013783          	ld	a5,16(sp)
   14c94:	0f010593          	addi	a1,sp,240
   14c98:	00048513          	mv	a0,s1
   14c9c:	01a78733          	add	a4,a5,s10
   14ca0:	02e13423          	sd	a4,40(sp)
   14ca4:	815fe0ef          	jal	ra,134b8 <ecmp>
   14ca8:	02813703          	ld	a4,40(sp)
   14cac:	04a05863          	blez	a0,14cfc <_ldtoa_r+0x8f8>
   14cb0:	0f010593          	addi	a1,sp,240
   14cb4:	00070513          	mv	a0,a4
   14cb8:	801fe0ef          	jal	ra,134b8 <ecmp>
   14cbc:	02054863          	bltz	a0,14cec <_ldtoa_r+0x8e8>
   14cc0:	0f010613          	addi	a2,sp,240
   14cc4:	00060593          	mv	a1,a2
   14cc8:	19010693          	addi	a3,sp,400
   14ccc:	00098513          	mv	a0,s3
   14cd0:	940ff0ef          	jal	ra,13e10 <emul>
   14cd4:	0b010613          	addi	a2,sp,176
   14cd8:	19010693          	addi	a3,sp,400
   14cdc:	00060593          	mv	a1,a2
   14ce0:	00098513          	mv	a0,s3
   14ce4:	92cff0ef          	jal	ra,13e10 <emul>
   14ce8:	008c043b          	addw	s0,s8,s0
   14cec:	014d0d13          	addi	s10,s10,20 # 1014 <_start-0xf09c>
   14cf0:	10400793          	li	a5,260
   14cf4:	03bc4c3b          	divw	s8,s8,s11
   14cf8:	f8fd16e3          	bne	s10,a5,14c84 <_ldtoa_r+0x880>
   14cfc:	0b010613          	addi	a2,sp,176
   14d00:	19010693          	addi	a3,sp,400
   14d04:	00048593          	mv	a1,s1
   14d08:	00060513          	mv	a0,a2
   14d0c:	bacff0ef          	jal	ra,140b8 <ediv>
   14d10:	911ff06f          	j	14620 <_ldtoa_r+0x21c>
   14d14:	0d010513          	addi	a0,sp,208
   14d18:	c14fe0ef          	jal	ra,1312c <eshdn1>
   14d1c:	0d215783          	lhu	a5,210(sp)
   14d20:	0017879b          	addiw	a5,a5,1
   14d24:	ed5ff06f          	j	14bf8 <_ldtoa_r+0x7f4>
   14d28:	09010513          	addi	a0,sp,144
   14d2c:	c50fe0ef          	jal	ra,1317c <eshup1>
   14d30:	0d010593          	addi	a1,sp,208
   14d34:	09010513          	addi	a0,sp,144
   14d38:	b94fe0ef          	jal	ra,130cc <emovz>
   14d3c:	0d010513          	addi	a0,sp,208
   14d40:	c3cfe0ef          	jal	ra,1317c <eshup1>
   14d44:	0d010513          	addi	a0,sp,208
   14d48:	c34fe0ef          	jal	ra,1317c <eshup1>
   14d4c:	09010593          	addi	a1,sp,144
   14d50:	0d010513          	addi	a0,sp,208
   14d54:	d20fe0ef          	jal	ra,13274 <eaddm>
   14d58:	19010613          	addi	a2,sp,400
   14d5c:	09010593          	addi	a1,sp,144
   14d60:	0b010513          	addi	a0,sp,176
   14d64:	fc9fe0ef          	jal	ra,13d2c <eiremain>
   14d68:	fff4041b          	addiw	s0,s0,-1
   14d6c:	1dc15483          	lhu	s1,476(sp)
   14d70:	8f5ff06f          	j	14664 <_ldtoa_r+0x260>
   14d74:	02000793          	li	a5,32
   14d78:	90dff06f          	j	14684 <_ldtoa_r+0x280>
   14d7c:	0304849b          	addiw	s1,s1,48
   14d80:	02e00793          	li	a5,46
   14d84:	149108a3          	sb	s1,337(sp)
   14d88:	14f10923          	sb	a5,338(sp)
   14d8c:	15310c13          	addi	s8,sp,339
   14d90:	000c0493          	mv	s1,s8
   14d94:	418487bb          	subw	a5,s1,s8
   14d98:	04f9d663          	bge	s3,a5,14de4 <_ldtoa_r+0x9e0>
   14d9c:	1dc15783          	lhu	a5,476(sp)
   14da0:	00400713          	li	a4,4
   14da4:	fff48c13          	addi	s8,s1,-1
   14da8:	92f758e3          	bge	a4,a5,146d8 <_ldtoa_r+0x2d4>
   14dac:	00500713          	li	a4,5
   14db0:	08e78463          	beq	a5,a4,14e38 <_ldtoa_r+0xa34>
   14db4:	000c0793          	mv	a5,s8
   14db8:	02e00613          	li	a2,46
   14dbc:	03800593          	li	a1,56
   14dc0:	03000693          	li	a3,48
   14dc4:	fff78793          	addi	a5,a5,-1
   14dc8:	0007c703          	lbu	a4,0(a5)
   14dcc:	07f77713          	andi	a4,a4,127
   14dd0:	0a09d663          	bgez	s3,14e7c <_ldtoa_r+0xa78>
   14dd4:	03100713          	li	a4,49
   14dd8:	00e78023          	sb	a4,0(a5)
   14ddc:	0014041b          	addiw	s0,s0,1
   14de0:	8f9ff06f          	j	146d8 <_ldtoa_r+0x2d4>
   14de4:	09010513          	addi	a0,sp,144
   14de8:	b94fe0ef          	jal	ra,1317c <eshup1>
   14dec:	0d010593          	addi	a1,sp,208
   14df0:	09010513          	addi	a0,sp,144
   14df4:	ad8fe0ef          	jal	ra,130cc <emovz>
   14df8:	0d010513          	addi	a0,sp,208
   14dfc:	b80fe0ef          	jal	ra,1317c <eshup1>
   14e00:	0d010513          	addi	a0,sp,208
   14e04:	b78fe0ef          	jal	ra,1317c <eshup1>
   14e08:	09010593          	addi	a1,sp,144
   14e0c:	0d010513          	addi	a0,sp,208
   14e10:	c64fe0ef          	jal	ra,13274 <eaddm>
   14e14:	19010613          	addi	a2,sp,400
   14e18:	09010593          	addi	a1,sp,144
   14e1c:	0b010513          	addi	a0,sp,176
   14e20:	f0dfe0ef          	jal	ra,13d2c <eiremain>
   14e24:	1dc14783          	lbu	a5,476(sp)
   14e28:	00148493          	addi	s1,s1,1
   14e2c:	0307879b          	addiw	a5,a5,48
   14e30:	fef48fa3          	sb	a5,-1(s1)
   14e34:	f61ff06f          	j	14d94 <_ldtoa_r+0x990>
   14e38:	0b010593          	addi	a1,sp,176
   14e3c:	09010513          	addi	a0,sp,144
   14e40:	a2dfe0ef          	jal	ra,1386c <emovo.isra.6>
   14e44:	c48b0593          	addi	a1,s6,-952
   14e48:	0b010513          	addi	a0,sp,176
   14e4c:	e6cfe0ef          	jal	ra,134b8 <ecmp>
   14e50:	f60512e3          	bnez	a0,14db4 <_ldtoa_r+0x9b0>
   14e54:	8809c2e3          	bltz	s3,146d8 <_ldtoa_r+0x2d4>
   14e58:	ffe4c783          	lbu	a5,-2(s1)
   14e5c:	fd278793          	addi	a5,a5,-46
   14e60:	0017b793          	seqz	a5,a5
   14e64:	fff7c793          	not	a5,a5
   14e68:	00fc07b3          	add	a5,s8,a5
   14e6c:	0007c783          	lbu	a5,0(a5)
   14e70:	0017f793          	andi	a5,a5,1
   14e74:	860782e3          	beqz	a5,146d8 <_ldtoa_r+0x2d4>
   14e78:	f3dff06f          	j	14db4 <_ldtoa_r+0x9b0>
   14e7c:	02c71463          	bne	a4,a2,14ea4 <_ldtoa_r+0xaa0>
   14e80:	fff7c703          	lbu	a4,-1(a5)
   14e84:	03800693          	li	a3,56
   14e88:	00e6e863          	bltu	a3,a4,14e98 <_ldtoa_r+0xa94>
   14e8c:	0017071b          	addiw	a4,a4,1
   14e90:	fee78fa3          	sb	a4,-1(a5)
   14e94:	845ff06f          	j	146d8 <_ldtoa_r+0x2d4>
   14e98:	0014041b          	addiw	s0,s0,1
   14e9c:	03100713          	li	a4,49
   14ea0:	ff1ff06f          	j	14e90 <_ldtoa_r+0xa8c>
   14ea4:	00e5e863          	bltu	a1,a4,14eb4 <_ldtoa_r+0xab0>
   14ea8:	0017071b          	addiw	a4,a4,1
   14eac:	00e78023          	sb	a4,0(a5)
   14eb0:	829ff06f          	j	146d8 <_ldtoa_r+0x2d4>
   14eb4:	00d78023          	sb	a3,0(a5)
   14eb8:	f0dff06f          	j	14dc4 <_ldtoa_r+0x9c0>
   14ebc:	0014041b          	addiw	s0,s0,1
   14ec0:	008ca023          	sw	s0,0(s9)
   14ec4:	00098793          	mv	a5,s3
   14ec8:	02e00693          	li	a3,46
   14ecc:	0007c703          	lbu	a4,0(a5)
   14ed0:	00071663          	bnez	a4,14edc <_ldtoa_r+0xad8>
   14ed4:	04500713          	li	a4,69
   14ed8:	02c0006f          	j	14f04 <_ldtoa_r+0xb00>
   14edc:	00d70c63          	beq	a4,a3,14ef4 <_ldtoa_r+0xaf0>
   14ee0:	00178793          	addi	a5,a5,1
   14ee4:	fe9ff06f          	j	14ecc <_ldtoa_r+0xac8>
   14ee8:	0017c703          	lbu	a4,1(a5)
   14eec:	00178793          	addi	a5,a5,1
   14ef0:	fee78fa3          	sb	a4,-1(a5)
   14ef4:	0007c703          	lbu	a4,0(a5)
   14ef8:	fe0718e3          	bnez	a4,14ee8 <_ldtoa_r+0xae4>
   14efc:	fd9ff06f          	j	14ed4 <_ldtoa_r+0xad0>
   14f00:	fff78793          	addi	a5,a5,-1
   14f04:	0007c683          	lbu	a3,0(a5)
   14f08:	00e68463          	beq	a3,a4,14f10 <_ldtoa_r+0xb0c>
   14f0c:	fef9eae3          	bltu	s3,a5,14f00 <_ldtoa_r+0xafc>
   14f10:	00078023          	sb	zero,0(a5)
   14f14:	e24ff06f          	j	14538 <_ldtoa_r+0x134>
   14f18:	00178793          	addi	a5,a5,1
   14f1c:	e28ff06f          	j	14544 <_ldtoa_r+0x140>
   14f20:	00068413          	mv	s0,a3
   14f24:	e30ff06f          	j	14554 <_ldtoa_r+0x150>
   14f28:	fff40413          	addi	s0,s0,-1
   14f2c:	00040023          	sb	zero,0(s0)
   14f30:	fff44703          	lbu	a4,-1(s0)
   14f34:	00d71663          	bne	a4,a3,14f40 <_ldtoa_r+0xb3c>
   14f38:	41340733          	sub	a4,s0,s3
   14f3c:	fee7c6e3          	blt	a5,a4,14f28 <_ldtoa_r+0xb24>
   14f40:	00300793          	li	a5,3
   14f44:	0efb9e63          	bne	s7,a5,15040 <_ldtoa_r+0xc3c>
   14f48:	1a012783          	lw	a5,416(sp)
   14f4c:	0127893b          	addw	s2,a5,s2
   14f50:	00095863          	bgez	s2,14f60 <_ldtoa_r+0xb5c>
   14f54:	14010823          	sb	zero,336(sp)
   14f58:	000ca023          	sw	zero,0(s9)
   14f5c:	00098413          	mv	s0,s3
   14f60:	000ca783          	lw	a5,0(s9)
   14f64:	01578abb          	addw	s5,a5,s5
   14f68:	003a8a9b          	addiw	s5,s5,3
   14f6c:	060a2423          	sw	zero,104(s4)
   14f70:	00400793          	li	a5,4
   14f74:	01c78713          	addi	a4,a5,28
   14f78:	068a2583          	lw	a1,104(s4)
   14f7c:	06eaf863          	bgeu	s5,a4,14fec <_ldtoa_r+0xbe8>
   14f80:	000a0513          	mv	a0,s4
   14f84:	1b5000ef          	jal	ra,15938 <_Balloc>
   14f88:	06aa3023          	sd	a0,96(s4)
   14f8c:	00098593          	mv	a1,s3
   14f90:	00050493          	mv	s1,a0
   14f94:	3b1010ef          	jal	ra,16b44 <strcpy>
   14f98:	01813783          	ld	a5,24(sp)
   14f9c:	00078863          	beqz	a5,14fac <_ldtoa_r+0xba8>
   14fa0:	41340433          	sub	s0,s0,s3
   14fa4:	00848433          	add	s0,s1,s0
   14fa8:	0087b023          	sd	s0,0(a5)
   14fac:	24813083          	ld	ra,584(sp)
   14fb0:	24013403          	ld	s0,576(sp)
   14fb4:	00048513          	mv	a0,s1
   14fb8:	23013903          	ld	s2,560(sp)
   14fbc:	23813483          	ld	s1,568(sp)
   14fc0:	22813983          	ld	s3,552(sp)
   14fc4:	22013a03          	ld	s4,544(sp)
   14fc8:	21813a83          	ld	s5,536(sp)
   14fcc:	21013b03          	ld	s6,528(sp)
   14fd0:	20813b83          	ld	s7,520(sp)
   14fd4:	20013c03          	ld	s8,512(sp)
   14fd8:	1f813c83          	ld	s9,504(sp)
   14fdc:	1f013d03          	ld	s10,496(sp)
   14fe0:	1e813d83          	ld	s11,488(sp)
   14fe4:	25010113          	addi	sp,sp,592
   14fe8:	00008067          	ret
   14fec:	0015859b          	addiw	a1,a1,1
   14ff0:	06ba2423          	sw	a1,104(s4)
   14ff4:	0017979b          	slliw	a5,a5,0x1
   14ff8:	f7dff06f          	j	14f74 <_ldtoa_r+0xb70>
   14ffc:	000087b7          	lui	a5,0x8
   15000:	fff78793          	addi	a5,a5,-1 # 7fff <_start-0x80b1>
   15004:	eef71c63          	bne	a4,a5,146fc <_ldtoa_r+0x2f8>
   15008:	00813783          	ld	a5,8(sp)
   1500c:	ee078263          	beqz	a5,146f0 <_ldtoa_r+0x2ec>
   15010:	0001e5b7          	lui	a1,0x1e
   15014:	eb858593          	addi	a1,a1,-328 # 1deb8 <emtens+0x110>
   15018:	cdcff06f          	j	144f4 <_ldtoa_r+0xf0>
   1501c:	00a00793          	li	a5,10
   15020:	02a00993          	li	s3,42
   15024:	d4f49ce3          	bne	s1,a5,14d7c <_ldtoa_r+0x978>
   15028:	03100793          	li	a5,49
   1502c:	14f108a3          	sb	a5,337(sp)
   15030:	02e00793          	li	a5,46
   15034:	14f10923          	sb	a5,338(sp)
   15038:	02a00993          	li	s3,42
   1503c:	e84ff06f          	j	146c0 <_ldtoa_r+0x2bc>
   15040:	009a8a9b          	addiw	s5,s5,9
   15044:	f29ff06f          	j	14f6c <_ldtoa_r+0xb68>

0000000000015048 <_ldcheck>:
   15048:	00053783          	ld	a5,0(a0)
   1504c:	fc010113          	addi	sp,sp,-64
   15050:	01010593          	addi	a1,sp,16
   15054:	00f13023          	sd	a5,0(sp)
   15058:	00853783          	ld	a5,8(a0)
   1505c:	00010513          	mv	a0,sp
   15060:	02113c23          	sd	ra,56(sp)
   15064:	00f13423          	sd	a5,8(sp)
   15068:	875fe0ef          	jal	ra,138dc <e113toe.isra.8>
   1506c:	02215783          	lhu	a5,34(sp)
   15070:	00000513          	li	a0,0
   15074:	fff7c793          	not	a5,a5
   15078:	03179713          	slli	a4,a5,0x31
   1507c:	00071a63          	bnez	a4,15090 <_ldcheck+0x48>
   15080:	01010513          	addi	a0,sp,16
   15084:	af8fe0ef          	jal	ra,1337c <eisnan>
   15088:	00153513          	seqz	a0,a0
   1508c:	00150513          	addi	a0,a0,1
   15090:	03813083          	ld	ra,56(sp)
   15094:	04010113          	addi	sp,sp,64
   15098:	00008067          	ret

000000000001509c <__localeconv_l>:
   1509c:	10050513          	addi	a0,a0,256
   150a0:	00008067          	ret

00000000000150a4 <_localeconv_r>:
   150a4:	8301b783          	ld	a5,-2000(gp) # 20860 <_impure_ptr>
   150a8:	0487b503          	ld	a0,72(a5)
   150ac:	00051663          	bnez	a0,150b8 <_localeconv_r+0x14>
   150b0:	00020537          	lui	a0,0x20
   150b4:	68850513          	addi	a0,a0,1672 # 20688 <__global_locale>
   150b8:	10050513          	addi	a0,a0,256
   150bc:	00008067          	ret

00000000000150c0 <localeconv>:
   150c0:	8301b783          	ld	a5,-2000(gp) # 20860 <_impure_ptr>
   150c4:	0487b503          	ld	a0,72(a5)
   150c8:	00051663          	bnez	a0,150d4 <localeconv+0x14>
   150cc:	00020537          	lui	a0,0x20
   150d0:	68850513          	addi	a0,a0,1672 # 20688 <__global_locale>
   150d4:	10050513          	addi	a0,a0,256
   150d8:	00008067          	ret

00000000000150dc <__swhatbuf_r>:
   150dc:	f6010113          	addi	sp,sp,-160
   150e0:	08913423          	sd	s1,136(sp)
   150e4:	00058493          	mv	s1,a1
   150e8:	01259583          	lh	a1,18(a1)
   150ec:	08813823          	sd	s0,144(sp)
   150f0:	08113c23          	sd	ra,152(sp)
   150f4:	00060413          	mv	s0,a2
   150f8:	0005de63          	bgez	a1,15114 <__swhatbuf_r+0x38>
   150fc:	0104d783          	lhu	a5,16(s1)
   15100:	0006a023          	sw	zero,0(a3)
   15104:	0807f793          	andi	a5,a5,128
   15108:	04079863          	bnez	a5,15158 <__swhatbuf_r+0x7c>
   1510c:	40000793          	li	a5,1024
   15110:	04c0006f          	j	1515c <__swhatbuf_r+0x80>
   15114:	01810613          	addi	a2,sp,24
   15118:	00d13423          	sd	a3,8(sp)
   1511c:	18d040ef          	jal	ra,19aa8 <_fstat_r>
   15120:	00813683          	ld	a3,8(sp)
   15124:	fc054ce3          	bltz	a0,150fc <__swhatbuf_r+0x20>
   15128:	01c12783          	lw	a5,28(sp)
   1512c:	0000f737          	lui	a4,0xf
   15130:	00001537          	lui	a0,0x1
   15134:	00e7f7b3          	and	a5,a5,a4
   15138:	00002737          	lui	a4,0x2
   1513c:	40e787b3          	sub	a5,a5,a4
   15140:	0017b793          	seqz	a5,a5
   15144:	00f6a023          	sw	a5,0(a3)
   15148:	40000793          	li	a5,1024
   1514c:	00f43023          	sd	a5,0(s0)
   15150:	80050513          	addi	a0,a0,-2048 # 800 <_start-0xf8b0>
   15154:	0100006f          	j	15164 <__swhatbuf_r+0x88>
   15158:	04000793          	li	a5,64
   1515c:	00f43023          	sd	a5,0(s0)
   15160:	00000513          	li	a0,0
   15164:	09813083          	ld	ra,152(sp)
   15168:	09013403          	ld	s0,144(sp)
   1516c:	08813483          	ld	s1,136(sp)
   15170:	0a010113          	addi	sp,sp,160
   15174:	00008067          	ret

0000000000015178 <__smakebuf_r>:
   15178:	0105d783          	lhu	a5,16(a1)
   1517c:	fd010113          	addi	sp,sp,-48
   15180:	02813023          	sd	s0,32(sp)
   15184:	02113423          	sd	ra,40(sp)
   15188:	00913c23          	sd	s1,24(sp)
   1518c:	01213823          	sd	s2,16(sp)
   15190:	0027f793          	andi	a5,a5,2
   15194:	00058413          	mv	s0,a1
   15198:	02078863          	beqz	a5,151c8 <__smakebuf_r+0x50>
   1519c:	07740793          	addi	a5,s0,119
   151a0:	00f43023          	sd	a5,0(s0)
   151a4:	00f43c23          	sd	a5,24(s0)
   151a8:	00100793          	li	a5,1
   151ac:	02f42023          	sw	a5,32(s0)
   151b0:	02813083          	ld	ra,40(sp)
   151b4:	02013403          	ld	s0,32(sp)
   151b8:	01813483          	ld	s1,24(sp)
   151bc:	01013903          	ld	s2,16(sp)
   151c0:	03010113          	addi	sp,sp,48
   151c4:	00008067          	ret
   151c8:	00410693          	addi	a3,sp,4
   151cc:	00810613          	addi	a2,sp,8
   151d0:	00050493          	mv	s1,a0
   151d4:	f09ff0ef          	jal	ra,150dc <__swhatbuf_r>
   151d8:	00813583          	ld	a1,8(sp)
   151dc:	00050913          	mv	s2,a0
   151e0:	00048513          	mv	a0,s1
   151e4:	084000ef          	jal	ra,15268 <_malloc_r>
   151e8:	02051063          	bnez	a0,15208 <__smakebuf_r+0x90>
   151ec:	01041783          	lh	a5,16(s0)
   151f0:	2007f713          	andi	a4,a5,512
   151f4:	fa071ee3          	bnez	a4,151b0 <__smakebuf_r+0x38>
   151f8:	ffc7f793          	andi	a5,a5,-4
   151fc:	0027e793          	ori	a5,a5,2
   15200:	00f41823          	sh	a5,16(s0)
   15204:	f99ff06f          	j	1519c <__smakebuf_r+0x24>
   15208:	000137b7          	lui	a5,0x13
   1520c:	91078793          	addi	a5,a5,-1776 # 12910 <_cleanup_r>
   15210:	04f4bc23          	sd	a5,88(s1)
   15214:	01045783          	lhu	a5,16(s0)
   15218:	00a43023          	sd	a0,0(s0)
   1521c:	00a43c23          	sd	a0,24(s0)
   15220:	0807e793          	ori	a5,a5,128
   15224:	00f41823          	sh	a5,16(s0)
   15228:	00813783          	ld	a5,8(sp)
   1522c:	02f42023          	sw	a5,32(s0)
   15230:	00412783          	lw	a5,4(sp)
   15234:	02078263          	beqz	a5,15258 <__smakebuf_r+0xe0>
   15238:	01241583          	lh	a1,18(s0)
   1523c:	00048513          	mv	a0,s1
   15240:	521040ef          	jal	ra,19f60 <_isatty_r>
   15244:	00050a63          	beqz	a0,15258 <__smakebuf_r+0xe0>
   15248:	01045783          	lhu	a5,16(s0)
   1524c:	ffc7f793          	andi	a5,a5,-4
   15250:	0017e793          	ori	a5,a5,1
   15254:	00f41823          	sh	a5,16(s0)
   15258:	01045783          	lhu	a5,16(s0)
   1525c:	00f96933          	or	s2,s2,a5
   15260:	01241823          	sh	s2,16(s0)
   15264:	f4dff06f          	j	151b0 <__smakebuf_r+0x38>

0000000000015268 <_malloc_r>:
   15268:	fb010113          	addi	sp,sp,-80
   1526c:	02913c23          	sd	s1,56(sp)
   15270:	03213823          	sd	s2,48(sp)
   15274:	04113423          	sd	ra,72(sp)
   15278:	04813023          	sd	s0,64(sp)
   1527c:	03313423          	sd	s3,40(sp)
   15280:	03413023          	sd	s4,32(sp)
   15284:	01513c23          	sd	s5,24(sp)
   15288:	01613823          	sd	s6,16(sp)
   1528c:	01713423          	sd	s7,8(sp)
   15290:	01813023          	sd	s8,0(sp)
   15294:	01758493          	addi	s1,a1,23
   15298:	02e00793          	li	a5,46
   1529c:	00050913          	mv	s2,a0
   152a0:	6497fc63          	bgeu	a5,s1,158f8 <_malloc_r+0x690>
   152a4:	800007b7          	lui	a5,0x80000
   152a8:	ff04f493          	andi	s1,s1,-16
   152ac:	fff7c793          	not	a5,a5
   152b0:	0097e463          	bltu	a5,s1,152b8 <_malloc_r+0x50>
   152b4:	04b4f063          	bgeu	s1,a1,152f4 <_malloc_r+0x8c>
   152b8:	00c00793          	li	a5,12
   152bc:	00f92023          	sw	a5,0(s2)
   152c0:	00000513          	li	a0,0
   152c4:	04813083          	ld	ra,72(sp)
   152c8:	04013403          	ld	s0,64(sp)
   152cc:	03813483          	ld	s1,56(sp)
   152d0:	03013903          	ld	s2,48(sp)
   152d4:	02813983          	ld	s3,40(sp)
   152d8:	02013a03          	ld	s4,32(sp)
   152dc:	01813a83          	ld	s5,24(sp)
   152e0:	01013b03          	ld	s6,16(sp)
   152e4:	00813b83          	ld	s7,8(sp)
   152e8:	00013c03          	ld	s8,0(sp)
   152ec:	05010113          	addi	sp,sp,80
   152f0:	00008067          	ret
   152f4:	63c000ef          	jal	ra,15930 <__malloc_lock>
   152f8:	1f700793          	li	a5,503
   152fc:	0697ea63          	bltu	a5,s1,15370 <_malloc_r+0x108>
   15300:	0034d793          	srli	a5,s1,0x3
   15304:	0007879b          	sext.w	a5,a5
   15308:	0017871b          	addiw	a4,a5,1
   1530c:	0017171b          	slliw	a4,a4,0x1
   15310:	000206b7          	lui	a3,0x20
   15314:	e7868693          	addi	a3,a3,-392 # 1fe78 <__malloc_av_>
   15318:	00371713          	slli	a4,a4,0x3
   1531c:	00d70733          	add	a4,a4,a3
   15320:	00873403          	ld	s0,8(a4) # 2008 <_start-0xe0a8>
   15324:	ff070693          	addi	a3,a4,-16
   15328:	00d41863          	bne	s0,a3,15338 <_malloc_r+0xd0>
   1532c:	01873403          	ld	s0,24(a4)
   15330:	0027879b          	addiw	a5,a5,2
   15334:	08870c63          	beq	a4,s0,153cc <_malloc_r+0x164>
   15338:	00843783          	ld	a5,8(s0)
   1533c:	01843703          	ld	a4,24(s0)
   15340:	01043683          	ld	a3,16(s0)
   15344:	ffc7f793          	andi	a5,a5,-4
   15348:	00f407b3          	add	a5,s0,a5
   1534c:	00e6bc23          	sd	a4,24(a3)
   15350:	00d73823          	sd	a3,16(a4)
   15354:	0087b703          	ld	a4,8(a5) # ffffffff80000008 <__global_pointer$+0xffffffff7ffdefd8>
   15358:	00176713          	ori	a4,a4,1
   1535c:	00e7b423          	sd	a4,8(a5)
   15360:	00090513          	mv	a0,s2
   15364:	5d0000ef          	jal	ra,15934 <__malloc_unlock>
   15368:	01040513          	addi	a0,s0,16
   1536c:	f59ff06f          	j	152c4 <_malloc_r+0x5c>
   15370:	0094d713          	srli	a4,s1,0x9
   15374:	03f00793          	li	a5,63
   15378:	00070a63          	beqz	a4,1538c <_malloc_r+0x124>
   1537c:	00400793          	li	a5,4
   15380:	0ae7e863          	bltu	a5,a4,15430 <_malloc_r+0x1c8>
   15384:	0064d793          	srli	a5,s1,0x6
   15388:	0387879b          	addiw	a5,a5,56
   1538c:	0017871b          	addiw	a4,a5,1
   15390:	0017171b          	slliw	a4,a4,0x1
   15394:	000206b7          	lui	a3,0x20
   15398:	00371713          	slli	a4,a4,0x3
   1539c:	e7868693          	addi	a3,a3,-392 # 1fe78 <__malloc_av_>
   153a0:	00d70733          	add	a4,a4,a3
   153a4:	00873403          	ld	s0,8(a4)
   153a8:	ff070593          	addi	a1,a4,-16
   153ac:	01f00513          	li	a0,31
   153b0:	00b40c63          	beq	s0,a1,153c8 <_malloc_r+0x160>
   153b4:	00843703          	ld	a4,8(s0)
   153b8:	ffc77713          	andi	a4,a4,-4
   153bc:	40970633          	sub	a2,a4,s1
   153c0:	0cc55063          	bge	a0,a2,15480 <_malloc_r+0x218>
   153c4:	fff7879b          	addiw	a5,a5,-1
   153c8:	0017879b          	addiw	a5,a5,1
   153cc:	000209b7          	lui	s3,0x20
   153d0:	e7898693          	addi	a3,s3,-392 # 1fe78 <__malloc_av_>
   153d4:	0206b403          	ld	s0,32(a3)
   153d8:	000205b7          	lui	a1,0x20
   153dc:	e8858613          	addi	a2,a1,-376 # 1fe88 <__malloc_av_+0x10>
   153e0:	e7898993          	addi	s3,s3,-392
   153e4:	e8858593          	addi	a1,a1,-376
   153e8:	12c40663          	beq	s0,a2,15514 <_malloc_r+0x2ac>
   153ec:	00843703          	ld	a4,8(s0)
   153f0:	01f00813          	li	a6,31
   153f4:	ffc77713          	andi	a4,a4,-4
   153f8:	40970533          	sub	a0,a4,s1
   153fc:	0aa85463          	bge	a6,a0,154a4 <_malloc_r+0x23c>
   15400:	009407b3          	add	a5,s0,s1
   15404:	0014e493          	ori	s1,s1,1
   15408:	00943423          	sd	s1,8(s0)
   1540c:	02f6b423          	sd	a5,40(a3)
   15410:	02f6b023          	sd	a5,32(a3)
   15414:	00156693          	ori	a3,a0,1
   15418:	00c7bc23          	sd	a2,24(a5)
   1541c:	00c7b823          	sd	a2,16(a5)
   15420:	00d7b423          	sd	a3,8(a5)
   15424:	00e40733          	add	a4,s0,a4
   15428:	00a73023          	sd	a0,0(a4)
   1542c:	f35ff06f          	j	15360 <_malloc_r+0xf8>
   15430:	01400793          	li	a5,20
   15434:	00e7e663          	bltu	a5,a4,15440 <_malloc_r+0x1d8>
   15438:	05b7079b          	addiw	a5,a4,91
   1543c:	f51ff06f          	j	1538c <_malloc_r+0x124>
   15440:	05400793          	li	a5,84
   15444:	00e7e863          	bltu	a5,a4,15454 <_malloc_r+0x1ec>
   15448:	00c4d793          	srli	a5,s1,0xc
   1544c:	06e7879b          	addiw	a5,a5,110
   15450:	f3dff06f          	j	1538c <_malloc_r+0x124>
   15454:	15400793          	li	a5,340
   15458:	00e7e863          	bltu	a5,a4,15468 <_malloc_r+0x200>
   1545c:	00f4d793          	srli	a5,s1,0xf
   15460:	0777879b          	addiw	a5,a5,119
   15464:	f29ff06f          	j	1538c <_malloc_r+0x124>
   15468:	55400693          	li	a3,1364
   1546c:	07e00793          	li	a5,126
   15470:	f0e6eee3          	bltu	a3,a4,1538c <_malloc_r+0x124>
   15474:	0124d793          	srli	a5,s1,0x12
   15478:	07c7879b          	addiw	a5,a5,124
   1547c:	f11ff06f          	j	1538c <_malloc_r+0x124>
   15480:	01843683          	ld	a3,24(s0)
   15484:	00064c63          	bltz	a2,1549c <_malloc_r+0x234>
   15488:	01043783          	ld	a5,16(s0)
   1548c:	00d7bc23          	sd	a3,24(a5)
   15490:	00f6b823          	sd	a5,16(a3)
   15494:	00e407b3          	add	a5,s0,a4
   15498:	ebdff06f          	j	15354 <_malloc_r+0xec>
   1549c:	00068413          	mv	s0,a3
   154a0:	f11ff06f          	j	153b0 <_malloc_r+0x148>
   154a4:	02c6b423          	sd	a2,40(a3)
   154a8:	02c6b023          	sd	a2,32(a3)
   154ac:	00054c63          	bltz	a0,154c4 <_malloc_r+0x25c>
   154b0:	00e40733          	add	a4,s0,a4
   154b4:	00873783          	ld	a5,8(a4)
   154b8:	0017e793          	ori	a5,a5,1
   154bc:	00f73423          	sd	a5,8(a4)
   154c0:	ea1ff06f          	j	15360 <_malloc_r+0xf8>
   154c4:	1ff00693          	li	a3,511
   154c8:	18e6e263          	bltu	a3,a4,1564c <_malloc_r+0x3e4>
   154cc:	00375713          	srli	a4,a4,0x3
   154d0:	0007071b          	sext.w	a4,a4
   154d4:	4027561b          	sraiw	a2,a4,0x2
   154d8:	00100693          	li	a3,1
   154dc:	00c696b3          	sll	a3,a3,a2
   154e0:	0017071b          	addiw	a4,a4,1
   154e4:	0089b603          	ld	a2,8(s3)
   154e8:	0017171b          	slliw	a4,a4,0x1
   154ec:	00371713          	slli	a4,a4,0x3
   154f0:	00c6e6b3          	or	a3,a3,a2
   154f4:	01370733          	add	a4,a4,s3
   154f8:	00d9b423          	sd	a3,8(s3)
   154fc:	00073683          	ld	a3,0(a4)
   15500:	ff070613          	addi	a2,a4,-16
   15504:	00c43c23          	sd	a2,24(s0)
   15508:	00d43823          	sd	a3,16(s0)
   1550c:	00873023          	sd	s0,0(a4)
   15510:	0086bc23          	sd	s0,24(a3)
   15514:	4027d71b          	sraiw	a4,a5,0x2
   15518:	00100313          	li	t1,1
   1551c:	00e31333          	sll	t1,t1,a4
   15520:	0089b703          	ld	a4,8(s3)
   15524:	08676063          	bltu	a4,t1,155a4 <_malloc_r+0x33c>
   15528:	006776b3          	and	a3,a4,t1
   1552c:	00069c63          	bnez	a3,15544 <_malloc_r+0x2dc>
   15530:	ffc7f793          	andi	a5,a5,-4
   15534:	00131313          	slli	t1,t1,0x1
   15538:	006776b3          	and	a3,a4,t1
   1553c:	0047879b          	addiw	a5,a5,4
   15540:	fe068ae3          	beqz	a3,15534 <_malloc_r+0x2cc>
   15544:	01f00e13          	li	t3,31
   15548:	0017871b          	addiw	a4,a5,1
   1554c:	0017171b          	slliw	a4,a4,0x1
   15550:	00371713          	slli	a4,a4,0x3
   15554:	ff070713          	addi	a4,a4,-16
   15558:	00e98733          	add	a4,s3,a4
   1555c:	00070813          	mv	a6,a4
   15560:	00078513          	mv	a0,a5
   15564:	01883403          	ld	s0,24(a6)
   15568:	1b041663          	bne	s0,a6,15714 <_malloc_r+0x4ac>
   1556c:	0015051b          	addiw	a0,a0,1
   15570:	00357693          	andi	a3,a0,3
   15574:	01080813          	addi	a6,a6,16
   15578:	fe0696e3          	bnez	a3,15564 <_malloc_r+0x2fc>
   1557c:	0037f693          	andi	a3,a5,3
   15580:	20069863          	bnez	a3,15790 <_malloc_r+0x528>
   15584:	0089b703          	ld	a4,8(s3)
   15588:	fff34793          	not	a5,t1
   1558c:	00f777b3          	and	a5,a4,a5
   15590:	00f9b423          	sd	a5,8(s3)
   15594:	0089b683          	ld	a3,8(s3)
   15598:	00131313          	slli	t1,t1,0x1
   1559c:	0066e463          	bltu	a3,t1,155a4 <_malloc_r+0x33c>
   155a0:	20031c63          	bnez	t1,157b8 <_malloc_r+0x550>
   155a4:	0109bb03          	ld	s6,16(s3)
   155a8:	008b3403          	ld	s0,8(s6)
   155ac:	ffc47a13          	andi	s4,s0,-4
   155b0:	009a6863          	bltu	s4,s1,155c0 <_malloc_r+0x358>
   155b4:	409a07b3          	sub	a5,s4,s1
   155b8:	01f00713          	li	a4,31
   155bc:	30f74e63          	blt	a4,a5,158d8 <_malloc_r+0x670>
   155c0:	8581b403          	ld	s0,-1960(gp) # 20888 <__malloc_top_pad>
   155c4:	8381b703          	ld	a4,-1992(gp) # 20868 <__malloc_sbrk_base>
   155c8:	fff00793          	li	a5,-1
   155cc:	00848433          	add	s0,s1,s0
   155d0:	1ef71863          	bne	a4,a5,157c0 <_malloc_r+0x558>
   155d4:	02040413          	addi	s0,s0,32
   155d8:	00040593          	mv	a1,s0
   155dc:	00090513          	mv	a0,s2
   155e0:	30c010ef          	jal	ra,168ec <_sbrk_r>
   155e4:	fff00793          	li	a5,-1
   155e8:	00050a93          	mv	s5,a0
   155ec:	26f50c63          	beq	a0,a5,15864 <_malloc_r+0x5fc>
   155f0:	014b07b3          	add	a5,s6,s4
   155f4:	00f57463          	bgeu	a0,a5,155fc <_malloc_r+0x394>
   155f8:	273b1663          	bne	s6,s3,15864 <_malloc_r+0x5fc>
   155fc:	8a818693          	addi	a3,gp,-1880 # 208d8 <__malloc_current_mallinfo>
   15600:	0006a703          	lw	a4,0(a3)
   15604:	8a818b93          	addi	s7,gp,-1880 # 208d8 <__malloc_current_mallinfo>
   15608:	0087073b          	addw	a4,a4,s0
   1560c:	00e6a023          	sw	a4,0(a3)
   15610:	1d579463          	bne	a5,s5,157d8 <_malloc_r+0x570>
   15614:	03479693          	slli	a3,a5,0x34
   15618:	1c069063          	bnez	a3,157d8 <_malloc_r+0x570>
   1561c:	0109b783          	ld	a5,16(s3)
   15620:	008a0433          	add	s0,s4,s0
   15624:	00146413          	ori	s0,s0,1
   15628:	0087b423          	sd	s0,8(a5)
   1562c:	000ba783          	lw	a5,0(s7)
   15630:	8501b683          	ld	a3,-1968(gp) # 20880 <__malloc_max_sbrked_mem>
   15634:	00f6f463          	bgeu	a3,a5,1563c <_malloc_r+0x3d4>
   15638:	84f1b823          	sd	a5,-1968(gp) # 20880 <__malloc_max_sbrked_mem>
   1563c:	8481b683          	ld	a3,-1976(gp) # 20878 <__malloc_max_total_mem>
   15640:	22f6f263          	bgeu	a3,a5,15864 <_malloc_r+0x5fc>
   15644:	84f1b423          	sd	a5,-1976(gp) # 20878 <__malloc_max_total_mem>
   15648:	21c0006f          	j	15864 <_malloc_r+0x5fc>
   1564c:	00975613          	srli	a2,a4,0x9
   15650:	00400693          	li	a3,4
   15654:	04c6ea63          	bltu	a3,a2,156a8 <_malloc_r+0x440>
   15658:	00675693          	srli	a3,a4,0x6
   1565c:	0386869b          	addiw	a3,a3,56
   15660:	0016861b          	addiw	a2,a3,1
   15664:	0016161b          	slliw	a2,a2,0x1
   15668:	00361613          	slli	a2,a2,0x3
   1566c:	00c98633          	add	a2,s3,a2
   15670:	ff060513          	addi	a0,a2,-16
   15674:	00063603          	ld	a2,0(a2)
   15678:	08c51463          	bne	a0,a2,15700 <_malloc_r+0x498>
   1567c:	00100713          	li	a4,1
   15680:	4026d69b          	sraiw	a3,a3,0x2
   15684:	00d716b3          	sll	a3,a4,a3
   15688:	0089b703          	ld	a4,8(s3)
   1568c:	00e6e6b3          	or	a3,a3,a4
   15690:	00d9b423          	sd	a3,8(s3)
   15694:	00a43c23          	sd	a0,24(s0)
   15698:	00c43823          	sd	a2,16(s0)
   1569c:	00853823          	sd	s0,16(a0)
   156a0:	00863c23          	sd	s0,24(a2)
   156a4:	e71ff06f          	j	15514 <_malloc_r+0x2ac>
   156a8:	01400693          	li	a3,20
   156ac:	00c6e663          	bltu	a3,a2,156b8 <_malloc_r+0x450>
   156b0:	05b6069b          	addiw	a3,a2,91
   156b4:	fadff06f          	j	15660 <_malloc_r+0x3f8>
   156b8:	05400693          	li	a3,84
   156bc:	00c6e863          	bltu	a3,a2,156cc <_malloc_r+0x464>
   156c0:	00c75693          	srli	a3,a4,0xc
   156c4:	06e6869b          	addiw	a3,a3,110
   156c8:	f99ff06f          	j	15660 <_malloc_r+0x3f8>
   156cc:	15400693          	li	a3,340
   156d0:	00c6e863          	bltu	a3,a2,156e0 <_malloc_r+0x478>
   156d4:	00f75693          	srli	a3,a4,0xf
   156d8:	0776869b          	addiw	a3,a3,119
   156dc:	f85ff06f          	j	15660 <_malloc_r+0x3f8>
   156e0:	55400513          	li	a0,1364
   156e4:	07e00693          	li	a3,126
   156e8:	f6c56ce3          	bltu	a0,a2,15660 <_malloc_r+0x3f8>
   156ec:	01275693          	srli	a3,a4,0x12
   156f0:	07c6869b          	addiw	a3,a3,124
   156f4:	f6dff06f          	j	15660 <_malloc_r+0x3f8>
   156f8:	01063603          	ld	a2,16(a2)
   156fc:	00c50863          	beq	a0,a2,1570c <_malloc_r+0x4a4>
   15700:	00863683          	ld	a3,8(a2)
   15704:	ffc6f693          	andi	a3,a3,-4
   15708:	fed768e3          	bltu	a4,a3,156f8 <_malloc_r+0x490>
   1570c:	01863503          	ld	a0,24(a2)
   15710:	f85ff06f          	j	15694 <_malloc_r+0x42c>
   15714:	00843683          	ld	a3,8(s0)
   15718:	01843603          	ld	a2,24(s0)
   1571c:	ffc6f693          	andi	a3,a3,-4
   15720:	409688b3          	sub	a7,a3,s1
   15724:	051e5063          	bge	t3,a7,15764 <_malloc_r+0x4fc>
   15728:	01043703          	ld	a4,16(s0)
   1572c:	009407b3          	add	a5,s0,s1
   15730:	0014e493          	ori	s1,s1,1
   15734:	00943423          	sd	s1,8(s0)
   15738:	00c73c23          	sd	a2,24(a4)
   1573c:	00e63823          	sd	a4,16(a2)
   15740:	02f9b423          	sd	a5,40(s3)
   15744:	02f9b023          	sd	a5,32(s3)
   15748:	0018e713          	ori	a4,a7,1
   1574c:	00b7bc23          	sd	a1,24(a5)
   15750:	00b7b823          	sd	a1,16(a5)
   15754:	00e7b423          	sd	a4,8(a5)
   15758:	00d406b3          	add	a3,s0,a3
   1575c:	0116b023          	sd	a7,0(a3)
   15760:	c01ff06f          	j	15360 <_malloc_r+0xf8>
   15764:	0208c263          	bltz	a7,15788 <_malloc_r+0x520>
   15768:	00d406b3          	add	a3,s0,a3
   1576c:	0086b783          	ld	a5,8(a3)
   15770:	0017e793          	ori	a5,a5,1
   15774:	00f6b423          	sd	a5,8(a3)
   15778:	01043783          	ld	a5,16(s0)
   1577c:	00c7bc23          	sd	a2,24(a5)
   15780:	00f63823          	sd	a5,16(a2)
   15784:	bddff06f          	j	15360 <_malloc_r+0xf8>
   15788:	00060413          	mv	s0,a2
   1578c:	dddff06f          	j	15568 <_malloc_r+0x300>
   15790:	ff070693          	addi	a3,a4,-16
   15794:	00073703          	ld	a4,0(a4)
   15798:	fff7879b          	addiw	a5,a5,-1
   1579c:	ded700e3          	beq	a4,a3,1557c <_malloc_r+0x314>
   157a0:	df5ff06f          	j	15594 <_malloc_r+0x32c>
   157a4:	0047879b          	addiw	a5,a5,4
   157a8:	00131313          	slli	t1,t1,0x1
   157ac:	0066f733          	and	a4,a3,t1
   157b0:	fe070ae3          	beqz	a4,157a4 <_malloc_r+0x53c>
   157b4:	d95ff06f          	j	15548 <_malloc_r+0x2e0>
   157b8:	00050793          	mv	a5,a0
   157bc:	ff1ff06f          	j	157ac <_malloc_r+0x544>
   157c0:	000017b7          	lui	a5,0x1
   157c4:	01f78793          	addi	a5,a5,31 # 101f <_start-0xf091>
   157c8:	00f40433          	add	s0,s0,a5
   157cc:	fffff7b7          	lui	a5,0xfffff
   157d0:	00f47433          	and	s0,s0,a5
   157d4:	e05ff06f          	j	155d8 <_malloc_r+0x370>
   157d8:	8381b603          	ld	a2,-1992(gp) # 20868 <__malloc_sbrk_base>
   157dc:	fff00693          	li	a3,-1
   157e0:	0ad61663          	bne	a2,a3,1588c <_malloc_r+0x624>
   157e4:	8351bc23          	sd	s5,-1992(gp) # 20868 <__malloc_sbrk_base>
   157e8:	00faf593          	andi	a1,s5,15
   157ec:	00058863          	beqz	a1,157fc <_malloc_r+0x594>
   157f0:	01000793          	li	a5,16
   157f4:	40b785b3          	sub	a1,a5,a1
   157f8:	00ba8ab3          	add	s5,s5,a1
   157fc:	000017b7          	lui	a5,0x1
   15800:	00f585b3          	add	a1,a1,a5
   15804:	008a8433          	add	s0,s5,s0
   15808:	fff78793          	addi	a5,a5,-1 # fff <_start-0xf0b1>
   1580c:	00f47433          	and	s0,s0,a5
   15810:	40858433          	sub	s0,a1,s0
   15814:	00040593          	mv	a1,s0
   15818:	00090513          	mv	a0,s2
   1581c:	0d0010ef          	jal	ra,168ec <_sbrk_r>
   15820:	fff00793          	li	a5,-1
   15824:	00f51663          	bne	a0,a5,15830 <_malloc_r+0x5c8>
   15828:	000a8513          	mv	a0,s5
   1582c:	00000413          	li	s0,0
   15830:	000ba783          	lw	a5,0(s7)
   15834:	41550533          	sub	a0,a0,s5
   15838:	0159b823          	sd	s5,16(s3)
   1583c:	008787bb          	addw	a5,a5,s0
   15840:	00850433          	add	s0,a0,s0
   15844:	00146413          	ori	s0,s0,1
   15848:	00fba023          	sw	a5,0(s7)
   1584c:	008ab423          	sd	s0,8(s5)
   15850:	dd3b0ee3          	beq	s6,s3,1562c <_malloc_r+0x3c4>
   15854:	01f00713          	li	a4,31
   15858:	05476263          	bltu	a4,s4,1589c <_malloc_r+0x634>
   1585c:	00100793          	li	a5,1
   15860:	00fab423          	sd	a5,8(s5)
   15864:	0109b783          	ld	a5,16(s3)
   15868:	0087b703          	ld	a4,8(a5)
   1586c:	ffc77713          	andi	a4,a4,-4
   15870:	409707b3          	sub	a5,a4,s1
   15874:	00976663          	bltu	a4,s1,15880 <_malloc_r+0x618>
   15878:	01f00713          	li	a4,31
   1587c:	04f74e63          	blt	a4,a5,158d8 <_malloc_r+0x670>
   15880:	00090513          	mv	a0,s2
   15884:	0b0000ef          	jal	ra,15934 <__malloc_unlock>
   15888:	a39ff06f          	j	152c0 <_malloc_r+0x58>
   1588c:	40fa87b3          	sub	a5,s5,a5
   15890:	00e787bb          	addw	a5,a5,a4
   15894:	00fba023          	sw	a5,0(s7)
   15898:	f51ff06f          	j	157e8 <_malloc_r+0x580>
   1589c:	008b3783          	ld	a5,8(s6)
   158a0:	fe8a0413          	addi	s0,s4,-24
   158a4:	ff047413          	andi	s0,s0,-16
   158a8:	0017f793          	andi	a5,a5,1
   158ac:	0087e7b3          	or	a5,a5,s0
   158b0:	00fb3423          	sd	a5,8(s6)
   158b4:	00900693          	li	a3,9
   158b8:	008b07b3          	add	a5,s6,s0
   158bc:	00d7b423          	sd	a3,8(a5)
   158c0:	00d7b823          	sd	a3,16(a5)
   158c4:	d68774e3          	bgeu	a4,s0,1562c <_malloc_r+0x3c4>
   158c8:	010b0593          	addi	a1,s6,16
   158cc:	00090513          	mv	a0,s2
   158d0:	bf4fd0ef          	jal	ra,12cc4 <_free_r>
   158d4:	d59ff06f          	j	1562c <_malloc_r+0x3c4>
   158d8:	0109b403          	ld	s0,16(s3)
   158dc:	0014e713          	ori	a4,s1,1
   158e0:	0017e793          	ori	a5,a5,1
   158e4:	00e43423          	sd	a4,8(s0)
   158e8:	009404b3          	add	s1,s0,s1
   158ec:	0099b823          	sd	s1,16(s3)
   158f0:	00f4b423          	sd	a5,8(s1)
   158f4:	a6dff06f          	j	15360 <_malloc_r+0xf8>
   158f8:	02000793          	li	a5,32
   158fc:	9ab7eee3          	bltu	a5,a1,152b8 <_malloc_r+0x50>
   15900:	030000ef          	jal	ra,15930 <__malloc_lock>
   15904:	02000493          	li	s1,32
   15908:	9f9ff06f          	j	15300 <_malloc_r+0x98>

000000000001590c <memchr>:
   1590c:	0ff5f593          	zext.b	a1,a1
   15910:	00c50633          	add	a2,a0,a2
   15914:	00c51663          	bne	a0,a2,15920 <memchr+0x14>
   15918:	00000513          	li	a0,0
   1591c:	00008067          	ret
   15920:	00054783          	lbu	a5,0(a0)
   15924:	feb78ce3          	beq	a5,a1,1591c <memchr+0x10>
   15928:	00150513          	addi	a0,a0,1
   1592c:	fe9ff06f          	j	15914 <memchr+0x8>

0000000000015930 <__malloc_lock>:
   15930:	00008067          	ret

0000000000015934 <__malloc_unlock>:
   15934:	00008067          	ret

0000000000015938 <_Balloc>:
   15938:	07853783          	ld	a5,120(a0)
   1593c:	fe010113          	addi	sp,sp,-32
   15940:	00913423          	sd	s1,8(sp)
   15944:	01213023          	sd	s2,0(sp)
   15948:	00113c23          	sd	ra,24(sp)
   1594c:	00813823          	sd	s0,16(sp)
   15950:	00050493          	mv	s1,a0
   15954:	00058913          	mv	s2,a1
   15958:	04078463          	beqz	a5,159a0 <_Balloc+0x68>
   1595c:	0784b703          	ld	a4,120(s1)
   15960:	00391793          	slli	a5,s2,0x3
   15964:	00f707b3          	add	a5,a4,a5
   15968:	0007b503          	ld	a0,0(a5)
   1596c:	06051263          	bnez	a0,159d0 <_Balloc+0x98>
   15970:	00100413          	li	s0,1
   15974:	0124143b          	sllw	s0,s0,s2
   15978:	fff4061b          	addiw	a2,s0,-1
   1597c:	00860613          	addi	a2,a2,8
   15980:	00261613          	slli	a2,a2,0x2
   15984:	00100593          	li	a1,1
   15988:	00048513          	mv	a0,s1
   1598c:	5bd030ef          	jal	ra,19748 <_calloc_r>
   15990:	02050263          	beqz	a0,159b4 <_Balloc+0x7c>
   15994:	01252423          	sw	s2,8(a0)
   15998:	00852623          	sw	s0,12(a0)
   1599c:	03c0006f          	j	159d8 <_Balloc+0xa0>
   159a0:	04100613          	li	a2,65
   159a4:	00800593          	li	a1,8
   159a8:	5a1030ef          	jal	ra,19748 <_calloc_r>
   159ac:	06a4bc23          	sd	a0,120(s1)
   159b0:	fa0516e3          	bnez	a0,1595c <_Balloc+0x24>
   159b4:	00000513          	li	a0,0
   159b8:	01813083          	ld	ra,24(sp)
   159bc:	01013403          	ld	s0,16(sp)
   159c0:	00813483          	ld	s1,8(sp)
   159c4:	00013903          	ld	s2,0(sp)
   159c8:	02010113          	addi	sp,sp,32
   159cc:	00008067          	ret
   159d0:	00053703          	ld	a4,0(a0)
   159d4:	00e7b023          	sd	a4,0(a5)
   159d8:	00053823          	sd	zero,16(a0)
   159dc:	fddff06f          	j	159b8 <_Balloc+0x80>

00000000000159e0 <_Bfree>:
   159e0:	02058063          	beqz	a1,15a00 <_Bfree+0x20>
   159e4:	0085a783          	lw	a5,8(a1)
   159e8:	00379713          	slli	a4,a5,0x3
   159ec:	07853783          	ld	a5,120(a0)
   159f0:	00e787b3          	add	a5,a5,a4
   159f4:	0007b703          	ld	a4,0(a5)
   159f8:	00e5b023          	sd	a4,0(a1)
   159fc:	00b7b023          	sd	a1,0(a5)
   15a00:	00008067          	ret

0000000000015a04 <__multadd>:
   15a04:	fc010113          	addi	sp,sp,-64
   15a08:	01313c23          	sd	s3,24(sp)
   15a0c:	00050993          	mv	s3,a0
   15a10:	00010537          	lui	a0,0x10
   15a14:	02813823          	sd	s0,48(sp)
   15a18:	02913423          	sd	s1,40(sp)
   15a1c:	00058413          	mv	s0,a1
   15a20:	0145a483          	lw	s1,20(a1)
   15a24:	02113c23          	sd	ra,56(sp)
   15a28:	03213023          	sd	s2,32(sp)
   15a2c:	01858593          	addi	a1,a1,24
   15a30:	00000813          	li	a6,0
   15a34:	fff50513          	addi	a0,a0,-1 # ffff <_start-0xb1>
   15a38:	0005a783          	lw	a5,0(a1)
   15a3c:	00458593          	addi	a1,a1,4
   15a40:	0018081b          	addiw	a6,a6,1
   15a44:	00a7f733          	and	a4,a5,a0
   15a48:	02c7073b          	mulw	a4,a4,a2
   15a4c:	0107d79b          	srliw	a5,a5,0x10
   15a50:	02c787bb          	mulw	a5,a5,a2
   15a54:	00d7073b          	addw	a4,a4,a3
   15a58:	0107569b          	srliw	a3,a4,0x10
   15a5c:	00e57733          	and	a4,a0,a4
   15a60:	00d787bb          	addw	a5,a5,a3
   15a64:	0107d69b          	srliw	a3,a5,0x10
   15a68:	0107979b          	slliw	a5,a5,0x10
   15a6c:	00e787bb          	addw	a5,a5,a4
   15a70:	fef5ae23          	sw	a5,-4(a1)
   15a74:	0006869b          	sext.w	a3,a3
   15a78:	fc9840e3          	blt	a6,s1,15a38 <__multadd+0x34>
   15a7c:	06068463          	beqz	a3,15ae4 <__multadd+0xe0>
   15a80:	00c42783          	lw	a5,12(s0)
   15a84:	04f4c463          	blt	s1,a5,15acc <__multadd+0xc8>
   15a88:	00842583          	lw	a1,8(s0)
   15a8c:	00098513          	mv	a0,s3
   15a90:	00d13423          	sd	a3,8(sp)
   15a94:	0015859b          	addiw	a1,a1,1
   15a98:	ea1ff0ef          	jal	ra,15938 <_Balloc>
   15a9c:	01442603          	lw	a2,20(s0)
   15aa0:	01040593          	addi	a1,s0,16
   15aa4:	00050913          	mv	s2,a0
   15aa8:	00260613          	addi	a2,a2,2
   15aac:	00261613          	slli	a2,a2,0x2
   15ab0:	01050513          	addi	a0,a0,16
   15ab4:	680040ef          	jal	ra,1a134 <memcpy>
   15ab8:	00040593          	mv	a1,s0
   15abc:	00098513          	mv	a0,s3
   15ac0:	f21ff0ef          	jal	ra,159e0 <_Bfree>
   15ac4:	00813683          	ld	a3,8(sp)
   15ac8:	00090413          	mv	s0,s2
   15acc:	00448793          	addi	a5,s1,4
   15ad0:	00279793          	slli	a5,a5,0x2
   15ad4:	00f407b3          	add	a5,s0,a5
   15ad8:	00d7a423          	sw	a3,8(a5)
   15adc:	0014849b          	addiw	s1,s1,1
   15ae0:	00942a23          	sw	s1,20(s0)
   15ae4:	00040513          	mv	a0,s0
   15ae8:	03813083          	ld	ra,56(sp)
   15aec:	03013403          	ld	s0,48(sp)
   15af0:	02813483          	ld	s1,40(sp)
   15af4:	02013903          	ld	s2,32(sp)
   15af8:	01813983          	ld	s3,24(sp)
   15afc:	04010113          	addi	sp,sp,64
   15b00:	00008067          	ret

0000000000015b04 <__s2b>:
   15b04:	fb010113          	addi	sp,sp,-80
   15b08:	00900793          	li	a5,9
   15b0c:	03313423          	sd	s3,40(sp)
   15b10:	00068993          	mv	s3,a3
   15b14:	0086869b          	addiw	a3,a3,8
   15b18:	04813023          	sd	s0,64(sp)
   15b1c:	03213823          	sd	s2,48(sp)
   15b20:	01513c23          	sd	s5,24(sp)
   15b24:	00058413          	mv	s0,a1
   15b28:	02f6c6bb          	divw	a3,a3,a5
   15b2c:	04113423          	sd	ra,72(sp)
   15b30:	02913c23          	sd	s1,56(sp)
   15b34:	03413023          	sd	s4,32(sp)
   15b38:	00050913          	mv	s2,a0
   15b3c:	00060a93          	mv	s5,a2
   15b40:	00100793          	li	a5,1
   15b44:	00000593          	li	a1,0
   15b48:	08d7ca63          	blt	a5,a3,15bdc <__s2b+0xd8>
   15b4c:	00090513          	mv	a0,s2
   15b50:	00e13423          	sd	a4,8(sp)
   15b54:	de5ff0ef          	jal	ra,15938 <_Balloc>
   15b58:	00813703          	ld	a4,8(sp)
   15b5c:	00100793          	li	a5,1
   15b60:	00f52a23          	sw	a5,20(a0)
   15b64:	00e52c23          	sw	a4,24(a0)
   15b68:	00900793          	li	a5,9
   15b6c:	0757de63          	bge	a5,s5,15be8 <__s2b+0xe4>
   15b70:	00940413          	addi	s0,s0,9
   15b74:	00040a13          	mv	s4,s0
   15b78:	00900493          	li	s1,9
   15b7c:	001a0a13          	addi	s4,s4,1
   15b80:	fffa4683          	lbu	a3,-1(s4)
   15b84:	00050593          	mv	a1,a0
   15b88:	00a00613          	li	a2,10
   15b8c:	fd06869b          	addiw	a3,a3,-48
   15b90:	00090513          	mv	a0,s2
   15b94:	0014849b          	addiw	s1,s1,1
   15b98:	e6dff0ef          	jal	ra,15a04 <__multadd>
   15b9c:	fe9a90e3          	bne	s5,s1,15b7c <__s2b+0x78>
   15ba0:	ff64879b          	addiw	a5,s1,-10
   15ba4:	02079793          	slli	a5,a5,0x20
   15ba8:	0207d793          	srli	a5,a5,0x20
   15bac:	00f40433          	add	s0,s0,a5
   15bb0:	00240413          	addi	s0,s0,2
   15bb4:	0534c063          	blt	s1,s3,15bf4 <__s2b+0xf0>
   15bb8:	04813083          	ld	ra,72(sp)
   15bbc:	04013403          	ld	s0,64(sp)
   15bc0:	03813483          	ld	s1,56(sp)
   15bc4:	03013903          	ld	s2,48(sp)
   15bc8:	02813983          	ld	s3,40(sp)
   15bcc:	02013a03          	ld	s4,32(sp)
   15bd0:	01813a83          	ld	s5,24(sp)
   15bd4:	05010113          	addi	sp,sp,80
   15bd8:	00008067          	ret
   15bdc:	0017979b          	slliw	a5,a5,0x1
   15be0:	0015859b          	addiw	a1,a1,1
   15be4:	f65ff06f          	j	15b48 <__s2b+0x44>
   15be8:	00a40413          	addi	s0,s0,10
   15bec:	00900493          	li	s1,9
   15bf0:	fc5ff06f          	j	15bb4 <__s2b+0xb0>
   15bf4:	00044683          	lbu	a3,0(s0)
   15bf8:	00050593          	mv	a1,a0
   15bfc:	00a00613          	li	a2,10
   15c00:	fd06869b          	addiw	a3,a3,-48
   15c04:	00090513          	mv	a0,s2
   15c08:	dfdff0ef          	jal	ra,15a04 <__multadd>
   15c0c:	0014849b          	addiw	s1,s1,1
   15c10:	00140413          	addi	s0,s0,1
   15c14:	fa1ff06f          	j	15bb4 <__s2b+0xb0>

0000000000015c18 <__hi0bits>:
   15c18:	ffff0737          	lui	a4,0xffff0
   15c1c:	00e57733          	and	a4,a0,a4
   15c20:	00050793          	mv	a5,a0
   15c24:	00000513          	li	a0,0
   15c28:	00071663          	bnez	a4,15c34 <__hi0bits+0x1c>
   15c2c:	0107979b          	slliw	a5,a5,0x10
   15c30:	01000513          	li	a0,16
   15c34:	ff000737          	lui	a4,0xff000
   15c38:	00e7f733          	and	a4,a5,a4
   15c3c:	00071663          	bnez	a4,15c48 <__hi0bits+0x30>
   15c40:	0085051b          	addiw	a0,a0,8
   15c44:	0087979b          	slliw	a5,a5,0x8
   15c48:	f0000737          	lui	a4,0xf0000
   15c4c:	00e7f733          	and	a4,a5,a4
   15c50:	00071663          	bnez	a4,15c5c <__hi0bits+0x44>
   15c54:	0045051b          	addiw	a0,a0,4
   15c58:	0047979b          	slliw	a5,a5,0x4
   15c5c:	c0000737          	lui	a4,0xc0000
   15c60:	00e7f733          	and	a4,a5,a4
   15c64:	00071663          	bnez	a4,15c70 <__hi0bits+0x58>
   15c68:	0025051b          	addiw	a0,a0,2
   15c6c:	0027979b          	slliw	a5,a5,0x2
   15c70:	0007cc63          	bltz	a5,15c88 <__hi0bits+0x70>
   15c74:	02179713          	slli	a4,a5,0x21
   15c78:	00075663          	bgez	a4,15c84 <__hi0bits+0x6c>
   15c7c:	0015051b          	addiw	a0,a0,1
   15c80:	00008067          	ret
   15c84:	02000513          	li	a0,32
   15c88:	00008067          	ret

0000000000015c8c <__lo0bits>:
   15c8c:	00052783          	lw	a5,0(a0)
   15c90:	0077f713          	andi	a4,a5,7
   15c94:	00078693          	mv	a3,a5
   15c98:	02070e63          	beqz	a4,15cd4 <__lo0bits+0x48>
   15c9c:	0017f613          	andi	a2,a5,1
   15ca0:	00000713          	li	a4,0
   15ca4:	00061c63          	bnez	a2,15cbc <__lo0bits+0x30>
   15ca8:	0026f713          	andi	a4,a3,2
   15cac:	00070c63          	beqz	a4,15cc4 <__lo0bits+0x38>
   15cb0:	0017d79b          	srliw	a5,a5,0x1
   15cb4:	00f52023          	sw	a5,0(a0)
   15cb8:	00100713          	li	a4,1
   15cbc:	00070513          	mv	a0,a4
   15cc0:	00008067          	ret
   15cc4:	0027d79b          	srliw	a5,a5,0x2
   15cc8:	00f52023          	sw	a5,0(a0)
   15ccc:	00200713          	li	a4,2
   15cd0:	fedff06f          	j	15cbc <__lo0bits+0x30>
   15cd4:	03079693          	slli	a3,a5,0x30
   15cd8:	0306d693          	srli	a3,a3,0x30
   15cdc:	00000713          	li	a4,0
   15ce0:	00069863          	bnez	a3,15cf0 <__lo0bits+0x64>
   15ce4:	0107d79b          	srliw	a5,a5,0x10
   15ce8:	0007879b          	sext.w	a5,a5
   15cec:	01000713          	li	a4,16
   15cf0:	0ff7f693          	zext.b	a3,a5
   15cf4:	00069863          	bnez	a3,15d04 <__lo0bits+0x78>
   15cf8:	0087d79b          	srliw	a5,a5,0x8
   15cfc:	0087071b          	addiw	a4,a4,8
   15d00:	0007879b          	sext.w	a5,a5
   15d04:	00f7f693          	andi	a3,a5,15
   15d08:	00069863          	bnez	a3,15d18 <__lo0bits+0x8c>
   15d0c:	0047d79b          	srliw	a5,a5,0x4
   15d10:	0047071b          	addiw	a4,a4,4
   15d14:	0007879b          	sext.w	a5,a5
   15d18:	0037f693          	andi	a3,a5,3
   15d1c:	00069863          	bnez	a3,15d2c <__lo0bits+0xa0>
   15d20:	0027d79b          	srliw	a5,a5,0x2
   15d24:	0027071b          	addiw	a4,a4,2
   15d28:	0007879b          	sext.w	a5,a5
   15d2c:	0017f693          	andi	a3,a5,1
   15d30:	00069a63          	bnez	a3,15d44 <__lo0bits+0xb8>
   15d34:	0017d79b          	srliw	a5,a5,0x1
   15d38:	0007879b          	sext.w	a5,a5
   15d3c:	00078863          	beqz	a5,15d4c <__lo0bits+0xc0>
   15d40:	0017071b          	addiw	a4,a4,1
   15d44:	00f52023          	sw	a5,0(a0)
   15d48:	f75ff06f          	j	15cbc <__lo0bits+0x30>
   15d4c:	02000713          	li	a4,32
   15d50:	f6dff06f          	j	15cbc <__lo0bits+0x30>

0000000000015d54 <__i2b>:
   15d54:	ff010113          	addi	sp,sp,-16
   15d58:	00813023          	sd	s0,0(sp)
   15d5c:	00058413          	mv	s0,a1
   15d60:	00100593          	li	a1,1
   15d64:	00113423          	sd	ra,8(sp)
   15d68:	bd1ff0ef          	jal	ra,15938 <_Balloc>
   15d6c:	00852c23          	sw	s0,24(a0)
   15d70:	00813083          	ld	ra,8(sp)
   15d74:	00013403          	ld	s0,0(sp)
   15d78:	00100713          	li	a4,1
   15d7c:	00e52a23          	sw	a4,20(a0)
   15d80:	01010113          	addi	sp,sp,16
   15d84:	00008067          	ret

0000000000015d88 <__multiply>:
   15d88:	0145a703          	lw	a4,20(a1)
   15d8c:	01462783          	lw	a5,20(a2)
   15d90:	fc010113          	addi	sp,sp,-64
   15d94:	02913423          	sd	s1,40(sp)
   15d98:	02113c23          	sd	ra,56(sp)
   15d9c:	02813823          	sd	s0,48(sp)
   15da0:	03213023          	sd	s2,32(sp)
   15da4:	01313c23          	sd	s3,24(sp)
   15da8:	00058493          	mv	s1,a1
   15dac:	00f75663          	bge	a4,a5,15db8 <__multiply+0x30>
   15db0:	00060493          	mv	s1,a2
   15db4:	00058613          	mv	a2,a1
   15db8:	0144a983          	lw	s3,20(s1)
   15dbc:	01462903          	lw	s2,20(a2)
   15dc0:	00c4a783          	lw	a5,12(s1)
   15dc4:	0084a583          	lw	a1,8(s1)
   15dc8:	0129843b          	addw	s0,s3,s2
   15dcc:	0087d463          	bge	a5,s0,15dd4 <__multiply+0x4c>
   15dd0:	0015859b          	addiw	a1,a1,1
   15dd4:	00c13423          	sd	a2,8(sp)
   15dd8:	b61ff0ef          	jal	ra,15938 <_Balloc>
   15ddc:	00813603          	ld	a2,8(sp)
   15de0:	01850813          	addi	a6,a0,24
   15de4:	00241313          	slli	t1,s0,0x2
   15de8:	00680333          	add	t1,a6,t1
   15dec:	00080793          	mv	a5,a6
   15df0:	0467ec63          	bltu	a5,t1,15e48 <__multiply+0xc0>
   15df4:	01848593          	addi	a1,s1,24
   15df8:	00299893          	slli	a7,s3,0x2
   15dfc:	01860613          	addi	a2,a2,24
   15e00:	00291e13          	slli	t3,s2,0x2
   15e04:	000106b7          	lui	a3,0x10
   15e08:	011588b3          	add	a7,a1,a7
   15e0c:	01c60e33          	add	t3,a2,t3
   15e10:	fff68693          	addi	a3,a3,-1 # ffff <_start-0xb1>
   15e14:	05c66063          	bltu	a2,t3,15e54 <__multiply+0xcc>
   15e18:	00805863          	blez	s0,15e28 <__multiply+0xa0>
   15e1c:	ffc30313          	addi	t1,t1,-4
   15e20:	00032783          	lw	a5,0(t1)
   15e24:	12078a63          	beqz	a5,15f58 <__multiply+0x1d0>
   15e28:	00852a23          	sw	s0,20(a0)
   15e2c:	03813083          	ld	ra,56(sp)
   15e30:	03013403          	ld	s0,48(sp)
   15e34:	02813483          	ld	s1,40(sp)
   15e38:	02013903          	ld	s2,32(sp)
   15e3c:	01813983          	ld	s3,24(sp)
   15e40:	04010113          	addi	sp,sp,64
   15e44:	00008067          	ret
   15e48:	0007a023          	sw	zero,0(a5)
   15e4c:	00478793          	addi	a5,a5,4
   15e50:	fa1ff06f          	j	15df0 <__multiply+0x68>
   15e54:	00062f83          	lw	t6,0(a2)
   15e58:	01f6ffb3          	and	t6,a3,t6
   15e5c:	060f8663          	beqz	t6,15ec8 <__multiply+0x140>
   15e60:	00080293          	mv	t0,a6
   15e64:	00058393          	mv	t2,a1
   15e68:	00000f13          	li	t5,0
   15e6c:	0003a703          	lw	a4,0(t2)
   15e70:	0002a483          	lw	s1,0(t0) # 10468 <memset+0xb4>
   15e74:	00438393          	addi	t2,t2,4
   15e78:	00d77eb3          	and	t4,a4,a3
   15e7c:	03fe8ebb          	mulw	t4,t4,t6
   15e80:	00d4f7b3          	and	a5,s1,a3
   15e84:	0104d49b          	srliw	s1,s1,0x10
   15e88:	00fe8ebb          	addw	t4,t4,a5
   15e8c:	0107579b          	srliw	a5,a4,0x10
   15e90:	03f787bb          	mulw	a5,a5,t6
   15e94:	01ee8ebb          	addw	t4,t4,t5
   15e98:	010ed71b          	srliw	a4,t4,0x10
   15e9c:	01d6feb3          	and	t4,a3,t4
   15ea0:	009787bb          	addw	a5,a5,s1
   15ea4:	00e787bb          	addw	a5,a5,a4
   15ea8:	0107df1b          	srliw	t5,a5,0x10
   15eac:	0107979b          	slliw	a5,a5,0x10
   15eb0:	00428713          	addi	a4,t0,4
   15eb4:	00fee7b3          	or	a5,t4,a5
   15eb8:	fef72e23          	sw	a5,-4(a4) # ffffffffbffffffc <__global_pointer$+0xffffffffbffdefcc>
   15ebc:	000f0f1b          	sext.w	t5,t5
   15ec0:	0913e463          	bltu	t2,a7,15f48 <__multiply+0x1c0>
   15ec4:	01e2a223          	sw	t5,4(t0)
   15ec8:	00265283          	lhu	t0,2(a2)
   15ecc:	06028863          	beqz	t0,15f3c <__multiply+0x1b4>
   15ed0:	00082e83          	lw	t4,0(a6)
   15ed4:	00080f13          	mv	t5,a6
   15ed8:	00058f93          	mv	t6,a1
   15edc:	00000793          	li	a5,0
   15ee0:	000fa703          	lw	a4,0(t6)
   15ee4:	002f5383          	lhu	t2,2(t5)
   15ee8:	00defeb3          	and	t4,t4,a3
   15eec:	00d77733          	and	a4,a4,a3
   15ef0:	0257073b          	mulw	a4,a4,t0
   15ef4:	004f8f93          	addi	t6,t6,4
   15ef8:	0077073b          	addw	a4,a4,t2
   15efc:	00f7073b          	addw	a4,a4,a5
   15f00:	0107179b          	slliw	a5,a4,0x10
   15f04:	00feeeb3          	or	t4,t4,a5
   15f08:	004f0393          	addi	t2,t5,4
   15f0c:	ffd3ae23          	sw	t4,-4(t2)
   15f10:	ffefd783          	lhu	a5,-2(t6)
   15f14:	004f2e83          	lw	t4,4(t5)
   15f18:	0107571b          	srliw	a4,a4,0x10
   15f1c:	025787bb          	mulw	a5,a5,t0
   15f20:	00defeb3          	and	t4,t4,a3
   15f24:	01d787bb          	addw	a5,a5,t4
   15f28:	00e78ebb          	addw	t4,a5,a4
   15f2c:	010ed79b          	srliw	a5,t4,0x10
   15f30:	0007879b          	sext.w	a5,a5
   15f34:	011fee63          	bltu	t6,a7,15f50 <__multiply+0x1c8>
   15f38:	01df2223          	sw	t4,4(t5)
   15f3c:	00460613          	addi	a2,a2,4
   15f40:	00480813          	addi	a6,a6,4
   15f44:	ed1ff06f          	j	15e14 <__multiply+0x8c>
   15f48:	00070293          	mv	t0,a4
   15f4c:	f21ff06f          	j	15e6c <__multiply+0xe4>
   15f50:	00038f13          	mv	t5,t2
   15f54:	f8dff06f          	j	15ee0 <__multiply+0x158>
   15f58:	fff4041b          	addiw	s0,s0,-1
   15f5c:	ebdff06f          	j	15e18 <__multiply+0x90>

0000000000015f60 <__pow5mult>:
   15f60:	fd010113          	addi	sp,sp,-48
   15f64:	00913c23          	sd	s1,24(sp)
   15f68:	01213823          	sd	s2,16(sp)
   15f6c:	01313423          	sd	s3,8(sp)
   15f70:	02113423          	sd	ra,40(sp)
   15f74:	02813023          	sd	s0,32(sp)
   15f78:	01413023          	sd	s4,0(sp)
   15f7c:	00367793          	andi	a5,a2,3
   15f80:	00050913          	mv	s2,a0
   15f84:	00060493          	mv	s1,a2
   15f88:	00058993          	mv	s3,a1
   15f8c:	02078463          	beqz	a5,15fb4 <__pow5mult+0x54>
   15f90:	fff7879b          	addiw	a5,a5,-1
   15f94:	0001e737          	lui	a4,0x1e
   15f98:	ee870713          	addi	a4,a4,-280 # 1dee8 <p05.3264>
   15f9c:	00279793          	slli	a5,a5,0x2
   15fa0:	00f707b3          	add	a5,a4,a5
   15fa4:	0007a603          	lw	a2,0(a5)
   15fa8:	00000693          	li	a3,0
   15fac:	a59ff0ef          	jal	ra,15a04 <__multadd>
   15fb0:	00050993          	mv	s3,a0
   15fb4:	4024d493          	srai	s1,s1,0x2
   15fb8:	08048063          	beqz	s1,16038 <__pow5mult+0xd8>
   15fbc:	07093403          	ld	s0,112(s2)
   15fc0:	00041e63          	bnez	s0,15fdc <__pow5mult+0x7c>
   15fc4:	27100593          	li	a1,625
   15fc8:	00090513          	mv	a0,s2
   15fcc:	d89ff0ef          	jal	ra,15d54 <__i2b>
   15fd0:	06a93823          	sd	a0,112(s2)
   15fd4:	00050413          	mv	s0,a0
   15fd8:	00053023          	sd	zero,0(a0)
   15fdc:	0014f793          	andi	a5,s1,1
   15fe0:	02078463          	beqz	a5,16008 <__pow5mult+0xa8>
   15fe4:	00098593          	mv	a1,s3
   15fe8:	00040613          	mv	a2,s0
   15fec:	00090513          	mv	a0,s2
   15ff0:	d99ff0ef          	jal	ra,15d88 <__multiply>
   15ff4:	00050a13          	mv	s4,a0
   15ff8:	00098593          	mv	a1,s3
   15ffc:	00090513          	mv	a0,s2
   16000:	9e1ff0ef          	jal	ra,159e0 <_Bfree>
   16004:	000a0993          	mv	s3,s4
   16008:	4014d493          	srai	s1,s1,0x1
   1600c:	02048663          	beqz	s1,16038 <__pow5mult+0xd8>
   16010:	00043503          	ld	a0,0(s0)
   16014:	00051e63          	bnez	a0,16030 <__pow5mult+0xd0>
   16018:	00040613          	mv	a2,s0
   1601c:	00040593          	mv	a1,s0
   16020:	00090513          	mv	a0,s2
   16024:	d65ff0ef          	jal	ra,15d88 <__multiply>
   16028:	00a43023          	sd	a0,0(s0)
   1602c:	00053023          	sd	zero,0(a0)
   16030:	00050413          	mv	s0,a0
   16034:	fa9ff06f          	j	15fdc <__pow5mult+0x7c>
   16038:	02813083          	ld	ra,40(sp)
   1603c:	02013403          	ld	s0,32(sp)
   16040:	00098513          	mv	a0,s3
   16044:	01813483          	ld	s1,24(sp)
   16048:	01013903          	ld	s2,16(sp)
   1604c:	00813983          	ld	s3,8(sp)
   16050:	00013a03          	ld	s4,0(sp)
   16054:	03010113          	addi	sp,sp,48
   16058:	00008067          	ret

000000000001605c <__lshift>:
   1605c:	fb010113          	addi	sp,sp,-80
   16060:	02913c23          	sd	s1,56(sp)
   16064:	00058493          	mv	s1,a1
   16068:	03313423          	sd	s3,40(sp)
   1606c:	0144a983          	lw	s3,20(s1)
   16070:	01613823          	sd	s6,16(sp)
   16074:	0085a583          	lw	a1,8(a1)
   16078:	40565b1b          	sraiw	s6,a2,0x5
   1607c:	00c4a783          	lw	a5,12(s1)
   16080:	016989bb          	addw	s3,s3,s6
   16084:	04813023          	sd	s0,64(sp)
   16088:	03213823          	sd	s2,48(sp)
   1608c:	01513c23          	sd	s5,24(sp)
   16090:	04113423          	sd	ra,72(sp)
   16094:	03413023          	sd	s4,32(sp)
   16098:	00050a93          	mv	s5,a0
   1609c:	000b0413          	mv	s0,s6
   160a0:	0019891b          	addiw	s2,s3,1
   160a4:	0d27c863          	blt	a5,s2,16174 <__lshift+0x118>
   160a8:	000a8513          	mv	a0,s5
   160ac:	00c13423          	sd	a2,8(sp)
   160b0:	889ff0ef          	jal	ra,15938 <_Balloc>
   160b4:	00813603          	ld	a2,8(sp)
   160b8:	01850793          	addi	a5,a0,24
   160bc:	00050a13          	mv	s4,a0
   160c0:	00078693          	mv	a3,a5
   160c4:	00000713          	li	a4,0
   160c8:	00468693          	addi	a3,a3,4
   160cc:	0b674a63          	blt	a4,s6,16180 <__lshift+0x124>
   160d0:	000b5463          	bgez	s6,160d8 <__lshift+0x7c>
   160d4:	00000413          	li	s0,0
   160d8:	0144a683          	lw	a3,20(s1)
   160dc:	00241413          	slli	s0,s0,0x2
   160e0:	00878433          	add	s0,a5,s0
   160e4:	00269693          	slli	a3,a3,0x2
   160e8:	01848793          	addi	a5,s1,24
   160ec:	01f67613          	andi	a2,a2,31
   160f0:	00d786b3          	add	a3,a5,a3
   160f4:	0a060063          	beqz	a2,16194 <__lshift+0x138>
   160f8:	02000593          	li	a1,32
   160fc:	40c585bb          	subw	a1,a1,a2
   16100:	00000713          	li	a4,0
   16104:	0007a503          	lw	a0,0(a5)
   16108:	00440813          	addi	a6,s0,4
   1610c:	00478793          	addi	a5,a5,4
   16110:	00c5153b          	sllw	a0,a0,a2
   16114:	00a76733          	or	a4,a4,a0
   16118:	fee82e23          	sw	a4,-4(a6)
   1611c:	ffc7a703          	lw	a4,-4(a5)
   16120:	00b7573b          	srlw	a4,a4,a1
   16124:	06d7e463          	bltu	a5,a3,1618c <__lshift+0x130>
   16128:	00e42223          	sw	a4,4(s0)
   1612c:	00070463          	beqz	a4,16134 <__lshift+0xd8>
   16130:	0029891b          	addiw	s2,s3,2
   16134:	fff9091b          	addiw	s2,s2,-1
   16138:	012a2a23          	sw	s2,20(s4)
   1613c:	000a8513          	mv	a0,s5
   16140:	00048593          	mv	a1,s1
   16144:	89dff0ef          	jal	ra,159e0 <_Bfree>
   16148:	04813083          	ld	ra,72(sp)
   1614c:	04013403          	ld	s0,64(sp)
   16150:	000a0513          	mv	a0,s4
   16154:	03813483          	ld	s1,56(sp)
   16158:	03013903          	ld	s2,48(sp)
   1615c:	02813983          	ld	s3,40(sp)
   16160:	02013a03          	ld	s4,32(sp)
   16164:	01813a83          	ld	s5,24(sp)
   16168:	01013b03          	ld	s6,16(sp)
   1616c:	05010113          	addi	sp,sp,80
   16170:	00008067          	ret
   16174:	0015859b          	addiw	a1,a1,1
   16178:	0017979b          	slliw	a5,a5,0x1
   1617c:	f29ff06f          	j	160a4 <__lshift+0x48>
   16180:	fe06ae23          	sw	zero,-4(a3)
   16184:	0017071b          	addiw	a4,a4,1
   16188:	f41ff06f          	j	160c8 <__lshift+0x6c>
   1618c:	00080413          	mv	s0,a6
   16190:	f75ff06f          	j	16104 <__lshift+0xa8>
   16194:	00478793          	addi	a5,a5,4
   16198:	ffc7a703          	lw	a4,-4(a5)
   1619c:	00440413          	addi	s0,s0,4
   161a0:	fee42e23          	sw	a4,-4(s0)
   161a4:	fed7e8e3          	bltu	a5,a3,16194 <__lshift+0x138>
   161a8:	f8dff06f          	j	16134 <__lshift+0xd8>

00000000000161ac <__mcmp>:
   161ac:	01452783          	lw	a5,20(a0)
   161b0:	0145a703          	lw	a4,20(a1)
   161b4:	40e787bb          	subw	a5,a5,a4
   161b8:	02079c63          	bnez	a5,161f0 <__mcmp+0x44>
   161bc:	00271713          	slli	a4,a4,0x2
   161c0:	01850513          	addi	a0,a0,24
   161c4:	01858593          	addi	a1,a1,24
   161c8:	00e506b3          	add	a3,a0,a4
   161cc:	00e585b3          	add	a1,a1,a4
   161d0:	ffc68693          	addi	a3,a3,-4
   161d4:	ffc58593          	addi	a1,a1,-4
   161d8:	0006a603          	lw	a2,0(a3)
   161dc:	0005a703          	lw	a4,0(a1)
   161e0:	00e60c63          	beq	a2,a4,161f8 <__mcmp+0x4c>
   161e4:	fff00793          	li	a5,-1
   161e8:	00e66463          	bltu	a2,a4,161f0 <__mcmp+0x44>
   161ec:	00100793          	li	a5,1
   161f0:	00078513          	mv	a0,a5
   161f4:	00008067          	ret
   161f8:	fcd56ce3          	bltu	a0,a3,161d0 <__mcmp+0x24>
   161fc:	ff5ff06f          	j	161f0 <__mcmp+0x44>

0000000000016200 <__mdiff>:
   16200:	fd010113          	addi	sp,sp,-48
   16204:	00913c23          	sd	s1,24(sp)
   16208:	00058493          	mv	s1,a1
   1620c:	01313423          	sd	s3,8(sp)
   16210:	00060593          	mv	a1,a2
   16214:	00050993          	mv	s3,a0
   16218:	00048513          	mv	a0,s1
   1621c:	02813023          	sd	s0,32(sp)
   16220:	02113423          	sd	ra,40(sp)
   16224:	01213823          	sd	s2,16(sp)
   16228:	00060413          	mv	s0,a2
   1622c:	f81ff0ef          	jal	ra,161ac <__mcmp>
   16230:	02051c63          	bnez	a0,16268 <__mdiff+0x68>
   16234:	00000593          	li	a1,0
   16238:	00098513          	mv	a0,s3
   1623c:	efcff0ef          	jal	ra,15938 <_Balloc>
   16240:	00100793          	li	a5,1
   16244:	00f52a23          	sw	a5,20(a0)
   16248:	00052c23          	sw	zero,24(a0)
   1624c:	02813083          	ld	ra,40(sp)
   16250:	02013403          	ld	s0,32(sp)
   16254:	01813483          	ld	s1,24(sp)
   16258:	01013903          	ld	s2,16(sp)
   1625c:	00813983          	ld	s3,8(sp)
   16260:	03010113          	addi	sp,sp,48
   16264:	00008067          	ret
   16268:	00100913          	li	s2,1
   1626c:	00054a63          	bltz	a0,16280 <__mdiff+0x80>
   16270:	00040793          	mv	a5,s0
   16274:	00000913          	li	s2,0
   16278:	00048413          	mv	s0,s1
   1627c:	00078493          	mv	s1,a5
   16280:	00842583          	lw	a1,8(s0)
   16284:	00098513          	mv	a0,s3
   16288:	eb0ff0ef          	jal	ra,15938 <_Balloc>
   1628c:	01442303          	lw	t1,20(s0)
   16290:	0144a883          	lw	a7,20(s1)
   16294:	01840613          	addi	a2,s0,24
   16298:	00231e13          	slli	t3,t1,0x2
   1629c:	01848813          	addi	a6,s1,24
   162a0:	00289893          	slli	a7,a7,0x2
   162a4:	00010f37          	lui	t5,0x10
   162a8:	01252823          	sw	s2,16(a0)
   162ac:	01c60e33          	add	t3,a2,t3
   162b0:	011808b3          	add	a7,a6,a7
   162b4:	01850693          	addi	a3,a0,24
   162b8:	00000f93          	li	t6,0
   162bc:	ffff0f13          	addi	t5,t5,-1 # ffff <_start-0xb1>
   162c0:	00062703          	lw	a4,0(a2)
   162c4:	00082783          	lw	a5,0(a6)
   162c8:	00468693          	addi	a3,a3,4
   162cc:	01e775b3          	and	a1,a4,t5
   162d0:	01f585bb          	addw	a1,a1,t6
   162d4:	01e7feb3          	and	t4,a5,t5
   162d8:	41d58ebb          	subw	t4,a1,t4
   162dc:	0107571b          	srliw	a4,a4,0x10
   162e0:	0107d79b          	srliw	a5,a5,0x10
   162e4:	40f707bb          	subw	a5,a4,a5
   162e8:	410ed59b          	sraiw	a1,t4,0x10
   162ec:	00b787bb          	addw	a5,a5,a1
   162f0:	4107df9b          	sraiw	t6,a5,0x10
   162f4:	01eef733          	and	a4,t4,t5
   162f8:	0107979b          	slliw	a5,a5,0x10
   162fc:	00f767b3          	or	a5,a4,a5
   16300:	00480813          	addi	a6,a6,4
   16304:	fef6ae23          	sw	a5,-4(a3)
   16308:	00460613          	addi	a2,a2,4
   1630c:	fb186ae3          	bltu	a6,a7,162c0 <__mdiff+0xc0>
   16310:	000108b7          	lui	a7,0x10
   16314:	fff88893          	addi	a7,a7,-1 # ffff <_start-0xb1>
   16318:	01c66c63          	bltu	a2,t3,16330 <__mdiff+0x130>
   1631c:	ffc68693          	addi	a3,a3,-4
   16320:	0006a783          	lw	a5,0(a3)
   16324:	04078263          	beqz	a5,16368 <__mdiff+0x168>
   16328:	00652a23          	sw	t1,20(a0)
   1632c:	f21ff06f          	j	1624c <__mdiff+0x4c>
   16330:	00062703          	lw	a4,0(a2)
   16334:	00468693          	addi	a3,a3,4
   16338:	00460613          	addi	a2,a2,4
   1633c:	011775b3          	and	a1,a4,a7
   16340:	01f5883b          	addw	a6,a1,t6
   16344:	0107571b          	srliw	a4,a4,0x10
   16348:	4108559b          	sraiw	a1,a6,0x10
   1634c:	00b707bb          	addw	a5,a4,a1
   16350:	4107df9b          	sraiw	t6,a5,0x10
   16354:	01187733          	and	a4,a6,a7
   16358:	0107979b          	slliw	a5,a5,0x10
   1635c:	00f767b3          	or	a5,a4,a5
   16360:	fef6ae23          	sw	a5,-4(a3)
   16364:	fb5ff06f          	j	16318 <__mdiff+0x118>
   16368:	fff3031b          	addiw	t1,t1,-1
   1636c:	fb1ff06f          	j	1631c <__mdiff+0x11c>

0000000000016370 <__ulp>:
   16370:	e20507d3          	fmv.x.d	a5,fa0
   16374:	7ff00737          	lui	a4,0x7ff00
   16378:	0207d793          	srli	a5,a5,0x20
   1637c:	00e7f733          	and	a4,a5,a4
   16380:	fcc007b7          	lui	a5,0xfcc00
   16384:	00e787bb          	addw	a5,a5,a4
   16388:	0007871b          	sext.w	a4,a5
   1638c:	00e05863          	blez	a4,1639c <__ulp+0x2c>
   16390:	02079713          	slli	a4,a5,0x20
   16394:	f2070553          	fmv.d.x	fa0,a4
   16398:	00008067          	ret
   1639c:	40f007bb          	negw	a5,a5
   163a0:	4147d79b          	sraiw	a5,a5,0x14
   163a4:	01300713          	li	a4,19
   163a8:	00f74863          	blt	a4,a5,163b8 <__ulp+0x48>
   163ac:	00080737          	lui	a4,0x80
   163b0:	40f757bb          	sraw	a5,a4,a5
   163b4:	fddff06f          	j	16390 <__ulp+0x20>
   163b8:	fec7879b          	addiw	a5,a5,-20
   163bc:	01e00613          	li	a2,30
   163c0:	00000713          	li	a4,0
   163c4:	00100693          	li	a3,1
   163c8:	00f64663          	blt	a2,a5,163d4 <__ulp+0x64>
   163cc:	fff7c793          	not	a5,a5
   163d0:	00f696bb          	sllw	a3,a3,a5
   163d4:	fff00793          	li	a5,-1
   163d8:	02069693          	slli	a3,a3,0x20
   163dc:	02079793          	slli	a5,a5,0x20
   163e0:	0206d693          	srli	a3,a3,0x20
   163e4:	00f777b3          	and	a5,a4,a5
   163e8:	00d7e733          	or	a4,a5,a3
   163ec:	fa9ff06f          	j	16394 <__ulp+0x24>

00000000000163f0 <__b2d>:
   163f0:	fc010113          	addi	sp,sp,-64
   163f4:	02913423          	sd	s1,40(sp)
   163f8:	01452483          	lw	s1,20(a0)
   163fc:	01313c23          	sd	s3,24(sp)
   16400:	01850993          	addi	s3,a0,24
   16404:	00249493          	slli	s1,s1,0x2
   16408:	009984b3          	add	s1,s3,s1
   1640c:	02813823          	sd	s0,48(sp)
   16410:	ffc4a403          	lw	s0,-4(s1)
   16414:	03213023          	sd	s2,32(sp)
   16418:	00b13423          	sd	a1,8(sp)
   1641c:	00040513          	mv	a0,s0
   16420:	02113c23          	sd	ra,56(sp)
   16424:	ff4ff0ef          	jal	ra,15c18 <__hi0bits>
   16428:	00813583          	ld	a1,8(sp)
   1642c:	02000793          	li	a5,32
   16430:	40a787bb          	subw	a5,a5,a0
   16434:	00f5a023          	sw	a5,0(a1)
   16438:	00a00793          	li	a5,10
   1643c:	ffc48913          	addi	s2,s1,-4
   16440:	06a7c863          	blt	a5,a0,164b0 <__b2d+0xc0>
   16444:	00b00693          	li	a3,11
   16448:	40a6863b          	subw	a2,a3,a0
   1644c:	00c4573b          	srlw	a4,s0,a2
   16450:	3ff007b7          	lui	a5,0x3ff00
   16454:	00f76733          	or	a4,a4,a5
   16458:	02071713          	slli	a4,a4,0x20
   1645c:	00000693          	li	a3,0
   16460:	0129f463          	bgeu	s3,s2,16468 <__b2d+0x78>
   16464:	ff84a683          	lw	a3,-8(s1)
   16468:	0155079b          	addiw	a5,a0,21
   1646c:	00f417bb          	sllw	a5,s0,a5
   16470:	00c6d6bb          	srlw	a3,a3,a2
   16474:	00d7e7b3          	or	a5,a5,a3
   16478:	fff00413          	li	s0,-1
   1647c:	02079793          	slli	a5,a5,0x20
   16480:	02041413          	slli	s0,s0,0x20
   16484:	0207d793          	srli	a5,a5,0x20
   16488:	00877433          	and	s0,a4,s0
   1648c:	00f46733          	or	a4,s0,a5
   16490:	03813083          	ld	ra,56(sp)
   16494:	03013403          	ld	s0,48(sp)
   16498:	02813483          	ld	s1,40(sp)
   1649c:	02013903          	ld	s2,32(sp)
   164a0:	01813983          	ld	s3,24(sp)
   164a4:	f2070553          	fmv.d.x	fa0,a4
   164a8:	04010113          	addi	sp,sp,64
   164ac:	00008067          	ret
   164b0:	00000693          	li	a3,0
   164b4:	0129f663          	bgeu	s3,s2,164c0 <__b2d+0xd0>
   164b8:	ff84a683          	lw	a3,-8(s1)
   164bc:	ff848913          	addi	s2,s1,-8
   164c0:	ff55079b          	addiw	a5,a0,-11
   164c4:	00078513          	mv	a0,a5
   164c8:	04078c63          	beqz	a5,16520 <__b2d+0x130>
   164cc:	02000793          	li	a5,32
   164d0:	40a7863b          	subw	a2,a5,a0
   164d4:	00a4143b          	sllw	s0,s0,a0
   164d8:	3ff007b7          	lui	a5,0x3ff00
   164dc:	00f46433          	or	s0,s0,a5
   164e0:	00c6d7bb          	srlw	a5,a3,a2
   164e4:	00f46433          	or	s0,s0,a5
   164e8:	02041713          	slli	a4,s0,0x20
   164ec:	00000793          	li	a5,0
   164f0:	0129f463          	bgeu	s3,s2,164f8 <__b2d+0x108>
   164f4:	ffc92783          	lw	a5,-4(s2)
   164f8:	00a696bb          	sllw	a3,a3,a0
   164fc:	00c7d7bb          	srlw	a5,a5,a2
   16500:	00f6e6b3          	or	a3,a3,a5
   16504:	fff00413          	li	s0,-1
   16508:	02069693          	slli	a3,a3,0x20
   1650c:	02041413          	slli	s0,s0,0x20
   16510:	0206d693          	srli	a3,a3,0x20
   16514:	00877433          	and	s0,a4,s0
   16518:	00d46733          	or	a4,s0,a3
   1651c:	f75ff06f          	j	16490 <__b2d+0xa0>
   16520:	3ff007b7          	lui	a5,0x3ff00
   16524:	02069713          	slli	a4,a3,0x20
   16528:	00f46433          	or	s0,s0,a5
   1652c:	02075713          	srli	a4,a4,0x20
   16530:	02041413          	slli	s0,s0,0x20
   16534:	00e46733          	or	a4,s0,a4
   16538:	f59ff06f          	j	16490 <__b2d+0xa0>

000000000001653c <__d2b>:
   1653c:	fc010113          	addi	sp,sp,-64
   16540:	02813823          	sd	s0,48(sp)
   16544:	01413823          	sd	s4,16(sp)
   16548:	e2050453          	fmv.x.d	s0,fa0
   1654c:	00058a13          	mv	s4,a1
   16550:	00100593          	li	a1,1
   16554:	02913423          	sd	s1,40(sp)
   16558:	03213023          	sd	s2,32(sp)
   1655c:	01313c23          	sd	s3,24(sp)
   16560:	02113c23          	sd	ra,56(sp)
   16564:	00060913          	mv	s2,a2
   16568:	bd0ff0ef          	jal	ra,15938 <_Balloc>
   1656c:	001007b7          	lui	a5,0x100
   16570:	42045493          	srai	s1,s0,0x20
   16574:	fff78793          	addi	a5,a5,-1 # fffff <__global_pointer$+0xdefcf>
   16578:	00f4f7b3          	and	a5,s1,a5
   1657c:	0144d49b          	srliw	s1,s1,0x14
   16580:	7ff4f493          	andi	s1,s1,2047
   16584:	00050993          	mv	s3,a0
   16588:	08049c63          	bnez	s1,16620 <__d2b+0xe4>
   1658c:	00f12623          	sw	a5,12(sp)
   16590:	0004041b          	sext.w	s0,s0
   16594:	0a040063          	beqz	s0,16634 <__d2b+0xf8>
   16598:	00810513          	addi	a0,sp,8
   1659c:	00812423          	sw	s0,8(sp)
   165a0:	eecff0ef          	jal	ra,15c8c <__lo0bits>
   165a4:	00812683          	lw	a3,8(sp)
   165a8:	08050263          	beqz	a0,1662c <__d2b+0xf0>
   165ac:	00c12703          	lw	a4,12(sp)
   165b0:	02000793          	li	a5,32
   165b4:	40a787bb          	subw	a5,a5,a0
   165b8:	00f717bb          	sllw	a5,a4,a5
   165bc:	00d7e7b3          	or	a5,a5,a3
   165c0:	00a7573b          	srlw	a4,a4,a0
   165c4:	00f9ac23          	sw	a5,24(s3)
   165c8:	00e12623          	sw	a4,12(sp)
   165cc:	00c12403          	lw	s0,12(sp)
   165d0:	0089ae23          	sw	s0,28(s3)
   165d4:	00803433          	snez	s0,s0
   165d8:	00140413          	addi	s0,s0,1
   165dc:	0089aa23          	sw	s0,20(s3)
   165e0:	06048c63          	beqz	s1,16658 <__d2b+0x11c>
   165e4:	bcd4849b          	addiw	s1,s1,-1075
   165e8:	00a484bb          	addw	s1,s1,a0
   165ec:	03500793          	li	a5,53
   165f0:	009a2023          	sw	s1,0(s4)
   165f4:	40a7853b          	subw	a0,a5,a0
   165f8:	00a92023          	sw	a0,0(s2)
   165fc:	03813083          	ld	ra,56(sp)
   16600:	03013403          	ld	s0,48(sp)
   16604:	00098513          	mv	a0,s3
   16608:	02813483          	ld	s1,40(sp)
   1660c:	02013903          	ld	s2,32(sp)
   16610:	01813983          	ld	s3,24(sp)
   16614:	01013a03          	ld	s4,16(sp)
   16618:	04010113          	addi	sp,sp,64
   1661c:	00008067          	ret
   16620:	00100737          	lui	a4,0x100
   16624:	00e7e7b3          	or	a5,a5,a4
   16628:	f65ff06f          	j	1658c <__d2b+0x50>
   1662c:	00d9ac23          	sw	a3,24(s3)
   16630:	f9dff06f          	j	165cc <__d2b+0x90>
   16634:	00c10513          	addi	a0,sp,12
   16638:	e54ff0ef          	jal	ra,15c8c <__lo0bits>
   1663c:	00c12783          	lw	a5,12(sp)
   16640:	0205051b          	addiw	a0,a0,32
   16644:	00100413          	li	s0,1
   16648:	00f9ac23          	sw	a5,24(s3)
   1664c:	00100793          	li	a5,1
   16650:	00f9aa23          	sw	a5,20(s3)
   16654:	f8dff06f          	j	165e0 <__d2b+0xa4>
   16658:	bce5051b          	addiw	a0,a0,-1074
   1665c:	00241793          	slli	a5,s0,0x2
   16660:	00aa2023          	sw	a0,0(s4)
   16664:	00f987b3          	add	a5,s3,a5
   16668:	0147a503          	lw	a0,20(a5)
   1666c:	0054141b          	slliw	s0,s0,0x5
   16670:	da8ff0ef          	jal	ra,15c18 <__hi0bits>
   16674:	40a4043b          	subw	s0,s0,a0
   16678:	00892023          	sw	s0,0(s2)
   1667c:	f81ff06f          	j	165fc <__d2b+0xc0>

0000000000016680 <__ratio>:
   16680:	fc010113          	addi	sp,sp,-64
   16684:	03213023          	sd	s2,32(sp)
   16688:	00058913          	mv	s2,a1
   1668c:	00810593          	addi	a1,sp,8
   16690:	02113c23          	sd	ra,56(sp)
   16694:	02913423          	sd	s1,40(sp)
   16698:	01313c23          	sd	s3,24(sp)
   1669c:	02813823          	sd	s0,48(sp)
   166a0:	00050993          	mv	s3,a0
   166a4:	d4dff0ef          	jal	ra,163f0 <__b2d>
   166a8:	00c10593          	addi	a1,sp,12
   166ac:	00090513          	mv	a0,s2
   166b0:	e20504d3          	fmv.x.d	s1,fa0
   166b4:	d3dff0ef          	jal	ra,163f0 <__b2d>
   166b8:	01492683          	lw	a3,20(s2)
   166bc:	0149a783          	lw	a5,20(s3)
   166c0:	00c12583          	lw	a1,12(sp)
   166c4:	e2050653          	fmv.x.d	a2,fa0
   166c8:	40d787bb          	subw	a5,a5,a3
   166cc:	00812683          	lw	a3,8(sp)
   166d0:	0057979b          	slliw	a5,a5,0x5
   166d4:	40b686bb          	subw	a3,a3,a1
   166d8:	00d786bb          	addw	a3,a5,a3
   166dc:	00068793          	mv	a5,a3
   166e0:	04d05863          	blez	a3,16730 <__ratio+0xb0>
   166e4:	0146979b          	slliw	a5,a3,0x14
   166e8:	fff00413          	li	s0,-1
   166ec:	0204d693          	srli	a3,s1,0x20
   166f0:	00d787bb          	addw	a5,a5,a3
   166f4:	02045413          	srli	s0,s0,0x20
   166f8:	02079793          	slli	a5,a5,0x20
   166fc:	00947433          	and	s0,s0,s1
   16700:	00060713          	mv	a4,a2
   16704:	00f46433          	or	s0,s0,a5
   16708:	f20407d3          	fmv.d.x	fa5,s0
   1670c:	03813083          	ld	ra,56(sp)
   16710:	03013403          	ld	s0,48(sp)
   16714:	f2070753          	fmv.d.x	fa4,a4
   16718:	02813483          	ld	s1,40(sp)
   1671c:	02013903          	ld	s2,32(sp)
   16720:	01813983          	ld	s3,24(sp)
   16724:	1ae7f553          	fdiv.d	fa0,fa5,fa4
   16728:	04010113          	addi	sp,sp,64
   1672c:	00008067          	ret
   16730:	fff006b7          	lui	a3,0xfff00
   16734:	02f687bb          	mulw	a5,a3,a5
   16738:	02065713          	srli	a4,a2,0x20
   1673c:	00048413          	mv	s0,s1
   16740:	00e787bb          	addw	a5,a5,a4
   16744:	fff00713          	li	a4,-1
   16748:	02075713          	srli	a4,a4,0x20
   1674c:	02079793          	slli	a5,a5,0x20
   16750:	00c77733          	and	a4,a4,a2
   16754:	00f76733          	or	a4,a4,a5
   16758:	fb1ff06f          	j	16708 <__ratio+0x88>

000000000001675c <_mprec_log10>:
   1675c:	01700793          	li	a5,23
   16760:	00a7ce63          	blt	a5,a0,1677c <_mprec_log10+0x20>
   16764:	0001e7b7          	lui	a5,0x1e
   16768:	ee878793          	addi	a5,a5,-280 # 1dee8 <p05.3264>
   1676c:	00351513          	slli	a0,a0,0x3
   16770:	00a78533          	add	a0,a5,a0
   16774:	01053507          	fld	fa0,16(a0)
   16778:	00008067          	ret
   1677c:	000217b7          	lui	a5,0x21
   16780:	8307b507          	fld	fa0,-2000(a5) # 20830 <__TMC_END__>
   16784:	000217b7          	lui	a5,0x21
   16788:	8387b787          	fld	fa5,-1992(a5) # 20838 <__TMC_END__+0x8>
   1678c:	fff5051b          	addiw	a0,a0,-1
   16790:	12f57553          	fmul.d	fa0,fa0,fa5
   16794:	fe051ce3          	bnez	a0,1678c <_mprec_log10+0x30>
   16798:	00008067          	ret

000000000001679c <__copybits>:
   1679c:	fff5879b          	addiw	a5,a1,-1
   167a0:	01462703          	lw	a4,20(a2)
   167a4:	4057d79b          	sraiw	a5,a5,0x5
   167a8:	00178793          	addi	a5,a5,1
   167ac:	00279793          	slli	a5,a5,0x2
   167b0:	01860693          	addi	a3,a2,24
   167b4:	00271713          	slli	a4,a4,0x2
   167b8:	00f507b3          	add	a5,a0,a5
   167bc:	00e68733          	add	a4,a3,a4
   167c0:	00e6e663          	bltu	a3,a4,167cc <__copybits+0x30>
   167c4:	00f56e63          	bltu	a0,a5,167e0 <__copybits+0x44>
   167c8:	00008067          	ret
   167cc:	00468693          	addi	a3,a3,4 # fffffffffff00004 <__global_pointer$+0xffffffffffedefd4>
   167d0:	ffc6a603          	lw	a2,-4(a3)
   167d4:	00450513          	addi	a0,a0,4
   167d8:	fec52e23          	sw	a2,-4(a0)
   167dc:	fe5ff06f          	j	167c0 <__copybits+0x24>
   167e0:	00450513          	addi	a0,a0,4
   167e4:	fe052e23          	sw	zero,-4(a0)
   167e8:	fddff06f          	j	167c4 <__copybits+0x28>

00000000000167ec <__any_on>:
   167ec:	01452683          	lw	a3,20(a0)
   167f0:	4055d793          	srai	a5,a1,0x5
   167f4:	01850713          	addi	a4,a0,24
   167f8:	04f6c063          	blt	a3,a5,16838 <__any_on+0x4c>
   167fc:	02d7d463          	bge	a5,a3,16824 <__any_on+0x38>
   16800:	01f5f593          	andi	a1,a1,31
   16804:	02058063          	beqz	a1,16824 <__any_on+0x38>
   16808:	00279693          	slli	a3,a5,0x2
   1680c:	00d706b3          	add	a3,a4,a3
   16810:	0006a603          	lw	a2,0(a3)
   16814:	00100513          	li	a0,1
   16818:	00b656bb          	srlw	a3,a2,a1
   1681c:	00b695bb          	sllw	a1,a3,a1
   16820:	02c59863          	bne	a1,a2,16850 <__any_on+0x64>
   16824:	00279793          	slli	a5,a5,0x2
   16828:	00f707b3          	add	a5,a4,a5
   1682c:	00f76a63          	bltu	a4,a5,16840 <__any_on+0x54>
   16830:	00000513          	li	a0,0
   16834:	00008067          	ret
   16838:	00068793          	mv	a5,a3
   1683c:	fe9ff06f          	j	16824 <__any_on+0x38>
   16840:	ffc78793          	addi	a5,a5,-4
   16844:	0007a683          	lw	a3,0(a5)
   16848:	fe0682e3          	beqz	a3,1682c <__any_on+0x40>
   1684c:	00100513          	li	a0,1
   16850:	00008067          	ret

0000000000016854 <frexp>:
   16854:	e20507d3          	fmv.x.d	a5,fa0
   16858:	80000637          	lui	a2,0x80000
   1685c:	fff64613          	not	a2,a2
   16860:	4207d713          	srai	a4,a5,0x20
   16864:	00c776b3          	and	a3,a4,a2
   16868:	00052023          	sw	zero,0(a0)
   1686c:	7ff005b7          	lui	a1,0x7ff00
   16870:	06b6da63          	bge	a3,a1,168e4 <frexp+0x90>
   16874:	00f6e5b3          	or	a1,a3,a5
   16878:	0005859b          	sext.w	a1,a1
   1687c:	06058463          	beqz	a1,168e4 <frexp+0x90>
   16880:	001005b7          	lui	a1,0x100
   16884:	02b6d263          	bge	a3,a1,168a8 <frexp+0x54>
   16888:	00021737          	lui	a4,0x21
   1688c:	84073787          	fld	fa5,-1984(a4) # 20840 <__TMC_END__+0x10>
   16890:	12f577d3          	fmul.d	fa5,fa0,fa5
   16894:	e20787d3          	fmv.x.d	a5,fa5
   16898:	4207d713          	srai	a4,a5,0x20
   1689c:	00c776b3          	and	a3,a4,a2
   168a0:	fca00613          	li	a2,-54
   168a4:	00c52023          	sw	a2,0(a0)
   168a8:	00052603          	lw	a2,0(a0)
   168ac:	4146d69b          	sraiw	a3,a3,0x14
   168b0:	c026869b          	addiw	a3,a3,-1022
   168b4:	00d606bb          	addw	a3,a2,a3
   168b8:	00d52023          	sw	a3,0(a0)
   168bc:	801006b7          	lui	a3,0x80100
   168c0:	fff68693          	addi	a3,a3,-1 # ffffffff800fffff <__global_pointer$+0xffffffff800defcf>
   168c4:	00d77733          	and	a4,a4,a3
   168c8:	3fe006b7          	lui	a3,0x3fe00
   168cc:	00d76733          	or	a4,a4,a3
   168d0:	fff00693          	li	a3,-1
   168d4:	0206d693          	srli	a3,a3,0x20
   168d8:	02071713          	slli	a4,a4,0x20
   168dc:	00f6f7b3          	and	a5,a3,a5
   168e0:	00e7e7b3          	or	a5,a5,a4
   168e4:	f2078553          	fmv.d.x	fa0,a5
   168e8:	00008067          	ret

00000000000168ec <_sbrk_r>:
   168ec:	fe010113          	addi	sp,sp,-32
   168f0:	00813823          	sd	s0,16(sp)
   168f4:	00913423          	sd	s1,8(sp)
   168f8:	00050493          	mv	s1,a0
   168fc:	00058513          	mv	a0,a1
   16900:	00113c23          	sd	ra,24(sp)
   16904:	8c01a823          	sw	zero,-1840(gp) # 20900 <errno>
   16908:	2f4050ef          	jal	ra,1bbfc <_sbrk>
   1690c:	fff00793          	li	a5,-1
   16910:	00f51863          	bne	a0,a5,16920 <_sbrk_r+0x34>
   16914:	8d01a783          	lw	a5,-1840(gp) # 20900 <errno>
   16918:	00078463          	beqz	a5,16920 <_sbrk_r+0x34>
   1691c:	00f4a023          	sw	a5,0(s1)
   16920:	01813083          	ld	ra,24(sp)
   16924:	01013403          	ld	s0,16(sp)
   16928:	00813483          	ld	s1,8(sp)
   1692c:	02010113          	addi	sp,sp,32
   16930:	00008067          	ret

0000000000016934 <_sprintf_r>:
   16934:	f0010113          	addi	sp,sp,-256
   16938:	0ef13423          	sd	a5,232(sp)
   1693c:	800007b7          	lui	a5,0x80000
   16940:	fff7c793          	not	a5,a5
   16944:	02f12823          	sw	a5,48(sp)
   16948:	00f12e23          	sw	a5,28(sp)
   1694c:	ffff07b7          	lui	a5,0xffff0
   16950:	0cd13c23          	sd	a3,216(sp)
   16954:	00b13823          	sd	a1,16(sp)
   16958:	02b13423          	sd	a1,40(sp)
   1695c:	2087879b          	addiw	a5,a5,520
   16960:	0d810693          	addi	a3,sp,216
   16964:	01010593          	addi	a1,sp,16
   16968:	0c113423          	sd	ra,200(sp)
   1696c:	02f12023          	sw	a5,32(sp)
   16970:	0ee13023          	sd	a4,224(sp)
   16974:	0f013823          	sd	a6,240(sp)
   16978:	0f113c23          	sd	a7,248(sp)
   1697c:	00d13423          	sd	a3,8(sp)
   16980:	244000ef          	jal	ra,16bc4 <_svfprintf_r>
   16984:	01013783          	ld	a5,16(sp)
   16988:	00078023          	sb	zero,0(a5) # ffffffffffff0000 <__global_pointer$+0xfffffffffffcefd0>
   1698c:	0c813083          	ld	ra,200(sp)
   16990:	10010113          	addi	sp,sp,256
   16994:	00008067          	ret

0000000000016998 <sprintf>:
   16998:	f0010113          	addi	sp,sp,-256
   1699c:	0ef13423          	sd	a5,232(sp)
   169a0:	800007b7          	lui	a5,0x80000
   169a4:	fff7c793          	not	a5,a5
   169a8:	02f12823          	sw	a5,48(sp)
   169ac:	00f12e23          	sw	a5,28(sp)
   169b0:	ffff07b7          	lui	a5,0xffff0
   169b4:	2087879b          	addiw	a5,a5,520
   169b8:	02f12023          	sw	a5,32(sp)
   169bc:	00a13823          	sd	a0,16(sp)
   169c0:	02a13423          	sd	a0,40(sp)
   169c4:	8301b503          	ld	a0,-2000(gp) # 20860 <_impure_ptr>
   169c8:	0cc13823          	sd	a2,208(sp)
   169cc:	0cd13c23          	sd	a3,216(sp)
   169d0:	00058613          	mv	a2,a1
   169d4:	0d010693          	addi	a3,sp,208
   169d8:	01010593          	addi	a1,sp,16
   169dc:	0c113423          	sd	ra,200(sp)
   169e0:	0ee13023          	sd	a4,224(sp)
   169e4:	0f013823          	sd	a6,240(sp)
   169e8:	0f113c23          	sd	a7,248(sp)
   169ec:	00d13423          	sd	a3,8(sp)
   169f0:	1d4000ef          	jal	ra,16bc4 <_svfprintf_r>
   169f4:	01013783          	ld	a5,16(sp)
   169f8:	00078023          	sb	zero,0(a5) # ffffffffffff0000 <__global_pointer$+0xfffffffffffcefd0>
   169fc:	0c813083          	ld	ra,200(sp)
   16a00:	10010113          	addi	sp,sp,256
   16a04:	00008067          	ret

0000000000016a08 <__sread>:
   16a08:	ff010113          	addi	sp,sp,-16
   16a0c:	00813023          	sd	s0,0(sp)
   16a10:	00058413          	mv	s0,a1
   16a14:	01259583          	lh	a1,18(a1) # 100012 <__global_pointer$+0xdefe2>
   16a18:	00113423          	sd	ra,8(sp)
   16a1c:	055030ef          	jal	ra,1a270 <_read_r>
   16a20:	02054063          	bltz	a0,16a40 <__sread+0x38>
   16a24:	09043783          	ld	a5,144(s0)
   16a28:	00a787b3          	add	a5,a5,a0
   16a2c:	08f43823          	sd	a5,144(s0)
   16a30:	00813083          	ld	ra,8(sp)
   16a34:	00013403          	ld	s0,0(sp)
   16a38:	01010113          	addi	sp,sp,16
   16a3c:	00008067          	ret
   16a40:	01045783          	lhu	a5,16(s0)
   16a44:	fffff737          	lui	a4,0xfffff
   16a48:	fff70713          	addi	a4,a4,-1 # ffffffffffffefff <__global_pointer$+0xfffffffffffddfcf>
   16a4c:	00e7f7b3          	and	a5,a5,a4
   16a50:	00f41823          	sh	a5,16(s0)
   16a54:	fddff06f          	j	16a30 <__sread+0x28>

0000000000016a58 <__seofread>:
   16a58:	00000513          	li	a0,0
   16a5c:	00008067          	ret

0000000000016a60 <__swrite>:
   16a60:	0105d783          	lhu	a5,16(a1)
   16a64:	fd010113          	addi	sp,sp,-48
   16a68:	02813023          	sd	s0,32(sp)
   16a6c:	00913c23          	sd	s1,24(sp)
   16a70:	01213823          	sd	s2,16(sp)
   16a74:	01313423          	sd	s3,8(sp)
   16a78:	02113423          	sd	ra,40(sp)
   16a7c:	1007f793          	andi	a5,a5,256
   16a80:	00050493          	mv	s1,a0
   16a84:	00058413          	mv	s0,a1
   16a88:	00060913          	mv	s2,a2
   16a8c:	00068993          	mv	s3,a3
   16a90:	00078a63          	beqz	a5,16aa4 <__swrite+0x44>
   16a94:	01259583          	lh	a1,18(a1)
   16a98:	00200693          	li	a3,2
   16a9c:	00000613          	li	a2,0
   16aa0:	5cc030ef          	jal	ra,1a06c <_lseek_r>
   16aa4:	01045783          	lhu	a5,16(s0)
   16aa8:	fffff737          	lui	a4,0xfffff
   16aac:	fff70713          	addi	a4,a4,-1 # ffffffffffffefff <__global_pointer$+0xfffffffffffddfcf>
   16ab0:	00e7f7b3          	and	a5,a5,a4
   16ab4:	00f41823          	sh	a5,16(s0)
   16ab8:	01241583          	lh	a1,18(s0)
   16abc:	02013403          	ld	s0,32(sp)
   16ac0:	02813083          	ld	ra,40(sp)
   16ac4:	00098693          	mv	a3,s3
   16ac8:	00090613          	mv	a2,s2
   16acc:	00813983          	ld	s3,8(sp)
   16ad0:	01013903          	ld	s2,16(sp)
   16ad4:	00048513          	mv	a0,s1
   16ad8:	01813483          	ld	s1,24(sp)
   16adc:	03010113          	addi	sp,sp,48
   16ae0:	4190206f          	j	196f8 <_write_r>

0000000000016ae4 <__sseek>:
   16ae4:	ff010113          	addi	sp,sp,-16
   16ae8:	00813023          	sd	s0,0(sp)
   16aec:	00058413          	mv	s0,a1
   16af0:	01259583          	lh	a1,18(a1)
   16af4:	00113423          	sd	ra,8(sp)
   16af8:	574030ef          	jal	ra,1a06c <_lseek_r>
   16afc:	fff00793          	li	a5,-1
   16b00:	01045703          	lhu	a4,16(s0)
   16b04:	02f51263          	bne	a0,a5,16b28 <__sseek+0x44>
   16b08:	fffff7b7          	lui	a5,0xfffff
   16b0c:	fff78793          	addi	a5,a5,-1 # ffffffffffffefff <__global_pointer$+0xfffffffffffddfcf>
   16b10:	00e7f7b3          	and	a5,a5,a4
   16b14:	00f41823          	sh	a5,16(s0)
   16b18:	00813083          	ld	ra,8(sp)
   16b1c:	00013403          	ld	s0,0(sp)
   16b20:	01010113          	addi	sp,sp,16
   16b24:	00008067          	ret
   16b28:	000017b7          	lui	a5,0x1
   16b2c:	00f767b3          	or	a5,a4,a5
   16b30:	00f41823          	sh	a5,16(s0)
   16b34:	08a43823          	sd	a0,144(s0)
   16b38:	fe1ff06f          	j	16b18 <__sseek+0x34>

0000000000016b3c <__sclose>:
   16b3c:	01259583          	lh	a1,18(a1)
   16b40:	4a50206f          	j	197e4 <_close_r>

0000000000016b44 <strcpy>:
   16b44:	00050793          	mv	a5,a0
   16b48:	0005c703          	lbu	a4,0(a1)
   16b4c:	00178793          	addi	a5,a5,1 # 1001 <_start-0xf0af>
   16b50:	00158593          	addi	a1,a1,1
   16b54:	fee78fa3          	sb	a4,-1(a5)
   16b58:	fe0718e3          	bnez	a4,16b48 <strcpy+0x4>
   16b5c:	00008067          	ret

0000000000016b60 <strlen>:
   16b60:	00050793          	mv	a5,a0
   16b64:	00178793          	addi	a5,a5,1
   16b68:	fff7c703          	lbu	a4,-1(a5)
   16b6c:	fe071ce3          	bnez	a4,16b64 <strlen+0x4>
   16b70:	40a78533          	sub	a0,a5,a0
   16b74:	fff50513          	addi	a0,a0,-1
   16b78:	00008067          	ret

0000000000016b7c <strncpy>:
   16b7c:	00050713          	mv	a4,a0
   16b80:	00061463          	bnez	a2,16b88 <strncpy+0xc>
   16b84:	00008067          	ret
   16b88:	00158593          	addi	a1,a1,1
   16b8c:	fff5c683          	lbu	a3,-1(a1)
   16b90:	00170793          	addi	a5,a4,1
   16b94:	fff60813          	addi	a6,a2,-1 # ffffffff7fffffff <__global_pointer$+0xffffffff7ffdefcf>
   16b98:	fed78fa3          	sb	a3,-1(a5)
   16b9c:	00069863          	bnez	a3,16bac <strncpy+0x30>
   16ba0:	00c70733          	add	a4,a4,a2
   16ba4:	00e79a63          	bne	a5,a4,16bb8 <strncpy+0x3c>
   16ba8:	00008067          	ret
   16bac:	00078713          	mv	a4,a5
   16bb0:	00080613          	mv	a2,a6
   16bb4:	fcdff06f          	j	16b80 <strncpy+0x4>
   16bb8:	00178793          	addi	a5,a5,1
   16bbc:	fe078fa3          	sb	zero,-1(a5)
   16bc0:	fe5ff06f          	j	16ba4 <strncpy+0x28>

0000000000016bc4 <_svfprintf_r>:
   16bc4:	d9010113          	addi	sp,sp,-624
   16bc8:	26113423          	sd	ra,616(sp)
   16bcc:	24913c23          	sd	s1,600(sp)
   16bd0:	25213823          	sd	s2,592(sp)
   16bd4:	25313423          	sd	s3,584(sp)
   16bd8:	23713423          	sd	s7,552(sp)
   16bdc:	00058993          	mv	s3,a1
   16be0:	00060493          	mv	s1,a2
   16be4:	00068b93          	mv	s7,a3
   16be8:	26813023          	sd	s0,608(sp)
   16bec:	25413023          	sd	s4,576(sp)
   16bf0:	23513c23          	sd	s5,568(sp)
   16bf4:	23613823          	sd	s6,560(sp)
   16bf8:	23813023          	sd	s8,544(sp)
   16bfc:	21913c23          	sd	s9,536(sp)
   16c00:	21a13823          	sd	s10,528(sp)
   16c04:	21b13423          	sd	s11,520(sp)
   16c08:	00050913          	mv	s2,a0
   16c0c:	c98fe0ef          	jal	ra,150a4 <_localeconv_r>
   16c10:	00053783          	ld	a5,0(a0)
   16c14:	00078513          	mv	a0,a5
   16c18:	04f13423          	sd	a5,72(sp)
   16c1c:	f45ff0ef          	jal	ra,16b60 <strlen>
   16c20:	0109d783          	lhu	a5,16(s3)
   16c24:	00a13c23          	sd	a0,24(sp)
   16c28:	0e013823          	sd	zero,240(sp)
   16c2c:	0e013c23          	sd	zero,248(sp)
   16c30:	0807f793          	andi	a5,a5,128
   16c34:	04078063          	beqz	a5,16c74 <_svfprintf_r+0xb0>
   16c38:	0189b783          	ld	a5,24(s3)
   16c3c:	02079c63          	bnez	a5,16c74 <_svfprintf_r+0xb0>
   16c40:	04000593          	li	a1,64
   16c44:	00090513          	mv	a0,s2
   16c48:	e20fe0ef          	jal	ra,15268 <_malloc_r>
   16c4c:	00a9b023          	sd	a0,0(s3)
   16c50:	00a9bc23          	sd	a0,24(s3)
   16c54:	00051c63          	bnez	a0,16c6c <_svfprintf_r+0xa8>
   16c58:	00c00793          	li	a5,12
   16c5c:	00f92023          	sw	a5,0(s2)
   16c60:	fff00793          	li	a5,-1
   16c64:	02f13423          	sd	a5,40(sp)
   16c68:	7ec0006f          	j	17454 <_svfprintf_r+0x890>
   16c6c:	04000793          	li	a5,64
   16c70:	02f9a023          	sw	a5,32(s3)
   16c74:	0001e7b7          	lui	a5,0x1e
   16c78:	01078793          	addi	a5,a5,16 # 1e010 <__mprec_bigtens+0x28>
   16c7c:	08f13c23          	sd	a5,152(sp)
   16c80:	0001e7b7          	lui	a5,0x1e
   16c84:	bc87b783          	ld	a5,-1080(a5) # 1dbc8 <zeroes.4441+0x20>
   16c88:	18010a93          	addi	s5,sp,384
   16c8c:	11513023          	sd	s5,256(sp)
   16c90:	0af13023          	sd	a5,160(sp)
   16c94:	0001e7b7          	lui	a5,0x1e
   16c98:	bd87b783          	ld	a5,-1064(a5) # 1dbd8 <zeroes.4441+0x30>
   16c9c:	10013823          	sd	zero,272(sp)
   16ca0:	10012423          	sw	zero,264(sp)
   16ca4:	0af13423          	sd	a5,168(sp)
   16ca8:	0001e7b7          	lui	a5,0x1e
   16cac:	be87b783          	ld	a5,-1048(a5) # 1dbe8 <zeroes.4441+0x40>
   16cb0:	00000a13          	li	s4,0
   16cb4:	000a8c93          	mv	s9,s5
   16cb8:	06013023          	sd	zero,96(sp)
   16cbc:	04013c23          	sd	zero,88(sp)
   16cc0:	00013023          	sd	zero,0(sp)
   16cc4:	04013023          	sd	zero,64(sp)
   16cc8:	04013823          	sd	zero,80(sp)
   16ccc:	02013423          	sd	zero,40(sp)
   16cd0:	08f13823          	sd	a5,144(sp)
   16cd4:	00048413          	mv	s0,s1
   16cd8:	02500713          	li	a4,37
   16cdc:	00044783          	lbu	a5,0(s0)
   16ce0:	00078463          	beqz	a5,16ce8 <_svfprintf_r+0x124>
   16ce4:	0ce79063          	bne	a5,a4,16da4 <_svfprintf_r+0x1e0>
   16ce8:	40940b3b          	subw	s6,s0,s1
   16cec:	040b0a63          	beqz	s6,16d40 <_svfprintf_r+0x17c>
   16cf0:	11013783          	ld	a5,272(sp)
   16cf4:	009cb023          	sd	s1,0(s9)
   16cf8:	016cb423          	sd	s6,8(s9)
   16cfc:	016787b3          	add	a5,a5,s6
   16d00:	10f13823          	sd	a5,272(sp)
   16d04:	10812783          	lw	a5,264(sp)
   16d08:	010c8c93          	addi	s9,s9,16
   16d0c:	0017871b          	addiw	a4,a5,1
   16d10:	10e12423          	sw	a4,264(sp)
   16d14:	00700793          	li	a5,7
   16d18:	00e7de63          	bge	a5,a4,16d34 <_svfprintf_r+0x170>
   16d1c:	10010613          	addi	a2,sp,256
   16d20:	00098593          	mv	a1,s3
   16d24:	00090513          	mv	a0,s2
   16d28:	571030ef          	jal	ra,1aa98 <__ssprint_r>
   16d2c:	70051e63          	bnez	a0,17448 <_svfprintf_r+0x884>
   16d30:	000a8c93          	mv	s9,s5
   16d34:	02812783          	lw	a5,40(sp)
   16d38:	016787bb          	addw	a5,a5,s6
   16d3c:	02f13423          	sd	a5,40(sp)
   16d40:	00044783          	lbu	a5,0(s0)
   16d44:	00079463          	bnez	a5,16d4c <_svfprintf_r+0x188>
   16d48:	3d10106f          	j	18918 <_svfprintf_r+0x1d54>
   16d4c:	00140793          	addi	a5,s0,1
   16d50:	0c0107a3          	sb	zero,207(sp)
   16d54:	fff00d93          	li	s11,-1
   16d58:	02013023          	sd	zero,32(sp)
   16d5c:	00000413          	li	s0,0
   16d60:	05a00d13          	li	s10,90
   16d64:	00a00c13          	li	s8,10
   16d68:	0007cb03          	lbu	s6,0(a5)
   16d6c:	00178713          	addi	a4,a5,1
   16d70:	00e13823          	sd	a4,16(sp)
   16d74:	00900693          	li	a3,9
   16d78:	02a00613          	li	a2,42
   16d7c:	fe0b079b          	addiw	a5,s6,-32
   16d80:	0007871b          	sext.w	a4,a5
   16d84:	00ed7463          	bgeu	s10,a4,16d8c <_svfprintf_r+0x1c8>
   16d88:	0240106f          	j	17dac <_svfprintf_r+0x11e8>
   16d8c:	09813703          	ld	a4,152(sp)
   16d90:	02079793          	slli	a5,a5,0x20
   16d94:	01e7d793          	srli	a5,a5,0x1e
   16d98:	00e787b3          	add	a5,a5,a4
   16d9c:	0007a783          	lw	a5,0(a5)
   16da0:	00078067          	jr	a5
   16da4:	00140413          	addi	s0,s0,1
   16da8:	f35ff06f          	j	16cdc <_svfprintf_r+0x118>
   16dac:	0001e7b7          	lui	a5,0x1e
   16db0:	c2878793          	addi	a5,a5,-984 # 1dc28 <zeroes.4441+0x80>
   16db4:	06f13023          	sd	a5,96(sp)
   16db8:	008b8793          	addi	a5,s7,8
   16dbc:	02f13823          	sd	a5,48(sp)
   16dc0:	02047793          	andi	a5,s0,32
   16dc4:	64078ae3          	beqz	a5,17c18 <_svfprintf_r+0x1054>
   16dc8:	000bbb83          	ld	s7,0(s7)
   16dcc:	00147793          	andi	a5,s0,1
   16dd0:	00078e63          	beqz	a5,16dec <_svfprintf_r+0x228>
   16dd4:	000b8c63          	beqz	s7,16dec <_svfprintf_r+0x228>
   16dd8:	03000793          	li	a5,48
   16ddc:	00246413          	ori	s0,s0,2
   16de0:	0cf10823          	sb	a5,208(sp)
   16de4:	0d6108a3          	sb	s6,209(sp)
   16de8:	0004041b          	sext.w	s0,s0
   16dec:	bff47413          	andi	s0,s0,-1025
   16df0:	0004041b          	sext.w	s0,s0
   16df4:	00200793          	li	a5,2
   16df8:	4c90006f          	j	17ac0 <_svfprintf_r+0xefc>
   16dfc:	00090513          	mv	a0,s2
   16e00:	aa4fe0ef          	jal	ra,150a4 <_localeconv_r>
   16e04:	00853783          	ld	a5,8(a0)
   16e08:	00078513          	mv	a0,a5
   16e0c:	04f13823          	sd	a5,80(sp)
   16e10:	d51ff0ef          	jal	ra,16b60 <strlen>
   16e14:	04a13023          	sd	a0,64(sp)
   16e18:	00090513          	mv	a0,s2
   16e1c:	a88fe0ef          	jal	ra,150a4 <_localeconv_r>
   16e20:	01053783          	ld	a5,16(a0)
   16e24:	00f13023          	sd	a5,0(sp)
   16e28:	04013783          	ld	a5,64(sp)
   16e2c:	02078863          	beqz	a5,16e5c <_svfprintf_r+0x298>
   16e30:	00013783          	ld	a5,0(sp)
   16e34:	02078463          	beqz	a5,16e5c <_svfprintf_r+0x298>
   16e38:	0007c783          	lbu	a5,0(a5)
   16e3c:	02078063          	beqz	a5,16e5c <_svfprintf_r+0x298>
   16e40:	40046413          	ori	s0,s0,1024
   16e44:	0004041b          	sext.w	s0,s0
   16e48:	0140006f          	j	16e5c <_svfprintf_r+0x298>
   16e4c:	0cf14783          	lbu	a5,207(sp)
   16e50:	00079663          	bnez	a5,16e5c <_svfprintf_r+0x298>
   16e54:	02000793          	li	a5,32
   16e58:	0cf107a3          	sb	a5,207(sp)
   16e5c:	01013783          	ld	a5,16(sp)
   16e60:	f09ff06f          	j	16d68 <_svfprintf_r+0x1a4>
   16e64:	00146413          	ori	s0,s0,1
   16e68:	fddff06f          	j	16e44 <_svfprintf_r+0x280>
   16e6c:	000ba783          	lw	a5,0(s7)
   16e70:	008b8b93          	addi	s7,s7,8
   16e74:	02f13023          	sd	a5,32(sp)
   16e78:	fe07d2e3          	bgez	a5,16e5c <_svfprintf_r+0x298>
   16e7c:	02012783          	lw	a5,32(sp)
   16e80:	40f007bb          	negw	a5,a5
   16e84:	02f13023          	sd	a5,32(sp)
   16e88:	00446413          	ori	s0,s0,4
   16e8c:	fb9ff06f          	j	16e44 <_svfprintf_r+0x280>
   16e90:	02b00793          	li	a5,43
   16e94:	fc5ff06f          	j	16e58 <_svfprintf_r+0x294>
   16e98:	01013703          	ld	a4,16(sp)
   16e9c:	01013783          	ld	a5,16(sp)
   16ea0:	00074b03          	lbu	s6,0(a4)
   16ea4:	00178793          	addi	a5,a5,1
   16ea8:	04cb1463          	bne	s6,a2,16ef0 <_svfprintf_r+0x32c>
   16eac:	000bae03          	lw	t3,0(s7)
   16eb0:	008b8713          	addi	a4,s7,8
   16eb4:	000e5463          	bgez	t3,16ebc <_svfprintf_r+0x2f8>
   16eb8:	fff00e13          	li	t3,-1
   16ebc:	000e0d9b          	sext.w	s11,t3
   16ec0:	00070b93          	mv	s7,a4
   16ec4:	00f13823          	sd	a5,16(sp)
   16ec8:	f95ff06f          	j	16e5c <_svfprintf_r+0x298>
   16ecc:	03bc0e3b          	mulw	t3,s8,s11
   16ed0:	00178793          	addi	a5,a5,1
   16ed4:	fff7cb03          	lbu	s6,-1(a5)
   16ed8:	00ee0dbb          	addw	s11,t3,a4
   16edc:	fd0b059b          	addiw	a1,s6,-48
   16ee0:	00058713          	mv	a4,a1
   16ee4:	feb6f4e3          	bgeu	a3,a1,16ecc <_svfprintf_r+0x308>
   16ee8:	00f13823          	sd	a5,16(sp)
   16eec:	e91ff06f          	j	16d7c <_svfprintf_r+0x1b8>
   16ef0:	00000d93          	li	s11,0
   16ef4:	fe9ff06f          	j	16edc <_svfprintf_r+0x318>
   16ef8:	08046413          	ori	s0,s0,128
   16efc:	f49ff06f          	j	16e44 <_svfprintf_r+0x280>
   16f00:	01013783          	ld	a5,16(sp)
   16f04:	02013023          	sd	zero,32(sp)
   16f08:	02012703          	lw	a4,32(sp)
   16f0c:	fd0b0b1b          	addiw	s6,s6,-48
   16f10:	00178793          	addi	a5,a5,1
   16f14:	02ec073b          	mulw	a4,s8,a4
   16f18:	00eb073b          	addw	a4,s6,a4
   16f1c:	fff7cb03          	lbu	s6,-1(a5)
   16f20:	02e13023          	sd	a4,32(sp)
   16f24:	fd0b071b          	addiw	a4,s6,-48
   16f28:	fee6f0e3          	bgeu	a3,a4,16f08 <_svfprintf_r+0x344>
   16f2c:	fbdff06f          	j	16ee8 <_svfprintf_r+0x324>
   16f30:	00846413          	ori	s0,s0,8
   16f34:	f11ff06f          	j	16e44 <_svfprintf_r+0x280>
   16f38:	01013783          	ld	a5,16(sp)
   16f3c:	0007c703          	lbu	a4,0(a5)
   16f40:	06800793          	li	a5,104
   16f44:	00f71c63          	bne	a4,a5,16f5c <_svfprintf_r+0x398>
   16f48:	01013783          	ld	a5,16(sp)
   16f4c:	20046413          	ori	s0,s0,512
   16f50:	00178793          	addi	a5,a5,1
   16f54:	00f13823          	sd	a5,16(sp)
   16f58:	eedff06f          	j	16e44 <_svfprintf_r+0x280>
   16f5c:	04046413          	ori	s0,s0,64
   16f60:	ee5ff06f          	j	16e44 <_svfprintf_r+0x280>
   16f64:	01013783          	ld	a5,16(sp)
   16f68:	0007c703          	lbu	a4,0(a5)
   16f6c:	06c00793          	li	a5,108
   16f70:	00f71c63          	bne	a4,a5,16f88 <_svfprintf_r+0x3c4>
   16f74:	01013783          	ld	a5,16(sp)
   16f78:	00178793          	addi	a5,a5,1
   16f7c:	00f13823          	sd	a5,16(sp)
   16f80:	02046413          	ori	s0,s0,32
   16f84:	ec1ff06f          	j	16e44 <_svfprintf_r+0x280>
   16f88:	01046413          	ori	s0,s0,16
   16f8c:	eb9ff06f          	j	16e44 <_svfprintf_r+0x280>
   16f90:	008b8793          	addi	a5,s7,8
   16f94:	02f13823          	sd	a5,48(sp)
   16f98:	000ba783          	lw	a5,0(s7)
   16f9c:	0c0107a3          	sb	zero,207(sp)
   16fa0:	10f10c23          	sb	a5,280(sp)
   16fa4:	00000b93          	li	s7,0
   16fa8:	00100d93          	li	s11,1
   16fac:	00000713          	li	a4,0
   16fb0:	00013423          	sd	zero,8(sp)
   16fb4:	00000c13          	li	s8,0
   16fb8:	00000d13          	li	s10,0
   16fbc:	11810493          	addi	s1,sp,280
   16fc0:	00070693          	mv	a3,a4
   16fc4:	01b75463          	bge	a4,s11,16fcc <_svfprintf_r+0x408>
   16fc8:	000d8693          	mv	a3,s11
   16fcc:	0cf14603          	lbu	a2,207(sp)
   16fd0:	0006879b          	sext.w	a5,a3
   16fd4:	02f13c23          	sd	a5,56(sp)
   16fd8:	00060663          	beqz	a2,16fe4 <_svfprintf_r+0x420>
   16fdc:	0016879b          	addiw	a5,a3,1
   16fe0:	02f13c23          	sd	a5,56(sp)
   16fe4:	00247693          	andi	a3,s0,2
   16fe8:	0006879b          	sext.w	a5,a3
   16fec:	06f13423          	sd	a5,104(sp)
   16ff0:	00078863          	beqz	a5,17000 <_svfprintf_r+0x43c>
   16ff4:	03812783          	lw	a5,56(sp)
   16ff8:	0027879b          	addiw	a5,a5,2
   16ffc:	02f13c23          	sd	a5,56(sp)
   17000:	08447793          	andi	a5,s0,132
   17004:	06f13823          	sd	a5,112(sp)
   17008:	08079063          	bnez	a5,17088 <_svfprintf_r+0x4c4>
   1700c:	02012783          	lw	a5,32(sp)
   17010:	03812683          	lw	a3,56(sp)
   17014:	40d786bb          	subw	a3,a5,a3
   17018:	06d05863          	blez	a3,17088 <_svfprintf_r+0x4c4>
   1701c:	0001e837          	lui	a6,0x1e
   17020:	01000893          	li	a7,16
   17024:	18080813          	addi	a6,a6,384 # 1e180 <blanks.4425>
   17028:	00700e93          	li	t4,7
   1702c:	10812583          	lw	a1,264(sp)
   17030:	010cb023          	sd	a6,0(s9)
   17034:	11013603          	ld	a2,272(sp)
   17038:	0015851b          	addiw	a0,a1,1
   1703c:	00050593          	mv	a1,a0
   17040:	010c8f13          	addi	t5,s9,16
   17044:	56d8cee3          	blt	a7,a3,17dc0 <_svfprintf_r+0x11fc>
   17048:	00dcb423          	sd	a3,8(s9)
   1704c:	00c686b3          	add	a3,a3,a2
   17050:	10d13823          	sd	a3,272(sp)
   17054:	10a12423          	sw	a0,264(sp)
   17058:	00700693          	li	a3,7
   1705c:	000f0c93          	mv	s9,t5
   17060:	02a6d463          	bge	a3,a0,17088 <_svfprintf_r+0x4c4>
   17064:	10010613          	addi	a2,sp,256
   17068:	00098593          	mv	a1,s3
   1706c:	00090513          	mv	a0,s2
   17070:	06e13c23          	sd	a4,120(sp)
   17074:	225030ef          	jal	ra,1aa98 <__ssprint_r>
   17078:	00050463          	beqz	a0,17080 <_svfprintf_r+0x4bc>
   1707c:	03d0106f          	j	188b8 <_svfprintf_r+0x1cf4>
   17080:	07813703          	ld	a4,120(sp)
   17084:	000a8c93          	mv	s9,s5
   17088:	0cf14683          	lbu	a3,207(sp)
   1708c:	04068e63          	beqz	a3,170e8 <_svfprintf_r+0x524>
   17090:	0cf10693          	addi	a3,sp,207
   17094:	00dcb023          	sd	a3,0(s9)
   17098:	00100693          	li	a3,1
   1709c:	00dcb423          	sd	a3,8(s9)
   170a0:	11013683          	ld	a3,272(sp)
   170a4:	010c8c93          	addi	s9,s9,16
   170a8:	00168693          	addi	a3,a3,1 # 3fe00001 <__global_pointer$+0x3fddefd1>
   170ac:	10d13823          	sd	a3,272(sp)
   170b0:	10812683          	lw	a3,264(sp)
   170b4:	0016861b          	addiw	a2,a3,1
   170b8:	10c12423          	sw	a2,264(sp)
   170bc:	00700693          	li	a3,7
   170c0:	02c6d463          	bge	a3,a2,170e8 <_svfprintf_r+0x524>
   170c4:	10010613          	addi	a2,sp,256
   170c8:	00098593          	mv	a1,s3
   170cc:	00090513          	mv	a0,s2
   170d0:	06e13c23          	sd	a4,120(sp)
   170d4:	1c5030ef          	jal	ra,1aa98 <__ssprint_r>
   170d8:	00050463          	beqz	a0,170e0 <_svfprintf_r+0x51c>
   170dc:	7dc0106f          	j	188b8 <_svfprintf_r+0x1cf4>
   170e0:	07813703          	ld	a4,120(sp)
   170e4:	000a8c93          	mv	s9,s5
   170e8:	06813783          	ld	a5,104(sp)
   170ec:	04078e63          	beqz	a5,17148 <_svfprintf_r+0x584>
   170f0:	0d010693          	addi	a3,sp,208
   170f4:	00dcb023          	sd	a3,0(s9)
   170f8:	00200693          	li	a3,2
   170fc:	00dcb423          	sd	a3,8(s9)
   17100:	11013683          	ld	a3,272(sp)
   17104:	010c8c93          	addi	s9,s9,16
   17108:	00268693          	addi	a3,a3,2
   1710c:	10d13823          	sd	a3,272(sp)
   17110:	10812683          	lw	a3,264(sp)
   17114:	0016861b          	addiw	a2,a3,1
   17118:	10c12423          	sw	a2,264(sp)
   1711c:	00700693          	li	a3,7
   17120:	02c6d463          	bge	a3,a2,17148 <_svfprintf_r+0x584>
   17124:	10010613          	addi	a2,sp,256
   17128:	00098593          	mv	a1,s3
   1712c:	00090513          	mv	a0,s2
   17130:	06e13423          	sd	a4,104(sp)
   17134:	165030ef          	jal	ra,1aa98 <__ssprint_r>
   17138:	00050463          	beqz	a0,17140 <_svfprintf_r+0x57c>
   1713c:	77c0106f          	j	188b8 <_svfprintf_r+0x1cf4>
   17140:	06813703          	ld	a4,104(sp)
   17144:	000a8c93          	mv	s9,s5
   17148:	07013783          	ld	a5,112(sp)
   1714c:	08000693          	li	a3,128
   17150:	08d79063          	bne	a5,a3,171d0 <_svfprintf_r+0x60c>
   17154:	02012783          	lw	a5,32(sp)
   17158:	03812683          	lw	a3,56(sp)
   1715c:	40d786bb          	subw	a3,a5,a3
   17160:	06d05863          	blez	a3,171d0 <_svfprintf_r+0x60c>
   17164:	0001e837          	lui	a6,0x1e
   17168:	01000893          	li	a7,16
   1716c:	19080813          	addi	a6,a6,400 # 1e190 <zeroes.4426>
   17170:	00700e93          	li	t4,7
   17174:	10812583          	lw	a1,264(sp)
   17178:	010cb023          	sd	a6,0(s9)
   1717c:	11013603          	ld	a2,272(sp)
   17180:	0015851b          	addiw	a0,a1,1
   17184:	00050593          	mv	a1,a0
   17188:	010c8f13          	addi	t5,s9,16
   1718c:	48d8cae3          	blt	a7,a3,17e20 <_svfprintf_r+0x125c>
   17190:	00dcb423          	sd	a3,8(s9)
   17194:	00c686b3          	add	a3,a3,a2
   17198:	10d13823          	sd	a3,272(sp)
   1719c:	10a12423          	sw	a0,264(sp)
   171a0:	00700693          	li	a3,7
   171a4:	000f0c93          	mv	s9,t5
   171a8:	02a6d463          	bge	a3,a0,171d0 <_svfprintf_r+0x60c>
   171ac:	10010613          	addi	a2,sp,256
   171b0:	00098593          	mv	a1,s3
   171b4:	00090513          	mv	a0,s2
   171b8:	06e13423          	sd	a4,104(sp)
   171bc:	0dd030ef          	jal	ra,1aa98 <__ssprint_r>
   171c0:	00050463          	beqz	a0,171c8 <_svfprintf_r+0x604>
   171c4:	6f40106f          	j	188b8 <_svfprintf_r+0x1cf4>
   171c8:	06813703          	ld	a4,104(sp)
   171cc:	000a8c93          	mv	s9,s5
   171d0:	41b7073b          	subw	a4,a4,s11
   171d4:	06e05463          	blez	a4,1723c <_svfprintf_r+0x678>
   171d8:	0001e837          	lui	a6,0x1e
   171dc:	01000893          	li	a7,16
   171e0:	19080813          	addi	a6,a6,400 # 1e190 <zeroes.4426>
   171e4:	00700e93          	li	t4,7
   171e8:	10812603          	lw	a2,264(sp)
   171ec:	010cb023          	sd	a6,0(s9)
   171f0:	11013683          	ld	a3,272(sp)
   171f4:	0016059b          	addiw	a1,a2,1
   171f8:	00058613          	mv	a2,a1
   171fc:	010c8513          	addi	a0,s9,16
   17200:	48e8c0e3          	blt	a7,a4,17e80 <_svfprintf_r+0x12bc>
   17204:	00ecb423          	sd	a4,8(s9)
   17208:	00d70733          	add	a4,a4,a3
   1720c:	10e13823          	sd	a4,272(sp)
   17210:	10b12423          	sw	a1,264(sp)
   17214:	00700713          	li	a4,7
   17218:	00050c93          	mv	s9,a0
   1721c:	02b75063          	bge	a4,a1,1723c <_svfprintf_r+0x678>
   17220:	10010613          	addi	a2,sp,256
   17224:	00098593          	mv	a1,s3
   17228:	00090513          	mv	a0,s2
   1722c:	06d030ef          	jal	ra,1aa98 <__ssprint_r>
   17230:	00050463          	beqz	a0,17238 <_svfprintf_r+0x674>
   17234:	6840106f          	j	188b8 <_svfprintf_r+0x1cf4>
   17238:	000a8c93          	mv	s9,s5
   1723c:	10047693          	andi	a3,s0,256
   17240:	11013703          	ld	a4,272(sp)
   17244:	48069ae3          	bnez	a3,17ed8 <_svfprintf_r+0x1314>
   17248:	10812783          	lw	a5,264(sp)
   1724c:	00ed8e33          	add	t3,s11,a4
   17250:	009cb023          	sd	s1,0(s9)
   17254:	0017871b          	addiw	a4,a5,1
   17258:	01bcb423          	sd	s11,8(s9)
   1725c:	11c13823          	sd	t3,272(sp)
   17260:	10e12423          	sw	a4,264(sp)
   17264:	00700793          	li	a5,7
   17268:	010c8c93          	addi	s9,s9,16
   1726c:	58e7d8e3          	bge	a5,a4,17ffc <_svfprintf_r+0x1438>
   17270:	10010613          	addi	a2,sp,256
   17274:	00098593          	mv	a1,s3
   17278:	00090513          	mv	a0,s2
   1727c:	01d030ef          	jal	ra,1aa98 <__ssprint_r>
   17280:	00050463          	beqz	a0,17288 <_svfprintf_r+0x6c4>
   17284:	6340106f          	j	188b8 <_svfprintf_r+0x1cf4>
   17288:	000a8c93          	mv	s9,s5
   1728c:	5710006f          	j	17ffc <_svfprintf_r+0x1438>
   17290:	01046413          	ori	s0,s0,16
   17294:	0004041b          	sext.w	s0,s0
   17298:	008b8793          	addi	a5,s7,8
   1729c:	02f13823          	sd	a5,48(sp)
   172a0:	02047793          	andi	a5,s0,32
   172a4:	02078c63          	beqz	a5,172dc <_svfprintf_r+0x718>
   172a8:	000bbb83          	ld	s7,0(s7)
   172ac:	000bd863          	bgez	s7,172bc <_svfprintf_r+0x6f8>
   172b0:	02d00793          	li	a5,45
   172b4:	41700bb3          	neg	s7,s7
   172b8:	0cf107a3          	sb	a5,207(sp)
   172bc:	fff00793          	li	a5,-1
   172c0:	18fd9ae3          	bne	s11,a5,17c54 <_svfprintf_r+0x1090>
   172c4:	00900793          	li	a5,9
   172c8:	2177e2e3          	bltu	a5,s7,17ccc <_svfprintf_r+0x1108>
   172cc:	030b8b9b          	addiw	s7,s7,48
   172d0:	17710da3          	sb	s7,379(sp)
   172d4:	17b10493          	addi	s1,sp,379
   172d8:	1cd0006f          	j	17ca4 <_svfprintf_r+0x10e0>
   172dc:	01047793          	andi	a5,s0,16
   172e0:	fc0794e3          	bnez	a5,172a8 <_svfprintf_r+0x6e4>
   172e4:	04047793          	andi	a5,s0,64
   172e8:	00078663          	beqz	a5,172f4 <_svfprintf_r+0x730>
   172ec:	000b9b83          	lh	s7,0(s7)
   172f0:	fbdff06f          	j	172ac <_svfprintf_r+0x6e8>
   172f4:	20047793          	andi	a5,s0,512
   172f8:	00078663          	beqz	a5,17304 <_svfprintf_r+0x740>
   172fc:	000b8b83          	lb	s7,0(s7)
   17300:	fadff06f          	j	172ac <_svfprintf_r+0x6e8>
   17304:	000bab83          	lw	s7,0(s7)
   17308:	fa5ff06f          	j	172ac <_svfprintf_r+0x6e8>
   1730c:	00847793          	andi	a5,s0,8
   17310:	08078063          	beqz	a5,17390 <_svfprintf_r+0x7cc>
   17314:	00fb8b93          	addi	s7,s7,15
   17318:	ff0bfb93          	andi	s7,s7,-16
   1731c:	010b8793          	addi	a5,s7,16
   17320:	02f13823          	sd	a5,48(sp)
   17324:	000bb783          	ld	a5,0(s7)
   17328:	0ef13823          	sd	a5,240(sp)
   1732c:	008bb783          	ld	a5,8(s7)
   17330:	0ef13c23          	sd	a5,248(sp)
   17334:	0f010513          	addi	a0,sp,240
   17338:	d11fd0ef          	jal	ra,15048 <_ldcheck>
   1733c:	0ca12c23          	sw	a0,216(sp)
   17340:	00200793          	li	a5,2
   17344:	06f51a63          	bne	a0,a5,173b8 <_svfprintf_r+0x7f4>
   17348:	0f013503          	ld	a0,240(sp)
   1734c:	0f813583          	ld	a1,248(sp)
   17350:	00000613          	li	a2,0
   17354:	00000693          	li	a3,0
   17358:	419040ef          	jal	ra,1bf70 <__letf2>
   1735c:	00055663          	bgez	a0,17368 <_svfprintf_r+0x7a4>
   17360:	02d00793          	li	a5,45
   17364:	0cf107a3          	sb	a5,207(sp)
   17368:	04700793          	li	a5,71
   1736c:	0567c063          	blt	a5,s6,173ac <_svfprintf_r+0x7e8>
   17370:	0001e4b7          	lui	s1,0x1e
   17374:	bf048493          	addi	s1,s1,-1040 # 1dbf0 <zeroes.4441+0x48>
   17378:	f7f47413          	andi	s0,s0,-129
   1737c:	0004041b          	sext.w	s0,s0
   17380:	00000b93          	li	s7,0
   17384:	00300d93          	li	s11,3
   17388:	00000713          	li	a4,0
   1738c:	1290006f          	j	17cb4 <_svfprintf_r+0x10f0>
   17390:	000bb507          	fld	fa0,0(s7)
   17394:	008b8793          	addi	a5,s7,8
   17398:	02f13823          	sd	a5,48(sp)
   1739c:	1c4060ef          	jal	ra,1d560 <__extenddftf2>
   173a0:	0ea13823          	sd	a0,240(sp)
   173a4:	0eb13c23          	sd	a1,248(sp)
   173a8:	f8dff06f          	j	17334 <_svfprintf_r+0x770>
   173ac:	0001e4b7          	lui	s1,0x1e
   173b0:	bf848493          	addi	s1,s1,-1032 # 1dbf8 <zeroes.4441+0x50>
   173b4:	fc5ff06f          	j	17378 <_svfprintf_r+0x7b4>
   173b8:	00100793          	li	a5,1
   173bc:	02f51a63          	bne	a0,a5,173f0 <_svfprintf_r+0x82c>
   173c0:	0f813783          	ld	a5,248(sp)
   173c4:	0007d663          	bgez	a5,173d0 <_svfprintf_r+0x80c>
   173c8:	02d00793          	li	a5,45
   173cc:	0cf107a3          	sb	a5,207(sp)
   173d0:	04700793          	li	a5,71
   173d4:	0167c863          	blt	a5,s6,173e4 <_svfprintf_r+0x820>
   173d8:	0001e4b7          	lui	s1,0x1e
   173dc:	c0048493          	addi	s1,s1,-1024 # 1dc00 <zeroes.4441+0x58>
   173e0:	f99ff06f          	j	17378 <_svfprintf_r+0x7b4>
   173e4:	0001e4b7          	lui	s1,0x1e
   173e8:	c0848493          	addi	s1,s1,-1016 # 1dc08 <zeroes.4441+0x60>
   173ec:	f8dff06f          	j	17378 <_svfprintf_r+0x7b4>
   173f0:	fdfb7c13          	andi	s8,s6,-33
   173f4:	04100793          	li	a5,65
   173f8:	08fc1e63          	bne	s8,a5,17494 <_svfprintf_r+0x8d0>
   173fc:	03000793          	li	a5,48
   17400:	0cf10823          	sb	a5,208(sp)
   17404:	06100713          	li	a4,97
   17408:	05800793          	li	a5,88
   1740c:	00eb1463          	bne	s6,a4,17414 <_svfprintf_r+0x850>
   17410:	07800793          	li	a5,120
   17414:	0cf108a3          	sb	a5,209(sp)
   17418:	00246413          	ori	s0,s0,2
   1741c:	06300793          	li	a5,99
   17420:	0004041b          	sext.w	s0,s0
   17424:	23b7d463          	bge	a5,s11,1764c <_svfprintf_r+0xa88>
   17428:	001d859b          	addiw	a1,s11,1
   1742c:	00090513          	mv	a0,s2
   17430:	e39fd0ef          	jal	ra,15268 <_malloc_r>
   17434:	00050493          	mv	s1,a0
   17438:	22051063          	bnez	a0,17658 <_svfprintf_r+0xa94>
   1743c:	0109d783          	lhu	a5,16(s3)
   17440:	0407e793          	ori	a5,a5,64
   17444:	00f99823          	sh	a5,16(s3)
   17448:	0109d783          	lhu	a5,16(s3)
   1744c:	0407f793          	andi	a5,a5,64
   17450:	800798e3          	bnez	a5,16c60 <_svfprintf_r+0x9c>
   17454:	26813083          	ld	ra,616(sp)
   17458:	26013403          	ld	s0,608(sp)
   1745c:	02813503          	ld	a0,40(sp)
   17460:	25813483          	ld	s1,600(sp)
   17464:	25013903          	ld	s2,592(sp)
   17468:	24813983          	ld	s3,584(sp)
   1746c:	24013a03          	ld	s4,576(sp)
   17470:	23813a83          	ld	s5,568(sp)
   17474:	23013b03          	ld	s6,560(sp)
   17478:	22813b83          	ld	s7,552(sp)
   1747c:	22013c03          	ld	s8,544(sp)
   17480:	21813c83          	ld	s9,536(sp)
   17484:	21013d03          	ld	s10,528(sp)
   17488:	20813d83          	ld	s11,520(sp)
   1748c:	27010113          	addi	sp,sp,624
   17490:	00008067          	ret
   17494:	fff00793          	li	a5,-1
   17498:	1cfd8463          	beq	s11,a5,17660 <_svfprintf_r+0xa9c>
   1749c:	04700793          	li	a5,71
   174a0:	00000b93          	li	s7,0
   174a4:	00fc1463          	bne	s8,a5,174ac <_svfprintf_r+0x8e8>
   174a8:	1c0d8263          	beqz	s11,1766c <_svfprintf_r+0xaa8>
   174ac:	10046793          	ori	a5,s0,256
   174b0:	0f813a03          	ld	s4,248(sp)
   174b4:	0007879b          	sext.w	a5,a5
   174b8:	02f13c23          	sd	a5,56(sp)
   174bc:	06013c23          	sd	zero,120(sp)
   174c0:	0f013e83          	ld	t4,240(sp)
   174c4:	000a5c63          	bgez	s4,174dc <_svfprintf_r+0x918>
   174c8:	fff00793          	li	a5,-1
   174cc:	03f79793          	slli	a5,a5,0x3f
   174d0:	00fa4a33          	xor	s4,s4,a5
   174d4:	02d00793          	li	a5,45
   174d8:	06f13c23          	sd	a5,120(sp)
   174dc:	04100793          	li	a5,65
   174e0:	30fc1663          	bne	s8,a5,177ec <_svfprintf_r+0xc28>
   174e4:	000e8513          	mv	a0,t4
   174e8:	000a0593          	mv	a1,s4
   174ec:	1d0060ef          	jal	ra,1d6bc <__trunctfdf2>
   174f0:	0d810513          	addi	a0,sp,216
   174f4:	b60ff0ef          	jal	ra,16854 <frexp>
   174f8:	068060ef          	jal	ra,1d560 <__extenddftf2>
   174fc:	0a013683          	ld	a3,160(sp)
   17500:	00000613          	li	a2,0
   17504:	375040ef          	jal	ra,1c078 <__multf3>
   17508:	00000613          	li	a2,0
   1750c:	00000693          	li	a3,0
   17510:	08a13023          	sd	a0,128(sp)
   17514:	08b13423          	sd	a1,136(sp)
   17518:	06d040ef          	jal	ra,1bd84 <__eqtf2>
   1751c:	00051663          	bnez	a0,17528 <_svfprintf_r+0x964>
   17520:	00100793          	li	a5,1
   17524:	0cf12c23          	sw	a5,216(sp)
   17528:	06100793          	li	a5,97
   1752c:	14fb1663          	bne	s6,a5,17678 <_svfprintf_r+0xab4>
   17530:	0001e7b7          	lui	a5,0x1e
   17534:	c1078793          	addi	a5,a5,-1008 # 1dc10 <zeroes.4441+0x68>
   17538:	00f13423          	sd	a5,8(sp)
   1753c:	fffd871b          	addiw	a4,s11,-1
   17540:	00048a13          	mv	s4,s1
   17544:	0a813683          	ld	a3,168(sp)
   17548:	08013503          	ld	a0,128(sp)
   1754c:	08813583          	ld	a1,136(sp)
   17550:	00000613          	li	a2,0
   17554:	0ae13823          	sd	a4,176(sp)
   17558:	321040ef          	jal	ra,1c078 <__multf3>
   1755c:	00050d13          	mv	s10,a0
   17560:	06b13423          	sd	a1,104(sp)
   17564:	661050ef          	jal	ra,1d3c4 <__fixtfsi>
   17568:	0005079b          	sext.w	a5,a0
   1756c:	06f13823          	sd	a5,112(sp)
   17570:	72d050ef          	jal	ra,1d49c <__floatsitf>
   17574:	06813783          	ld	a5,104(sp)
   17578:	00058693          	mv	a3,a1
   1757c:	00050613          	mv	a2,a0
   17580:	00078593          	mv	a1,a5
   17584:	000d0513          	mv	a0,s10
   17588:	390050ef          	jal	ra,1c918 <__subtf3>
   1758c:	00813783          	ld	a5,8(sp)
   17590:	07013703          	ld	a4,112(sp)
   17594:	001a0a13          	addi	s4,s4,1
   17598:	08a13023          	sd	a0,128(sp)
   1759c:	00e786b3          	add	a3,a5,a4
   175a0:	0b013703          	ld	a4,176(sp)
   175a4:	0006c683          	lbu	a3,0(a3)
   175a8:	08b13423          	sd	a1,136(sp)
   175ac:	0007079b          	sext.w	a5,a4
   175b0:	06f13423          	sd	a5,104(sp)
   175b4:	feda0fa3          	sb	a3,-1(s4)
   175b8:	fff00793          	li	a5,-1
   175bc:	00050893          	mv	a7,a0
   175c0:	00058d13          	mv	s10,a1
   175c4:	0cf70063          	beq	a4,a5,17684 <_svfprintf_r+0xac0>
   175c8:	fff7071b          	addiw	a4,a4,-1
   175cc:	00000613          	li	a2,0
   175d0:	00000693          	li	a3,0
   175d4:	0ae13823          	sd	a4,176(sp)
   175d8:	0aa13c23          	sd	a0,184(sp)
   175dc:	7a8040ef          	jal	ra,1bd84 <__eqtf2>
   175e0:	0b013703          	ld	a4,176(sp)
   175e4:	0b813883          	ld	a7,184(sp)
   175e8:	f4051ee3          	bnez	a0,17544 <_svfprintf_r+0x980>
   175ec:	09013683          	ld	a3,144(sp)
   175f0:	00000613          	li	a2,0
   175f4:	00088513          	mv	a0,a7
   175f8:	000d0593          	mv	a1,s10
   175fc:	09113023          	sd	a7,128(sp)
   17600:	069040ef          	jal	ra,1be68 <__getf2>
   17604:	08a04663          	bgtz	a0,17690 <_svfprintf_r+0xacc>
   17608:	08013883          	ld	a7,128(sp)
   1760c:	09013683          	ld	a3,144(sp)
   17610:	00000613          	li	a2,0
   17614:	00088513          	mv	a0,a7
   17618:	000d0593          	mv	a1,s10
   1761c:	768040ef          	jal	ra,1bd84 <__eqtf2>
   17620:	00051863          	bnez	a0,17630 <_svfprintf_r+0xa6c>
   17624:	07013783          	ld	a5,112(sp)
   17628:	0017f713          	andi	a4,a5,1
   1762c:	06071263          	bnez	a4,17690 <_svfprintf_r+0xacc>
   17630:	06812703          	lw	a4,104(sp)
   17634:	03000693          	li	a3,48
   17638:	08074863          	bltz	a4,176c8 <_svfprintf_r+0xb04>
   1763c:	001a0a13          	addi	s4,s4,1
   17640:	feda0fa3          	sb	a3,-1(s4)
   17644:	fff7071b          	addiw	a4,a4,-1
   17648:	ff1ff06f          	j	17638 <_svfprintf_r+0xa74>
   1764c:	00000b93          	li	s7,0
   17650:	11810493          	addi	s1,sp,280
   17654:	e59ff06f          	j	174ac <_svfprintf_r+0x8e8>
   17658:	00050b93          	mv	s7,a0
   1765c:	e51ff06f          	j	174ac <_svfprintf_r+0x8e8>
   17660:	00000b93          	li	s7,0
   17664:	00600d93          	li	s11,6
   17668:	e45ff06f          	j	174ac <_svfprintf_r+0x8e8>
   1766c:	000d8b93          	mv	s7,s11
   17670:	00100d93          	li	s11,1
   17674:	e39ff06f          	j	174ac <_svfprintf_r+0x8e8>
   17678:	0001e7b7          	lui	a5,0x1e
   1767c:	c2878793          	addi	a5,a5,-984 # 1dc28 <zeroes.4441+0x80>
   17680:	eb9ff06f          	j	17538 <_svfprintf_r+0x974>
   17684:	fff00793          	li	a5,-1
   17688:	06f13423          	sd	a5,104(sp)
   1768c:	f61ff06f          	j	175ec <_svfprintf_r+0xa28>
   17690:	00813783          	ld	a5,8(sp)
   17694:	0f413423          	sd	s4,232(sp)
   17698:	03000593          	li	a1,48
   1769c:	00f7c603          	lbu	a2,15(a5)
   176a0:	0e813683          	ld	a3,232(sp)
   176a4:	fff68713          	addi	a4,a3,-1
   176a8:	0ee13423          	sd	a4,232(sp)
   176ac:	fff6c703          	lbu	a4,-1(a3)
   176b0:	12c70463          	beq	a4,a2,177d8 <_svfprintf_r+0xc14>
   176b4:	03900613          	li	a2,57
   176b8:	12c71463          	bne	a4,a2,177e0 <_svfprintf_r+0xc1c>
   176bc:	00813783          	ld	a5,8(sp)
   176c0:	00a7c703          	lbu	a4,10(a5)
   176c4:	fee68fa3          	sb	a4,-1(a3)
   176c8:	04700713          	li	a4,71
   176cc:	409a0a3b          	subw	s4,s4,s1
   176d0:	0d812d03          	lw	s10,216(sp)
   176d4:	20ec1c63          	bne	s8,a4,178ec <_svfprintf_r+0xd28>
   176d8:	ffd00713          	li	a4,-3
   176dc:	00ed4463          	blt	s10,a4,176e4 <_svfprintf_r+0xb20>
   176e0:	29add863          	bge	s11,s10,17970 <_svfprintf_r+0xdac>
   176e4:	ffeb0b1b          	addiw	s6,s6,-2
   176e8:	fffd069b          	addiw	a3,s10,-1
   176ec:	0cd12c23          	sw	a3,216(sp)
   176f0:	fdfb7613          	andi	a2,s6,-33
   176f4:	04100513          	li	a0,65
   176f8:	0ffb7713          	zext.b	a4,s6
   176fc:	00000593          	li	a1,0
   17700:	00a61863          	bne	a2,a0,17710 <_svfprintf_r+0xb4c>
   17704:	00f7071b          	addiw	a4,a4,15
   17708:	0ff77713          	zext.b	a4,a4
   1770c:	00100593          	li	a1,1
   17710:	0ee10023          	sb	a4,224(sp)
   17714:	02b00793          	li	a5,43
   17718:	0006d863          	bgez	a3,17728 <_svfprintf_r+0xb64>
   1771c:	00100693          	li	a3,1
   17720:	41a686bb          	subw	a3,a3,s10
   17724:	02d00793          	li	a5,45
   17728:	0ef100a3          	sb	a5,225(sp)
   1772c:	00900793          	li	a5,9
   17730:	20d7d263          	bge	a5,a3,17934 <_svfprintf_r+0xd70>
   17734:	0ef10713          	addi	a4,sp,239
   17738:	00070513          	mv	a0,a4
   1773c:	00a00593          	li	a1,10
   17740:	00900813          	li	a6,9
   17744:	02b6e7bb          	remw	a5,a3,a1
   17748:	fff70613          	addi	a2,a4,-1
   1774c:	02b6c6bb          	divw	a3,a3,a1
   17750:	0307879b          	addiw	a5,a5,48
   17754:	fef70fa3          	sb	a5,-1(a4)
   17758:	1cd84063          	blt	a6,a3,17918 <_svfprintf_r+0xd54>
   1775c:	0306879b          	addiw	a5,a3,48
   17760:	fef60fa3          	sb	a5,-1(a2)
   17764:	ffe70713          	addi	a4,a4,-2
   17768:	0e210613          	addi	a2,sp,226
   1776c:	1aa76a63          	bltu	a4,a0,17920 <_svfprintf_r+0xd5c>
   17770:	0e010793          	addi	a5,sp,224
   17774:	40f607bb          	subw	a5,a2,a5
   17778:	04f13c23          	sd	a5,88(sp)
   1777c:	05812783          	lw	a5,88(sp)
   17780:	00100713          	li	a4,1
   17784:	01478dbb          	addw	s11,a5,s4
   17788:	000d8793          	mv	a5,s11
   1778c:	01474663          	blt	a4,s4,17798 <_svfprintf_r+0xbd4>
   17790:	00147713          	andi	a4,s0,1
   17794:	00070663          	beqz	a4,177a0 <_svfprintf_r+0xbdc>
   17798:	01812703          	lw	a4,24(sp)
   1779c:	00e78dbb          	addw	s11,a5,a4
   177a0:	bff47413          	andi	s0,s0,-1025
   177a4:	0004041b          	sext.w	s0,s0
   177a8:	10046793          	ori	a5,s0,256
   177ac:	02f13c23          	sd	a5,56(sp)
   177b0:	00013423          	sd	zero,8(sp)
   177b4:	00000c13          	li	s8,0
   177b8:	00000d13          	li	s10,0
   177bc:	07813783          	ld	a5,120(sp)
   177c0:	00078663          	beqz	a5,177cc <_svfprintf_r+0xc08>
   177c4:	02d00713          	li	a4,45
   177c8:	0ce107a3          	sb	a4,207(sp)
   177cc:	03813403          	ld	s0,56(sp)
   177d0:	00000713          	li	a4,0
   177d4:	fecff06f          	j	16fc0 <_svfprintf_r+0x3fc>
   177d8:	feb68fa3          	sb	a1,-1(a3)
   177dc:	ec5ff06f          	j	176a0 <_svfprintf_r+0xadc>
   177e0:	0017071b          	addiw	a4,a4,1
   177e4:	0ff77713          	zext.b	a4,a4
   177e8:	eddff06f          	j	176c4 <_svfprintf_r+0xb00>
   177ec:	04600793          	li	a5,70
   177f0:	00fc0e63          	beq	s8,a5,1780c <_svfprintf_r+0xc48>
   177f4:	04500793          	li	a5,69
   177f8:	000d8d13          	mv	s10,s11
   177fc:	00fc1463          	bne	s8,a5,17804 <_svfprintf_r+0xc40>
   17800:	001d8d1b          	addiw	s10,s11,1
   17804:	00200693          	li	a3,2
   17808:	00c0006f          	j	17814 <_svfprintf_r+0xc50>
   1780c:	000d8d13          	mv	s10,s11
   17810:	00300693          	li	a3,3
   17814:	0d810793          	addi	a5,sp,216
   17818:	000e8593          	mv	a1,t4
   1781c:	0e810893          	addi	a7,sp,232
   17820:	0dc10813          	addi	a6,sp,220
   17824:	000d0713          	mv	a4,s10
   17828:	000a0613          	mv	a2,s4
   1782c:	00090513          	mv	a0,s2
   17830:	01d13423          	sd	t4,8(sp)
   17834:	bd1fc0ef          	jal	ra,14404 <_ldtoa_r>
   17838:	04700793          	li	a5,71
   1783c:	00050493          	mv	s1,a0
   17840:	00813e83          	ld	t4,8(sp)
   17844:	00fc1663          	bne	s8,a5,17850 <_svfprintf_r+0xc8c>
   17848:	00147793          	andi	a5,s0,1
   1784c:	08078063          	beqz	a5,178cc <_svfprintf_r+0xd08>
   17850:	04600713          	li	a4,70
   17854:	01a487b3          	add	a5,s1,s10
   17858:	04ec1663          	bne	s8,a4,178a4 <_svfprintf_r+0xce0>
   1785c:	0004c683          	lbu	a3,0(s1)
   17860:	03000713          	li	a4,48
   17864:	02e69c63          	bne	a3,a4,1789c <_svfprintf_r+0xcd8>
   17868:	000e8513          	mv	a0,t4
   1786c:	00000613          	li	a2,0
   17870:	00000693          	li	a3,0
   17874:	000a0593          	mv	a1,s4
   17878:	06f13423          	sd	a5,104(sp)
   1787c:	01d13423          	sd	t4,8(sp)
   17880:	504040ef          	jal	ra,1bd84 <__eqtf2>
   17884:	00813e83          	ld	t4,8(sp)
   17888:	06813783          	ld	a5,104(sp)
   1788c:	00050863          	beqz	a0,1789c <_svfprintf_r+0xcd8>
   17890:	00100713          	li	a4,1
   17894:	41a70d3b          	subw	s10,a4,s10
   17898:	0da12c23          	sw	s10,216(sp)
   1789c:	0d812703          	lw	a4,216(sp)
   178a0:	00e787b3          	add	a5,a5,a4
   178a4:	00000693          	li	a3,0
   178a8:	00000613          	li	a2,0
   178ac:	000e8513          	mv	a0,t4
   178b0:	000a0593          	mv	a1,s4
   178b4:	00f13423          	sd	a5,8(sp)
   178b8:	4cc040ef          	jal	ra,1bd84 <__eqtf2>
   178bc:	00813783          	ld	a5,8(sp)
   178c0:	03000693          	li	a3,48
   178c4:	00051e63          	bnez	a0,178e0 <_svfprintf_r+0xd1c>
   178c8:	0ef13423          	sd	a5,232(sp)
   178cc:	0e813a03          	ld	s4,232(sp)
   178d0:	df9ff06f          	j	176c8 <_svfprintf_r+0xb04>
   178d4:	00170613          	addi	a2,a4,1
   178d8:	0ec13423          	sd	a2,232(sp)
   178dc:	00d70023          	sb	a3,0(a4)
   178e0:	0e813703          	ld	a4,232(sp)
   178e4:	fef768e3          	bltu	a4,a5,178d4 <_svfprintf_r+0xd10>
   178e8:	fe5ff06f          	j	178cc <_svfprintf_r+0xd08>
   178ec:	04600713          	li	a4,70
   178f0:	deec1ce3          	bne	s8,a4,176e8 <_svfprintf_r+0xb24>
   178f4:	07a05263          	blez	s10,17958 <_svfprintf_r+0xd94>
   178f8:	000d9663          	bnez	s11,17904 <_svfprintf_r+0xd40>
   178fc:	00147713          	andi	a4,s0,1
   17900:	0c070463          	beqz	a4,179c8 <_svfprintf_r+0xe04>
   17904:	01812783          	lw	a5,24(sp)
   17908:	01a7873b          	addw	a4,a5,s10
   1790c:	01b70dbb          	addw	s11,a4,s11
   17910:	06600b13          	li	s6,102
   17914:	0940006f          	j	179a8 <_svfprintf_r+0xde4>
   17918:	00060713          	mv	a4,a2
   1791c:	e29ff06f          	j	17744 <_svfprintf_r+0xb80>
   17920:	00170713          	addi	a4,a4,1
   17924:	fff74783          	lbu	a5,-1(a4)
   17928:	00160613          	addi	a2,a2,1
   1792c:	fef60fa3          	sb	a5,-1(a2)
   17930:	e3dff06f          	j	1776c <_svfprintf_r+0xba8>
   17934:	0e210713          	addi	a4,sp,226
   17938:	00059863          	bnez	a1,17948 <_svfprintf_r+0xd84>
   1793c:	03000793          	li	a5,48
   17940:	0ef10123          	sb	a5,226(sp)
   17944:	0e310713          	addi	a4,sp,227
   17948:	0306879b          	addiw	a5,a3,48
   1794c:	00170613          	addi	a2,a4,1
   17950:	00f70023          	sb	a5,0(a4)
   17954:	e1dff06f          	j	17770 <_svfprintf_r+0xbac>
   17958:	000d9663          	bnez	s11,17964 <_svfprintf_r+0xda0>
   1795c:	00147713          	andi	a4,s0,1
   17960:	06070863          	beqz	a4,179d0 <_svfprintf_r+0xe0c>
   17964:	01812783          	lw	a5,24(sp)
   17968:	0017871b          	addiw	a4,a5,1
   1796c:	fa1ff06f          	j	1790c <_svfprintf_r+0xd48>
   17970:	034d4063          	blt	s10,s4,17990 <_svfprintf_r+0xdcc>
   17974:	00147713          	andi	a4,s0,1
   17978:	000d0d93          	mv	s11,s10
   1797c:	00070663          	beqz	a4,17988 <_svfprintf_r+0xdc4>
   17980:	01812783          	lw	a5,24(sp)
   17984:	01a78dbb          	addw	s11,a5,s10
   17988:	06700b13          	li	s6,103
   1798c:	01c0006f          	j	179a8 <_svfprintf_r+0xde4>
   17990:	01812783          	lw	a5,24(sp)
   17994:	06700b13          	li	s6,103
   17998:	01478dbb          	addw	s11,a5,s4
   1799c:	01a04663          	bgtz	s10,179a8 <_svfprintf_r+0xde4>
   179a0:	41ad8e3b          	subw	t3,s11,s10
   179a4:	001e0d9b          	addiw	s11,t3,1
   179a8:	40047413          	andi	s0,s0,1024
   179ac:	00040c1b          	sext.w	s8,s0
   179b0:	00013423          	sd	zero,8(sp)
   179b4:	e00c04e3          	beqz	s8,177bc <_svfprintf_r+0xbf8>
   179b8:	00000c13          	li	s8,0
   179bc:	e1a050e3          	blez	s10,177bc <_svfprintf_r+0xbf8>
   179c0:	0ff00693          	li	a3,255
   179c4:	03c0006f          	j	17a00 <_svfprintf_r+0xe3c>
   179c8:	000d0d93          	mv	s11,s10
   179cc:	f45ff06f          	j	17910 <_svfprintf_r+0xd4c>
   179d0:	06600b13          	li	s6,102
   179d4:	00100d93          	li	s11,1
   179d8:	fd1ff06f          	j	179a8 <_svfprintf_r+0xde4>
   179dc:	0007071b          	sext.w	a4,a4
   179e0:	03a75663          	bge	a4,s10,17a0c <_svfprintf_r+0xe48>
   179e4:	00013783          	ld	a5,0(sp)
   179e8:	40ed0d3b          	subw	s10,s10,a4
   179ec:	0017c703          	lbu	a4,1(a5)
   179f0:	02070a63          	beqz	a4,17a24 <_svfprintf_r+0xe60>
   179f4:	00178793          	addi	a5,a5,1
   179f8:	001c0c1b          	addiw	s8,s8,1
   179fc:	00f13023          	sd	a5,0(sp)
   17a00:	00013783          	ld	a5,0(sp)
   17a04:	0007c703          	lbu	a4,0(a5)
   17a08:	fcd71ae3          	bne	a4,a3,179dc <_svfprintf_r+0xe18>
   17a0c:	00812783          	lw	a5,8(sp)
   17a10:	00fc073b          	addw	a4,s8,a5
   17a14:	04012783          	lw	a5,64(sp)
   17a18:	02f7073b          	mulw	a4,a4,a5
   17a1c:	01b70dbb          	addw	s11,a4,s11
   17a20:	d9dff06f          	j	177bc <_svfprintf_r+0xbf8>
   17a24:	00812783          	lw	a5,8(sp)
   17a28:	0017879b          	addiw	a5,a5,1
   17a2c:	00f13423          	sd	a5,8(sp)
   17a30:	fd1ff06f          	j	17a00 <_svfprintf_r+0xe3c>
   17a34:	008b8713          	addi	a4,s7,8
   17a38:	02e13823          	sd	a4,48(sp)
   17a3c:	02047713          	andi	a4,s0,32
   17a40:	000bb783          	ld	a5,0(s7)
   17a44:	00070c63          	beqz	a4,17a5c <_svfprintf_r+0xe98>
   17a48:	02813703          	ld	a4,40(sp)
   17a4c:	00e7b023          	sd	a4,0(a5)
   17a50:	03013b83          	ld	s7,48(sp)
   17a54:	01013483          	ld	s1,16(sp)
   17a58:	a7cff06f          	j	16cd4 <_svfprintf_r+0x110>
   17a5c:	01047713          	andi	a4,s0,16
   17a60:	fe0714e3          	bnez	a4,17a48 <_svfprintf_r+0xe84>
   17a64:	04047713          	andi	a4,s0,64
   17a68:	00070863          	beqz	a4,17a78 <_svfprintf_r+0xeb4>
   17a6c:	02815703          	lhu	a4,40(sp)
   17a70:	00e79023          	sh	a4,0(a5)
   17a74:	fddff06f          	j	17a50 <_svfprintf_r+0xe8c>
   17a78:	20047413          	andi	s0,s0,512
   17a7c:	00040863          	beqz	s0,17a8c <_svfprintf_r+0xec8>
   17a80:	02814703          	lbu	a4,40(sp)
   17a84:	00e78023          	sb	a4,0(a5)
   17a88:	fc9ff06f          	j	17a50 <_svfprintf_r+0xe8c>
   17a8c:	02812703          	lw	a4,40(sp)
   17a90:	00e7a023          	sw	a4,0(a5)
   17a94:	fbdff06f          	j	17a50 <_svfprintf_r+0xe8c>
   17a98:	01046413          	ori	s0,s0,16
   17a9c:	0004041b          	sext.w	s0,s0
   17aa0:	008b8793          	addi	a5,s7,8
   17aa4:	02f13823          	sd	a5,48(sp)
   17aa8:	02047793          	andi	a5,s0,32
   17aac:	04078063          	beqz	a5,17aec <_svfprintf_r+0xf28>
   17ab0:	000bbb83          	ld	s7,0(s7)
   17ab4:	bff47413          	andi	s0,s0,-1025
   17ab8:	0004041b          	sext.w	s0,s0
   17abc:	00000793          	li	a5,0
   17ac0:	0c0107a3          	sb	zero,207(sp)
   17ac4:	fff00713          	li	a4,-1
   17ac8:	18ed8c63          	beq	s11,a4,17c60 <_svfprintf_r+0x109c>
   17acc:	00040713          	mv	a4,s0
   17ad0:	f7f47413          	andi	s0,s0,-129
   17ad4:	0004041b          	sext.w	s0,s0
   17ad8:	180b9463          	bnez	s7,17c60 <_svfprintf_r+0x109c>
   17adc:	2a0d8a63          	beqz	s11,17d90 <_svfprintf_r+0x11cc>
   17ae0:	00100713          	li	a4,1
   17ae4:	18e79263          	bne	a5,a4,17c68 <_svfprintf_r+0x10a4>
   17ae8:	fe4ff06f          	j	172cc <_svfprintf_r+0x708>
   17aec:	01047793          	andi	a5,s0,16
   17af0:	fc0790e3          	bnez	a5,17ab0 <_svfprintf_r+0xeec>
   17af4:	04047793          	andi	a5,s0,64
   17af8:	000bab83          	lw	s7,0(s7)
   17afc:	00078863          	beqz	a5,17b0c <_svfprintf_r+0xf48>
   17b00:	030b9b93          	slli	s7,s7,0x30
   17b04:	030bdb93          	srli	s7,s7,0x30
   17b08:	fadff06f          	j	17ab4 <_svfprintf_r+0xef0>
   17b0c:	20047793          	andi	a5,s0,512
   17b10:	00078663          	beqz	a5,17b1c <_svfprintf_r+0xf58>
   17b14:	0ffbfb93          	zext.b	s7,s7
   17b18:	f9dff06f          	j	17ab4 <_svfprintf_r+0xef0>
   17b1c:	020b9b93          	slli	s7,s7,0x20
   17b20:	020bdb93          	srli	s7,s7,0x20
   17b24:	f91ff06f          	j	17ab4 <_svfprintf_r+0xef0>
   17b28:	008b8793          	addi	a5,s7,8
   17b2c:	02f13823          	sd	a5,48(sp)
   17b30:	ffff87b7          	lui	a5,0xffff8
   17b34:	8307c793          	xori	a5,a5,-2000
   17b38:	0cf11823          	sh	a5,208(sp)
   17b3c:	0001e7b7          	lui	a5,0x1e
   17b40:	c1078793          	addi	a5,a5,-1008 # 1dc10 <zeroes.4441+0x68>
   17b44:	00246413          	ori	s0,s0,2
   17b48:	06f13023          	sd	a5,96(sp)
   17b4c:	000bbb83          	ld	s7,0(s7)
   17b50:	0004041b          	sext.w	s0,s0
   17b54:	00200793          	li	a5,2
   17b58:	07800b13          	li	s6,120
   17b5c:	f65ff06f          	j	17ac0 <_svfprintf_r+0xefc>
   17b60:	008b8793          	addi	a5,s7,8
   17b64:	02f13823          	sd	a5,48(sp)
   17b68:	0c0107a3          	sb	zero,207(sp)
   17b6c:	fff00793          	li	a5,-1
   17b70:	000bb483          	ld	s1,0(s7)
   17b74:	02fd8463          	beq	s11,a5,17b9c <_svfprintf_r+0xfd8>
   17b78:	000d8613          	mv	a2,s11
   17b7c:	00000593          	li	a1,0
   17b80:	00048513          	mv	a0,s1
   17b84:	d89fd0ef          	jal	ra,1590c <memchr>
   17b88:	00050b93          	mv	s7,a0
   17b8c:	fe050e63          	beqz	a0,17388 <_svfprintf_r+0x7c4>
   17b90:	40950dbb          	subw	s11,a0,s1
   17b94:	00000b93          	li	s7,0
   17b98:	ff0ff06f          	j	17388 <_svfprintf_r+0x7c4>
   17b9c:	00048513          	mv	a0,s1
   17ba0:	fc1fe0ef          	jal	ra,16b60 <strlen>
   17ba4:	00050d9b          	sext.w	s11,a0
   17ba8:	fedff06f          	j	17b94 <_svfprintf_r+0xfd0>
   17bac:	01046413          	ori	s0,s0,16
   17bb0:	0004041b          	sext.w	s0,s0
   17bb4:	008b8793          	addi	a5,s7,8
   17bb8:	02f13823          	sd	a5,48(sp)
   17bbc:	02047793          	andi	a5,s0,32
   17bc0:	00078863          	beqz	a5,17bd0 <_svfprintf_r+0x100c>
   17bc4:	000bbb83          	ld	s7,0(s7)
   17bc8:	00100793          	li	a5,1
   17bcc:	ef5ff06f          	j	17ac0 <_svfprintf_r+0xefc>
   17bd0:	01047793          	andi	a5,s0,16
   17bd4:	fe0798e3          	bnez	a5,17bc4 <_svfprintf_r+0x1000>
   17bd8:	04047793          	andi	a5,s0,64
   17bdc:	000bab83          	lw	s7,0(s7)
   17be0:	00078863          	beqz	a5,17bf0 <_svfprintf_r+0x102c>
   17be4:	030b9b93          	slli	s7,s7,0x30
   17be8:	030bdb93          	srli	s7,s7,0x30
   17bec:	fddff06f          	j	17bc8 <_svfprintf_r+0x1004>
   17bf0:	20047793          	andi	a5,s0,512
   17bf4:	00078663          	beqz	a5,17c00 <_svfprintf_r+0x103c>
   17bf8:	0ffbfb93          	zext.b	s7,s7
   17bfc:	fcdff06f          	j	17bc8 <_svfprintf_r+0x1004>
   17c00:	020b9b93          	slli	s7,s7,0x20
   17c04:	020bdb93          	srli	s7,s7,0x20
   17c08:	fc1ff06f          	j	17bc8 <_svfprintf_r+0x1004>
   17c0c:	0001e7b7          	lui	a5,0x1e
   17c10:	c1078793          	addi	a5,a5,-1008 # 1dc10 <zeroes.4441+0x68>
   17c14:	9a0ff06f          	j	16db4 <_svfprintf_r+0x1f0>
   17c18:	01047793          	andi	a5,s0,16
   17c1c:	9a079663          	bnez	a5,16dc8 <_svfprintf_r+0x204>
   17c20:	04047793          	andi	a5,s0,64
   17c24:	000bab83          	lw	s7,0(s7)
   17c28:	00078863          	beqz	a5,17c38 <_svfprintf_r+0x1074>
   17c2c:	030b9b93          	slli	s7,s7,0x30
   17c30:	030bdb93          	srli	s7,s7,0x30
   17c34:	998ff06f          	j	16dcc <_svfprintf_r+0x208>
   17c38:	20047793          	andi	a5,s0,512
   17c3c:	00078663          	beqz	a5,17c48 <_svfprintf_r+0x1084>
   17c40:	0ffbfb93          	zext.b	s7,s7
   17c44:	988ff06f          	j	16dcc <_svfprintf_r+0x208>
   17c48:	020b9b93          	slli	s7,s7,0x20
   17c4c:	020bdb93          	srli	s7,s7,0x20
   17c50:	97cff06f          	j	16dcc <_svfprintf_r+0x208>
   17c54:	00040713          	mv	a4,s0
   17c58:	00100793          	li	a5,1
   17c5c:	e75ff06f          	j	17ad0 <_svfprintf_r+0xf0c>
   17c60:	00100713          	li	a4,1
   17c64:	e6e78063          	beq	a5,a4,172c4 <_svfprintf_r+0x700>
   17c68:	00200713          	li	a4,2
   17c6c:	0ee78e63          	beq	a5,a4,17d68 <_svfprintf_r+0x11a4>
   17c70:	17c10793          	addi	a5,sp,380
   17c74:	007bf713          	andi	a4,s7,7
   17c78:	03070713          	addi	a4,a4,48
   17c7c:	fee78fa3          	sb	a4,-1(a5)
   17c80:	003bdb93          	srli	s7,s7,0x3
   17c84:	fff78493          	addi	s1,a5,-1
   17c88:	020b9e63          	bnez	s7,17cc4 <_svfprintf_r+0x1100>
   17c8c:	00147693          	andi	a3,s0,1
   17c90:	00068a63          	beqz	a3,17ca4 <_svfprintf_r+0x10e0>
   17c94:	03000693          	li	a3,48
   17c98:	00d70663          	beq	a4,a3,17ca4 <_svfprintf_r+0x10e0>
   17c9c:	fed48fa3          	sb	a3,-1(s1)
   17ca0:	ffe78493          	addi	s1,a5,-2
   17ca4:	17c10e13          	addi	t3,sp,380
   17ca8:	000d8713          	mv	a4,s11
   17cac:	00000b93          	li	s7,0
   17cb0:	409e0dbb          	subw	s11,t3,s1
   17cb4:	00013423          	sd	zero,8(sp)
   17cb8:	00000c13          	li	s8,0
   17cbc:	00000d13          	li	s10,0
   17cc0:	b00ff06f          	j	16fc0 <_svfprintf_r+0x3fc>
   17cc4:	00048793          	mv	a5,s1
   17cc8:	fadff06f          	j	17c74 <_svfprintf_r+0x10b0>
   17ccc:	40047c13          	andi	s8,s0,1024
   17cd0:	00000a13          	li	s4,0
   17cd4:	17c10793          	addi	a5,sp,380
   17cd8:	00a00d13          	li	s10,10
   17cdc:	000c0c1b          	sext.w	s8,s8
   17ce0:	0ff00693          	li	a3,255
   17ce4:	00900813          	li	a6,9
   17ce8:	03abf733          	remu	a4,s7,s10
   17cec:	fff78493          	addi	s1,a5,-1
   17cf0:	001a0a1b          	addiw	s4,s4,1
   17cf4:	0307071b          	addiw	a4,a4,48
   17cf8:	fee78fa3          	sb	a4,-1(a5)
   17cfc:	040c0e63          	beqz	s8,17d58 <_svfprintf_r+0x1194>
   17d00:	00013783          	ld	a5,0(sp)
   17d04:	0007c783          	lbu	a5,0(a5)
   17d08:	04fa1863          	bne	s4,a5,17d58 <_svfprintf_r+0x1194>
   17d0c:	04d78663          	beq	a5,a3,17d58 <_svfprintf_r+0x1194>
   17d10:	05787463          	bgeu	a6,s7,17d58 <_svfprintf_r+0x1194>
   17d14:	04013783          	ld	a5,64(sp)
   17d18:	05013583          	ld	a1,80(sp)
   17d1c:	03013c23          	sd	a6,56(sp)
   17d20:	40f484b3          	sub	s1,s1,a5
   17d24:	00078613          	mv	a2,a5
   17d28:	00048513          	mv	a0,s1
   17d2c:	00d13423          	sd	a3,8(sp)
   17d30:	e4dfe0ef          	jal	ra,16b7c <strncpy>
   17d34:	00013783          	ld	a5,0(sp)
   17d38:	00000a13          	li	s4,0
   17d3c:	00813683          	ld	a3,8(sp)
   17d40:	0017c783          	lbu	a5,1(a5)
   17d44:	03813803          	ld	a6,56(sp)
   17d48:	00078863          	beqz	a5,17d58 <_svfprintf_r+0x1194>
   17d4c:	00013783          	ld	a5,0(sp)
   17d50:	00178793          	addi	a5,a5,1
   17d54:	00f13023          	sd	a5,0(sp)
   17d58:	03abdbb3          	divu	s7,s7,s10
   17d5c:	f40b84e3          	beqz	s7,17ca4 <_svfprintf_r+0x10e0>
   17d60:	00048793          	mv	a5,s1
   17d64:	f85ff06f          	j	17ce8 <_svfprintf_r+0x1124>
   17d68:	17c10493          	addi	s1,sp,380
   17d6c:	06013703          	ld	a4,96(sp)
   17d70:	00fbf793          	andi	a5,s7,15
   17d74:	fff48493          	addi	s1,s1,-1
   17d78:	00f707b3          	add	a5,a4,a5
   17d7c:	0007c783          	lbu	a5,0(a5)
   17d80:	004bdb93          	srli	s7,s7,0x4
   17d84:	00f48023          	sb	a5,0(s1)
   17d88:	fe0b92e3          	bnez	s7,17d6c <_svfprintf_r+0x11a8>
   17d8c:	f19ff06f          	j	17ca4 <_svfprintf_r+0x10e0>
   17d90:	17c10493          	addi	s1,sp,380
   17d94:	f00798e3          	bnez	a5,17ca4 <_svfprintf_r+0x10e0>
   17d98:	00177713          	andi	a4,a4,1
   17d9c:	f00704e3          	beqz	a4,17ca4 <_svfprintf_r+0x10e0>
   17da0:	03000793          	li	a5,48
   17da4:	16f10da3          	sb	a5,379(sp)
   17da8:	d2cff06f          	j	172d4 <_svfprintf_r+0x710>
   17dac:	360b06e3          	beqz	s6,18918 <_svfprintf_r+0x1d54>
   17db0:	11610c23          	sb	s6,280(sp)
   17db4:	0c0107a3          	sb	zero,207(sp)
   17db8:	03713823          	sd	s7,48(sp)
   17dbc:	9e8ff06f          	j	16fa4 <_svfprintf_r+0x3e0>
   17dc0:	01060613          	addi	a2,a2,16
   17dc4:	011cb423          	sd	a7,8(s9)
   17dc8:	10c13823          	sd	a2,272(sp)
   17dcc:	10b12423          	sw	a1,264(sp)
   17dd0:	04aed263          	bge	t4,a0,17e14 <_svfprintf_r+0x1250>
   17dd4:	10010613          	addi	a2,sp,256
   17dd8:	00098593          	mv	a1,s3
   17ddc:	00090513          	mv	a0,s2
   17de0:	0bd13c23          	sd	t4,184(sp)
   17de4:	0b013823          	sd	a6,176(sp)
   17de8:	09113423          	sd	a7,136(sp)
   17dec:	08e13023          	sd	a4,128(sp)
   17df0:	06d13c23          	sd	a3,120(sp)
   17df4:	4a5020ef          	jal	ra,1aa98 <__ssprint_r>
   17df8:	2c0510e3          	bnez	a0,188b8 <_svfprintf_r+0x1cf4>
   17dfc:	0b813e83          	ld	t4,184(sp)
   17e00:	0b013803          	ld	a6,176(sp)
   17e04:	08813883          	ld	a7,136(sp)
   17e08:	08013703          	ld	a4,128(sp)
   17e0c:	07813683          	ld	a3,120(sp)
   17e10:	000a8f13          	mv	t5,s5
   17e14:	ff06869b          	addiw	a3,a3,-16
   17e18:	000f0c93          	mv	s9,t5
   17e1c:	a10ff06f          	j	1702c <_svfprintf_r+0x468>
   17e20:	01060613          	addi	a2,a2,16
   17e24:	011cb423          	sd	a7,8(s9)
   17e28:	10c13823          	sd	a2,272(sp)
   17e2c:	10b12423          	sw	a1,264(sp)
   17e30:	04aed263          	bge	t4,a0,17e74 <_svfprintf_r+0x12b0>
   17e34:	10010613          	addi	a2,sp,256
   17e38:	00098593          	mv	a1,s3
   17e3c:	00090513          	mv	a0,s2
   17e40:	09d13423          	sd	t4,136(sp)
   17e44:	09013023          	sd	a6,128(sp)
   17e48:	07113c23          	sd	a7,120(sp)
   17e4c:	06e13823          	sd	a4,112(sp)
   17e50:	06d13423          	sd	a3,104(sp)
   17e54:	445020ef          	jal	ra,1aa98 <__ssprint_r>
   17e58:	260510e3          	bnez	a0,188b8 <_svfprintf_r+0x1cf4>
   17e5c:	08813e83          	ld	t4,136(sp)
   17e60:	08013803          	ld	a6,128(sp)
   17e64:	07813883          	ld	a7,120(sp)
   17e68:	07013703          	ld	a4,112(sp)
   17e6c:	06813683          	ld	a3,104(sp)
   17e70:	000a8f13          	mv	t5,s5
   17e74:	ff06869b          	addiw	a3,a3,-16
   17e78:	000f0c93          	mv	s9,t5
   17e7c:	af8ff06f          	j	17174 <_svfprintf_r+0x5b0>
   17e80:	01068693          	addi	a3,a3,16
   17e84:	011cb423          	sd	a7,8(s9)
   17e88:	10d13823          	sd	a3,272(sp)
   17e8c:	10c12423          	sw	a2,264(sp)
   17e90:	02bede63          	bge	t4,a1,17ecc <_svfprintf_r+0x1308>
   17e94:	10010613          	addi	a2,sp,256
   17e98:	00098593          	mv	a1,s3
   17e9c:	00090513          	mv	a0,s2
   17ea0:	09d13023          	sd	t4,128(sp)
   17ea4:	07013c23          	sd	a6,120(sp)
   17ea8:	07113823          	sd	a7,112(sp)
   17eac:	06e13423          	sd	a4,104(sp)
   17eb0:	3e9020ef          	jal	ra,1aa98 <__ssprint_r>
   17eb4:	200512e3          	bnez	a0,188b8 <_svfprintf_r+0x1cf4>
   17eb8:	08013e83          	ld	t4,128(sp)
   17ebc:	07813803          	ld	a6,120(sp)
   17ec0:	07013883          	ld	a7,112(sp)
   17ec4:	06813703          	ld	a4,104(sp)
   17ec8:	000a8513          	mv	a0,s5
   17ecc:	ff07071b          	addiw	a4,a4,-16
   17ed0:	00050c93          	mv	s9,a0
   17ed4:	b14ff06f          	j	171e8 <_svfprintf_r+0x624>
   17ed8:	06500693          	li	a3,101
   17edc:	7966dc63          	bge	a3,s6,18674 <_svfprintf_r+0x1ab0>
   17ee0:	0f013503          	ld	a0,240(sp)
   17ee4:	0f813583          	ld	a1,248(sp)
   17ee8:	00000613          	li	a2,0
   17eec:	00000693          	li	a3,0
   17ef0:	06e13423          	sd	a4,104(sp)
   17ef4:	691030ef          	jal	ra,1bd84 <__eqtf2>
   17ef8:	06813703          	ld	a4,104(sp)
   17efc:	18051663          	bnez	a0,18088 <_svfprintf_r+0x14c4>
   17f00:	0001e7b7          	lui	a5,0x1e
   17f04:	c4078793          	addi	a5,a5,-960 # 1dc40 <zeroes.4441+0x98>
   17f08:	00fcb023          	sd	a5,0(s9)
   17f0c:	00100793          	li	a5,1
   17f10:	00fcb423          	sd	a5,8(s9)
   17f14:	10812783          	lw	a5,264(sp)
   17f18:	00170713          	addi	a4,a4,1
   17f1c:	10e13823          	sd	a4,272(sp)
   17f20:	0017871b          	addiw	a4,a5,1
   17f24:	10e12423          	sw	a4,264(sp)
   17f28:	00700793          	li	a5,7
   17f2c:	010c8c93          	addi	s9,s9,16
   17f30:	00e7de63          	bge	a5,a4,17f4c <_svfprintf_r+0x1388>
   17f34:	10010613          	addi	a2,sp,256
   17f38:	00098593          	mv	a1,s3
   17f3c:	00090513          	mv	a0,s2
   17f40:	359020ef          	jal	ra,1aa98 <__ssprint_r>
   17f44:	16051ae3          	bnez	a0,188b8 <_svfprintf_r+0x1cf4>
   17f48:	000a8c93          	mv	s9,s5
   17f4c:	0d812783          	lw	a5,216(sp)
   17f50:	0147c663          	blt	a5,s4,17f5c <_svfprintf_r+0x1398>
   17f54:	00147793          	andi	a5,s0,1
   17f58:	0a078263          	beqz	a5,17ffc <_svfprintf_r+0x1438>
   17f5c:	04813783          	ld	a5,72(sp)
   17f60:	01813703          	ld	a4,24(sp)
   17f64:	010c8c93          	addi	s9,s9,16
   17f68:	fefcb823          	sd	a5,-16(s9)
   17f6c:	01813783          	ld	a5,24(sp)
   17f70:	fefcbc23          	sd	a5,-8(s9)
   17f74:	11013783          	ld	a5,272(sp)
   17f78:	00e787b3          	add	a5,a5,a4
   17f7c:	10f13823          	sd	a5,272(sp)
   17f80:	10812783          	lw	a5,264(sp)
   17f84:	0017871b          	addiw	a4,a5,1
   17f88:	10e12423          	sw	a4,264(sp)
   17f8c:	00700793          	li	a5,7
   17f90:	00e7de63          	bge	a5,a4,17fac <_svfprintf_r+0x13e8>
   17f94:	10010613          	addi	a2,sp,256
   17f98:	00098593          	mv	a1,s3
   17f9c:	00090513          	mv	a0,s2
   17fa0:	2f9020ef          	jal	ra,1aa98 <__ssprint_r>
   17fa4:	10051ae3          	bnez	a0,188b8 <_svfprintf_r+0x1cf4>
   17fa8:	000a8c93          	mv	s9,s5
   17fac:	fffa049b          	addiw	s1,s4,-1
   17fb0:	04905663          	blez	s1,17ffc <_svfprintf_r+0x1438>
   17fb4:	0001eb37          	lui	s6,0x1e
   17fb8:	01000c13          	li	s8,16
   17fbc:	190b0b13          	addi	s6,s6,400 # 1e190 <zeroes.4426>
   17fc0:	00700d13          	li	s10,7
   17fc4:	10812703          	lw	a4,264(sp)
   17fc8:	016cb023          	sd	s6,0(s9)
   17fcc:	11013783          	ld	a5,272(sp)
   17fd0:	0017069b          	addiw	a3,a4,1
   17fd4:	00068713          	mv	a4,a3
   17fd8:	010c8613          	addi	a2,s9,16
   17fdc:	069c4a63          	blt	s8,s1,18050 <_svfprintf_r+0x148c>
   17fe0:	009cb423          	sd	s1,8(s9)
   17fe4:	00f484b3          	add	s1,s1,a5
   17fe8:	10913823          	sd	s1,272(sp)
   17fec:	10d12423          	sw	a3,264(sp)
   17ff0:	00700793          	li	a5,7
   17ff4:	00060c93          	mv	s9,a2
   17ff8:	a6d7cc63          	blt	a5,a3,17270 <_svfprintf_r+0x6ac>
   17ffc:	00447413          	andi	s0,s0,4
   18000:	04041ae3          	bnez	s0,18854 <_svfprintf_r+0x1c90>
   18004:	02013703          	ld	a4,32(sp)
   18008:	03813683          	ld	a3,56(sp)
   1800c:	02012783          	lw	a5,32(sp)
   18010:	00d75463          	bge	a4,a3,18018 <_svfprintf_r+0x1454>
   18014:	03812783          	lw	a5,56(sp)
   18018:	02812703          	lw	a4,40(sp)
   1801c:	00e787bb          	addw	a5,a5,a4
   18020:	02f13423          	sd	a5,40(sp)
   18024:	11013783          	ld	a5,272(sp)
   18028:	00078c63          	beqz	a5,18040 <_svfprintf_r+0x147c>
   1802c:	10010613          	addi	a2,sp,256
   18030:	00098593          	mv	a1,s3
   18034:	00090513          	mv	a0,s2
   18038:	261020ef          	jal	ra,1aa98 <__ssprint_r>
   1803c:	06051ee3          	bnez	a0,188b8 <_svfprintf_r+0x1cf4>
   18040:	10012423          	sw	zero,264(sp)
   18044:	0c0b92e3          	bnez	s7,18908 <_svfprintf_r+0x1d44>
   18048:	000a8c93          	mv	s9,s5
   1804c:	a05ff06f          	j	17a50 <_svfprintf_r+0xe8c>
   18050:	01078793          	addi	a5,a5,16
   18054:	018cb423          	sd	s8,8(s9)
   18058:	10f13823          	sd	a5,272(sp)
   1805c:	10e12423          	sw	a4,264(sp)
   18060:	00dd5e63          	bge	s10,a3,1807c <_svfprintf_r+0x14b8>
   18064:	10010613          	addi	a2,sp,256
   18068:	00098593          	mv	a1,s3
   1806c:	00090513          	mv	a0,s2
   18070:	229020ef          	jal	ra,1aa98 <__ssprint_r>
   18074:	040512e3          	bnez	a0,188b8 <_svfprintf_r+0x1cf4>
   18078:	000a8613          	mv	a2,s5
   1807c:	ff04849b          	addiw	s1,s1,-16
   18080:	00060c93          	mv	s9,a2
   18084:	f41ff06f          	j	17fc4 <_svfprintf_r+0x1400>
   18088:	0d812683          	lw	a3,216(sp)
   1808c:	18d04463          	bgtz	a3,18214 <_svfprintf_r+0x1650>
   18090:	0001e7b7          	lui	a5,0x1e
   18094:	c4078793          	addi	a5,a5,-960 # 1dc40 <zeroes.4441+0x98>
   18098:	00fcb023          	sd	a5,0(s9)
   1809c:	00100793          	li	a5,1
   180a0:	00fcb423          	sd	a5,8(s9)
   180a4:	10812783          	lw	a5,264(sp)
   180a8:	00170713          	addi	a4,a4,1
   180ac:	10e13823          	sd	a4,272(sp)
   180b0:	0017871b          	addiw	a4,a5,1
   180b4:	10e12423          	sw	a4,264(sp)
   180b8:	00700793          	li	a5,7
   180bc:	010c8c93          	addi	s9,s9,16
   180c0:	00e7de63          	bge	a5,a4,180dc <_svfprintf_r+0x1518>
   180c4:	10010613          	addi	a2,sp,256
   180c8:	00098593          	mv	a1,s3
   180cc:	00090513          	mv	a0,s2
   180d0:	1c9020ef          	jal	ra,1aa98 <__ssprint_r>
   180d4:	7e051263          	bnez	a0,188b8 <_svfprintf_r+0x1cf4>
   180d8:	000a8c93          	mv	s9,s5
   180dc:	0d812783          	lw	a5,216(sp)
   180e0:	00079863          	bnez	a5,180f0 <_svfprintf_r+0x152c>
   180e4:	000a1663          	bnez	s4,180f0 <_svfprintf_r+0x152c>
   180e8:	00147793          	andi	a5,s0,1
   180ec:	f00788e3          	beqz	a5,17ffc <_svfprintf_r+0x1438>
   180f0:	04813783          	ld	a5,72(sp)
   180f4:	01813703          	ld	a4,24(sp)
   180f8:	010c8313          	addi	t1,s9,16
   180fc:	00fcb023          	sd	a5,0(s9)
   18100:	01813783          	ld	a5,24(sp)
   18104:	00fcb423          	sd	a5,8(s9)
   18108:	11013783          	ld	a5,272(sp)
   1810c:	00e787b3          	add	a5,a5,a4
   18110:	10f13823          	sd	a5,272(sp)
   18114:	10812783          	lw	a5,264(sp)
   18118:	0017871b          	addiw	a4,a5,1
   1811c:	10e12423          	sw	a4,264(sp)
   18120:	00700793          	li	a5,7
   18124:	00e7de63          	bge	a5,a4,18140 <_svfprintf_r+0x157c>
   18128:	10010613          	addi	a2,sp,256
   1812c:	00098593          	mv	a1,s3
   18130:	00090513          	mv	a0,s2
   18134:	165020ef          	jal	ra,1aa98 <__ssprint_r>
   18138:	78051063          	bnez	a0,188b8 <_svfprintf_r+0x1cf4>
   1813c:	000a8313          	mv	t1,s5
   18140:	0d812b03          	lw	s6,216(sp)
   18144:	060b5463          	bgez	s6,181ac <_svfprintf_r+0x15e8>
   18148:	0001ec37          	lui	s8,0x1e
   1814c:	41600b3b          	negw	s6,s6
   18150:	00030793          	mv	a5,t1
   18154:	01000d13          	li	s10,16
   18158:	190c0c13          	addi	s8,s8,400 # 1e190 <zeroes.4426>
   1815c:	00700c93          	li	s9,7
   18160:	10812683          	lw	a3,264(sp)
   18164:	0187b023          	sd	s8,0(a5)
   18168:	11013703          	ld	a4,272(sp)
   1816c:	0016861b          	addiw	a2,a3,1
   18170:	00060693          	mv	a3,a2
   18174:	01030313          	addi	t1,t1,16
   18178:	076d4263          	blt	s10,s6,181dc <_svfprintf_r+0x1618>
   1817c:	0167b423          	sd	s6,8(a5)
   18180:	00eb0b33          	add	s6,s6,a4
   18184:	11613823          	sd	s6,272(sp)
   18188:	10c12423          	sw	a2,264(sp)
   1818c:	00700793          	li	a5,7
   18190:	00c7de63          	bge	a5,a2,181ac <_svfprintf_r+0x15e8>
   18194:	10010613          	addi	a2,sp,256
   18198:	00098593          	mv	a1,s3
   1819c:	00090513          	mv	a0,s2
   181a0:	0f9020ef          	jal	ra,1aa98 <__ssprint_r>
   181a4:	70051a63          	bnez	a0,188b8 <_svfprintf_r+0x1cf4>
   181a8:	000a8313          	mv	t1,s5
   181ac:	11013783          	ld	a5,272(sp)
   181b0:	00933023          	sd	s1,0(t1)
   181b4:	01433423          	sd	s4,8(t1)
   181b8:	014787b3          	add	a5,a5,s4
   181bc:	10f13823          	sd	a5,272(sp)
   181c0:	10812783          	lw	a5,264(sp)
   181c4:	01030c93          	addi	s9,t1,16
   181c8:	0017871b          	addiw	a4,a5,1
   181cc:	10e12423          	sw	a4,264(sp)
   181d0:	00700793          	li	a5,7
   181d4:	e2e7d4e3          	bge	a5,a4,17ffc <_svfprintf_r+0x1438>
   181d8:	898ff06f          	j	17270 <_svfprintf_r+0x6ac>
   181dc:	01070713          	addi	a4,a4,16
   181e0:	01a7b423          	sd	s10,8(a5)
   181e4:	10e13823          	sd	a4,272(sp)
   181e8:	10d12423          	sw	a3,264(sp)
   181ec:	00ccde63          	bge	s9,a2,18208 <_svfprintf_r+0x1644>
   181f0:	10010613          	addi	a2,sp,256
   181f4:	00098593          	mv	a1,s3
   181f8:	00090513          	mv	a0,s2
   181fc:	09d020ef          	jal	ra,1aa98 <__ssprint_r>
   18200:	6a051c63          	bnez	a0,188b8 <_svfprintf_r+0x1cf4>
   18204:	000a8313          	mv	t1,s5
   18208:	ff0b0b1b          	addiw	s6,s6,-16
   1820c:	00030793          	mv	a5,t1
   18210:	f51ff06f          	j	18160 <_svfprintf_r+0x159c>
   18214:	000d0b1b          	sext.w	s6,s10
   18218:	01aa5463          	bge	s4,s10,18220 <_svfprintf_r+0x165c>
   1821c:	000a0b1b          	sext.w	s6,s4
   18220:	05605263          	blez	s6,18264 <_svfprintf_r+0x16a0>
   18224:	00eb0733          	add	a4,s6,a4
   18228:	10e13823          	sd	a4,272(sp)
   1822c:	10812703          	lw	a4,264(sp)
   18230:	009cb023          	sd	s1,0(s9)
   18234:	016cb423          	sd	s6,8(s9)
   18238:	0017069b          	addiw	a3,a4,1
   1823c:	10d12423          	sw	a3,264(sp)
   18240:	00700713          	li	a4,7
   18244:	010c8c93          	addi	s9,s9,16
   18248:	00d75e63          	bge	a4,a3,18264 <_svfprintf_r+0x16a0>
   1824c:	10010613          	addi	a2,sp,256
   18250:	00098593          	mv	a1,s3
   18254:	00090513          	mv	a0,s2
   18258:	041020ef          	jal	ra,1aa98 <__ssprint_r>
   1825c:	64051e63          	bnez	a0,188b8 <_svfprintf_r+0x1cf4>
   18260:	000a8c93          	mv	s9,s5
   18264:	000b0713          	mv	a4,s6
   18268:	000b5463          	bgez	s6,18270 <_svfprintf_r+0x16ac>
   1826c:	00000713          	li	a4,0
   18270:	40ed0b3b          	subw	s6,s10,a4
   18274:	07605263          	blez	s6,182d8 <_svfprintf_r+0x1714>
   18278:	0001e6b7          	lui	a3,0x1e
   1827c:	01000813          	li	a6,16
   18280:	19068d93          	addi	s11,a3,400 # 1e190 <zeroes.4426>
   18284:	00700893          	li	a7,7
   18288:	10812603          	lw	a2,264(sp)
   1828c:	01bcb023          	sd	s11,0(s9)
   18290:	11013703          	ld	a4,272(sp)
   18294:	0016059b          	addiw	a1,a2,1
   18298:	00058613          	mv	a2,a1
   1829c:	010c8513          	addi	a0,s9,16
   182a0:	1b684c63          	blt	a6,s6,18458 <_svfprintf_r+0x1894>
   182a4:	016cb423          	sd	s6,8(s9)
   182a8:	00eb0b33          	add	s6,s6,a4
   182ac:	11613823          	sd	s6,272(sp)
   182b0:	10b12423          	sw	a1,264(sp)
   182b4:	00700713          	li	a4,7
   182b8:	00050c93          	mv	s9,a0
   182bc:	00b75e63          	bge	a4,a1,182d8 <_svfprintf_r+0x1714>
   182c0:	10010613          	addi	a2,sp,256
   182c4:	00098593          	mv	a1,s3
   182c8:	00090513          	mv	a0,s2
   182cc:	7cc020ef          	jal	ra,1aa98 <__ssprint_r>
   182d0:	5e051463          	bnez	a0,188b8 <_svfprintf_r+0x1cf4>
   182d4:	000a8c93          	mv	s9,s5
   182d8:	40047793          	andi	a5,s0,1024
   182dc:	01a48b33          	add	s6,s1,s10
   182e0:	02078a63          	beqz	a5,18314 <_svfprintf_r+0x1750>
   182e4:	014487b3          	add	a5,s1,s4
   182e8:	06f13423          	sd	a5,104(sp)
   182ec:	0001e7b7          	lui	a5,0x1e
   182f0:	19078793          	addi	a5,a5,400 # 1e190 <zeroes.4426>
   182f4:	00700d93          	li	s11,7
   182f8:	00078d13          	mv	s10,a5
   182fc:	00813783          	ld	a5,8(sp)
   18300:	1a0c1063          	bnez	s8,184a0 <_svfprintf_r+0x18dc>
   18304:	1a079063          	bnez	a5,184a4 <_svfprintf_r+0x18e0>
   18308:	014487b3          	add	a5,s1,s4
   1830c:	0167f463          	bgeu	a5,s6,18314 <_svfprintf_r+0x1750>
   18310:	00078b13          	mv	s6,a5
   18314:	0d812783          	lw	a5,216(sp)
   18318:	0147c663          	blt	a5,s4,18324 <_svfprintf_r+0x1760>
   1831c:	00147793          	andi	a5,s0,1
   18320:	04078a63          	beqz	a5,18374 <_svfprintf_r+0x17b0>
   18324:	04813783          	ld	a5,72(sp)
   18328:	01813703          	ld	a4,24(sp)
   1832c:	010c8c93          	addi	s9,s9,16
   18330:	fefcb823          	sd	a5,-16(s9)
   18334:	01813783          	ld	a5,24(sp)
   18338:	fefcbc23          	sd	a5,-8(s9)
   1833c:	11013783          	ld	a5,272(sp)
   18340:	00e787b3          	add	a5,a5,a4
   18344:	10f13823          	sd	a5,272(sp)
   18348:	10812783          	lw	a5,264(sp)
   1834c:	0017871b          	addiw	a4,a5,1
   18350:	10e12423          	sw	a4,264(sp)
   18354:	00700793          	li	a5,7
   18358:	00e7de63          	bge	a5,a4,18374 <_svfprintf_r+0x17b0>
   1835c:	10010613          	addi	a2,sp,256
   18360:	00098593          	mv	a1,s3
   18364:	00090513          	mv	a0,s2
   18368:	730020ef          	jal	ra,1aa98 <__ssprint_r>
   1836c:	54051663          	bnez	a0,188b8 <_svfprintf_r+0x1cf4>
   18370:	000a8c93          	mv	s9,s5
   18374:	0d812c03          	lw	s8,216(sp)
   18378:	014484b3          	add	s1,s1,s4
   1837c:	416484bb          	subw	s1,s1,s6
   18380:	418a07bb          	subw	a5,s4,s8
   18384:	00078c13          	mv	s8,a5
   18388:	00f4d463          	bge	s1,a5,18390 <_svfprintf_r+0x17cc>
   1838c:	00048c1b          	sext.w	s8,s1
   18390:	05805463          	blez	s8,183d8 <_svfprintf_r+0x1814>
   18394:	11013783          	ld	a5,272(sp)
   18398:	016cb023          	sd	s6,0(s9)
   1839c:	018cb423          	sd	s8,8(s9)
   183a0:	00fc07b3          	add	a5,s8,a5
   183a4:	10f13823          	sd	a5,272(sp)
   183a8:	10812783          	lw	a5,264(sp)
   183ac:	010c8c93          	addi	s9,s9,16
   183b0:	0017871b          	addiw	a4,a5,1
   183b4:	10e12423          	sw	a4,264(sp)
   183b8:	00700793          	li	a5,7
   183bc:	00e7de63          	bge	a5,a4,183d8 <_svfprintf_r+0x1814>
   183c0:	10010613          	addi	a2,sp,256
   183c4:	00098593          	mv	a1,s3
   183c8:	00090513          	mv	a0,s2
   183cc:	6cc020ef          	jal	ra,1aa98 <__ssprint_r>
   183d0:	4e051463          	bnez	a0,188b8 <_svfprintf_r+0x1cf4>
   183d4:	000a8c93          	mv	s9,s5
   183d8:	000c0793          	mv	a5,s8
   183dc:	000c5463          	bgez	s8,183e4 <_svfprintf_r+0x1820>
   183e0:	00000793          	li	a5,0
   183e4:	0d812483          	lw	s1,216(sp)
   183e8:	409a04bb          	subw	s1,s4,s1
   183ec:	40f484bb          	subw	s1,s1,a5
   183f0:	c09056e3          	blez	s1,17ffc <_svfprintf_r+0x1438>
   183f4:	0001eb37          	lui	s6,0x1e
   183f8:	01000c13          	li	s8,16
   183fc:	190b0b13          	addi	s6,s6,400 # 1e190 <zeroes.4426>
   18400:	00700d13          	li	s10,7
   18404:	10812703          	lw	a4,264(sp)
   18408:	016cb023          	sd	s6,0(s9)
   1840c:	11013783          	ld	a5,272(sp)
   18410:	0017069b          	addiw	a3,a4,1
   18414:	00068713          	mv	a4,a3
   18418:	010c8613          	addi	a2,s9,16
   1841c:	229c4063          	blt	s8,s1,1863c <_svfprintf_r+0x1a78>
   18420:	009cb423          	sd	s1,8(s9)
   18424:	00f484b3          	add	s1,s1,a5
   18428:	10913823          	sd	s1,272(sp)
   1842c:	10d12423          	sw	a3,264(sp)
   18430:	00700793          	li	a5,7
   18434:	00060c93          	mv	s9,a2
   18438:	bcd7d2e3          	bge	a5,a3,17ffc <_svfprintf_r+0x1438>
   1843c:	10010613          	addi	a2,sp,256
   18440:	00098593          	mv	a1,s3
   18444:	00090513          	mv	a0,s2
   18448:	650020ef          	jal	ra,1aa98 <__ssprint_r>
   1844c:	46051663          	bnez	a0,188b8 <_svfprintf_r+0x1cf4>
   18450:	18010c93          	addi	s9,sp,384
   18454:	ba9ff06f          	j	17ffc <_svfprintf_r+0x1438>
   18458:	01070713          	addi	a4,a4,16
   1845c:	010cb423          	sd	a6,8(s9)
   18460:	10e13823          	sd	a4,272(sp)
   18464:	10c12423          	sw	a2,264(sp)
   18468:	02b8d663          	bge	a7,a1,18494 <_svfprintf_r+0x18d0>
   1846c:	10010613          	addi	a2,sp,256
   18470:	00098593          	mv	a1,s3
   18474:	00090513          	mv	a0,s2
   18478:	07113823          	sd	a7,112(sp)
   1847c:	07013423          	sd	a6,104(sp)
   18480:	618020ef          	jal	ra,1aa98 <__ssprint_r>
   18484:	42051a63          	bnez	a0,188b8 <_svfprintf_r+0x1cf4>
   18488:	07013883          	ld	a7,112(sp)
   1848c:	06813803          	ld	a6,104(sp)
   18490:	000a8513          	mv	a0,s5
   18494:	ff0b0b1b          	addiw	s6,s6,-16
   18498:	00050c93          	mv	s9,a0
   1849c:	dedff06f          	j	18288 <_svfprintf_r+0x16c4>
   184a0:	0e078863          	beqz	a5,18590 <_svfprintf_r+0x19cc>
   184a4:	00812783          	lw	a5,8(sp)
   184a8:	fff7879b          	addiw	a5,a5,-1
   184ac:	00f13423          	sd	a5,8(sp)
   184b0:	05013783          	ld	a5,80(sp)
   184b4:	04013703          	ld	a4,64(sp)
   184b8:	010c8c93          	addi	s9,s9,16
   184bc:	fefcb823          	sd	a5,-16(s9)
   184c0:	04013783          	ld	a5,64(sp)
   184c4:	fefcbc23          	sd	a5,-8(s9)
   184c8:	11013783          	ld	a5,272(sp)
   184cc:	00e787b3          	add	a5,a5,a4
   184d0:	10f13823          	sd	a5,272(sp)
   184d4:	10812783          	lw	a5,264(sp)
   184d8:	0017871b          	addiw	a4,a5,1
   184dc:	10e12423          	sw	a4,264(sp)
   184e0:	00edde63          	bge	s11,a4,184fc <_svfprintf_r+0x1938>
   184e4:	10010613          	addi	a2,sp,256
   184e8:	00098593          	mv	a1,s3
   184ec:	00090513          	mv	a0,s2
   184f0:	5a8020ef          	jal	ra,1aa98 <__ssprint_r>
   184f4:	3c051263          	bnez	a0,188b8 <_svfprintf_r+0x1cf4>
   184f8:	000a8c93          	mv	s9,s5
   184fc:	00013703          	ld	a4,0(sp)
   18500:	06812783          	lw	a5,104(sp)
   18504:	00074703          	lbu	a4,0(a4)
   18508:	416787bb          	subw	a5,a5,s6
   1850c:	00e7d463          	bge	a5,a4,18514 <_svfprintf_r+0x1950>
   18510:	0007871b          	sext.w	a4,a5
   18514:	04e05663          	blez	a4,18560 <_svfprintf_r+0x199c>
   18518:	11013783          	ld	a5,272(sp)
   1851c:	016cb023          	sd	s6,0(s9)
   18520:	00ecb423          	sd	a4,8(s9)
   18524:	00f707b3          	add	a5,a4,a5
   18528:	10f13823          	sd	a5,272(sp)
   1852c:	10812783          	lw	a5,264(sp)
   18530:	010c8c93          	addi	s9,s9,16
   18534:	0017869b          	addiw	a3,a5,1
   18538:	10d12423          	sw	a3,264(sp)
   1853c:	02ddd263          	bge	s11,a3,18560 <_svfprintf_r+0x199c>
   18540:	10010613          	addi	a2,sp,256
   18544:	00098593          	mv	a1,s3
   18548:	00090513          	mv	a0,s2
   1854c:	06e13823          	sd	a4,112(sp)
   18550:	548020ef          	jal	ra,1aa98 <__ssprint_r>
   18554:	36051263          	bnez	a0,188b8 <_svfprintf_r+0x1cf4>
   18558:	07013703          	ld	a4,112(sp)
   1855c:	18010c93          	addi	s9,sp,384
   18560:	00070693          	mv	a3,a4
   18564:	00075463          	bgez	a4,1856c <_svfprintf_r+0x19a8>
   18568:	00000693          	li	a3,0
   1856c:	00013783          	ld	a5,0(sp)
   18570:	01000813          	li	a6,16
   18574:	0007c783          	lbu	a5,0(a5)
   18578:	40d787bb          	subw	a5,a5,a3
   1857c:	06f04863          	bgtz	a5,185ec <_svfprintf_r+0x1a28>
   18580:	00013783          	ld	a5,0(sp)
   18584:	0007c783          	lbu	a5,0(a5)
   18588:	00fb0b33          	add	s6,s6,a5
   1858c:	d71ff06f          	j	182fc <_svfprintf_r+0x1738>
   18590:	00013783          	ld	a5,0(sp)
   18594:	fffc0c1b          	addiw	s8,s8,-1
   18598:	fff78793          	addi	a5,a5,-1
   1859c:	00f13023          	sd	a5,0(sp)
   185a0:	f11ff06f          	j	184b0 <_svfprintf_r+0x18ec>
   185a4:	01070713          	addi	a4,a4,16
   185a8:	01acb023          	sd	s10,0(s9)
   185ac:	010cb423          	sd	a6,8(s9)
   185b0:	10e13823          	sd	a4,272(sp)
   185b4:	10d12423          	sw	a3,264(sp)
   185b8:	02cdd663          	bge	s11,a2,185e4 <_svfprintf_r+0x1a20>
   185bc:	10010613          	addi	a2,sp,256
   185c0:	00098593          	mv	a1,s3
   185c4:	00090513          	mv	a0,s2
   185c8:	07013c23          	sd	a6,120(sp)
   185cc:	06f13823          	sd	a5,112(sp)
   185d0:	4c8020ef          	jal	ra,1aa98 <__ssprint_r>
   185d4:	2e051263          	bnez	a0,188b8 <_svfprintf_r+0x1cf4>
   185d8:	07813803          	ld	a6,120(sp)
   185dc:	07013783          	ld	a5,112(sp)
   185e0:	18010593          	addi	a1,sp,384
   185e4:	ff07879b          	addiw	a5,a5,-16
   185e8:	00058c93          	mv	s9,a1
   185ec:	10812683          	lw	a3,264(sp)
   185f0:	11013703          	ld	a4,272(sp)
   185f4:	010c8593          	addi	a1,s9,16
   185f8:	0016861b          	addiw	a2,a3,1
   185fc:	00060693          	mv	a3,a2
   18600:	faf842e3          	blt	a6,a5,185a4 <_svfprintf_r+0x19e0>
   18604:	00fcb423          	sd	a5,8(s9)
   18608:	00e787b3          	add	a5,a5,a4
   1860c:	01acb023          	sd	s10,0(s9)
   18610:	10f13823          	sd	a5,272(sp)
   18614:	10c12423          	sw	a2,264(sp)
   18618:	00058c93          	mv	s9,a1
   1861c:	f6cdd2e3          	bge	s11,a2,18580 <_svfprintf_r+0x19bc>
   18620:	10010613          	addi	a2,sp,256
   18624:	00098593          	mv	a1,s3
   18628:	00090513          	mv	a0,s2
   1862c:	46c020ef          	jal	ra,1aa98 <__ssprint_r>
   18630:	28051463          	bnez	a0,188b8 <_svfprintf_r+0x1cf4>
   18634:	18010c93          	addi	s9,sp,384
   18638:	f49ff06f          	j	18580 <_svfprintf_r+0x19bc>
   1863c:	01078793          	addi	a5,a5,16
   18640:	018cb423          	sd	s8,8(s9)
   18644:	10f13823          	sd	a5,272(sp)
   18648:	10e12423          	sw	a4,264(sp)
   1864c:	00dd5e63          	bge	s10,a3,18668 <_svfprintf_r+0x1aa4>
   18650:	10010613          	addi	a2,sp,256
   18654:	00098593          	mv	a1,s3
   18658:	00090513          	mv	a0,s2
   1865c:	43c020ef          	jal	ra,1aa98 <__ssprint_r>
   18660:	24051c63          	bnez	a0,188b8 <_svfprintf_r+0x1cf4>
   18664:	18010613          	addi	a2,sp,384
   18668:	ff04849b          	addiw	s1,s1,-16
   1866c:	00060c93          	mv	s9,a2
   18670:	d95ff06f          	j	18404 <_svfprintf_r+0x1840>
   18674:	10812783          	lw	a5,264(sp)
   18678:	00100613          	li	a2,1
   1867c:	009cb023          	sd	s1,0(s9)
   18680:	0017869b          	addiw	a3,a5,1
   18684:	00170713          	addi	a4,a4,1
   18688:	00068793          	mv	a5,a3
   1868c:	010c8c13          	addi	s8,s9,16
   18690:	01464663          	blt	a2,s4,1869c <_svfprintf_r+0x1ad8>
   18694:	00147593          	andi	a1,s0,1
   18698:	1a058463          	beqz	a1,18840 <_svfprintf_r+0x1c7c>
   1869c:	00100613          	li	a2,1
   186a0:	10f12423          	sw	a5,264(sp)
   186a4:	00ccb423          	sd	a2,8(s9)
   186a8:	10e13823          	sd	a4,272(sp)
   186ac:	00700793          	li	a5,7
   186b0:	00d7de63          	bge	a5,a3,186cc <_svfprintf_r+0x1b08>
   186b4:	10010613          	addi	a2,sp,256
   186b8:	00098593          	mv	a1,s3
   186bc:	00090513          	mv	a0,s2
   186c0:	3d8020ef          	jal	ra,1aa98 <__ssprint_r>
   186c4:	1e051a63          	bnez	a0,188b8 <_svfprintf_r+0x1cf4>
   186c8:	000a8c13          	mv	s8,s5
   186cc:	04813783          	ld	a5,72(sp)
   186d0:	01813703          	ld	a4,24(sp)
   186d4:	010c0c13          	addi	s8,s8,16
   186d8:	fefc3823          	sd	a5,-16(s8)
   186dc:	01813783          	ld	a5,24(sp)
   186e0:	fefc3c23          	sd	a5,-8(s8)
   186e4:	11013783          	ld	a5,272(sp)
   186e8:	00e787b3          	add	a5,a5,a4
   186ec:	10f13823          	sd	a5,272(sp)
   186f0:	10812783          	lw	a5,264(sp)
   186f4:	0017871b          	addiw	a4,a5,1
   186f8:	10e12423          	sw	a4,264(sp)
   186fc:	00700793          	li	a5,7
   18700:	00e7de63          	bge	a5,a4,1871c <_svfprintf_r+0x1b58>
   18704:	10010613          	addi	a2,sp,256
   18708:	00098593          	mv	a1,s3
   1870c:	00090513          	mv	a0,s2
   18710:	388020ef          	jal	ra,1aa98 <__ssprint_r>
   18714:	1a051263          	bnez	a0,188b8 <_svfprintf_r+0x1cf4>
   18718:	000a8c13          	mv	s8,s5
   1871c:	0f013503          	ld	a0,240(sp)
   18720:	0f813583          	ld	a1,248(sp)
   18724:	00000613          	li	a2,0
   18728:	00000693          	li	a3,0
   1872c:	fffa0b1b          	addiw	s6,s4,-1
   18730:	654030ef          	jal	ra,1bd84 <__eqtf2>
   18734:	08050463          	beqz	a0,187bc <_svfprintf_r+0x1bf8>
   18738:	10812703          	lw	a4,264(sp)
   1873c:	11013783          	ld	a5,272(sp)
   18740:	00148493          	addi	s1,s1,1
   18744:	0017069b          	addiw	a3,a4,1
   18748:	00fb07b3          	add	a5,s6,a5
   1874c:	009c3023          	sd	s1,0(s8)
   18750:	016c3423          	sd	s6,8(s8)
   18754:	10f13823          	sd	a5,272(sp)
   18758:	10d12423          	sw	a3,264(sp)
   1875c:	00700793          	li	a5,7
   18760:	010c0c13          	addi	s8,s8,16
   18764:	00d7de63          	bge	a5,a3,18780 <_svfprintf_r+0x1bbc>
   18768:	10010613          	addi	a2,sp,256
   1876c:	00098593          	mv	a1,s3
   18770:	00090513          	mv	a0,s2
   18774:	324020ef          	jal	ra,1aa98 <__ssprint_r>
   18778:	14051063          	bnez	a0,188b8 <_svfprintf_r+0x1cf4>
   1877c:	000a8c13          	mv	s8,s5
   18780:	0e010793          	addi	a5,sp,224
   18784:	00fc3023          	sd	a5,0(s8)
   18788:	05813783          	ld	a5,88(sp)
   1878c:	05813703          	ld	a4,88(sp)
   18790:	010c0c93          	addi	s9,s8,16
   18794:	00fc3423          	sd	a5,8(s8)
   18798:	11013783          	ld	a5,272(sp)
   1879c:	00e787b3          	add	a5,a5,a4
   187a0:	10f13823          	sd	a5,272(sp)
   187a4:	10812783          	lw	a5,264(sp)
   187a8:	0017871b          	addiw	a4,a5,1
   187ac:	10e12423          	sw	a4,264(sp)
   187b0:	00700793          	li	a5,7
   187b4:	84e7d4e3          	bge	a5,a4,17ffc <_svfprintf_r+0x1438>
   187b8:	ab9fe06f          	j	17270 <_svfprintf_r+0x6ac>
   187bc:	fd6052e3          	blez	s6,18780 <_svfprintf_r+0x1bbc>
   187c0:	0001e4b7          	lui	s1,0x1e
   187c4:	01000d13          	li	s10,16
   187c8:	19048493          	addi	s1,s1,400 # 1e190 <zeroes.4426>
   187cc:	00700c93          	li	s9,7
   187d0:	10812703          	lw	a4,264(sp)
   187d4:	009c3023          	sd	s1,0(s8)
   187d8:	11013783          	ld	a5,272(sp)
   187dc:	0017069b          	addiw	a3,a4,1
   187e0:	00068713          	mv	a4,a3
   187e4:	010c0613          	addi	a2,s8,16
   187e8:	036d4063          	blt	s10,s6,18808 <_svfprintf_r+0x1c44>
   187ec:	00fb07b3          	add	a5,s6,a5
   187f0:	016c3423          	sd	s6,8(s8)
   187f4:	10f13823          	sd	a5,272(sp)
   187f8:	10d12423          	sw	a3,264(sp)
   187fc:	00700793          	li	a5,7
   18800:	00060c13          	mv	s8,a2
   18804:	f61ff06f          	j	18764 <_svfprintf_r+0x1ba0>
   18808:	01078793          	addi	a5,a5,16
   1880c:	01ac3423          	sd	s10,8(s8)
   18810:	10f13823          	sd	a5,272(sp)
   18814:	10e12423          	sw	a4,264(sp)
   18818:	00dcde63          	bge	s9,a3,18834 <_svfprintf_r+0x1c70>
   1881c:	10010613          	addi	a2,sp,256
   18820:	00098593          	mv	a1,s3
   18824:	00090513          	mv	a0,s2
   18828:	270020ef          	jal	ra,1aa98 <__ssprint_r>
   1882c:	08051663          	bnez	a0,188b8 <_svfprintf_r+0x1cf4>
   18830:	000a8613          	mv	a2,s5
   18834:	ff0b0b1b          	addiw	s6,s6,-16
   18838:	00060c13          	mv	s8,a2
   1883c:	f95ff06f          	j	187d0 <_svfprintf_r+0x1c0c>
   18840:	00ccb423          	sd	a2,8(s9)
   18844:	10e13823          	sd	a4,272(sp)
   18848:	10d12423          	sw	a3,264(sp)
   1884c:	00700793          	li	a5,7
   18850:	f15ff06f          	j	18764 <_svfprintf_r+0x1ba0>
   18854:	02012783          	lw	a5,32(sp)
   18858:	03812703          	lw	a4,56(sp)
   1885c:	40e7843b          	subw	s0,a5,a4
   18860:	fa805263          	blez	s0,18004 <_svfprintf_r+0x1440>
   18864:	0001e4b7          	lui	s1,0x1e
   18868:	01000b13          	li	s6,16
   1886c:	18048493          	addi	s1,s1,384 # 1e180 <blanks.4425>
   18870:	00700c13          	li	s8,7
   18874:	10812703          	lw	a4,264(sp)
   18878:	009cb023          	sd	s1,0(s9)
   1887c:	11013783          	ld	a5,272(sp)
   18880:	0017069b          	addiw	a3,a4,1
   18884:	00068713          	mv	a4,a3
   18888:	048b4463          	blt	s6,s0,188d0 <_svfprintf_r+0x1d0c>
   1888c:	008cb423          	sd	s0,8(s9)
   18890:	00f40433          	add	s0,s0,a5
   18894:	10813823          	sd	s0,272(sp)
   18898:	10d12423          	sw	a3,264(sp)
   1889c:	00700793          	li	a5,7
   188a0:	f6d7d263          	bge	a5,a3,18004 <_svfprintf_r+0x1440>
   188a4:	10010613          	addi	a2,sp,256
   188a8:	00098593          	mv	a1,s3
   188ac:	00090513          	mv	a0,s2
   188b0:	1e8020ef          	jal	ra,1aa98 <__ssprint_r>
   188b4:	f4050863          	beqz	a0,18004 <_svfprintf_r+0x1440>
   188b8:	000b9463          	bnez	s7,188c0 <_svfprintf_r+0x1cfc>
   188bc:	b8dfe06f          	j	17448 <_svfprintf_r+0x884>
   188c0:	000b8593          	mv	a1,s7
   188c4:	00090513          	mv	a0,s2
   188c8:	bfcfa0ef          	jal	ra,12cc4 <_free_r>
   188cc:	b7dfe06f          	j	17448 <_svfprintf_r+0x884>
   188d0:	01078793          	addi	a5,a5,16
   188d4:	016cb423          	sd	s6,8(s9)
   188d8:	10f13823          	sd	a5,272(sp)
   188dc:	10e12423          	sw	a4,264(sp)
   188e0:	010c8c93          	addi	s9,s9,16
   188e4:	00dc5e63          	bge	s8,a3,18900 <_svfprintf_r+0x1d3c>
   188e8:	10010613          	addi	a2,sp,256
   188ec:	00098593          	mv	a1,s3
   188f0:	00090513          	mv	a0,s2
   188f4:	1a4020ef          	jal	ra,1aa98 <__ssprint_r>
   188f8:	fc0510e3          	bnez	a0,188b8 <_svfprintf_r+0x1cf4>
   188fc:	000a8c93          	mv	s9,s5
   18900:	ff04041b          	addiw	s0,s0,-16
   18904:	f71ff06f          	j	18874 <_svfprintf_r+0x1cb0>
   18908:	000b8593          	mv	a1,s7
   1890c:	00090513          	mv	a0,s2
   18910:	bb4fa0ef          	jal	ra,12cc4 <_free_r>
   18914:	f34ff06f          	j	18048 <_svfprintf_r+0x1484>
   18918:	11013783          	ld	a5,272(sp)
   1891c:	00079463          	bnez	a5,18924 <_svfprintf_r+0x1d60>
   18920:	b29fe06f          	j	17448 <_svfprintf_r+0x884>
   18924:	10010613          	addi	a2,sp,256
   18928:	00098593          	mv	a1,s3
   1892c:	00090513          	mv	a0,s2
   18930:	168020ef          	jal	ra,1aa98 <__ssprint_r>
   18934:	b15fe06f          	j	17448 <_svfprintf_r+0x884>

0000000000018938 <__sprint_r>:
   18938:	01063783          	ld	a5,16(a2)
   1893c:	fb010113          	addi	sp,sp,-80
   18940:	04813023          	sd	s0,64(sp)
   18944:	04113423          	sd	ra,72(sp)
   18948:	02913c23          	sd	s1,56(sp)
   1894c:	03213823          	sd	s2,48(sp)
   18950:	03313423          	sd	s3,40(sp)
   18954:	03413023          	sd	s4,32(sp)
   18958:	01513c23          	sd	s5,24(sp)
   1895c:	01613823          	sd	s6,16(sp)
   18960:	01713423          	sd	s7,8(sp)
   18964:	00060413          	mv	s0,a2
   18968:	02079c63          	bnez	a5,189a0 <__sprint_r+0x68>
   1896c:	00062423          	sw	zero,8(a2)
   18970:	00000513          	li	a0,0
   18974:	04813083          	ld	ra,72(sp)
   18978:	04013403          	ld	s0,64(sp)
   1897c:	03813483          	ld	s1,56(sp)
   18980:	03013903          	ld	s2,48(sp)
   18984:	02813983          	ld	s3,40(sp)
   18988:	02013a03          	ld	s4,32(sp)
   1898c:	01813a83          	ld	s5,24(sp)
   18990:	01013b03          	ld	s6,16(sp)
   18994:	00813b83          	ld	s7,8(sp)
   18998:	05010113          	addi	sp,sp,80
   1899c:	00008067          	ret
   189a0:	0ac5a783          	lw	a5,172(a1)
   189a4:	00058993          	mv	s3,a1
   189a8:	03279713          	slli	a4,a5,0x32
   189ac:	06075e63          	bgez	a4,18a28 <__sprint_r+0xf0>
   189b0:	00063903          	ld	s2,0(a2)
   189b4:	00050a13          	mv	s4,a0
   189b8:	fff00b93          	li	s7,-1
   189bc:	01043783          	ld	a5,16(s0)
   189c0:	00079a63          	bnez	a5,189d4 <__sprint_r+0x9c>
   189c4:	00000513          	li	a0,0
   189c8:	00043823          	sd	zero,16(s0)
   189cc:	00042423          	sw	zero,8(s0)
   189d0:	fa5ff06f          	j	18974 <__sprint_r+0x3c>
   189d4:	00893483          	ld	s1,8(s2)
   189d8:	00093b03          	ld	s6,0(s2)
   189dc:	00000a93          	li	s5,0
   189e0:	0024d493          	srli	s1,s1,0x2
   189e4:	0004849b          	sext.w	s1,s1
   189e8:	009ace63          	blt	s5,s1,18a04 <__sprint_r+0xcc>
   189ec:	01043783          	ld	a5,16(s0)
   189f0:	00249493          	slli	s1,s1,0x2
   189f4:	01090913          	addi	s2,s2,16
   189f8:	409784b3          	sub	s1,a5,s1
   189fc:	00943823          	sd	s1,16(s0)
   18a00:	fbdff06f          	j	189bc <__sprint_r+0x84>
   18a04:	000b2583          	lw	a1,0(s6)
   18a08:	00098613          	mv	a2,s3
   18a0c:	000a0513          	mv	a0,s4
   18a10:	018010ef          	jal	ra,19a28 <_fputwc_r>
   18a14:	0005051b          	sext.w	a0,a0
   18a18:	004b0b13          	addi	s6,s6,4
   18a1c:	01750a63          	beq	a0,s7,18a30 <__sprint_r+0xf8>
   18a20:	001a8a9b          	addiw	s5,s5,1
   18a24:	fc5ff06f          	j	189e8 <__sprint_r+0xb0>
   18a28:	0cc010ef          	jal	ra,19af4 <__sfvwrite_r>
   18a2c:	f9dff06f          	j	189c8 <__sprint_r+0x90>
   18a30:	fff00513          	li	a0,-1
   18a34:	f95ff06f          	j	189c8 <__sprint_r+0x90>

0000000000018a38 <_vfiprintf_r>:
   18a38:	e1010113          	addi	sp,sp,-496
   18a3c:	1c913c23          	sd	s1,472(sp)
   18a40:	1d213823          	sd	s2,464(sp)
   18a44:	1d313423          	sd	s3,456(sp)
   18a48:	1d413023          	sd	s4,448(sp)
   18a4c:	1e113423          	sd	ra,488(sp)
   18a50:	1e813023          	sd	s0,480(sp)
   18a54:	1b513c23          	sd	s5,440(sp)
   18a58:	1b613823          	sd	s6,432(sp)
   18a5c:	1b713423          	sd	s7,424(sp)
   18a60:	1b813023          	sd	s8,416(sp)
   18a64:	19913c23          	sd	s9,408(sp)
   18a68:	19a13823          	sd	s10,400(sp)
   18a6c:	19b13423          	sd	s11,392(sp)
   18a70:	00050913          	mv	s2,a0
   18a74:	00058493          	mv	s1,a1
   18a78:	00060993          	mv	s3,a2
   18a7c:	00068a13          	mv	s4,a3
   18a80:	00050863          	beqz	a0,18a90 <_vfiprintf_r+0x58>
   18a84:	05052783          	lw	a5,80(a0)
   18a88:	00079463          	bnez	a5,18a90 <_vfiprintf_r+0x58>
   18a8c:	f91f90ef          	jal	ra,12a1c <__sinit>
   18a90:	01049783          	lh	a5,16(s1)
   18a94:	03279713          	slli	a4,a5,0x32
   18a98:	02074263          	bltz	a4,18abc <_vfiprintf_r+0x84>
   18a9c:	000026b7          	lui	a3,0x2
   18aa0:	0ac4a703          	lw	a4,172(s1)
   18aa4:	00d7e7b3          	or	a5,a5,a3
   18aa8:	00f49823          	sh	a5,16(s1)
   18aac:	ffffe7b7          	lui	a5,0xffffe
   18ab0:	fff78793          	addi	a5,a5,-1 # ffffffffffffdfff <__global_pointer$+0xfffffffffffdcfcf>
   18ab4:	00f777b3          	and	a5,a4,a5
   18ab8:	0af4a623          	sw	a5,172(s1)
   18abc:	0104d783          	lhu	a5,16(s1)
   18ac0:	0087f793          	andi	a5,a5,8
   18ac4:	06078e63          	beqz	a5,18b40 <_vfiprintf_r+0x108>
   18ac8:	0184b783          	ld	a5,24(s1)
   18acc:	06078a63          	beqz	a5,18b40 <_vfiprintf_r+0x108>
   18ad0:	0104d783          	lhu	a5,16(s1)
   18ad4:	00a00713          	li	a4,10
   18ad8:	01a7f793          	andi	a5,a5,26
   18adc:	06e79e63          	bne	a5,a4,18b58 <_vfiprintf_r+0x120>
   18ae0:	01249783          	lh	a5,18(s1)
   18ae4:	0607ca63          	bltz	a5,18b58 <_vfiprintf_r+0x120>
   18ae8:	000a0693          	mv	a3,s4
   18aec:	00098613          	mv	a2,s3
   18af0:	00048593          	mv	a1,s1
   18af4:	00090513          	mv	a0,s2
   18af8:	345000ef          	jal	ra,1963c <__sbprintf>
   18afc:	00050b93          	mv	s7,a0
   18b00:	1e813083          	ld	ra,488(sp)
   18b04:	1e013403          	ld	s0,480(sp)
   18b08:	000b8513          	mv	a0,s7
   18b0c:	1d813483          	ld	s1,472(sp)
   18b10:	1d013903          	ld	s2,464(sp)
   18b14:	1c813983          	ld	s3,456(sp)
   18b18:	1c013a03          	ld	s4,448(sp)
   18b1c:	1b813a83          	ld	s5,440(sp)
   18b20:	1b013b03          	ld	s6,432(sp)
   18b24:	1a813b83          	ld	s7,424(sp)
   18b28:	1a013c03          	ld	s8,416(sp)
   18b2c:	19813c83          	ld	s9,408(sp)
   18b30:	19013d03          	ld	s10,400(sp)
   18b34:	18813d83          	ld	s11,392(sp)
   18b38:	1f010113          	addi	sp,sp,496
   18b3c:	00008067          	ret
   18b40:	00048593          	mv	a1,s1
   18b44:	00090513          	mv	a0,s2
   18b48:	875f90ef          	jal	ra,123bc <__swsetup_r>
   18b4c:	f80502e3          	beqz	a0,18ad0 <_vfiprintf_r+0x98>
   18b50:	fff00b93          	li	s7,-1
   18b54:	fadff06f          	j	18b00 <_vfiprintf_r+0xc8>
   18b58:	0001e7b7          	lui	a5,0x1e
   18b5c:	1a078793          	addi	a5,a5,416 # 1e1a0 <zeroes.4426+0x10>
   18b60:	04f13823          	sd	a5,80(sp)
   18b64:	0001e7b7          	lui	a5,0x1e
   18b68:	32078793          	addi	a5,a5,800 # 1e320 <zeroes.4417>
   18b6c:	02f13423          	sd	a5,40(sp)
   18b70:	0001e7b7          	lui	a5,0x1e
   18b74:	10010b13          	addi	s6,sp,256
   18b78:	31078793          	addi	a5,a5,784 # 1e310 <blanks.4416>
   18b7c:	09613023          	sd	s6,128(sp)
   18b80:	08013823          	sd	zero,144(sp)
   18b84:	08012423          	sw	zero,136(sp)
   18b88:	000b0d93          	mv	s11,s6
   18b8c:	02013023          	sd	zero,32(sp)
   18b90:	00013823          	sd	zero,16(sp)
   18b94:	00013c23          	sd	zero,24(sp)
   18b98:	02013c23          	sd	zero,56(sp)
   18b9c:	00000b93          	li	s7,0
   18ba0:	02f13823          	sd	a5,48(sp)
   18ba4:	00098413          	mv	s0,s3
   18ba8:	02500693          	li	a3,37
   18bac:	00044783          	lbu	a5,0(s0)
   18bb0:	00078463          	beqz	a5,18bb8 <_vfiprintf_r+0x180>
   18bb4:	0ad79463          	bne	a5,a3,18c5c <_vfiprintf_r+0x224>
   18bb8:	41340abb          	subw	s5,s0,s3
   18bbc:	040a8663          	beqz	s5,18c08 <_vfiprintf_r+0x1d0>
   18bc0:	09013783          	ld	a5,144(sp)
   18bc4:	013db023          	sd	s3,0(s11)
   18bc8:	015db423          	sd	s5,8(s11)
   18bcc:	015787b3          	add	a5,a5,s5
   18bd0:	08f13823          	sd	a5,144(sp)
   18bd4:	08812783          	lw	a5,136(sp)
   18bd8:	010d8d93          	addi	s11,s11,16
   18bdc:	0017869b          	addiw	a3,a5,1
   18be0:	08d12423          	sw	a3,136(sp)
   18be4:	00700793          	li	a5,7
   18be8:	00d7de63          	bge	a5,a3,18c04 <_vfiprintf_r+0x1cc>
   18bec:	08010613          	addi	a2,sp,128
   18bf0:	00048593          	mv	a1,s1
   18bf4:	00090513          	mv	a0,s2
   18bf8:	d41ff0ef          	jal	ra,18938 <__sprint_r>
   18bfc:	1c0510e3          	bnez	a0,195bc <_vfiprintf_r+0xb84>
   18c00:	000b0d93          	mv	s11,s6
   18c04:	015b8bbb          	addw	s7,s7,s5
   18c08:	00044783          	lbu	a5,0(s0)
   18c0c:	200780e3          	beqz	a5,1960c <_vfiprintf_r+0xbd4>
   18c10:	00140693          	addi	a3,s0,1
   18c14:	06010ba3          	sb	zero,119(sp)
   18c18:	fff00413          	li	s0,-1
   18c1c:	00000a93          	li	s5,0
   18c20:	00000d13          	li	s10,0
   18c24:	05a00c93          	li	s9,90
   18c28:	00a00c13          	li	s8,10
   18c2c:	00168993          	addi	s3,a3,1 # 2001 <_start-0xe0af>
   18c30:	0006c683          	lbu	a3,0(a3)
   18c34:	00900513          	li	a0,9
   18c38:	02a00813          	li	a6,42
   18c3c:	fe06861b          	addiw	a2,a3,-32
   18c40:	02cce4e3          	bltu	s9,a2,19468 <_vfiprintf_r+0xa30>
   18c44:	05013783          	ld	a5,80(sp)
   18c48:	02061613          	slli	a2,a2,0x20
   18c4c:	01e65613          	srli	a2,a2,0x1e
   18c50:	00f60633          	add	a2,a2,a5
   18c54:	00062603          	lw	a2,0(a2)
   18c58:	00060067          	jr	a2
   18c5c:	00140413          	addi	s0,s0,1
   18c60:	f4dff06f          	j	18bac <_vfiprintf_r+0x174>
   18c64:	0001e637          	lui	a2,0x1e
   18c68:	c2860793          	addi	a5,a2,-984 # 1dc28 <zeroes.4441+0x80>
   18c6c:	02f13023          	sd	a5,32(sp)
   18c70:	008a0793          	addi	a5,s4,8
   18c74:	00f13423          	sd	a5,8(sp)
   18c78:	020d7613          	andi	a2,s10,32
   18c7c:	6a060263          	beqz	a2,19320 <_vfiprintf_r+0x8e8>
   18c80:	000a3a03          	ld	s4,0(s4)
   18c84:	001d7613          	andi	a2,s10,1
   18c88:	00060c63          	beqz	a2,18ca0 <_vfiprintf_r+0x268>
   18c8c:	000a0a63          	beqz	s4,18ca0 <_vfiprintf_r+0x268>
   18c90:	03000613          	li	a2,48
   18c94:	06c10c23          	sb	a2,120(sp)
   18c98:	06d10ca3          	sb	a3,121(sp)
   18c9c:	002d6d13          	ori	s10,s10,2
   18ca0:	bffd7d13          	andi	s10,s10,-1025
   18ca4:	3200006f          	j	18fc4 <_vfiprintf_r+0x58c>
   18ca8:	00090513          	mv	a0,s2
   18cac:	bf8fc0ef          	jal	ra,150a4 <_localeconv_r>
   18cb0:	00853783          	ld	a5,8(a0)
   18cb4:	00078513          	mv	a0,a5
   18cb8:	02f13c23          	sd	a5,56(sp)
   18cbc:	ea5fd0ef          	jal	ra,16b60 <strlen>
   18cc0:	00a13c23          	sd	a0,24(sp)
   18cc4:	00090513          	mv	a0,s2
   18cc8:	bdcfc0ef          	jal	ra,150a4 <_localeconv_r>
   18ccc:	01053783          	ld	a5,16(a0)
   18cd0:	00f13823          	sd	a5,16(sp)
   18cd4:	01813783          	ld	a5,24(sp)
   18cd8:	00078c63          	beqz	a5,18cf0 <_vfiprintf_r+0x2b8>
   18cdc:	01013783          	ld	a5,16(sp)
   18ce0:	00078863          	beqz	a5,18cf0 <_vfiprintf_r+0x2b8>
   18ce4:	0007c683          	lbu	a3,0(a5)
   18ce8:	00068463          	beqz	a3,18cf0 <_vfiprintf_r+0x2b8>
   18cec:	400d6d13          	ori	s10,s10,1024
   18cf0:	00098693          	mv	a3,s3
   18cf4:	f39ff06f          	j	18c2c <_vfiprintf_r+0x1f4>
   18cf8:	07714683          	lbu	a3,119(sp)
   18cfc:	fe069ae3          	bnez	a3,18cf0 <_vfiprintf_r+0x2b8>
   18d00:	02000693          	li	a3,32
   18d04:	06d10ba3          	sb	a3,119(sp)
   18d08:	fe9ff06f          	j	18cf0 <_vfiprintf_r+0x2b8>
   18d0c:	001d6d13          	ori	s10,s10,1
   18d10:	fe1ff06f          	j	18cf0 <_vfiprintf_r+0x2b8>
   18d14:	000a2a83          	lw	s5,0(s4)
   18d18:	008a0a13          	addi	s4,s4,8
   18d1c:	fc0adae3          	bgez	s5,18cf0 <_vfiprintf_r+0x2b8>
   18d20:	41500abb          	negw	s5,s5
   18d24:	004d6d13          	ori	s10,s10,4
   18d28:	fc9ff06f          	j	18cf0 <_vfiprintf_r+0x2b8>
   18d2c:	02b00693          	li	a3,43
   18d30:	fd5ff06f          	j	18d04 <_vfiprintf_r+0x2cc>
   18d34:	0009c683          	lbu	a3,0(s3)
   18d38:	00198613          	addi	a2,s3,1
   18d3c:	05069263          	bne	a3,a6,18d80 <_vfiprintf_r+0x348>
   18d40:	000a2403          	lw	s0,0(s4)
   18d44:	008a0693          	addi	a3,s4,8
   18d48:	00045463          	bgez	s0,18d50 <_vfiprintf_r+0x318>
   18d4c:	fff00413          	li	s0,-1
   18d50:	0004041b          	sext.w	s0,s0
   18d54:	00068a13          	mv	s4,a3
   18d58:	00060993          	mv	s3,a2
   18d5c:	f95ff06f          	j	18cf0 <_vfiprintf_r+0x2b8>
   18d60:	028c043b          	mulw	s0,s8,s0
   18d64:	00160613          	addi	a2,a2,1
   18d68:	fff64683          	lbu	a3,-1(a2)
   18d6c:	00b4043b          	addw	s0,s0,a1
   18d70:	fd06859b          	addiw	a1,a3,-48
   18d74:	feb576e3          	bgeu	a0,a1,18d60 <_vfiprintf_r+0x328>
   18d78:	00060993          	mv	s3,a2
   18d7c:	ec1ff06f          	j	18c3c <_vfiprintf_r+0x204>
   18d80:	00000413          	li	s0,0
   18d84:	fedff06f          	j	18d70 <_vfiprintf_r+0x338>
   18d88:	080d6d13          	ori	s10,s10,128
   18d8c:	f65ff06f          	j	18cf0 <_vfiprintf_r+0x2b8>
   18d90:	00098613          	mv	a2,s3
   18d94:	00000a93          	li	s5,0
   18d98:	035c0abb          	mulw	s5,s8,s5
   18d9c:	fd06869b          	addiw	a3,a3,-48
   18da0:	00160613          	addi	a2,a2,1
   18da4:	01568abb          	addw	s5,a3,s5
   18da8:	fff64683          	lbu	a3,-1(a2)
   18dac:	fd06859b          	addiw	a1,a3,-48
   18db0:	feb574e3          	bgeu	a0,a1,18d98 <_vfiprintf_r+0x360>
   18db4:	fc5ff06f          	j	18d78 <_vfiprintf_r+0x340>
   18db8:	0009c603          	lbu	a2,0(s3)
   18dbc:	06800693          	li	a3,104
   18dc0:	00d61863          	bne	a2,a3,18dd0 <_vfiprintf_r+0x398>
   18dc4:	00198993          	addi	s3,s3,1
   18dc8:	200d6d13          	ori	s10,s10,512
   18dcc:	f25ff06f          	j	18cf0 <_vfiprintf_r+0x2b8>
   18dd0:	040d6d13          	ori	s10,s10,64
   18dd4:	f1dff06f          	j	18cf0 <_vfiprintf_r+0x2b8>
   18dd8:	0009c603          	lbu	a2,0(s3)
   18ddc:	06c00693          	li	a3,108
   18de0:	00d61863          	bne	a2,a3,18df0 <_vfiprintf_r+0x3b8>
   18de4:	00198993          	addi	s3,s3,1
   18de8:	020d6d13          	ori	s10,s10,32
   18dec:	f05ff06f          	j	18cf0 <_vfiprintf_r+0x2b8>
   18df0:	010d6d13          	ori	s10,s10,16
   18df4:	efdff06f          	j	18cf0 <_vfiprintf_r+0x2b8>
   18df8:	000a2683          	lw	a3,0(s4)
   18dfc:	008a0793          	addi	a5,s4,8
   18e00:	00f13423          	sd	a5,8(sp)
   18e04:	08d10c23          	sb	a3,152(sp)
   18e08:	06010ba3          	sb	zero,119(sp)
   18e0c:	00100413          	li	s0,1
   18e10:	00000a13          	li	s4,0
   18e14:	09810c13          	addi	s8,sp,152
   18e18:	1e80006f          	j	19000 <_vfiprintf_r+0x5c8>
   18e1c:	010d6d13          	ori	s10,s10,16
   18e20:	008a0793          	addi	a5,s4,8
   18e24:	00f13423          	sd	a5,8(sp)
   18e28:	020d7693          	andi	a3,s10,32
   18e2c:	02068c63          	beqz	a3,18e64 <_vfiprintf_r+0x42c>
   18e30:	000a3a03          	ld	s4,0(s4)
   18e34:	000a5863          	bgez	s4,18e44 <_vfiprintf_r+0x40c>
   18e38:	02d00693          	li	a3,45
   18e3c:	41400a33          	neg	s4,s4
   18e40:	06d10ba3          	sb	a3,119(sp)
   18e44:	fff00693          	li	a3,-1
   18e48:	50d41a63          	bne	s0,a3,1935c <_vfiprintf_r+0x924>
   18e4c:	00900693          	li	a3,9
   18e50:	5346ea63          	bltu	a3,s4,19384 <_vfiprintf_r+0x94c>
   18e54:	030a0a1b          	addiw	s4,s4,48
   18e58:	0f410da3          	sb	s4,251(sp)
   18e5c:	0fb10c13          	addi	s8,sp,251
   18e60:	0f00006f          	j	18f50 <_vfiprintf_r+0x518>
   18e64:	010d7693          	andi	a3,s10,16
   18e68:	fc0694e3          	bnez	a3,18e30 <_vfiprintf_r+0x3f8>
   18e6c:	040d7693          	andi	a3,s10,64
   18e70:	00068663          	beqz	a3,18e7c <_vfiprintf_r+0x444>
   18e74:	000a1a03          	lh	s4,0(s4)
   18e78:	fbdff06f          	j	18e34 <_vfiprintf_r+0x3fc>
   18e7c:	200d7693          	andi	a3,s10,512
   18e80:	00068663          	beqz	a3,18e8c <_vfiprintf_r+0x454>
   18e84:	000a0a03          	lb	s4,0(s4)
   18e88:	fadff06f          	j	18e34 <_vfiprintf_r+0x3fc>
   18e8c:	000a2a03          	lw	s4,0(s4)
   18e90:	fa5ff06f          	j	18e34 <_vfiprintf_r+0x3fc>
   18e94:	020d7613          	andi	a2,s10,32
   18e98:	000a3683          	ld	a3,0(s4)
   18e9c:	008a0a13          	addi	s4,s4,8
   18ea0:	00060663          	beqz	a2,18eac <_vfiprintf_r+0x474>
   18ea4:	0176b023          	sd	s7,0(a3)
   18ea8:	cfdff06f          	j	18ba4 <_vfiprintf_r+0x16c>
   18eac:	010d7613          	andi	a2,s10,16
   18eb0:	fe061ae3          	bnez	a2,18ea4 <_vfiprintf_r+0x46c>
   18eb4:	040d7613          	andi	a2,s10,64
   18eb8:	00060663          	beqz	a2,18ec4 <_vfiprintf_r+0x48c>
   18ebc:	01769023          	sh	s7,0(a3)
   18ec0:	ce5ff06f          	j	18ba4 <_vfiprintf_r+0x16c>
   18ec4:	200d7793          	andi	a5,s10,512
   18ec8:	00078663          	beqz	a5,18ed4 <_vfiprintf_r+0x49c>
   18ecc:	01768023          	sb	s7,0(a3)
   18ed0:	cd5ff06f          	j	18ba4 <_vfiprintf_r+0x16c>
   18ed4:	0176a023          	sw	s7,0(a3)
   18ed8:	ccdff06f          	j	18ba4 <_vfiprintf_r+0x16c>
   18edc:	010d6d13          	ori	s10,s10,16
   18ee0:	008a0793          	addi	a5,s4,8
   18ee4:	00f13423          	sd	a5,8(sp)
   18ee8:	020d7693          	andi	a3,s10,32
   18eec:	06068a63          	beqz	a3,18f60 <_vfiprintf_r+0x528>
   18ef0:	000a3a03          	ld	s4,0(s4)
   18ef4:	bffd7d13          	andi	s10,s10,-1025
   18ef8:	00000613          	li	a2,0
   18efc:	06010ba3          	sb	zero,119(sp)
   18f00:	fff00693          	li	a3,-1
   18f04:	000d0593          	mv	a1,s10
   18f08:	44d41e63          	bne	s0,a3,19364 <_vfiprintf_r+0x92c>
   18f0c:	00100693          	li	a3,1
   18f10:	f2d60ee3          	beq	a2,a3,18e4c <_vfiprintf_r+0x414>
   18f14:	00200693          	li	a3,2
   18f18:	50d60663          	beq	a2,a3,19424 <_vfiprintf_r+0x9ec>
   18f1c:	0fc10613          	addi	a2,sp,252
   18f20:	007a7593          	andi	a1,s4,7
   18f24:	03058593          	addi	a1,a1,48
   18f28:	feb60fa3          	sb	a1,-1(a2)
   18f2c:	003a5a13          	srli	s4,s4,0x3
   18f30:	fff60c13          	addi	s8,a2,-1
   18f34:	440a1463          	bnez	s4,1937c <_vfiprintf_r+0x944>
   18f38:	001d7513          	andi	a0,s10,1
   18f3c:	00050a63          	beqz	a0,18f50 <_vfiprintf_r+0x518>
   18f40:	03000513          	li	a0,48
   18f44:	00a58663          	beq	a1,a0,18f50 <_vfiprintf_r+0x518>
   18f48:	feac0fa3          	sb	a0,-1(s8)
   18f4c:	ffe60c13          	addi	s8,a2,-2
   18f50:	00040a13          	mv	s4,s0
   18f54:	0fc10413          	addi	s0,sp,252
   18f58:	4184043b          	subw	s0,s0,s8
   18f5c:	0a40006f          	j	19000 <_vfiprintf_r+0x5c8>
   18f60:	010d7693          	andi	a3,s10,16
   18f64:	f80696e3          	bnez	a3,18ef0 <_vfiprintf_r+0x4b8>
   18f68:	040d7693          	andi	a3,s10,64
   18f6c:	000a2a03          	lw	s4,0(s4)
   18f70:	00068863          	beqz	a3,18f80 <_vfiprintf_r+0x548>
   18f74:	030a1a13          	slli	s4,s4,0x30
   18f78:	030a5a13          	srli	s4,s4,0x30
   18f7c:	f79ff06f          	j	18ef4 <_vfiprintf_r+0x4bc>
   18f80:	200d7693          	andi	a3,s10,512
   18f84:	00068663          	beqz	a3,18f90 <_vfiprintf_r+0x558>
   18f88:	0ffa7a13          	zext.b	s4,s4
   18f8c:	f69ff06f          	j	18ef4 <_vfiprintf_r+0x4bc>
   18f90:	020a1a13          	slli	s4,s4,0x20
   18f94:	020a5a13          	srli	s4,s4,0x20
   18f98:	f5dff06f          	j	18ef4 <_vfiprintf_r+0x4bc>
   18f9c:	ffff86b7          	lui	a3,0xffff8
   18fa0:	8306c693          	xori	a3,a3,-2000
   18fa4:	008a0793          	addi	a5,s4,8
   18fa8:	06d11c23          	sh	a3,120(sp)
   18fac:	000a3a03          	ld	s4,0(s4)
   18fb0:	0001e6b7          	lui	a3,0x1e
   18fb4:	00f13423          	sd	a5,8(sp)
   18fb8:	c1068793          	addi	a5,a3,-1008 # 1dc10 <zeroes.4441+0x68>
   18fbc:	002d6d13          	ori	s10,s10,2
   18fc0:	02f13023          	sd	a5,32(sp)
   18fc4:	00200613          	li	a2,2
   18fc8:	f35ff06f          	j	18efc <_vfiprintf_r+0x4c4>
   18fcc:	008a0793          	addi	a5,s4,8
   18fd0:	00f13423          	sd	a5,8(sp)
   18fd4:	06010ba3          	sb	zero,119(sp)
   18fd8:	fff00613          	li	a2,-1
   18fdc:	000a3c03          	ld	s8,0(s4)
   18fe0:	2cc40263          	beq	s0,a2,192a4 <_vfiprintf_r+0x86c>
   18fe4:	00040613          	mv	a2,s0
   18fe8:	00000593          	li	a1,0
   18fec:	000c0513          	mv	a0,s8
   18ff0:	91dfc0ef          	jal	ra,1590c <memchr>
   18ff4:	00000a13          	li	s4,0
   18ff8:	00050463          	beqz	a0,19000 <_vfiprintf_r+0x5c8>
   18ffc:	4185043b          	subw	s0,a0,s8
   19000:	000a0613          	mv	a2,s4
   19004:	008a5463          	bge	s4,s0,1900c <_vfiprintf_r+0x5d4>
   19008:	00040613          	mv	a2,s0
   1900c:	07714583          	lbu	a1,119(sp)
   19010:	00060c9b          	sext.w	s9,a2
   19014:	00058463          	beqz	a1,1901c <_vfiprintf_r+0x5e4>
   19018:	00160c9b          	addiw	s9,a2,1
   1901c:	002d7613          	andi	a2,s10,2
   19020:	0006079b          	sext.w	a5,a2
   19024:	04f13023          	sd	a5,64(sp)
   19028:	00078463          	beqz	a5,19030 <_vfiprintf_r+0x5f8>
   1902c:	002c8c9b          	addiw	s9,s9,2
   19030:	084d7793          	andi	a5,s10,132
   19034:	04f13423          	sd	a5,72(sp)
   19038:	06079463          	bnez	a5,190a0 <_vfiprintf_r+0x668>
   1903c:	419a883b          	subw	a6,s5,s9
   19040:	07005063          	blez	a6,190a0 <_vfiprintf_r+0x668>
   19044:	01000313          	li	t1,16
   19048:	00700e13          	li	t3,7
   1904c:	08812583          	lw	a1,136(sp)
   19050:	03013783          	ld	a5,48(sp)
   19054:	09013603          	ld	a2,144(sp)
   19058:	0015851b          	addiw	a0,a1,1
   1905c:	00fdb023          	sd	a5,0(s11)
   19060:	00050593          	mv	a1,a0
   19064:	010d8893          	addi	a7,s11,16
   19068:	41034a63          	blt	t1,a6,1947c <_vfiprintf_r+0xa44>
   1906c:	010db423          	sd	a6,8(s11)
   19070:	00c80833          	add	a6,a6,a2
   19074:	09013823          	sd	a6,144(sp)
   19078:	08a12423          	sw	a0,136(sp)
   1907c:	00700613          	li	a2,7
   19080:	00088d93          	mv	s11,a7
   19084:	00a65e63          	bge	a2,a0,190a0 <_vfiprintf_r+0x668>
   19088:	08010613          	addi	a2,sp,128
   1908c:	00048593          	mv	a1,s1
   19090:	00090513          	mv	a0,s2
   19094:	8a5ff0ef          	jal	ra,18938 <__sprint_r>
   19098:	52051263          	bnez	a0,195bc <_vfiprintf_r+0xb84>
   1909c:	000b0d93          	mv	s11,s6
   190a0:	07714603          	lbu	a2,119(sp)
   190a4:	04060863          	beqz	a2,190f4 <_vfiprintf_r+0x6bc>
   190a8:	07710593          	addi	a1,sp,119
   190ac:	00bdb023          	sd	a1,0(s11)
   190b0:	00100593          	li	a1,1
   190b4:	08812603          	lw	a2,136(sp)
   190b8:	00bdb423          	sd	a1,8(s11)
   190bc:	09013583          	ld	a1,144(sp)
   190c0:	0016051b          	addiw	a0,a2,1
   190c4:	08a12423          	sw	a0,136(sp)
   190c8:	00158593          	addi	a1,a1,1
   190cc:	08b13823          	sd	a1,144(sp)
   190d0:	00700613          	li	a2,7
   190d4:	010d8d93          	addi	s11,s11,16
   190d8:	00a65e63          	bge	a2,a0,190f4 <_vfiprintf_r+0x6bc>
   190dc:	08010613          	addi	a2,sp,128
   190e0:	00048593          	mv	a1,s1
   190e4:	00090513          	mv	a0,s2
   190e8:	851ff0ef          	jal	ra,18938 <__sprint_r>
   190ec:	4c051863          	bnez	a0,195bc <_vfiprintf_r+0xb84>
   190f0:	000b0d93          	mv	s11,s6
   190f4:	04013783          	ld	a5,64(sp)
   190f8:	04078863          	beqz	a5,19148 <_vfiprintf_r+0x710>
   190fc:	07810593          	addi	a1,sp,120
   19100:	00bdb023          	sd	a1,0(s11)
   19104:	00200593          	li	a1,2
   19108:	08812603          	lw	a2,136(sp)
   1910c:	00bdb423          	sd	a1,8(s11)
   19110:	09013583          	ld	a1,144(sp)
   19114:	0016051b          	addiw	a0,a2,1
   19118:	08a12423          	sw	a0,136(sp)
   1911c:	00258593          	addi	a1,a1,2
   19120:	08b13823          	sd	a1,144(sp)
   19124:	00700613          	li	a2,7
   19128:	010d8d93          	addi	s11,s11,16
   1912c:	00a65e63          	bge	a2,a0,19148 <_vfiprintf_r+0x710>
   19130:	08010613          	addi	a2,sp,128
   19134:	00048593          	mv	a1,s1
   19138:	00090513          	mv	a0,s2
   1913c:	ffcff0ef          	jal	ra,18938 <__sprint_r>
   19140:	46051e63          	bnez	a0,195bc <_vfiprintf_r+0xb84>
   19144:	000b0d93          	mv	s11,s6
   19148:	04813783          	ld	a5,72(sp)
   1914c:	08000613          	li	a2,128
   19150:	06c79463          	bne	a5,a2,191b8 <_vfiprintf_r+0x780>
   19154:	419a883b          	subw	a6,s5,s9
   19158:	07005063          	blez	a6,191b8 <_vfiprintf_r+0x780>
   1915c:	01000313          	li	t1,16
   19160:	00700e13          	li	t3,7
   19164:	08812583          	lw	a1,136(sp)
   19168:	02813783          	ld	a5,40(sp)
   1916c:	09013603          	ld	a2,144(sp)
   19170:	0015851b          	addiw	a0,a1,1
   19174:	00fdb023          	sd	a5,0(s11)
   19178:	00050593          	mv	a1,a0
   1917c:	010d8893          	addi	a7,s11,16
   19180:	35034663          	blt	t1,a6,194cc <_vfiprintf_r+0xa94>
   19184:	010db423          	sd	a6,8(s11)
   19188:	00c80833          	add	a6,a6,a2
   1918c:	09013823          	sd	a6,144(sp)
   19190:	08a12423          	sw	a0,136(sp)
   19194:	00700613          	li	a2,7
   19198:	00088d93          	mv	s11,a7
   1919c:	00a65e63          	bge	a2,a0,191b8 <_vfiprintf_r+0x780>
   191a0:	08010613          	addi	a2,sp,128
   191a4:	00048593          	mv	a1,s1
   191a8:	00090513          	mv	a0,s2
   191ac:	f8cff0ef          	jal	ra,18938 <__sprint_r>
   191b0:	40051663          	bnez	a0,195bc <_vfiprintf_r+0xb84>
   191b4:	000b0d93          	mv	s11,s6
   191b8:	408a0a3b          	subw	s4,s4,s0
   191bc:	07405063          	blez	s4,1921c <_vfiprintf_r+0x7e4>
   191c0:	01000893          	li	a7,16
   191c4:	00700313          	li	t1,7
   191c8:	08812583          	lw	a1,136(sp)
   191cc:	02813783          	ld	a5,40(sp)
   191d0:	09013603          	ld	a2,144(sp)
   191d4:	0015851b          	addiw	a0,a1,1
   191d8:	00fdb023          	sd	a5,0(s11)
   191dc:	00050593          	mv	a1,a0
   191e0:	010d8813          	addi	a6,s11,16
   191e4:	3348cc63          	blt	a7,s4,1951c <_vfiprintf_r+0xae4>
   191e8:	014db423          	sd	s4,8(s11)
   191ec:	00ca0a33          	add	s4,s4,a2
   191f0:	09413823          	sd	s4,144(sp)
   191f4:	08a12423          	sw	a0,136(sp)
   191f8:	00700613          	li	a2,7
   191fc:	00080d93          	mv	s11,a6
   19200:	00a65e63          	bge	a2,a0,1921c <_vfiprintf_r+0x7e4>
   19204:	08010613          	addi	a2,sp,128
   19208:	00048593          	mv	a1,s1
   1920c:	00090513          	mv	a0,s2
   19210:	f28ff0ef          	jal	ra,18938 <__sprint_r>
   19214:	3a051463          	bnez	a0,195bc <_vfiprintf_r+0xb84>
   19218:	000b0d93          	mv	s11,s6
   1921c:	09013683          	ld	a3,144(sp)
   19220:	008db423          	sd	s0,8(s11)
   19224:	018db023          	sd	s8,0(s11)
   19228:	00868433          	add	s0,a3,s0
   1922c:	08812683          	lw	a3,136(sp)
   19230:	08813823          	sd	s0,144(sp)
   19234:	010d8713          	addi	a4,s11,16
   19238:	0016861b          	addiw	a2,a3,1
   1923c:	08c12423          	sw	a2,136(sp)
   19240:	00700693          	li	a3,7
   19244:	00c6de63          	bge	a3,a2,19260 <_vfiprintf_r+0x828>
   19248:	08010613          	addi	a2,sp,128
   1924c:	00048593          	mv	a1,s1
   19250:	00090513          	mv	a0,s2
   19254:	ee4ff0ef          	jal	ra,18938 <__sprint_r>
   19258:	36051263          	bnez	a0,195bc <_vfiprintf_r+0xb84>
   1925c:	000b0713          	mv	a4,s6
   19260:	004d7793          	andi	a5,s10,4
   19264:	30079063          	bnez	a5,19564 <_vfiprintf_r+0xb2c>
   19268:	000a8793          	mv	a5,s5
   1926c:	019ad463          	bge	s5,s9,19274 <_vfiprintf_r+0x83c>
   19270:	000c8793          	mv	a5,s9
   19274:	01778bbb          	addw	s7,a5,s7
   19278:	09013783          	ld	a5,144(sp)
   1927c:	00078c63          	beqz	a5,19294 <_vfiprintf_r+0x85c>
   19280:	08010613          	addi	a2,sp,128
   19284:	00048593          	mv	a1,s1
   19288:	00090513          	mv	a0,s2
   1928c:	eacff0ef          	jal	ra,18938 <__sprint_r>
   19290:	32051663          	bnez	a0,195bc <_vfiprintf_r+0xb84>
   19294:	08012423          	sw	zero,136(sp)
   19298:	00813a03          	ld	s4,8(sp)
   1929c:	000b0d93          	mv	s11,s6
   192a0:	905ff06f          	j	18ba4 <_vfiprintf_r+0x16c>
   192a4:	000c0513          	mv	a0,s8
   192a8:	8b9fd0ef          	jal	ra,16b60 <strlen>
   192ac:	0005041b          	sext.w	s0,a0
   192b0:	00000a13          	li	s4,0
   192b4:	d4dff06f          	j	19000 <_vfiprintf_r+0x5c8>
   192b8:	010d6d13          	ori	s10,s10,16
   192bc:	008a0793          	addi	a5,s4,8
   192c0:	00f13423          	sd	a5,8(sp)
   192c4:	020d7693          	andi	a3,s10,32
   192c8:	00068863          	beqz	a3,192d8 <_vfiprintf_r+0x8a0>
   192cc:	000a3a03          	ld	s4,0(s4)
   192d0:	00100613          	li	a2,1
   192d4:	c29ff06f          	j	18efc <_vfiprintf_r+0x4c4>
   192d8:	010d7693          	andi	a3,s10,16
   192dc:	fe0698e3          	bnez	a3,192cc <_vfiprintf_r+0x894>
   192e0:	040d7693          	andi	a3,s10,64
   192e4:	000a2a03          	lw	s4,0(s4)
   192e8:	00068863          	beqz	a3,192f8 <_vfiprintf_r+0x8c0>
   192ec:	030a1a13          	slli	s4,s4,0x30
   192f0:	030a5a13          	srli	s4,s4,0x30
   192f4:	fddff06f          	j	192d0 <_vfiprintf_r+0x898>
   192f8:	200d7693          	andi	a3,s10,512
   192fc:	00068663          	beqz	a3,19308 <_vfiprintf_r+0x8d0>
   19300:	0ffa7a13          	zext.b	s4,s4
   19304:	fcdff06f          	j	192d0 <_vfiprintf_r+0x898>
   19308:	020a1a13          	slli	s4,s4,0x20
   1930c:	020a5a13          	srli	s4,s4,0x20
   19310:	fc1ff06f          	j	192d0 <_vfiprintf_r+0x898>
   19314:	0001e637          	lui	a2,0x1e
   19318:	c1060793          	addi	a5,a2,-1008 # 1dc10 <zeroes.4441+0x68>
   1931c:	951ff06f          	j	18c6c <_vfiprintf_r+0x234>
   19320:	010d7613          	andi	a2,s10,16
   19324:	94061ee3          	bnez	a2,18c80 <_vfiprintf_r+0x248>
   19328:	040d7613          	andi	a2,s10,64
   1932c:	000a2a03          	lw	s4,0(s4)
   19330:	00060863          	beqz	a2,19340 <_vfiprintf_r+0x908>
   19334:	030a1a13          	slli	s4,s4,0x30
   19338:	030a5a13          	srli	s4,s4,0x30
   1933c:	949ff06f          	j	18c84 <_vfiprintf_r+0x24c>
   19340:	200d7613          	andi	a2,s10,512
   19344:	00060663          	beqz	a2,19350 <_vfiprintf_r+0x918>
   19348:	0ffa7a13          	zext.b	s4,s4
   1934c:	939ff06f          	j	18c84 <_vfiprintf_r+0x24c>
   19350:	020a1a13          	slli	s4,s4,0x20
   19354:	020a5a13          	srli	s4,s4,0x20
   19358:	92dff06f          	j	18c84 <_vfiprintf_r+0x24c>
   1935c:	000d0593          	mv	a1,s10
   19360:	00100613          	li	a2,1
   19364:	f7fd7d13          	andi	s10,s10,-129
   19368:	ba0a12e3          	bnez	s4,18f0c <_vfiprintf_r+0x4d4>
   1936c:	0e040063          	beqz	s0,1944c <_vfiprintf_r+0xa14>
   19370:	00100693          	li	a3,1
   19374:	bad610e3          	bne	a2,a3,18f14 <_vfiprintf_r+0x4dc>
   19378:	addff06f          	j	18e54 <_vfiprintf_r+0x41c>
   1937c:	000c0613          	mv	a2,s8
   19380:	ba1ff06f          	j	18f20 <_vfiprintf_r+0x4e8>
   19384:	400d7c93          	andi	s9,s10,1024
   19388:	00000613          	li	a2,0
   1938c:	0fc10593          	addi	a1,sp,252
   19390:	00a00813          	li	a6,10
   19394:	000c8c9b          	sext.w	s9,s9
   19398:	0ff00893          	li	a7,255
   1939c:	00900313          	li	t1,9
   193a0:	030a7533          	remu	a0,s4,a6
   193a4:	fff58c13          	addi	s8,a1,-1
   193a8:	0016061b          	addiw	a2,a2,1
   193ac:	0305051b          	addiw	a0,a0,48
   193b0:	fea58fa3          	sb	a0,-1(a1)
   193b4:	060c8063          	beqz	s9,19414 <_vfiprintf_r+0x9dc>
   193b8:	01013783          	ld	a5,16(sp)
   193bc:	0007c583          	lbu	a1,0(a5)
   193c0:	04c59a63          	bne	a1,a2,19414 <_vfiprintf_r+0x9dc>
   193c4:	05158863          	beq	a1,a7,19414 <_vfiprintf_r+0x9dc>
   193c8:	05437663          	bgeu	t1,s4,19414 <_vfiprintf_r+0x9dc>
   193cc:	01813783          	ld	a5,24(sp)
   193d0:	03813583          	ld	a1,56(sp)
   193d4:	04613c23          	sd	t1,88(sp)
   193d8:	40fc0c33          	sub	s8,s8,a5
   193dc:	00078613          	mv	a2,a5
   193e0:	000c0513          	mv	a0,s8
   193e4:	05113423          	sd	a7,72(sp)
   193e8:	05013023          	sd	a6,64(sp)
   193ec:	f90fd0ef          	jal	ra,16b7c <strncpy>
   193f0:	01013783          	ld	a5,16(sp)
   193f4:	00000613          	li	a2,0
   193f8:	04013803          	ld	a6,64(sp)
   193fc:	0017c583          	lbu	a1,1(a5)
   19400:	04813883          	ld	a7,72(sp)
   19404:	05813303          	ld	t1,88(sp)
   19408:	00058663          	beqz	a1,19414 <_vfiprintf_r+0x9dc>
   1940c:	00178793          	addi	a5,a5,1
   19410:	00f13823          	sd	a5,16(sp)
   19414:	030a5a33          	divu	s4,s4,a6
   19418:	b20a0ce3          	beqz	s4,18f50 <_vfiprintf_r+0x518>
   1941c:	000c0593          	mv	a1,s8
   19420:	f81ff06f          	j	193a0 <_vfiprintf_r+0x968>
   19424:	0fc10c13          	addi	s8,sp,252
   19428:	02013783          	ld	a5,32(sp)
   1942c:	00fa7613          	andi	a2,s4,15
   19430:	fffc0c13          	addi	s8,s8,-1
   19434:	00c78633          	add	a2,a5,a2
   19438:	00064603          	lbu	a2,0(a2)
   1943c:	004a5a13          	srli	s4,s4,0x4
   19440:	00cc0023          	sb	a2,0(s8)
   19444:	fe0a12e3          	bnez	s4,19428 <_vfiprintf_r+0x9f0>
   19448:	b09ff06f          	j	18f50 <_vfiprintf_r+0x518>
   1944c:	0fc10c13          	addi	s8,sp,252
   19450:	b00610e3          	bnez	a2,18f50 <_vfiprintf_r+0x518>
   19454:	0015f593          	andi	a1,a1,1
   19458:	ae058ce3          	beqz	a1,18f50 <_vfiprintf_r+0x518>
   1945c:	03000693          	li	a3,48
   19460:	0ed10da3          	sb	a3,251(sp)
   19464:	9f9ff06f          	j	18e5c <_vfiprintf_r+0x424>
   19468:	1a068263          	beqz	a3,1960c <_vfiprintf_r+0xbd4>
   1946c:	08d10c23          	sb	a3,152(sp)
   19470:	06010ba3          	sb	zero,119(sp)
   19474:	01413423          	sd	s4,8(sp)
   19478:	995ff06f          	j	18e0c <_vfiprintf_r+0x3d4>
   1947c:	01060613          	addi	a2,a2,16
   19480:	006db423          	sd	t1,8(s11)
   19484:	08c13823          	sd	a2,144(sp)
   19488:	08b12423          	sw	a1,136(sp)
   1948c:	02ae5a63          	bge	t3,a0,194c0 <_vfiprintf_r+0xa88>
   19490:	08010613          	addi	a2,sp,128
   19494:	00048593          	mv	a1,s1
   19498:	00090513          	mv	a0,s2
   1949c:	07c13423          	sd	t3,104(sp)
   194a0:	06613023          	sd	t1,96(sp)
   194a4:	05013c23          	sd	a6,88(sp)
   194a8:	c90ff0ef          	jal	ra,18938 <__sprint_r>
   194ac:	10051863          	bnez	a0,195bc <_vfiprintf_r+0xb84>
   194b0:	06813e03          	ld	t3,104(sp)
   194b4:	06013303          	ld	t1,96(sp)
   194b8:	05813803          	ld	a6,88(sp)
   194bc:	000b0893          	mv	a7,s6
   194c0:	ff08081b          	addiw	a6,a6,-16
   194c4:	00088d93          	mv	s11,a7
   194c8:	b85ff06f          	j	1904c <_vfiprintf_r+0x614>
   194cc:	01060613          	addi	a2,a2,16
   194d0:	006db423          	sd	t1,8(s11)
   194d4:	08c13823          	sd	a2,144(sp)
   194d8:	08b12423          	sw	a1,136(sp)
   194dc:	02ae5a63          	bge	t3,a0,19510 <_vfiprintf_r+0xad8>
   194e0:	08010613          	addi	a2,sp,128
   194e4:	00048593          	mv	a1,s1
   194e8:	00090513          	mv	a0,s2
   194ec:	05c13c23          	sd	t3,88(sp)
   194f0:	04613423          	sd	t1,72(sp)
   194f4:	05013023          	sd	a6,64(sp)
   194f8:	c40ff0ef          	jal	ra,18938 <__sprint_r>
   194fc:	0c051063          	bnez	a0,195bc <_vfiprintf_r+0xb84>
   19500:	05813e03          	ld	t3,88(sp)
   19504:	04813303          	ld	t1,72(sp)
   19508:	04013803          	ld	a6,64(sp)
   1950c:	000b0893          	mv	a7,s6
   19510:	ff08081b          	addiw	a6,a6,-16
   19514:	00088d93          	mv	s11,a7
   19518:	c4dff06f          	j	19164 <_vfiprintf_r+0x72c>
   1951c:	01060613          	addi	a2,a2,16
   19520:	011db423          	sd	a7,8(s11)
   19524:	08c13823          	sd	a2,144(sp)
   19528:	08b12423          	sw	a1,136(sp)
   1952c:	02a35663          	bge	t1,a0,19558 <_vfiprintf_r+0xb20>
   19530:	08010613          	addi	a2,sp,128
   19534:	00048593          	mv	a1,s1
   19538:	00090513          	mv	a0,s2
   1953c:	04613423          	sd	t1,72(sp)
   19540:	05113023          	sd	a7,64(sp)
   19544:	bf4ff0ef          	jal	ra,18938 <__sprint_r>
   19548:	06051a63          	bnez	a0,195bc <_vfiprintf_r+0xb84>
   1954c:	04813303          	ld	t1,72(sp)
   19550:	04013883          	ld	a7,64(sp)
   19554:	000b0813          	mv	a6,s6
   19558:	ff0a0a1b          	addiw	s4,s4,-16
   1955c:	00080d93          	mv	s11,a6
   19560:	c69ff06f          	j	191c8 <_vfiprintf_r+0x790>
   19564:	419a843b          	subw	s0,s5,s9
   19568:	d08050e3          	blez	s0,19268 <_vfiprintf_r+0x830>
   1956c:	01000a13          	li	s4,16
   19570:	00700d13          	li	s10,7
   19574:	08812683          	lw	a3,136(sp)
   19578:	09013783          	ld	a5,144(sp)
   1957c:	0016861b          	addiw	a2,a3,1
   19580:	00060693          	mv	a3,a2
   19584:	048a4463          	blt	s4,s0,195cc <_vfiprintf_r+0xb94>
   19588:	03013683          	ld	a3,48(sp)
   1958c:	00873423          	sd	s0,8(a4)
   19590:	00f40433          	add	s0,s0,a5
   19594:	00d73023          	sd	a3,0(a4)
   19598:	08813823          	sd	s0,144(sp)
   1959c:	08c12423          	sw	a2,136(sp)
   195a0:	00700793          	li	a5,7
   195a4:	ccc7d2e3          	bge	a5,a2,19268 <_vfiprintf_r+0x830>
   195a8:	08010613          	addi	a2,sp,128
   195ac:	00048593          	mv	a1,s1
   195b0:	00090513          	mv	a0,s2
   195b4:	b84ff0ef          	jal	ra,18938 <__sprint_r>
   195b8:	ca0508e3          	beqz	a0,19268 <_vfiprintf_r+0x830>
   195bc:	0104d783          	lhu	a5,16(s1)
   195c0:	0407f793          	andi	a5,a5,64
   195c4:	d2078e63          	beqz	a5,18b00 <_vfiprintf_r+0xc8>
   195c8:	d88ff06f          	j	18b50 <_vfiprintf_r+0x118>
   195cc:	03013583          	ld	a1,48(sp)
   195d0:	01078793          	addi	a5,a5,16
   195d4:	01473423          	sd	s4,8(a4)
   195d8:	00b73023          	sd	a1,0(a4)
   195dc:	08f13823          	sd	a5,144(sp)
   195e0:	08d12423          	sw	a3,136(sp)
   195e4:	01070713          	addi	a4,a4,16
   195e8:	00cd5e63          	bge	s10,a2,19604 <_vfiprintf_r+0xbcc>
   195ec:	08010613          	addi	a2,sp,128
   195f0:	00048593          	mv	a1,s1
   195f4:	00090513          	mv	a0,s2
   195f8:	b40ff0ef          	jal	ra,18938 <__sprint_r>
   195fc:	fc0510e3          	bnez	a0,195bc <_vfiprintf_r+0xb84>
   19600:	000b0713          	mv	a4,s6
   19604:	ff04041b          	addiw	s0,s0,-16
   19608:	f6dff06f          	j	19574 <_vfiprintf_r+0xb3c>
   1960c:	09013783          	ld	a5,144(sp)
   19610:	fa0786e3          	beqz	a5,195bc <_vfiprintf_r+0xb84>
   19614:	08010613          	addi	a2,sp,128
   19618:	00048593          	mv	a1,s1
   1961c:	00090513          	mv	a0,s2
   19620:	b18ff0ef          	jal	ra,18938 <__sprint_r>
   19624:	f99ff06f          	j	195bc <_vfiprintf_r+0xb84>

0000000000019628 <vfiprintf>:
   19628:	00060693          	mv	a3,a2
   1962c:	00058613          	mv	a2,a1
   19630:	00050593          	mv	a1,a0
   19634:	8301b503          	ld	a0,-2000(gp) # 20860 <_impure_ptr>
   19638:	c00ff06f          	j	18a38 <_vfiprintf_r>

000000000001963c <__sbprintf>:
   1963c:	0105d783          	lhu	a5,16(a1)
   19640:	b3010113          	addi	sp,sp,-1232
   19644:	4c813023          	sd	s0,1216(sp)
   19648:	ffd7f793          	andi	a5,a5,-3
   1964c:	00f11823          	sh	a5,16(sp)
   19650:	0ac5a783          	lw	a5,172(a1)
   19654:	00058413          	mv	s0,a1
   19658:	4a913c23          	sd	s1,1208(sp)
   1965c:	0af12623          	sw	a5,172(sp)
   19660:	0125d783          	lhu	a5,18(a1)
   19664:	4b213823          	sd	s2,1200(sp)
   19668:	4c113423          	sd	ra,1224(sp)
   1966c:	00f11923          	sh	a5,18(sp)
   19670:	0305b783          	ld	a5,48(a1)
   19674:	00050913          	mv	s2,a0
   19678:	02012423          	sw	zero,40(sp)
   1967c:	02f13823          	sd	a5,48(sp)
   19680:	0405b783          	ld	a5,64(a1)
   19684:	00010593          	mv	a1,sp
   19688:	04f13023          	sd	a5,64(sp)
   1968c:	0b010793          	addi	a5,sp,176
   19690:	00f13023          	sd	a5,0(sp)
   19694:	00f13c23          	sd	a5,24(sp)
   19698:	40000793          	li	a5,1024
   1969c:	00f12623          	sw	a5,12(sp)
   196a0:	02f12023          	sw	a5,32(sp)
   196a4:	b94ff0ef          	jal	ra,18a38 <_vfiprintf_r>
   196a8:	00050493          	mv	s1,a0
   196ac:	00054c63          	bltz	a0,196c4 <__sbprintf+0x88>
   196b0:	00010593          	mv	a1,sp
   196b4:	00090513          	mv	a0,s2
   196b8:	9d8f90ef          	jal	ra,12890 <_fflush_r>
   196bc:	00050463          	beqz	a0,196c4 <__sbprintf+0x88>
   196c0:	fff00493          	li	s1,-1
   196c4:	01015783          	lhu	a5,16(sp)
   196c8:	0407f793          	andi	a5,a5,64
   196cc:	00078863          	beqz	a5,196dc <__sbprintf+0xa0>
   196d0:	01045783          	lhu	a5,16(s0)
   196d4:	0407e793          	ori	a5,a5,64
   196d8:	00f41823          	sh	a5,16(s0)
   196dc:	4c813083          	ld	ra,1224(sp)
   196e0:	4c013403          	ld	s0,1216(sp)
   196e4:	00048513          	mv	a0,s1
   196e8:	4b013903          	ld	s2,1200(sp)
   196ec:	4b813483          	ld	s1,1208(sp)
   196f0:	4d010113          	addi	sp,sp,1232
   196f4:	00008067          	ret

00000000000196f8 <_write_r>:
   196f8:	fe010113          	addi	sp,sp,-32
   196fc:	00813823          	sd	s0,16(sp)
   19700:	00913423          	sd	s1,8(sp)
   19704:	00050493          	mv	s1,a0
   19708:	00058513          	mv	a0,a1
   1970c:	00060593          	mv	a1,a2
   19710:	00068613          	mv	a2,a3
   19714:	00113c23          	sd	ra,24(sp)
   19718:	8c01a823          	sw	zero,-1840(gp) # 20900 <errno>
   1971c:	5a8020ef          	jal	ra,1bcc4 <_write>
   19720:	fff00793          	li	a5,-1
   19724:	00f51863          	bne	a0,a5,19734 <_write_r+0x3c>
   19728:	8d01a783          	lw	a5,-1840(gp) # 20900 <errno>
   1972c:	00078463          	beqz	a5,19734 <_write_r+0x3c>
   19730:	00f4a023          	sw	a5,0(s1)
   19734:	01813083          	ld	ra,24(sp)
   19738:	01013403          	ld	s0,16(sp)
   1973c:	00813483          	ld	s1,8(sp)
   19740:	02010113          	addi	sp,sp,32
   19744:	00008067          	ret

0000000000019748 <_calloc_r>:
   19748:	02c585b3          	mul	a1,a1,a2
   1974c:	ff010113          	addi	sp,sp,-16
   19750:	00813023          	sd	s0,0(sp)
   19754:	00113423          	sd	ra,8(sp)
   19758:	b11fb0ef          	jal	ra,15268 <_malloc_r>
   1975c:	00050413          	mv	s0,a0
   19760:	04050263          	beqz	a0,197a4 <_calloc_r+0x5c>
   19764:	ff853603          	ld	a2,-8(a0)
   19768:	04800713          	li	a4,72
   1976c:	ffc67613          	andi	a2,a2,-4
   19770:	ff860613          	addi	a2,a2,-8
   19774:	06c76263          	bltu	a4,a2,197d8 <_calloc_r+0x90>
   19778:	02700693          	li	a3,39
   1977c:	00050793          	mv	a5,a0
   19780:	00c6fc63          	bgeu	a3,a2,19798 <_calloc_r+0x50>
   19784:	00053023          	sd	zero,0(a0)
   19788:	00053423          	sd	zero,8(a0)
   1978c:	03700793          	li	a5,55
   19790:	02c7e463          	bltu	a5,a2,197b8 <_calloc_r+0x70>
   19794:	01050793          	addi	a5,a0,16
   19798:	0007b023          	sd	zero,0(a5)
   1979c:	0007b423          	sd	zero,8(a5)
   197a0:	0007b823          	sd	zero,16(a5)
   197a4:	00040513          	mv	a0,s0
   197a8:	00813083          	ld	ra,8(sp)
   197ac:	00013403          	ld	s0,0(sp)
   197b0:	01010113          	addi	sp,sp,16
   197b4:	00008067          	ret
   197b8:	00053823          	sd	zero,16(a0)
   197bc:	00053c23          	sd	zero,24(a0)
   197c0:	02050793          	addi	a5,a0,32
   197c4:	fce61ae3          	bne	a2,a4,19798 <_calloc_r+0x50>
   197c8:	02053023          	sd	zero,32(a0)
   197cc:	03050793          	addi	a5,a0,48
   197d0:	02053423          	sd	zero,40(a0)
   197d4:	fc5ff06f          	j	19798 <_calloc_r+0x50>
   197d8:	00000593          	li	a1,0
   197dc:	bd9f60ef          	jal	ra,103b4 <memset>
   197e0:	fc5ff06f          	j	197a4 <_calloc_r+0x5c>

00000000000197e4 <_close_r>:
   197e4:	fe010113          	addi	sp,sp,-32
   197e8:	00813823          	sd	s0,16(sp)
   197ec:	00913423          	sd	s1,8(sp)
   197f0:	00050493          	mv	s1,a0
   197f4:	00058513          	mv	a0,a1
   197f8:	00113c23          	sd	ra,24(sp)
   197fc:	8c01a823          	sw	zero,-1840(gp) # 20900 <errno>
   19800:	230020ef          	jal	ra,1ba30 <_close>
   19804:	fff00793          	li	a5,-1
   19808:	00f51863          	bne	a0,a5,19818 <_close_r+0x34>
   1980c:	8d01a783          	lw	a5,-1840(gp) # 20900 <errno>
   19810:	00078463          	beqz	a5,19818 <_close_r+0x34>
   19814:	00f4a023          	sw	a5,0(s1)
   19818:	01813083          	ld	ra,24(sp)
   1981c:	01013403          	ld	s0,16(sp)
   19820:	00813483          	ld	s1,8(sp)
   19824:	02010113          	addi	sp,sp,32
   19828:	00008067          	ret

000000000001982c <_fclose_r>:
   1982c:	fe010113          	addi	sp,sp,-32
   19830:	00113c23          	sd	ra,24(sp)
   19834:	00813823          	sd	s0,16(sp)
   19838:	00913423          	sd	s1,8(sp)
   1983c:	01213023          	sd	s2,0(sp)
   19840:	02059263          	bnez	a1,19864 <_fclose_r+0x38>
   19844:	00000913          	li	s2,0
   19848:	01813083          	ld	ra,24(sp)
   1984c:	01013403          	ld	s0,16(sp)
   19850:	00090513          	mv	a0,s2
   19854:	00813483          	ld	s1,8(sp)
   19858:	00013903          	ld	s2,0(sp)
   1985c:	02010113          	addi	sp,sp,32
   19860:	00008067          	ret
   19864:	00050493          	mv	s1,a0
   19868:	00058413          	mv	s0,a1
   1986c:	00050863          	beqz	a0,1987c <_fclose_r+0x50>
   19870:	05052783          	lw	a5,80(a0)
   19874:	00079463          	bnez	a5,1987c <_fclose_r+0x50>
   19878:	9a4f90ef          	jal	ra,12a1c <__sinit>
   1987c:	01041783          	lh	a5,16(s0)
   19880:	fc0782e3          	beqz	a5,19844 <_fclose_r+0x18>
   19884:	00040593          	mv	a1,s0
   19888:	00048513          	mv	a0,s1
   1988c:	dfdf80ef          	jal	ra,12688 <__sflush_r>
   19890:	05043783          	ld	a5,80(s0)
   19894:	00050913          	mv	s2,a0
   19898:	00078c63          	beqz	a5,198b0 <_fclose_r+0x84>
   1989c:	03043583          	ld	a1,48(s0)
   198a0:	00048513          	mv	a0,s1
   198a4:	000780e7          	jalr	a5
   198a8:	00055463          	bgez	a0,198b0 <_fclose_r+0x84>
   198ac:	fff00913          	li	s2,-1
   198b0:	01045783          	lhu	a5,16(s0)
   198b4:	0807f793          	andi	a5,a5,128
   198b8:	00078863          	beqz	a5,198c8 <_fclose_r+0x9c>
   198bc:	01843583          	ld	a1,24(s0)
   198c0:	00048513          	mv	a0,s1
   198c4:	c00f90ef          	jal	ra,12cc4 <_free_r>
   198c8:	05843583          	ld	a1,88(s0)
   198cc:	00058c63          	beqz	a1,198e4 <_fclose_r+0xb8>
   198d0:	07440793          	addi	a5,s0,116
   198d4:	00f58663          	beq	a1,a5,198e0 <_fclose_r+0xb4>
   198d8:	00048513          	mv	a0,s1
   198dc:	be8f90ef          	jal	ra,12cc4 <_free_r>
   198e0:	04043c23          	sd	zero,88(s0)
   198e4:	07843583          	ld	a1,120(s0)
   198e8:	00058863          	beqz	a1,198f8 <_fclose_r+0xcc>
   198ec:	00048513          	mv	a0,s1
   198f0:	bd4f90ef          	jal	ra,12cc4 <_free_r>
   198f4:	06043c23          	sd	zero,120(s0)
   198f8:	a8cf90ef          	jal	ra,12b84 <__sfp_lock_acquire>
   198fc:	00041823          	sh	zero,16(s0)
   19900:	a88f90ef          	jal	ra,12b88 <__sfp_lock_release>
   19904:	f45ff06f          	j	19848 <_fclose_r+0x1c>

0000000000019908 <fclose>:
   19908:	00050593          	mv	a1,a0
   1990c:	8301b503          	ld	a0,-2000(gp) # 20860 <_impure_ptr>
   19910:	f1dff06f          	j	1982c <_fclose_r>

0000000000019914 <__fputwc>:
   19914:	fb010113          	addi	sp,sp,-80
   19918:	04813023          	sd	s0,64(sp)
   1991c:	02913c23          	sd	s1,56(sp)
   19920:	03413023          	sd	s4,32(sp)
   19924:	04113423          	sd	ra,72(sp)
   19928:	03213823          	sd	s2,48(sp)
   1992c:	03313423          	sd	s3,40(sp)
   19930:	01513c23          	sd	s5,24(sp)
   19934:	01613823          	sd	s6,16(sp)
   19938:	00050a13          	mv	s4,a0
   1993c:	00058493          	mv	s1,a1
   19940:	00060413          	mv	s0,a2
   19944:	6d8000ef          	jal	ra,1a01c <__locale_mb_cur_max>
   19948:	00100793          	li	a5,1
   1994c:	04f51a63          	bne	a0,a5,199a0 <__fputwc+0x8c>
   19950:	fff4879b          	addiw	a5,s1,-1
   19954:	0fe00713          	li	a4,254
   19958:	04f76463          	bltu	a4,a5,199a0 <__fputwc+0x8c>
   1995c:	00910423          	sb	s1,8(sp)
   19960:	00100993          	li	s3,1
   19964:	00000913          	li	s2,0
   19968:	fff00a93          	li	s5,-1
   1996c:	00a00b13          	li	s6,10
   19970:	07391263          	bne	s2,s3,199d4 <__fputwc+0xc0>
   19974:	0004851b          	sext.w	a0,s1
   19978:	04813083          	ld	ra,72(sp)
   1997c:	04013403          	ld	s0,64(sp)
   19980:	03813483          	ld	s1,56(sp)
   19984:	03013903          	ld	s2,48(sp)
   19988:	02813983          	ld	s3,40(sp)
   1998c:	02013a03          	ld	s4,32(sp)
   19990:	01813a83          	ld	s5,24(sp)
   19994:	01013b03          	ld	s6,16(sp)
   19998:	05010113          	addi	sp,sp,80
   1999c:	00008067          	ret
   199a0:	0a440693          	addi	a3,s0,164
   199a4:	00048613          	mv	a2,s1
   199a8:	00810593          	addi	a1,sp,8
   199ac:	000a0513          	mv	a0,s4
   199b0:	799010ef          	jal	ra,1b948 <_wcrtomb_r>
   199b4:	fff00793          	li	a5,-1
   199b8:	00050993          	mv	s3,a0
   199bc:	faf514e3          	bne	a0,a5,19964 <__fputwc+0x50>
   199c0:	01045783          	lhu	a5,16(s0)
   199c4:	0407e793          	ori	a5,a5,64
   199c8:	00f41823          	sh	a5,16(s0)
   199cc:	fff00513          	li	a0,-1
   199d0:	fa9ff06f          	j	19978 <__fputwc+0x64>
   199d4:	00810793          	addi	a5,sp,8
   199d8:	012787b3          	add	a5,a5,s2
   199dc:	0007c583          	lbu	a1,0(a5)
   199e0:	00c42783          	lw	a5,12(s0)
   199e4:	fff7871b          	addiw	a4,a5,-1
   199e8:	00e42623          	sw	a4,12(s0)
   199ec:	00075863          	bgez	a4,199fc <__fputwc+0xe8>
   199f0:	02842783          	lw	a5,40(s0)
   199f4:	02f74063          	blt	a4,a5,19a14 <__fputwc+0x100>
   199f8:	01658e63          	beq	a1,s6,19a14 <__fputwc+0x100>
   199fc:	00043783          	ld	a5,0(s0)
   19a00:	00178713          	addi	a4,a5,1
   19a04:	00e43023          	sd	a4,0(s0)
   19a08:	00b78023          	sb	a1,0(a5)
   19a0c:	00190913          	addi	s2,s2,1
   19a10:	f61ff06f          	j	19970 <__fputwc+0x5c>
   19a14:	00040613          	mv	a2,s0
   19a18:	000a0513          	mv	a0,s4
   19a1c:	5ed010ef          	jal	ra,1b808 <__swbuf_r>
   19a20:	ff5516e3          	bne	a0,s5,19a0c <__fputwc+0xf8>
   19a24:	fa9ff06f          	j	199cc <__fputwc+0xb8>

0000000000019a28 <_fputwc_r>:
   19a28:	01061783          	lh	a5,16(a2)
   19a2c:	03279713          	slli	a4,a5,0x32
   19a30:	02074063          	bltz	a4,19a50 <_fputwc_r+0x28>
   19a34:	0ac62703          	lw	a4,172(a2)
   19a38:	000026b7          	lui	a3,0x2
   19a3c:	00d7e7b3          	or	a5,a5,a3
   19a40:	00f61823          	sh	a5,16(a2)
   19a44:	000027b7          	lui	a5,0x2
   19a48:	00f767b3          	or	a5,a4,a5
   19a4c:	0af62623          	sw	a5,172(a2)
   19a50:	ec5ff06f          	j	19914 <__fputwc>

0000000000019a54 <fputwc>:
   19a54:	fd010113          	addi	sp,sp,-48
   19a58:	02813023          	sd	s0,32(sp)
   19a5c:	8301b403          	ld	s0,-2000(gp) # 20860 <_impure_ptr>
   19a60:	00913c23          	sd	s1,24(sp)
   19a64:	02113423          	sd	ra,40(sp)
   19a68:	00050493          	mv	s1,a0
   19a6c:	00058613          	mv	a2,a1
   19a70:	00040e63          	beqz	s0,19a8c <fputwc+0x38>
   19a74:	05042783          	lw	a5,80(s0)
   19a78:	00079a63          	bnez	a5,19a8c <fputwc+0x38>
   19a7c:	00040513          	mv	a0,s0
   19a80:	00b13423          	sd	a1,8(sp)
   19a84:	f99f80ef          	jal	ra,12a1c <__sinit>
   19a88:	00813603          	ld	a2,8(sp)
   19a8c:	00040513          	mv	a0,s0
   19a90:	02013403          	ld	s0,32(sp)
   19a94:	02813083          	ld	ra,40(sp)
   19a98:	00048593          	mv	a1,s1
   19a9c:	01813483          	ld	s1,24(sp)
   19aa0:	03010113          	addi	sp,sp,48
   19aa4:	f85ff06f          	j	19a28 <_fputwc_r>

0000000000019aa8 <_fstat_r>:
   19aa8:	fe010113          	addi	sp,sp,-32
   19aac:	00813823          	sd	s0,16(sp)
   19ab0:	00913423          	sd	s1,8(sp)
   19ab4:	00050493          	mv	s1,a0
   19ab8:	00058513          	mv	a0,a1
   19abc:	00060593          	mv	a1,a2
   19ac0:	00113c23          	sd	ra,24(sp)
   19ac4:	8c01a823          	sw	zero,-1840(gp) # 20900 <errno>
   19ac8:	000020ef          	jal	ra,1bac8 <_fstat>
   19acc:	fff00793          	li	a5,-1
   19ad0:	00f51863          	bne	a0,a5,19ae0 <_fstat_r+0x38>
   19ad4:	8d01a783          	lw	a5,-1840(gp) # 20900 <errno>
   19ad8:	00078463          	beqz	a5,19ae0 <_fstat_r+0x38>
   19adc:	00f4a023          	sw	a5,0(s1)
   19ae0:	01813083          	ld	ra,24(sp)
   19ae4:	01013403          	ld	s0,16(sp)
   19ae8:	00813483          	ld	s1,8(sp)
   19aec:	02010113          	addi	sp,sp,32
   19af0:	00008067          	ret

0000000000019af4 <__sfvwrite_r>:
   19af4:	01063783          	ld	a5,16(a2)
   19af8:	00079863          	bnez	a5,19b08 <__sfvwrite_r+0x14>
   19afc:	00000793          	li	a5,0
   19b00:	00078513          	mv	a0,a5
   19b04:	00008067          	ret
   19b08:	0105d783          	lhu	a5,16(a1)
   19b0c:	f8010113          	addi	sp,sp,-128
   19b10:	06813823          	sd	s0,112(sp)
   19b14:	07213023          	sd	s2,96(sp)
   19b18:	05413823          	sd	s4,80(sp)
   19b1c:	06113c23          	sd	ra,120(sp)
   19b20:	06913423          	sd	s1,104(sp)
   19b24:	05313c23          	sd	s3,88(sp)
   19b28:	05513423          	sd	s5,72(sp)
   19b2c:	05613023          	sd	s6,64(sp)
   19b30:	03713c23          	sd	s7,56(sp)
   19b34:	03813823          	sd	s8,48(sp)
   19b38:	03913423          	sd	s9,40(sp)
   19b3c:	03a13023          	sd	s10,32(sp)
   19b40:	01b13c23          	sd	s11,24(sp)
   19b44:	0087f793          	andi	a5,a5,8
   19b48:	00060a13          	mv	s4,a2
   19b4c:	00058413          	mv	s0,a1
   19b50:	00050913          	mv	s2,a0
   19b54:	0e078063          	beqz	a5,19c34 <__sfvwrite_r+0x140>
   19b58:	0185b783          	ld	a5,24(a1)
   19b5c:	0c078c63          	beqz	a5,19c34 <__sfvwrite_r+0x140>
   19b60:	01045783          	lhu	a5,16(s0)
   19b64:	000a3983          	ld	s3,0(s4)
   19b68:	0027f713          	andi	a4,a5,2
   19b6c:	16071a63          	bnez	a4,19ce0 <__sfvwrite_r+0x1ec>
   19b70:	0017f793          	andi	a5,a5,1
   19b74:	00000a93          	li	s5,0
   19b78:	20078863          	beqz	a5,19d88 <__sfvwrite_r+0x294>
   19b7c:	00000513          	li	a0,0
   19b80:	00000b93          	li	s7,0
   19b84:	00000b13          	li	s6,0
   19b88:	360b0663          	beqz	s6,19ef4 <__sfvwrite_r+0x400>
   19b8c:	02051063          	bnez	a0,19bac <__sfvwrite_r+0xb8>
   19b90:	000b0613          	mv	a2,s6
   19b94:	00a00593          	li	a1,10
   19b98:	000b8513          	mv	a0,s7
   19b9c:	d71fb0ef          	jal	ra,1590c <memchr>
   19ba0:	36050463          	beqz	a0,19f08 <__sfvwrite_r+0x414>
   19ba4:	00150513          	addi	a0,a0,1
   19ba8:	41750abb          	subw	s5,a0,s7
   19bac:	000a8c13          	mv	s8,s5
   19bb0:	015b7463          	bgeu	s6,s5,19bb8 <__sfvwrite_r+0xc4>
   19bb4:	000b0c13          	mv	s8,s6
   19bb8:	00043503          	ld	a0,0(s0)
   19bbc:	01843783          	ld	a5,24(s0)
   19bc0:	02042683          	lw	a3,32(s0)
   19bc4:	34a7f663          	bgeu	a5,a0,19f10 <__sfvwrite_r+0x41c>
   19bc8:	00c42483          	lw	s1,12(s0)
   19bcc:	00d484bb          	addw	s1,s1,a3
   19bd0:	3584d063          	bge	s1,s8,19f10 <__sfvwrite_r+0x41c>
   19bd4:	000b8593          	mv	a1,s7
   19bd8:	00048613          	mv	a2,s1
   19bdc:	640000ef          	jal	ra,1a21c <memmove>
   19be0:	00043783          	ld	a5,0(s0)
   19be4:	00040593          	mv	a1,s0
   19be8:	00090513          	mv	a0,s2
   19bec:	009787b3          	add	a5,a5,s1
   19bf0:	00f43023          	sd	a5,0(s0)
   19bf4:	c9df80ef          	jal	ra,12890 <_fflush_r>
   19bf8:	16051e63          	bnez	a0,19d74 <__sfvwrite_r+0x280>
   19bfc:	409a8abb          	subw	s5,s5,s1
   19c00:	00100513          	li	a0,1
   19c04:	000a9a63          	bnez	s5,19c18 <__sfvwrite_r+0x124>
   19c08:	00040593          	mv	a1,s0
   19c0c:	00090513          	mv	a0,s2
   19c10:	c81f80ef          	jal	ra,12890 <_fflush_r>
   19c14:	16051063          	bnez	a0,19d74 <__sfvwrite_r+0x280>
   19c18:	010a3783          	ld	a5,16(s4)
   19c1c:	009b8bb3          	add	s7,s7,s1
   19c20:	409b0b33          	sub	s6,s6,s1
   19c24:	409784b3          	sub	s1,a5,s1
   19c28:	009a3823          	sd	s1,16(s4)
   19c2c:	f4049ee3          	bnez	s1,19b88 <__sfvwrite_r+0x94>
   19c30:	06c0006f          	j	19c9c <__sfvwrite_r+0x1a8>
   19c34:	00040593          	mv	a1,s0
   19c38:	00090513          	mv	a0,s2
   19c3c:	f80f80ef          	jal	ra,123bc <__swsetup_r>
   19c40:	fff00793          	li	a5,-1
   19c44:	f0050ee3          	beqz	a0,19b60 <__sfvwrite_r+0x6c>
   19c48:	0580006f          	j	19ca0 <__sfvwrite_r+0x1ac>
   19c4c:	0009ba83          	ld	s5,0(s3)
   19c50:	0089b483          	ld	s1,8(s3)
   19c54:	01098993          	addi	s3,s3,16
   19c58:	fe048ae3          	beqz	s1,19c4c <__sfvwrite_r+0x158>
   19c5c:	00048693          	mv	a3,s1
   19c60:	009b7463          	bgeu	s6,s1,19c68 <__sfvwrite_r+0x174>
   19c64:	000b0693          	mv	a3,s6
   19c68:	04043783          	ld	a5,64(s0)
   19c6c:	03043583          	ld	a1,48(s0)
   19c70:	0006869b          	sext.w	a3,a3
   19c74:	000a8613          	mv	a2,s5
   19c78:	00090513          	mv	a0,s2
   19c7c:	000780e7          	jalr	a5 # 2000 <_start-0xe0b0>
   19c80:	0ea05a63          	blez	a0,19d74 <__sfvwrite_r+0x280>
   19c84:	010a3783          	ld	a5,16(s4)
   19c88:	00aa8ab3          	add	s5,s5,a0
   19c8c:	40a484b3          	sub	s1,s1,a0
   19c90:	40a78533          	sub	a0,a5,a0
   19c94:	00aa3823          	sd	a0,16(s4)
   19c98:	fc0510e3          	bnez	a0,19c58 <__sfvwrite_r+0x164>
   19c9c:	00000793          	li	a5,0
   19ca0:	07813083          	ld	ra,120(sp)
   19ca4:	07013403          	ld	s0,112(sp)
   19ca8:	06813483          	ld	s1,104(sp)
   19cac:	06013903          	ld	s2,96(sp)
   19cb0:	05813983          	ld	s3,88(sp)
   19cb4:	05013a03          	ld	s4,80(sp)
   19cb8:	04813a83          	ld	s5,72(sp)
   19cbc:	04013b03          	ld	s6,64(sp)
   19cc0:	03813b83          	ld	s7,56(sp)
   19cc4:	03013c03          	ld	s8,48(sp)
   19cc8:	02813c83          	ld	s9,40(sp)
   19ccc:	02013d03          	ld	s10,32(sp)
   19cd0:	01813d83          	ld	s11,24(sp)
   19cd4:	00078513          	mv	a0,a5
   19cd8:	08010113          	addi	sp,sp,128
   19cdc:	00008067          	ret
   19ce0:	80000b37          	lui	s6,0x80000
   19ce4:	00000a93          	li	s5,0
   19ce8:	00000493          	li	s1,0
   19cec:	c00b4b13          	xori	s6,s6,-1024
   19cf0:	f69ff06f          	j	19c58 <__sfvwrite_r+0x164>
   19cf4:	0009ba83          	ld	s5,0(s3)
   19cf8:	0089bd03          	ld	s10,8(s3)
   19cfc:	01098993          	addi	s3,s3,16
   19d00:	00c42483          	lw	s1,12(s0)
   19d04:	00048793          	mv	a5,s1
   19d08:	fe0d06e3          	beqz	s10,19cf4 <__sfvwrite_r+0x200>
   19d0c:	01045703          	lhu	a4,16(s0)
   19d10:	00043503          	ld	a0,0(s0)
   19d14:	20077693          	andi	a3,a4,512
   19d18:	14068a63          	beqz	a3,19e6c <__sfvwrite_r+0x378>
   19d1c:	0c9d6463          	bltu	s10,s1,19de4 <__sfvwrite_r+0x2f0>
   19d20:	48077693          	andi	a3,a4,1152
   19d24:	0c068063          	beqz	a3,19de4 <__sfvwrite_r+0x2f0>
   19d28:	02042483          	lw	s1,32(s0)
   19d2c:	01843583          	ld	a1,24(s0)
   19d30:	029c04bb          	mulw	s1,s8,s1
   19d34:	40b50533          	sub	a0,a0,a1
   19d38:	00050d9b          	sext.w	s11,a0
   19d3c:	001d8793          	addi	a5,s11,1
   19d40:	01a787b3          	add	a5,a5,s10
   19d44:	0394c4bb          	divw	s1,s1,s9
   19d48:	00f4f663          	bgeu	s1,a5,19d54 <__sfvwrite_r+0x260>
   19d4c:	0015051b          	addiw	a0,a0,1
   19d50:	01a504bb          	addw	s1,a0,s10
   19d54:	40077713          	andi	a4,a4,1024
   19d58:	0e070263          	beqz	a4,19e3c <__sfvwrite_r+0x348>
   19d5c:	00048593          	mv	a1,s1
   19d60:	00090513          	mv	a0,s2
   19d64:	d04fb0ef          	jal	ra,15268 <_malloc_r>
   19d68:	02051e63          	bnez	a0,19da4 <__sfvwrite_r+0x2b0>
   19d6c:	00c00793          	li	a5,12
   19d70:	00f92023          	sw	a5,0(s2)
   19d74:	01045783          	lhu	a5,16(s0)
   19d78:	0407e793          	ori	a5,a5,64
   19d7c:	00f41823          	sh	a5,16(s0)
   19d80:	fff00793          	li	a5,-1
   19d84:	f1dff06f          	j	19ca0 <__sfvwrite_r+0x1ac>
   19d88:	80000b37          	lui	s6,0x80000
   19d8c:	ffeb4b93          	xori	s7,s6,-2
   19d90:	00000d13          	li	s10,0
   19d94:	fffb4b13          	not	s6,s6
   19d98:	00300c13          	li	s8,3
   19d9c:	00200c93          	li	s9,2
   19da0:	f61ff06f          	j	19d00 <__sfvwrite_r+0x20c>
   19da4:	01843583          	ld	a1,24(s0)
   19da8:	000d8613          	mv	a2,s11
   19dac:	00a13423          	sd	a0,8(sp)
   19db0:	384000ef          	jal	ra,1a134 <memcpy>
   19db4:	01045703          	lhu	a4,16(s0)
   19db8:	00813783          	ld	a5,8(sp)
   19dbc:	b7f77713          	andi	a4,a4,-1153
   19dc0:	08076713          	ori	a4,a4,128
   19dc4:	00e41823          	sh	a4,16(s0)
   19dc8:	00f43c23          	sd	a5,24(s0)
   19dcc:	02942023          	sw	s1,32(s0)
   19dd0:	01b787b3          	add	a5,a5,s11
   19dd4:	41b484bb          	subw	s1,s1,s11
   19dd8:	00f43023          	sd	a5,0(s0)
   19ddc:	00942623          	sw	s1,12(s0)
   19de0:	000d0793          	mv	a5,s10
   19de4:	000d0493          	mv	s1,s10
   19de8:	00fd7463          	bgeu	s10,a5,19df0 <__sfvwrite_r+0x2fc>
   19dec:	000d0793          	mv	a5,s10
   19df0:	00043503          	ld	a0,0(s0)
   19df4:	00078613          	mv	a2,a5
   19df8:	000a8593          	mv	a1,s5
   19dfc:	00f13423          	sd	a5,8(sp)
   19e00:	41c000ef          	jal	ra,1a21c <memmove>
   19e04:	00c42703          	lw	a4,12(s0)
   19e08:	00813783          	ld	a5,8(sp)
   19e0c:	40f7073b          	subw	a4,a4,a5
   19e10:	00e42623          	sw	a4,12(s0)
   19e14:	00043703          	ld	a4,0(s0)
   19e18:	00f707b3          	add	a5,a4,a5
   19e1c:	00f43023          	sd	a5,0(s0)
   19e20:	010a3783          	ld	a5,16(s4)
   19e24:	009a8ab3          	add	s5,s5,s1
   19e28:	409d0d33          	sub	s10,s10,s1
   19e2c:	409784b3          	sub	s1,a5,s1
   19e30:	009a3823          	sd	s1,16(s4)
   19e34:	ec0496e3          	bnez	s1,19d00 <__sfvwrite_r+0x20c>
   19e38:	e65ff06f          	j	19c9c <__sfvwrite_r+0x1a8>
   19e3c:	00048613          	mv	a2,s1
   19e40:	00090513          	mv	a0,s2
   19e44:	47c000ef          	jal	ra,1a2c0 <_realloc_r>
   19e48:	00050793          	mv	a5,a0
   19e4c:	f6051ee3          	bnez	a0,19dc8 <__sfvwrite_r+0x2d4>
   19e50:	01843583          	ld	a1,24(s0)
   19e54:	00090513          	mv	a0,s2
   19e58:	e6df80ef          	jal	ra,12cc4 <_free_r>
   19e5c:	01045783          	lhu	a5,16(s0)
   19e60:	f7f7f793          	andi	a5,a5,-129
   19e64:	00f41823          	sh	a5,16(s0)
   19e68:	f05ff06f          	j	19d6c <__sfvwrite_r+0x278>
   19e6c:	01843783          	ld	a5,24(s0)
   19e70:	00a7e663          	bltu	a5,a0,19e7c <__sfvwrite_r+0x388>
   19e74:	02042683          	lw	a3,32(s0)
   19e78:	04dd7463          	bgeu	s10,a3,19ec0 <__sfvwrite_r+0x3cc>
   19e7c:	009d7463          	bgeu	s10,s1,19e84 <__sfvwrite_r+0x390>
   19e80:	000d0493          	mv	s1,s10
   19e84:	00048613          	mv	a2,s1
   19e88:	000a8593          	mv	a1,s5
   19e8c:	390000ef          	jal	ra,1a21c <memmove>
   19e90:	00c42783          	lw	a5,12(s0)
   19e94:	4097873b          	subw	a4,a5,s1
   19e98:	00043783          	ld	a5,0(s0)
   19e9c:	00e42623          	sw	a4,12(s0)
   19ea0:	009787b3          	add	a5,a5,s1
   19ea4:	00f43023          	sd	a5,0(s0)
   19ea8:	f6071ce3          	bnez	a4,19e20 <__sfvwrite_r+0x32c>
   19eac:	00040593          	mv	a1,s0
   19eb0:	00090513          	mv	a0,s2
   19eb4:	9ddf80ef          	jal	ra,12890 <_fflush_r>
   19eb8:	f60504e3          	beqz	a0,19e20 <__sfvwrite_r+0x32c>
   19ebc:	eb9ff06f          	j	19d74 <__sfvwrite_r+0x280>
   19ec0:	000b0793          	mv	a5,s6
   19ec4:	01abe463          	bltu	s7,s10,19ecc <__sfvwrite_r+0x3d8>
   19ec8:	000d0793          	mv	a5,s10
   19ecc:	02d7c7bb          	divw	a5,a5,a3
   19ed0:	04043703          	ld	a4,64(s0)
   19ed4:	03043583          	ld	a1,48(s0)
   19ed8:	000a8613          	mv	a2,s5
   19edc:	00090513          	mv	a0,s2
   19ee0:	02d786bb          	mulw	a3,a5,a3
   19ee4:	000700e7          	jalr	a4
   19ee8:	00050493          	mv	s1,a0
   19eec:	f2a04ae3          	bgtz	a0,19e20 <__sfvwrite_r+0x32c>
   19ef0:	e85ff06f          	j	19d74 <__sfvwrite_r+0x280>
   19ef4:	0009bb83          	ld	s7,0(s3)
   19ef8:	0089bb03          	ld	s6,8(s3)
   19efc:	00000513          	li	a0,0
   19f00:	01098993          	addi	s3,s3,16
   19f04:	c85ff06f          	j	19b88 <__sfvwrite_r+0x94>
   19f08:	001b0a9b          	addiw	s5,s6,1
   19f0c:	ca1ff06f          	j	19bac <__sfvwrite_r+0xb8>
   19f10:	02dc4263          	blt	s8,a3,19f34 <__sfvwrite_r+0x440>
   19f14:	04043783          	ld	a5,64(s0)
   19f18:	03043583          	ld	a1,48(s0)
   19f1c:	000b8613          	mv	a2,s7
   19f20:	00090513          	mv	a0,s2
   19f24:	000780e7          	jalr	a5
   19f28:	00050493          	mv	s1,a0
   19f2c:	cca048e3          	bgtz	a0,19bfc <__sfvwrite_r+0x108>
   19f30:	e45ff06f          	j	19d74 <__sfvwrite_r+0x280>
   19f34:	000c0613          	mv	a2,s8
   19f38:	000b8593          	mv	a1,s7
   19f3c:	2e0000ef          	jal	ra,1a21c <memmove>
   19f40:	00c42783          	lw	a5,12(s0)
   19f44:	000c0493          	mv	s1,s8
   19f48:	418787bb          	subw	a5,a5,s8
   19f4c:	00f42623          	sw	a5,12(s0)
   19f50:	00043783          	ld	a5,0(s0)
   19f54:	018787b3          	add	a5,a5,s8
   19f58:	00f43023          	sd	a5,0(s0)
   19f5c:	ca1ff06f          	j	19bfc <__sfvwrite_r+0x108>

0000000000019f60 <_isatty_r>:
   19f60:	fe010113          	addi	sp,sp,-32
   19f64:	00813823          	sd	s0,16(sp)
   19f68:	00913423          	sd	s1,8(sp)
   19f6c:	00050493          	mv	s1,a0
   19f70:	00058513          	mv	a0,a1
   19f74:	00113c23          	sd	ra,24(sp)
   19f78:	8c01a823          	sw	zero,-1840(gp) # 20900 <errno>
   19f7c:	3b9010ef          	jal	ra,1bb34 <_isatty>
   19f80:	fff00793          	li	a5,-1
   19f84:	00f51863          	bne	a0,a5,19f94 <_isatty_r+0x34>
   19f88:	8d01a783          	lw	a5,-1840(gp) # 20900 <errno>
   19f8c:	00078463          	beqz	a5,19f94 <_isatty_r+0x34>
   19f90:	00f4a023          	sw	a5,0(s1)
   19f94:	01813083          	ld	ra,24(sp)
   19f98:	01013403          	ld	s0,16(sp)
   19f9c:	00813483          	ld	s1,8(sp)
   19fa0:	02010113          	addi	sp,sp,32
   19fa4:	00008067          	ret

0000000000019fa8 <_setlocale_r>:
   19fa8:	fe010113          	addi	sp,sp,-32
   19fac:	00913423          	sd	s1,8(sp)
   19fb0:	00113c23          	sd	ra,24(sp)
   19fb4:	00813823          	sd	s0,16(sp)
   19fb8:	0001e4b7          	lui	s1,0x1e
   19fbc:	04060263          	beqz	a2,1a000 <_setlocale_r+0x58>
   19fc0:	0001e5b7          	lui	a1,0x1e
   19fc4:	33858593          	addi	a1,a1,824 # 1e338 <zeroes.4417+0x18>
   19fc8:	00060513          	mv	a0,a2
   19fcc:	00060413          	mv	s0,a2
   19fd0:	19d000ef          	jal	ra,1a96c <strcmp>
   19fd4:	02050663          	beqz	a0,1a000 <_setlocale_r+0x58>
   19fd8:	33048593          	addi	a1,s1,816 # 1e330 <zeroes.4417+0x10>
   19fdc:	00040513          	mv	a0,s0
   19fe0:	18d000ef          	jal	ra,1a96c <strcmp>
   19fe4:	00050e63          	beqz	a0,1a000 <_setlocale_r+0x58>
   19fe8:	0001e5b7          	lui	a1,0x1e
   19fec:	c3858593          	addi	a1,a1,-968 # 1dc38 <zeroes.4441+0x90>
   19ff0:	00040513          	mv	a0,s0
   19ff4:	179000ef          	jal	ra,1a96c <strcmp>
   19ff8:	00000793          	li	a5,0
   19ffc:	00051463          	bnez	a0,1a004 <_setlocale_r+0x5c>
   1a000:	33048793          	addi	a5,s1,816
   1a004:	01813083          	ld	ra,24(sp)
   1a008:	01013403          	ld	s0,16(sp)
   1a00c:	00813483          	ld	s1,8(sp)
   1a010:	00078513          	mv	a0,a5
   1a014:	02010113          	addi	sp,sp,32
   1a018:	00008067          	ret

000000000001a01c <__locale_mb_cur_max>:
   1a01c:	8301b783          	ld	a5,-2000(gp) # 20860 <_impure_ptr>
   1a020:	0487b783          	ld	a5,72(a5)
   1a024:	00079663          	bnez	a5,1a030 <__locale_mb_cur_max+0x14>
   1a028:	000207b7          	lui	a5,0x20
   1a02c:	68878793          	addi	a5,a5,1672 # 20688 <__global_locale>
   1a030:	1607c503          	lbu	a0,352(a5)
   1a034:	00008067          	ret

000000000001a038 <__locale_ctype_ptr_l>:
   1a038:	0f853503          	ld	a0,248(a0)
   1a03c:	00008067          	ret

000000000001a040 <__locale_ctype_ptr>:
   1a040:	8301b783          	ld	a5,-2000(gp) # 20860 <_impure_ptr>
   1a044:	0487b783          	ld	a5,72(a5)
   1a048:	00079663          	bnez	a5,1a054 <__locale_ctype_ptr+0x14>
   1a04c:	000207b7          	lui	a5,0x20
   1a050:	68878793          	addi	a5,a5,1672 # 20688 <__global_locale>
   1a054:	0f87b503          	ld	a0,248(a5)
   1a058:	00008067          	ret

000000000001a05c <setlocale>:
   1a05c:	00058613          	mv	a2,a1
   1a060:	00050593          	mv	a1,a0
   1a064:	8301b503          	ld	a0,-2000(gp) # 20860 <_impure_ptr>
   1a068:	f41ff06f          	j	19fa8 <_setlocale_r>

000000000001a06c <_lseek_r>:
   1a06c:	fe010113          	addi	sp,sp,-32
   1a070:	00813823          	sd	s0,16(sp)
   1a074:	00913423          	sd	s1,8(sp)
   1a078:	00050493          	mv	s1,a0
   1a07c:	00058513          	mv	a0,a1
   1a080:	00060593          	mv	a1,a2
   1a084:	00068613          	mv	a2,a3
   1a088:	00113c23          	sd	ra,24(sp)
   1a08c:	8c01a823          	sw	zero,-1840(gp) # 20900 <errno>
   1a090:	2d5010ef          	jal	ra,1bb64 <_lseek>
   1a094:	fff00793          	li	a5,-1
   1a098:	00f51863          	bne	a0,a5,1a0a8 <_lseek_r+0x3c>
   1a09c:	8d01a783          	lw	a5,-1840(gp) # 20900 <errno>
   1a0a0:	00078463          	beqz	a5,1a0a8 <_lseek_r+0x3c>
   1a0a4:	00f4a023          	sw	a5,0(s1)
   1a0a8:	01813083          	ld	ra,24(sp)
   1a0ac:	01013403          	ld	s0,16(sp)
   1a0b0:	00813483          	ld	s1,8(sp)
   1a0b4:	02010113          	addi	sp,sp,32
   1a0b8:	00008067          	ret

000000000001a0bc <_mbtowc_r>:
   1a0bc:	8301b783          	ld	a5,-2000(gp) # 20860 <_impure_ptr>
   1a0c0:	0487b783          	ld	a5,72(a5)
   1a0c4:	00079663          	bnez	a5,1a0d0 <_mbtowc_r+0x14>
   1a0c8:	000207b7          	lui	a5,0x20
   1a0cc:	68878793          	addi	a5,a5,1672 # 20688 <__global_locale>
   1a0d0:	0e87b303          	ld	t1,232(a5)
   1a0d4:	00030067          	jr	t1

000000000001a0d8 <__ascii_mbtowc>:
   1a0d8:	02059a63          	bnez	a1,1a10c <__ascii_mbtowc+0x34>
   1a0dc:	ff010113          	addi	sp,sp,-16
   1a0e0:	00c10593          	addi	a1,sp,12
   1a0e4:	00000513          	li	a0,0
   1a0e8:	00060e63          	beqz	a2,1a104 <__ascii_mbtowc+0x2c>
   1a0ec:	ffe00513          	li	a0,-2
   1a0f0:	00068a63          	beqz	a3,1a104 <__ascii_mbtowc+0x2c>
   1a0f4:	00064783          	lbu	a5,0(a2)
   1a0f8:	00f5a023          	sw	a5,0(a1)
   1a0fc:	00064503          	lbu	a0,0(a2)
   1a100:	00a03533          	snez	a0,a0
   1a104:	01010113          	addi	sp,sp,16
   1a108:	00008067          	ret
   1a10c:	00000513          	li	a0,0
   1a110:	02060063          	beqz	a2,1a130 <__ascii_mbtowc+0x58>
   1a114:	ffe00513          	li	a0,-2
   1a118:	00068c63          	beqz	a3,1a130 <__ascii_mbtowc+0x58>
   1a11c:	00064783          	lbu	a5,0(a2)
   1a120:	00f5a023          	sw	a5,0(a1)
   1a124:	00064503          	lbu	a0,0(a2)
   1a128:	00a03533          	snez	a0,a0
   1a12c:	00008067          	ret
   1a130:	00008067          	ret

000000000001a134 <memcpy>:
   1a134:	00a5c7b3          	xor	a5,a1,a0
   1a138:	0077f793          	andi	a5,a5,7
   1a13c:	00c50733          	add	a4,a0,a2
   1a140:	00079663          	bnez	a5,1a14c <memcpy+0x18>
   1a144:	00700793          	li	a5,7
   1a148:	02c7e463          	bltu	a5,a2,1a170 <memcpy+0x3c>
   1a14c:	00050793          	mv	a5,a0
   1a150:	00e56c63          	bltu	a0,a4,1a168 <memcpy+0x34>
   1a154:	00008067          	ret
   1a158:	0005c683          	lbu	a3,0(a1)
   1a15c:	00178793          	addi	a5,a5,1
   1a160:	00158593          	addi	a1,a1,1
   1a164:	fed78fa3          	sb	a3,-1(a5)
   1a168:	fee7e8e3          	bltu	a5,a4,1a158 <memcpy+0x24>
   1a16c:	00008067          	ret
   1a170:	00757793          	andi	a5,a0,7
   1a174:	08079263          	bnez	a5,1a1f8 <memcpy+0xc4>
   1a178:	00050793          	mv	a5,a0
   1a17c:	ff877693          	andi	a3,a4,-8
   1a180:	fc068613          	addi	a2,a3,-64 # 1fc0 <_start-0xe0f0>
   1a184:	08c7f663          	bgeu	a5,a2,1a210 <memcpy+0xdc>
   1a188:	0005b383          	ld	t2,0(a1)
   1a18c:	0085b283          	ld	t0,8(a1)
   1a190:	0105bf83          	ld	t6,16(a1)
   1a194:	0185bf03          	ld	t5,24(a1)
   1a198:	0205be83          	ld	t4,32(a1)
   1a19c:	0285be03          	ld	t3,40(a1)
   1a1a0:	0305b303          	ld	t1,48(a1)
   1a1a4:	0385b883          	ld	a7,56(a1)
   1a1a8:	04858593          	addi	a1,a1,72
   1a1ac:	04878793          	addi	a5,a5,72
   1a1b0:	ff85b803          	ld	a6,-8(a1)
   1a1b4:	fa77bc23          	sd	t2,-72(a5)
   1a1b8:	fc57b023          	sd	t0,-64(a5)
   1a1bc:	fdf7b423          	sd	t6,-56(a5)
   1a1c0:	fde7b823          	sd	t5,-48(a5)
   1a1c4:	fdd7bc23          	sd	t4,-40(a5)
   1a1c8:	ffc7b023          	sd	t3,-32(a5)
   1a1cc:	fe67b423          	sd	t1,-24(a5)
   1a1d0:	ff17b823          	sd	a7,-16(a5)
   1a1d4:	ff07bc23          	sd	a6,-8(a5)
   1a1d8:	fadff06f          	j	1a184 <memcpy+0x50>
   1a1dc:	0005c683          	lbu	a3,0(a1)
   1a1e0:	00178793          	addi	a5,a5,1
   1a1e4:	00158593          	addi	a1,a1,1
   1a1e8:	fed78fa3          	sb	a3,-1(a5)
   1a1ec:	0077f693          	andi	a3,a5,7
   1a1f0:	fe0696e3          	bnez	a3,1a1dc <memcpy+0xa8>
   1a1f4:	f89ff06f          	j	1a17c <memcpy+0x48>
   1a1f8:	00050793          	mv	a5,a0
   1a1fc:	ff1ff06f          	j	1a1ec <memcpy+0xb8>
   1a200:	0005b603          	ld	a2,0(a1)
   1a204:	00878793          	addi	a5,a5,8
   1a208:	00858593          	addi	a1,a1,8
   1a20c:	fec7bc23          	sd	a2,-8(a5)
   1a210:	fed7e8e3          	bltu	a5,a3,1a200 <memcpy+0xcc>
   1a214:	f4e7eae3          	bltu	a5,a4,1a168 <memcpy+0x34>
   1a218:	00008067          	ret

000000000001a21c <memmove>:
   1a21c:	00c50733          	add	a4,a0,a2
   1a220:	00a5e863          	bltu	a1,a0,1a230 <memmove+0x14>
   1a224:	00050793          	mv	a5,a0
   1a228:	02e79a63          	bne	a5,a4,1a25c <memmove+0x40>
   1a22c:	00008067          	ret
   1a230:	00c587b3          	add	a5,a1,a2
   1a234:	40f60633          	sub	a2,a2,a5
   1a238:	fef576e3          	bgeu	a0,a5,1a224 <memmove+0x8>
   1a23c:	00c786b3          	add	a3,a5,a2
   1a240:	00069463          	bnez	a3,1a248 <memmove+0x2c>
   1a244:	00008067          	ret
   1a248:	fff78793          	addi	a5,a5,-1
   1a24c:	0007c683          	lbu	a3,0(a5)
   1a250:	fff70713          	addi	a4,a4,-1
   1a254:	00d70023          	sb	a3,0(a4)
   1a258:	fe5ff06f          	j	1a23c <memmove+0x20>
   1a25c:	00158593          	addi	a1,a1,1
   1a260:	fff5c683          	lbu	a3,-1(a1)
   1a264:	00178793          	addi	a5,a5,1
   1a268:	fed78fa3          	sb	a3,-1(a5)
   1a26c:	fbdff06f          	j	1a228 <memmove+0xc>

000000000001a270 <_read_r>:
   1a270:	fe010113          	addi	sp,sp,-32
   1a274:	00813823          	sd	s0,16(sp)
   1a278:	00913423          	sd	s1,8(sp)
   1a27c:	00050493          	mv	s1,a0
   1a280:	00058513          	mv	a0,a1
   1a284:	00060593          	mv	a1,a2
   1a288:	00068613          	mv	a2,a3
   1a28c:	00113c23          	sd	ra,24(sp)
   1a290:	8c01a823          	sw	zero,-1840(gp) # 20900 <errno>
   1a294:	11d010ef          	jal	ra,1bbb0 <_read>
   1a298:	fff00793          	li	a5,-1
   1a29c:	00f51863          	bne	a0,a5,1a2ac <_read_r+0x3c>
   1a2a0:	8d01a783          	lw	a5,-1840(gp) # 20900 <errno>
   1a2a4:	00078463          	beqz	a5,1a2ac <_read_r+0x3c>
   1a2a8:	00f4a023          	sw	a5,0(s1)
   1a2ac:	01813083          	ld	ra,24(sp)
   1a2b0:	01013403          	ld	s0,16(sp)
   1a2b4:	00813483          	ld	s1,8(sp)
   1a2b8:	02010113          	addi	sp,sp,32
   1a2bc:	00008067          	ret

000000000001a2c0 <_realloc_r>:
   1a2c0:	fa010113          	addi	sp,sp,-96
   1a2c4:	04813823          	sd	s0,80(sp)
   1a2c8:	04113c23          	sd	ra,88(sp)
   1a2cc:	00058413          	mv	s0,a1
   1a2d0:	04913423          	sd	s1,72(sp)
   1a2d4:	05213023          	sd	s2,64(sp)
   1a2d8:	03313c23          	sd	s3,56(sp)
   1a2dc:	03413823          	sd	s4,48(sp)
   1a2e0:	03513423          	sd	s5,40(sp)
   1a2e4:	03613023          	sd	s6,32(sp)
   1a2e8:	01713c23          	sd	s7,24(sp)
   1a2ec:	01813823          	sd	s8,16(sp)
   1a2f0:	00060593          	mv	a1,a2
   1a2f4:	02041a63          	bnez	s0,1a328 <_realloc_r+0x68>
   1a2f8:	05013403          	ld	s0,80(sp)
   1a2fc:	05813083          	ld	ra,88(sp)
   1a300:	04813483          	ld	s1,72(sp)
   1a304:	04013903          	ld	s2,64(sp)
   1a308:	03813983          	ld	s3,56(sp)
   1a30c:	03013a03          	ld	s4,48(sp)
   1a310:	02813a83          	ld	s5,40(sp)
   1a314:	02013b03          	ld	s6,32(sp)
   1a318:	01813b83          	ld	s7,24(sp)
   1a31c:	01013c03          	ld	s8,16(sp)
   1a320:	06010113          	addi	sp,sp,96
   1a324:	f45fa06f          	j	15268 <_malloc_r>
   1a328:	00050a93          	mv	s5,a0
   1a32c:	00c13423          	sd	a2,8(sp)
   1a330:	e00fb0ef          	jal	ra,15930 <__malloc_lock>
   1a334:	00813583          	ld	a1,8(sp)
   1a338:	ff843683          	ld	a3,-8(s0)
   1a33c:	02e00793          	li	a5,46
   1a340:	01758993          	addi	s3,a1,23
   1a344:	ff040b93          	addi	s7,s0,-16
   1a348:	ffc6f913          	andi	s2,a3,-4
   1a34c:	0537fa63          	bgeu	a5,s3,1a3a0 <_realloc_r+0xe0>
   1a350:	800007b7          	lui	a5,0x80000
   1a354:	ff09fb13          	andi	s6,s3,-16
   1a358:	fff7c793          	not	a5,a5
   1a35c:	0567f463          	bgeu	a5,s6,1a3a4 <_realloc_r+0xe4>
   1a360:	00c00793          	li	a5,12
   1a364:	00faa023          	sw	a5,0(s5)
   1a368:	00000a13          	li	s4,0
   1a36c:	05813083          	ld	ra,88(sp)
   1a370:	05013403          	ld	s0,80(sp)
   1a374:	000a0513          	mv	a0,s4
   1a378:	04813483          	ld	s1,72(sp)
   1a37c:	04013903          	ld	s2,64(sp)
   1a380:	03813983          	ld	s3,56(sp)
   1a384:	03013a03          	ld	s4,48(sp)
   1a388:	02813a83          	ld	s5,40(sp)
   1a38c:	02013b03          	ld	s6,32(sp)
   1a390:	01813b83          	ld	s7,24(sp)
   1a394:	01013c03          	ld	s8,16(sp)
   1a398:	06010113          	addi	sp,sp,96
   1a39c:	00008067          	ret
   1a3a0:	02000b13          	li	s6,32
   1a3a4:	fabb6ee3          	bltu	s6,a1,1a360 <_realloc_r+0xa0>
   1a3a8:	45695c63          	bge	s2,s6,1a800 <_realloc_r+0x540>
   1a3ac:	00020c37          	lui	s8,0x20
   1a3b0:	e78c0713          	addi	a4,s8,-392 # 1fe78 <__malloc_av_>
   1a3b4:	01073603          	ld	a2,16(a4)
   1a3b8:	012b87b3          	add	a5,s7,s2
   1a3bc:	0087b703          	ld	a4,8(a5) # ffffffff80000008 <__global_pointer$+0xffffffff7ffdefd8>
   1a3c0:	e78c0c13          	addi	s8,s8,-392
   1a3c4:	00f60c63          	beq	a2,a5,1a3dc <_realloc_r+0x11c>
   1a3c8:	ffe77513          	andi	a0,a4,-2
   1a3cc:	00a78533          	add	a0,a5,a0
   1a3d0:	00853503          	ld	a0,8(a0)
   1a3d4:	00157513          	andi	a0,a0,1
   1a3d8:	0a051a63          	bnez	a0,1a48c <_realloc_r+0x1cc>
   1a3dc:	ffc77713          	andi	a4,a4,-4
   1a3e0:	00e909b3          	add	s3,s2,a4
   1a3e4:	04f61063          	bne	a2,a5,1a424 <_realloc_r+0x164>
   1a3e8:	020b0513          	addi	a0,s6,32 # ffffffff80000020 <__global_pointer$+0xffffffff7ffdeff0>
   1a3ec:	0aa9c463          	blt	s3,a0,1a494 <_realloc_r+0x1d4>
   1a3f0:	016b8bb3          	add	s7,s7,s6
   1a3f4:	416989b3          	sub	s3,s3,s6
   1a3f8:	017c3823          	sd	s7,16(s8)
   1a3fc:	0019e993          	ori	s3,s3,1
   1a400:	013bb423          	sd	s3,8(s7)
   1a404:	ff843983          	ld	s3,-8(s0)
   1a408:	000a8513          	mv	a0,s5
   1a40c:	00040a13          	mv	s4,s0
   1a410:	0019f993          	andi	s3,s3,1
   1a414:	0169e9b3          	or	s3,s3,s6
   1a418:	ff343c23          	sd	s3,-8(s0)
   1a41c:	d18fb0ef          	jal	ra,15934 <__malloc_unlock>
   1a420:	f4dff06f          	j	1a36c <_realloc_r+0xac>
   1a424:	0769c863          	blt	s3,s6,1a494 <_realloc_r+0x1d4>
   1a428:	0187b703          	ld	a4,24(a5)
   1a42c:	0107b783          	ld	a5,16(a5)
   1a430:	00e7bc23          	sd	a4,24(a5)
   1a434:	00f73823          	sd	a5,16(a4)
   1a438:	008bb703          	ld	a4,8(s7)
   1a43c:	416986b3          	sub	a3,s3,s6
   1a440:	01f00613          	li	a2,31
   1a444:	00177713          	andi	a4,a4,1
   1a448:	013b87b3          	add	a5,s7,s3
   1a44c:	3ad67e63          	bgeu	a2,a3,1a808 <_realloc_r+0x548>
   1a450:	00eb69b3          	or	s3,s6,a4
   1a454:	013bb423          	sd	s3,8(s7)
   1a458:	016b85b3          	add	a1,s7,s6
   1a45c:	0016e693          	ori	a3,a3,1
   1a460:	00d5b423          	sd	a3,8(a1)
   1a464:	0087b703          	ld	a4,8(a5)
   1a468:	01058593          	addi	a1,a1,16
   1a46c:	000a8513          	mv	a0,s5
   1a470:	00176713          	ori	a4,a4,1
   1a474:	00e7b423          	sd	a4,8(a5)
   1a478:	84df80ef          	jal	ra,12cc4 <_free_r>
   1a47c:	000a8513          	mv	a0,s5
   1a480:	cb4fb0ef          	jal	ra,15934 <__malloc_unlock>
   1a484:	010b8a13          	addi	s4,s7,16
   1a488:	ee5ff06f          	j	1a36c <_realloc_r+0xac>
   1a48c:	00000713          	li	a4,0
   1a490:	00000793          	li	a5,0
   1a494:	0016f693          	andi	a3,a3,1
   1a498:	28069263          	bnez	a3,1a71c <_realloc_r+0x45c>
   1a49c:	ff043483          	ld	s1,-16(s0)
   1a4a0:	409b84b3          	sub	s1,s7,s1
   1a4a4:	0084ba03          	ld	s4,8(s1)
   1a4a8:	ffca7a13          	andi	s4,s4,-4
   1a4ac:	012a0a33          	add	s4,s4,s2
   1a4b0:	1a078c63          	beqz	a5,1a668 <_realloc_r+0x3a8>
   1a4b4:	014709b3          	add	s3,a4,s4
   1a4b8:	0ef61663          	bne	a2,a5,1a5a4 <_realloc_r+0x2e4>
   1a4bc:	020b0793          	addi	a5,s6,32
   1a4c0:	1af9c463          	blt	s3,a5,1a668 <_realloc_r+0x3a8>
   1a4c4:	0104b703          	ld	a4,16(s1)
   1a4c8:	0184b783          	ld	a5,24(s1)
   1a4cc:	ff890613          	addi	a2,s2,-8
   1a4d0:	01048a13          	addi	s4,s1,16
   1a4d4:	00f73c23          	sd	a5,24(a4)
   1a4d8:	00e7b823          	sd	a4,16(a5)
   1a4dc:	04800713          	li	a4,72
   1a4e0:	0ac76a63          	bltu	a4,a2,1a594 <_realloc_r+0x2d4>
   1a4e4:	02700693          	li	a3,39
   1a4e8:	000a0793          	mv	a5,s4
   1a4ec:	02c6f263          	bgeu	a3,a2,1a510 <_realloc_r+0x250>
   1a4f0:	00043783          	ld	a5,0(s0)
   1a4f4:	00f4b823          	sd	a5,16(s1)
   1a4f8:	00843783          	ld	a5,8(s0)
   1a4fc:	00f4bc23          	sd	a5,24(s1)
   1a500:	03700793          	li	a5,55
   1a504:	04c7ea63          	bltu	a5,a2,1a558 <_realloc_r+0x298>
   1a508:	01040413          	addi	s0,s0,16
   1a50c:	02048793          	addi	a5,s1,32
   1a510:	00043703          	ld	a4,0(s0)
   1a514:	00e7b023          	sd	a4,0(a5)
   1a518:	00843703          	ld	a4,8(s0)
   1a51c:	00e7b423          	sd	a4,8(a5)
   1a520:	01043703          	ld	a4,16(s0)
   1a524:	00e7b823          	sd	a4,16(a5)
   1a528:	016487b3          	add	a5,s1,s6
   1a52c:	416989b3          	sub	s3,s3,s6
   1a530:	00fc3823          	sd	a5,16(s8)
   1a534:	0019e993          	ori	s3,s3,1
   1a538:	0137b423          	sd	s3,8(a5)
   1a53c:	0084b783          	ld	a5,8(s1)
   1a540:	0017f793          	andi	a5,a5,1
   1a544:	0167e9b3          	or	s3,a5,s6
   1a548:	0134b423          	sd	s3,8(s1)
   1a54c:	000a8513          	mv	a0,s5
   1a550:	be4fb0ef          	jal	ra,15934 <__malloc_unlock>
   1a554:	e19ff06f          	j	1a36c <_realloc_r+0xac>
   1a558:	01043783          	ld	a5,16(s0)
   1a55c:	02f4b023          	sd	a5,32(s1)
   1a560:	01843783          	ld	a5,24(s0)
   1a564:	02f4b423          	sd	a5,40(s1)
   1a568:	00e60863          	beq	a2,a4,1a578 <_realloc_r+0x2b8>
   1a56c:	02040413          	addi	s0,s0,32
   1a570:	03048793          	addi	a5,s1,48
   1a574:	f9dff06f          	j	1a510 <_realloc_r+0x250>
   1a578:	02043783          	ld	a5,32(s0)
   1a57c:	03040413          	addi	s0,s0,48
   1a580:	02f4b823          	sd	a5,48(s1)
   1a584:	ff843703          	ld	a4,-8(s0)
   1a588:	04048793          	addi	a5,s1,64
   1a58c:	02e4bc23          	sd	a4,56(s1)
   1a590:	f81ff06f          	j	1a510 <_realloc_r+0x250>
   1a594:	00040593          	mv	a1,s0
   1a598:	000a0513          	mv	a0,s4
   1a59c:	c81ff0ef          	jal	ra,1a21c <memmove>
   1a5a0:	f89ff06f          	j	1a528 <_realloc_r+0x268>
   1a5a4:	0d69c263          	blt	s3,s6,1a668 <_realloc_r+0x3a8>
   1a5a8:	0187b703          	ld	a4,24(a5)
   1a5ac:	0107b783          	ld	a5,16(a5)
   1a5b0:	ff890613          	addi	a2,s2,-8
   1a5b4:	01048513          	addi	a0,s1,16
   1a5b8:	00e7bc23          	sd	a4,24(a5)
   1a5bc:	00f73823          	sd	a5,16(a4)
   1a5c0:	0104b703          	ld	a4,16(s1)
   1a5c4:	0184b783          	ld	a5,24(s1)
   1a5c8:	00f73c23          	sd	a5,24(a4)
   1a5cc:	00e7b823          	sd	a4,16(a5)
   1a5d0:	04800793          	li	a5,72
   1a5d4:	08c7e463          	bltu	a5,a2,1a65c <_realloc_r+0x39c>
   1a5d8:	02700713          	li	a4,39
   1a5dc:	02c77263          	bgeu	a4,a2,1a600 <_realloc_r+0x340>
   1a5e0:	00043703          	ld	a4,0(s0)
   1a5e4:	00e4b823          	sd	a4,16(s1)
   1a5e8:	00843703          	ld	a4,8(s0)
   1a5ec:	00e4bc23          	sd	a4,24(s1)
   1a5f0:	03700713          	li	a4,55
   1a5f4:	02c76663          	bltu	a4,a2,1a620 <_realloc_r+0x360>
   1a5f8:	01040413          	addi	s0,s0,16
   1a5fc:	02048513          	addi	a0,s1,32
   1a600:	00043783          	ld	a5,0(s0)
   1a604:	00f53023          	sd	a5,0(a0)
   1a608:	00843783          	ld	a5,8(s0)
   1a60c:	00f53423          	sd	a5,8(a0)
   1a610:	01043783          	ld	a5,16(s0)
   1a614:	00f53823          	sd	a5,16(a0)
   1a618:	00048b93          	mv	s7,s1
   1a61c:	e1dff06f          	j	1a438 <_realloc_r+0x178>
   1a620:	01043703          	ld	a4,16(s0)
   1a624:	02e4b023          	sd	a4,32(s1)
   1a628:	01843703          	ld	a4,24(s0)
   1a62c:	02e4b423          	sd	a4,40(s1)
   1a630:	00f60863          	beq	a2,a5,1a640 <_realloc_r+0x380>
   1a634:	02040413          	addi	s0,s0,32
   1a638:	03048513          	addi	a0,s1,48
   1a63c:	fc5ff06f          	j	1a600 <_realloc_r+0x340>
   1a640:	02043783          	ld	a5,32(s0)
   1a644:	04048513          	addi	a0,s1,64
   1a648:	03040413          	addi	s0,s0,48
   1a64c:	02f4b823          	sd	a5,48(s1)
   1a650:	ff843783          	ld	a5,-8(s0)
   1a654:	02f4bc23          	sd	a5,56(s1)
   1a658:	fa9ff06f          	j	1a600 <_realloc_r+0x340>
   1a65c:	00040593          	mv	a1,s0
   1a660:	bbdff0ef          	jal	ra,1a21c <memmove>
   1a664:	fb5ff06f          	j	1a618 <_realloc_r+0x358>
   1a668:	0b6a4a63          	blt	s4,s6,1a71c <_realloc_r+0x45c>
   1a66c:	0184b783          	ld	a5,24(s1)
   1a670:	0104b703          	ld	a4,16(s1)
   1a674:	ff890613          	addi	a2,s2,-8
   1a678:	01048513          	addi	a0,s1,16
   1a67c:	00f73c23          	sd	a5,24(a4)
   1a680:	00e7b823          	sd	a4,16(a5)
   1a684:	04800793          	li	a5,72
   1a688:	08c7e463          	bltu	a5,a2,1a710 <_realloc_r+0x450>
   1a68c:	02700713          	li	a4,39
   1a690:	02c77263          	bgeu	a4,a2,1a6b4 <_realloc_r+0x3f4>
   1a694:	00043703          	ld	a4,0(s0)
   1a698:	00e4b823          	sd	a4,16(s1)
   1a69c:	00843703          	ld	a4,8(s0)
   1a6a0:	00e4bc23          	sd	a4,24(s1)
   1a6a4:	03700713          	li	a4,55
   1a6a8:	02c76663          	bltu	a4,a2,1a6d4 <_realloc_r+0x414>
   1a6ac:	01040413          	addi	s0,s0,16
   1a6b0:	02048513          	addi	a0,s1,32
   1a6b4:	00043783          	ld	a5,0(s0)
   1a6b8:	00f53023          	sd	a5,0(a0)
   1a6bc:	00843783          	ld	a5,8(s0)
   1a6c0:	00f53423          	sd	a5,8(a0)
   1a6c4:	01043783          	ld	a5,16(s0)
   1a6c8:	00f53823          	sd	a5,16(a0)
   1a6cc:	000a0993          	mv	s3,s4
   1a6d0:	f49ff06f          	j	1a618 <_realloc_r+0x358>
   1a6d4:	01043703          	ld	a4,16(s0)
   1a6d8:	02e4b023          	sd	a4,32(s1)
   1a6dc:	01843703          	ld	a4,24(s0)
   1a6e0:	02e4b423          	sd	a4,40(s1)
   1a6e4:	00f60863          	beq	a2,a5,1a6f4 <_realloc_r+0x434>
   1a6e8:	02040413          	addi	s0,s0,32
   1a6ec:	03048513          	addi	a0,s1,48
   1a6f0:	fc5ff06f          	j	1a6b4 <_realloc_r+0x3f4>
   1a6f4:	02043783          	ld	a5,32(s0)
   1a6f8:	04048513          	addi	a0,s1,64
   1a6fc:	03040413          	addi	s0,s0,48
   1a700:	02f4b823          	sd	a5,48(s1)
   1a704:	ff843783          	ld	a5,-8(s0)
   1a708:	02f4bc23          	sd	a5,56(s1)
   1a70c:	fa9ff06f          	j	1a6b4 <_realloc_r+0x3f4>
   1a710:	00040593          	mv	a1,s0
   1a714:	b09ff0ef          	jal	ra,1a21c <memmove>
   1a718:	fb5ff06f          	j	1a6cc <_realloc_r+0x40c>
   1a71c:	000a8513          	mv	a0,s5
   1a720:	b49fa0ef          	jal	ra,15268 <_malloc_r>
   1a724:	00050a13          	mv	s4,a0
   1a728:	e20502e3          	beqz	a0,1a54c <_realloc_r+0x28c>
   1a72c:	ff843783          	ld	a5,-8(s0)
   1a730:	ff050713          	addi	a4,a0,-16
   1a734:	ffe7f793          	andi	a5,a5,-2
   1a738:	00fb87b3          	add	a5,s7,a5
   1a73c:	00e79a63          	bne	a5,a4,1a750 <_realloc_r+0x490>
   1a740:	ff853983          	ld	s3,-8(a0)
   1a744:	ffc9f993          	andi	s3,s3,-4
   1a748:	012989b3          	add	s3,s3,s2
   1a74c:	cedff06f          	j	1a438 <_realloc_r+0x178>
   1a750:	ff890613          	addi	a2,s2,-8
   1a754:	04800793          	li	a5,72
   1a758:	08c7ee63          	bltu	a5,a2,1a7f4 <_realloc_r+0x534>
   1a75c:	02700713          	li	a4,39
   1a760:	08c77463          	bgeu	a4,a2,1a7e8 <_realloc_r+0x528>
   1a764:	00043703          	ld	a4,0(s0)
   1a768:	00e53023          	sd	a4,0(a0)
   1a76c:	00843703          	ld	a4,8(s0)
   1a770:	00e53423          	sd	a4,8(a0)
   1a774:	03700713          	li	a4,55
   1a778:	02c76a63          	bltu	a4,a2,1a7ac <_realloc_r+0x4ec>
   1a77c:	01040713          	addi	a4,s0,16
   1a780:	01050793          	addi	a5,a0,16
   1a784:	00073683          	ld	a3,0(a4)
   1a788:	00d7b023          	sd	a3,0(a5)
   1a78c:	00873683          	ld	a3,8(a4)
   1a790:	00d7b423          	sd	a3,8(a5)
   1a794:	01073703          	ld	a4,16(a4)
   1a798:	00e7b823          	sd	a4,16(a5)
   1a79c:	00040593          	mv	a1,s0
   1a7a0:	000a8513          	mv	a0,s5
   1a7a4:	d20f80ef          	jal	ra,12cc4 <_free_r>
   1a7a8:	da5ff06f          	j	1a54c <_realloc_r+0x28c>
   1a7ac:	01043703          	ld	a4,16(s0)
   1a7b0:	00e53823          	sd	a4,16(a0)
   1a7b4:	01843703          	ld	a4,24(s0)
   1a7b8:	00e53c23          	sd	a4,24(a0)
   1a7bc:	00f60863          	beq	a2,a5,1a7cc <_realloc_r+0x50c>
   1a7c0:	02040713          	addi	a4,s0,32
   1a7c4:	02050793          	addi	a5,a0,32
   1a7c8:	fbdff06f          	j	1a784 <_realloc_r+0x4c4>
   1a7cc:	02043783          	ld	a5,32(s0)
   1a7d0:	03040713          	addi	a4,s0,48
   1a7d4:	02f53023          	sd	a5,32(a0)
   1a7d8:	02843683          	ld	a3,40(s0)
   1a7dc:	03050793          	addi	a5,a0,48
   1a7e0:	02d53423          	sd	a3,40(a0)
   1a7e4:	fa1ff06f          	j	1a784 <_realloc_r+0x4c4>
   1a7e8:	00050793          	mv	a5,a0
   1a7ec:	00040713          	mv	a4,s0
   1a7f0:	f95ff06f          	j	1a784 <_realloc_r+0x4c4>
   1a7f4:	00040593          	mv	a1,s0
   1a7f8:	a25ff0ef          	jal	ra,1a21c <memmove>
   1a7fc:	fa1ff06f          	j	1a79c <_realloc_r+0x4dc>
   1a800:	00090993          	mv	s3,s2
   1a804:	c35ff06f          	j	1a438 <_realloc_r+0x178>
   1a808:	00e9e9b3          	or	s3,s3,a4
   1a80c:	013bb423          	sd	s3,8(s7)
   1a810:	0087b703          	ld	a4,8(a5)
   1a814:	00176713          	ori	a4,a4,1
   1a818:	00e7b423          	sd	a4,8(a5)
   1a81c:	c61ff06f          	j	1a47c <_realloc_r+0x1bc>

000000000001a820 <cleanup_glue>:
   1a820:	fe010113          	addi	sp,sp,-32
   1a824:	00813823          	sd	s0,16(sp)
   1a828:	00058413          	mv	s0,a1
   1a82c:	0005b583          	ld	a1,0(a1)
   1a830:	00913423          	sd	s1,8(sp)
   1a834:	00113c23          	sd	ra,24(sp)
   1a838:	00050493          	mv	s1,a0
   1a83c:	00058463          	beqz	a1,1a844 <cleanup_glue+0x24>
   1a840:	fe1ff0ef          	jal	ra,1a820 <cleanup_glue>
   1a844:	00040593          	mv	a1,s0
   1a848:	01013403          	ld	s0,16(sp)
   1a84c:	01813083          	ld	ra,24(sp)
   1a850:	00048513          	mv	a0,s1
   1a854:	00813483          	ld	s1,8(sp)
   1a858:	02010113          	addi	sp,sp,32
   1a85c:	c68f806f          	j	12cc4 <_free_r>

000000000001a860 <_reclaim_reent>:
   1a860:	8301b783          	ld	a5,-2000(gp) # 20860 <_impure_ptr>
   1a864:	10a78263          	beq	a5,a0,1a968 <_reclaim_reent+0x108>
   1a868:	07853783          	ld	a5,120(a0)
   1a86c:	fd010113          	addi	sp,sp,-48
   1a870:	02813023          	sd	s0,32(sp)
   1a874:	00913c23          	sd	s1,24(sp)
   1a878:	01213823          	sd	s2,16(sp)
   1a87c:	02113423          	sd	ra,40(sp)
   1a880:	01313423          	sd	s3,8(sp)
   1a884:	00050413          	mv	s0,a0
   1a888:	00000493          	li	s1,0
   1a88c:	20000913          	li	s2,512
   1a890:	04079463          	bnez	a5,1a8d8 <_reclaim_reent+0x78>
   1a894:	06043583          	ld	a1,96(s0)
   1a898:	00058663          	beqz	a1,1a8a4 <_reclaim_reent+0x44>
   1a89c:	00040513          	mv	a0,s0
   1a8a0:	c24f80ef          	jal	ra,12cc4 <_free_r>
   1a8a4:	1f843583          	ld	a1,504(s0)
   1a8a8:	04058c63          	beqz	a1,1a900 <_reclaim_reent+0xa0>
   1a8ac:	20040493          	addi	s1,s0,512
   1a8b0:	04958863          	beq	a1,s1,1a900 <_reclaim_reent+0xa0>
   1a8b4:	0005b903          	ld	s2,0(a1)
   1a8b8:	00040513          	mv	a0,s0
   1a8bc:	c08f80ef          	jal	ra,12cc4 <_free_r>
   1a8c0:	00090593          	mv	a1,s2
   1a8c4:	fedff06f          	j	1a8b0 <_reclaim_reent+0x50>
   1a8c8:	009585b3          	add	a1,a1,s1
   1a8cc:	0005b583          	ld	a1,0(a1)
   1a8d0:	00059e63          	bnez	a1,1a8ec <_reclaim_reent+0x8c>
   1a8d4:	00848493          	addi	s1,s1,8
   1a8d8:	07843583          	ld	a1,120(s0)
   1a8dc:	ff2496e3          	bne	s1,s2,1a8c8 <_reclaim_reent+0x68>
   1a8e0:	00040513          	mv	a0,s0
   1a8e4:	be0f80ef          	jal	ra,12cc4 <_free_r>
   1a8e8:	fadff06f          	j	1a894 <_reclaim_reent+0x34>
   1a8ec:	0005b983          	ld	s3,0(a1)
   1a8f0:	00040513          	mv	a0,s0
   1a8f4:	bd0f80ef          	jal	ra,12cc4 <_free_r>
   1a8f8:	00098593          	mv	a1,s3
   1a8fc:	fd5ff06f          	j	1a8d0 <_reclaim_reent+0x70>
   1a900:	08843583          	ld	a1,136(s0)
   1a904:	00058663          	beqz	a1,1a910 <_reclaim_reent+0xb0>
   1a908:	00040513          	mv	a0,s0
   1a90c:	bb8f80ef          	jal	ra,12cc4 <_free_r>
   1a910:	05042783          	lw	a5,80(s0)
   1a914:	02078c63          	beqz	a5,1a94c <_reclaim_reent+0xec>
   1a918:	05843783          	ld	a5,88(s0)
   1a91c:	00040513          	mv	a0,s0
   1a920:	000780e7          	jalr	a5
   1a924:	52043583          	ld	a1,1312(s0)
   1a928:	02058263          	beqz	a1,1a94c <_reclaim_reent+0xec>
   1a92c:	00040513          	mv	a0,s0
   1a930:	02013403          	ld	s0,32(sp)
   1a934:	02813083          	ld	ra,40(sp)
   1a938:	01813483          	ld	s1,24(sp)
   1a93c:	01013903          	ld	s2,16(sp)
   1a940:	00813983          	ld	s3,8(sp)
   1a944:	03010113          	addi	sp,sp,48
   1a948:	ed9ff06f          	j	1a820 <cleanup_glue>
   1a94c:	02813083          	ld	ra,40(sp)
   1a950:	02013403          	ld	s0,32(sp)
   1a954:	01813483          	ld	s1,24(sp)
   1a958:	01013903          	ld	s2,16(sp)
   1a95c:	00813983          	ld	s3,8(sp)
   1a960:	03010113          	addi	sp,sp,48
   1a964:	00008067          	ret
   1a968:	00008067          	ret

000000000001a96c <strcmp>:
   1a96c:	00b56733          	or	a4,a0,a1
   1a970:	fff00393          	li	t2,-1
   1a974:	00777713          	andi	a4,a4,7
   1a978:	0c071c63          	bnez	a4,1aa50 <strcmp+0xe4>
   1a97c:	00006797          	auipc	a5,0x6
   1a980:	ecc7b783          	ld	a5,-308(a5) # 20848 <mask>
   1a984:	00053603          	ld	a2,0(a0)
   1a988:	0005b683          	ld	a3,0(a1)
   1a98c:	00f672b3          	and	t0,a2,a5
   1a990:	00f66333          	or	t1,a2,a5
   1a994:	00f282b3          	add	t0,t0,a5
   1a998:	0062e2b3          	or	t0,t0,t1
   1a99c:	0c729e63          	bne	t0,t2,1aa78 <strcmp+0x10c>
   1a9a0:	04d61663          	bne	a2,a3,1a9ec <strcmp+0x80>
   1a9a4:	00853603          	ld	a2,8(a0)
   1a9a8:	0085b683          	ld	a3,8(a1)
   1a9ac:	00f672b3          	and	t0,a2,a5
   1a9b0:	00f66333          	or	t1,a2,a5
   1a9b4:	00f282b3          	add	t0,t0,a5
   1a9b8:	0062e2b3          	or	t0,t0,t1
   1a9bc:	0a729a63          	bne	t0,t2,1aa70 <strcmp+0x104>
   1a9c0:	02d61663          	bne	a2,a3,1a9ec <strcmp+0x80>
   1a9c4:	01053603          	ld	a2,16(a0)
   1a9c8:	0105b683          	ld	a3,16(a1)
   1a9cc:	00f672b3          	and	t0,a2,a5
   1a9d0:	00f66333          	or	t1,a2,a5
   1a9d4:	00f282b3          	add	t0,t0,a5
   1a9d8:	0062e2b3          	or	t0,t0,t1
   1a9dc:	0a729463          	bne	t0,t2,1aa84 <strcmp+0x118>
   1a9e0:	01850513          	addi	a0,a0,24
   1a9e4:	01858593          	addi	a1,a1,24
   1a9e8:	f8d60ee3          	beq	a2,a3,1a984 <strcmp+0x18>
   1a9ec:	03061713          	slli	a4,a2,0x30
   1a9f0:	03069793          	slli	a5,a3,0x30
   1a9f4:	02f71a63          	bne	a4,a5,1aa28 <strcmp+0xbc>
   1a9f8:	02061713          	slli	a4,a2,0x20
   1a9fc:	02069793          	slli	a5,a3,0x20
   1aa00:	02f71463          	bne	a4,a5,1aa28 <strcmp+0xbc>
   1aa04:	01061713          	slli	a4,a2,0x10
   1aa08:	01069793          	slli	a5,a3,0x10
   1aa0c:	00f71e63          	bne	a4,a5,1aa28 <strcmp+0xbc>
   1aa10:	03065713          	srli	a4,a2,0x30
   1aa14:	0306d793          	srli	a5,a3,0x30
   1aa18:	40f70533          	sub	a0,a4,a5
   1aa1c:	0ff57593          	zext.b	a1,a0
   1aa20:	02059063          	bnez	a1,1aa40 <strcmp+0xd4>
   1aa24:	00008067          	ret
   1aa28:	03075713          	srli	a4,a4,0x30
   1aa2c:	0307d793          	srli	a5,a5,0x30
   1aa30:	40f70533          	sub	a0,a4,a5
   1aa34:	0ff57593          	zext.b	a1,a0
   1aa38:	00059463          	bnez	a1,1aa40 <strcmp+0xd4>
   1aa3c:	00008067          	ret
   1aa40:	0ff77713          	zext.b	a4,a4
   1aa44:	0ff7f793          	zext.b	a5,a5
   1aa48:	40f70533          	sub	a0,a4,a5
   1aa4c:	00008067          	ret
   1aa50:	00054603          	lbu	a2,0(a0)
   1aa54:	0005c683          	lbu	a3,0(a1)
   1aa58:	00150513          	addi	a0,a0,1
   1aa5c:	00158593          	addi	a1,a1,1
   1aa60:	00d61463          	bne	a2,a3,1aa68 <strcmp+0xfc>
   1aa64:	fe0616e3          	bnez	a2,1aa50 <strcmp+0xe4>
   1aa68:	40d60533          	sub	a0,a2,a3
   1aa6c:	00008067          	ret
   1aa70:	00850513          	addi	a0,a0,8
   1aa74:	00858593          	addi	a1,a1,8
   1aa78:	fcd61ce3          	bne	a2,a3,1aa50 <strcmp+0xe4>
   1aa7c:	00000513          	li	a0,0
   1aa80:	00008067          	ret
   1aa84:	01050513          	addi	a0,a0,16
   1aa88:	01058593          	addi	a1,a1,16
   1aa8c:	fcd612e3          	bne	a2,a3,1aa50 <strcmp+0xe4>
   1aa90:	00000513          	li	a0,0
   1aa94:	00008067          	ret

000000000001aa98 <__ssprint_r>:
   1aa98:	01063783          	ld	a5,16(a2)
   1aa9c:	fa010113          	addi	sp,sp,-96
   1aaa0:	03313c23          	sd	s3,56(sp)
   1aaa4:	04113c23          	sd	ra,88(sp)
   1aaa8:	04813823          	sd	s0,80(sp)
   1aaac:	04913423          	sd	s1,72(sp)
   1aab0:	05213023          	sd	s2,64(sp)
   1aab4:	03413823          	sd	s4,48(sp)
   1aab8:	03513423          	sd	s5,40(sp)
   1aabc:	03613023          	sd	s6,32(sp)
   1aac0:	01713c23          	sd	s7,24(sp)
   1aac4:	01813823          	sd	s8,16(sp)
   1aac8:	01913423          	sd	s9,8(sp)
   1aacc:	01a13023          	sd	s10,0(sp)
   1aad0:	00060993          	mv	s3,a2
   1aad4:	12078e63          	beqz	a5,1ac10 <__ssprint_r+0x178>
   1aad8:	00063b03          	ld	s6,0(a2)
   1aadc:	00050a13          	mv	s4,a0
   1aae0:	00058413          	mv	s0,a1
   1aae4:	00000a93          	li	s5,0
   1aae8:	00000913          	li	s2,0
   1aaec:	00300b93          	li	s7,3
   1aaf0:	00200c13          	li	s8,2
   1aaf4:	08090463          	beqz	s2,1ab7c <__ssprint_r+0xe4>
   1aaf8:	00c42d03          	lw	s10,12(s0)
   1aafc:	0da96463          	bltu	s2,s10,1abc4 <__ssprint_r+0x12c>
   1ab00:	01045703          	lhu	a4,16(s0)
   1ab04:	48077793          	andi	a5,a4,1152
   1ab08:	0a078e63          	beqz	a5,1abc4 <__ssprint_r+0x12c>
   1ab0c:	02042483          	lw	s1,32(s0)
   1ab10:	01843583          	ld	a1,24(s0)
   1ab14:	00043783          	ld	a5,0(s0)
   1ab18:	029b84bb          	mulw	s1,s7,s1
   1ab1c:	40b787b3          	sub	a5,a5,a1
   1ab20:	00078c9b          	sext.w	s9,a5
   1ab24:	001c8693          	addi	a3,s9,1
   1ab28:	012686b3          	add	a3,a3,s2
   1ab2c:	0384c4bb          	divw	s1,s1,s8
   1ab30:	00d4f663          	bgeu	s1,a3,1ab3c <__ssprint_r+0xa4>
   1ab34:	0017849b          	addiw	s1,a5,1
   1ab38:	012484bb          	addw	s1,s1,s2
   1ab3c:	40077713          	andi	a4,a4,1024
   1ab40:	10070863          	beqz	a4,1ac50 <__ssprint_r+0x1b8>
   1ab44:	00048593          	mv	a1,s1
   1ab48:	000a0513          	mv	a0,s4
   1ab4c:	f1cfa0ef          	jal	ra,15268 <_malloc_r>
   1ab50:	00050d13          	mv	s10,a0
   1ab54:	02051c63          	bnez	a0,1ab8c <__ssprint_r+0xf4>
   1ab58:	00c00793          	li	a5,12
   1ab5c:	00fa2023          	sw	a5,0(s4)
   1ab60:	01045783          	lhu	a5,16(s0)
   1ab64:	fff00513          	li	a0,-1
   1ab68:	0407e793          	ori	a5,a5,64
   1ab6c:	00f41823          	sh	a5,16(s0)
   1ab70:	0009b823          	sd	zero,16(s3)
   1ab74:	0009a423          	sw	zero,8(s3)
   1ab78:	0a00006f          	j	1ac18 <__ssprint_r+0x180>
   1ab7c:	000b3a83          	ld	s5,0(s6)
   1ab80:	008b3903          	ld	s2,8(s6)
   1ab84:	010b0b13          	addi	s6,s6,16
   1ab88:	f6dff06f          	j	1aaf4 <__ssprint_r+0x5c>
   1ab8c:	01843583          	ld	a1,24(s0)
   1ab90:	000c8613          	mv	a2,s9
   1ab94:	da0ff0ef          	jal	ra,1a134 <memcpy>
   1ab98:	01045783          	lhu	a5,16(s0)
   1ab9c:	b7f7f793          	andi	a5,a5,-1153
   1aba0:	0807e793          	ori	a5,a5,128
   1aba4:	00f41823          	sh	a5,16(s0)
   1aba8:	01a43c23          	sd	s10,24(s0)
   1abac:	02942023          	sw	s1,32(s0)
   1abb0:	019d0d33          	add	s10,s10,s9
   1abb4:	419484bb          	subw	s1,s1,s9
   1abb8:	01a43023          	sd	s10,0(s0)
   1abbc:	00942623          	sw	s1,12(s0)
   1abc0:	00090d1b          	sext.w	s10,s2
   1abc4:	0009049b          	sext.w	s1,s2
   1abc8:	01a97463          	bgeu	s2,s10,1abd0 <__ssprint_r+0x138>
   1abcc:	00048d13          	mv	s10,s1
   1abd0:	00043503          	ld	a0,0(s0)
   1abd4:	000d0613          	mv	a2,s10
   1abd8:	000a8593          	mv	a1,s5
   1abdc:	e40ff0ef          	jal	ra,1a21c <memmove>
   1abe0:	00c42783          	lw	a5,12(s0)
   1abe4:	009a8ab3          	add	s5,s5,s1
   1abe8:	40990933          	sub	s2,s2,s1
   1abec:	41a787bb          	subw	a5,a5,s10
   1abf0:	00f42623          	sw	a5,12(s0)
   1abf4:	00043783          	ld	a5,0(s0)
   1abf8:	01a78d33          	add	s10,a5,s10
   1abfc:	0109b783          	ld	a5,16(s3)
   1ac00:	01a43023          	sd	s10,0(s0)
   1ac04:	409787b3          	sub	a5,a5,s1
   1ac08:	00f9b823          	sd	a5,16(s3)
   1ac0c:	ee0794e3          	bnez	a5,1aaf4 <__ssprint_r+0x5c>
   1ac10:	0009a423          	sw	zero,8(s3)
   1ac14:	00000513          	li	a0,0
   1ac18:	05813083          	ld	ra,88(sp)
   1ac1c:	05013403          	ld	s0,80(sp)
   1ac20:	04813483          	ld	s1,72(sp)
   1ac24:	04013903          	ld	s2,64(sp)
   1ac28:	03813983          	ld	s3,56(sp)
   1ac2c:	03013a03          	ld	s4,48(sp)
   1ac30:	02813a83          	ld	s5,40(sp)
   1ac34:	02013b03          	ld	s6,32(sp)
   1ac38:	01813b83          	ld	s7,24(sp)
   1ac3c:	01013c03          	ld	s8,16(sp)
   1ac40:	00813c83          	ld	s9,8(sp)
   1ac44:	00013d03          	ld	s10,0(sp)
   1ac48:	06010113          	addi	sp,sp,96
   1ac4c:	00008067          	ret
   1ac50:	00048613          	mv	a2,s1
   1ac54:	000a0513          	mv	a0,s4
   1ac58:	e68ff0ef          	jal	ra,1a2c0 <_realloc_r>
   1ac5c:	00050d13          	mv	s10,a0
   1ac60:	f40514e3          	bnez	a0,1aba8 <__ssprint_r+0x110>
   1ac64:	01843583          	ld	a1,24(s0)
   1ac68:	000a0513          	mv	a0,s4
   1ac6c:	858f80ef          	jal	ra,12cc4 <_free_r>
   1ac70:	ee9ff06f          	j	1ab58 <__ssprint_r+0xc0>

000000000001ac74 <_svfiprintf_r>:
   1ac74:	0105d783          	lhu	a5,16(a1)
   1ac78:	e1010113          	addi	sp,sp,-496
   1ac7c:	1c913c23          	sd	s1,472(sp)
   1ac80:	1d213823          	sd	s2,464(sp)
   1ac84:	1d313423          	sd	s3,456(sp)
   1ac88:	1b513c23          	sd	s5,440(sp)
   1ac8c:	1e113423          	sd	ra,488(sp)
   1ac90:	1e813023          	sd	s0,480(sp)
   1ac94:	1d413023          	sd	s4,448(sp)
   1ac98:	1b613823          	sd	s6,432(sp)
   1ac9c:	1b713423          	sd	s7,424(sp)
   1aca0:	1b813023          	sd	s8,416(sp)
   1aca4:	19913c23          	sd	s9,408(sp)
   1aca8:	19a13823          	sd	s10,400(sp)
   1acac:	19b13423          	sd	s11,392(sp)
   1acb0:	0807f793          	andi	a5,a5,128
   1acb4:	00050913          	mv	s2,a0
   1acb8:	00058493          	mv	s1,a1
   1acbc:	00060a93          	mv	s5,a2
   1acc0:	00068993          	mv	s3,a3
   1acc4:	02078c63          	beqz	a5,1acfc <_svfiprintf_r+0x88>
   1acc8:	0185b783          	ld	a5,24(a1)
   1accc:	02079863          	bnez	a5,1acfc <_svfiprintf_r+0x88>
   1acd0:	04000593          	li	a1,64
   1acd4:	d94fa0ef          	jal	ra,15268 <_malloc_r>
   1acd8:	00a4b023          	sd	a0,0(s1)
   1acdc:	00a4bc23          	sd	a0,24(s1)
   1ace0:	00051a63          	bnez	a0,1acf4 <_svfiprintf_r+0x80>
   1ace4:	00c00793          	li	a5,12
   1ace8:	00f92023          	sw	a5,0(s2)
   1acec:	fff00b93          	li	s7,-1
   1acf0:	27d0006f          	j	1b76c <_svfiprintf_r+0xaf8>
   1acf4:	04000793          	li	a5,64
   1acf8:	02f4a023          	sw	a5,32(s1)
   1acfc:	0001e7b7          	lui	a5,0x1e
   1ad00:	34878793          	addi	a5,a5,840 # 1e348 <zeroes.4417+0x28>
   1ad04:	04f13823          	sd	a5,80(sp)
   1ad08:	0001e7b7          	lui	a5,0x1e
   1ad0c:	4c878793          	addi	a5,a5,1224 # 1e4c8 <zeroes.4403>
   1ad10:	02f13423          	sd	a5,40(sp)
   1ad14:	0001e7b7          	lui	a5,0x1e
   1ad18:	10010b13          	addi	s6,sp,256
   1ad1c:	4b878793          	addi	a5,a5,1208 # 1e4b8 <blanks.4402>
   1ad20:	09613023          	sd	s6,128(sp)
   1ad24:	08013823          	sd	zero,144(sp)
   1ad28:	08012423          	sw	zero,136(sp)
   1ad2c:	000b0d93          	mv	s11,s6
   1ad30:	02013023          	sd	zero,32(sp)
   1ad34:	00013823          	sd	zero,16(sp)
   1ad38:	00013c23          	sd	zero,24(sp)
   1ad3c:	02013c23          	sd	zero,56(sp)
   1ad40:	00000b93          	li	s7,0
   1ad44:	02f13823          	sd	a5,48(sp)
   1ad48:	000a8413          	mv	s0,s5
   1ad4c:	02500693          	li	a3,37
   1ad50:	00044783          	lbu	a5,0(s0)
   1ad54:	00078463          	beqz	a5,1ad5c <_svfiprintf_r+0xe8>
   1ad58:	0ad79463          	bne	a5,a3,1ae00 <_svfiprintf_r+0x18c>
   1ad5c:	41540a3b          	subw	s4,s0,s5
   1ad60:	040a0663          	beqz	s4,1adac <_svfiprintf_r+0x138>
   1ad64:	09013783          	ld	a5,144(sp)
   1ad68:	015db023          	sd	s5,0(s11)
   1ad6c:	014db423          	sd	s4,8(s11)
   1ad70:	014787b3          	add	a5,a5,s4
   1ad74:	08f13823          	sd	a5,144(sp)
   1ad78:	08812783          	lw	a5,136(sp)
   1ad7c:	010d8d93          	addi	s11,s11,16
   1ad80:	0017869b          	addiw	a3,a5,1
   1ad84:	08d12423          	sw	a3,136(sp)
   1ad88:	00700793          	li	a5,7
   1ad8c:	00d7de63          	bge	a5,a3,1ada8 <_svfiprintf_r+0x134>
   1ad90:	08010613          	addi	a2,sp,128
   1ad94:	00048593          	mv	a1,s1
   1ad98:	00090513          	mv	a0,s2
   1ad9c:	cfdff0ef          	jal	ra,1aa98 <__ssprint_r>
   1ada0:	1c0510e3          	bnez	a0,1b760 <_svfiprintf_r+0xaec>
   1ada4:	000b0d93          	mv	s11,s6
   1ada8:	014b8bbb          	addw	s7,s7,s4
   1adac:	00044783          	lbu	a5,0(s0)
   1adb0:	22078ee3          	beqz	a5,1b7ec <_svfiprintf_r+0xb78>
   1adb4:	00140693          	addi	a3,s0,1
   1adb8:	06010ba3          	sb	zero,119(sp)
   1adbc:	fff00413          	li	s0,-1
   1adc0:	00000a13          	li	s4,0
   1adc4:	00000d13          	li	s10,0
   1adc8:	05a00c93          	li	s9,90
   1adcc:	00a00c13          	li	s8,10
   1add0:	00168a93          	addi	s5,a3,1
   1add4:	0006c683          	lbu	a3,0(a3)
   1add8:	00900513          	li	a0,9
   1addc:	02a00813          	li	a6,42
   1ade0:	fe06861b          	addiw	a2,a3,-32
   1ade4:	02cce4e3          	bltu	s9,a2,1b60c <_svfiprintf_r+0x998>
   1ade8:	05013783          	ld	a5,80(sp)
   1adec:	02061613          	slli	a2,a2,0x20
   1adf0:	01e65613          	srli	a2,a2,0x1e
   1adf4:	00f60633          	add	a2,a2,a5
   1adf8:	00062603          	lw	a2,0(a2)
   1adfc:	00060067          	jr	a2
   1ae00:	00140413          	addi	s0,s0,1
   1ae04:	f4dff06f          	j	1ad50 <_svfiprintf_r+0xdc>
   1ae08:	0001e637          	lui	a2,0x1e
   1ae0c:	c2860793          	addi	a5,a2,-984 # 1dc28 <zeroes.4441+0x80>
   1ae10:	02f13023          	sd	a5,32(sp)
   1ae14:	00898793          	addi	a5,s3,8
   1ae18:	00f13423          	sd	a5,8(sp)
   1ae1c:	020d7613          	andi	a2,s10,32
   1ae20:	6a060263          	beqz	a2,1b4c4 <_svfiprintf_r+0x850>
   1ae24:	0009b983          	ld	s3,0(s3)
   1ae28:	001d7613          	andi	a2,s10,1
   1ae2c:	00060c63          	beqz	a2,1ae44 <_svfiprintf_r+0x1d0>
   1ae30:	00098a63          	beqz	s3,1ae44 <_svfiprintf_r+0x1d0>
   1ae34:	03000613          	li	a2,48
   1ae38:	06c10c23          	sb	a2,120(sp)
   1ae3c:	06d10ca3          	sb	a3,121(sp)
   1ae40:	002d6d13          	ori	s10,s10,2
   1ae44:	bffd7d13          	andi	s10,s10,-1025
   1ae48:	3200006f          	j	1b168 <_svfiprintf_r+0x4f4>
   1ae4c:	00090513          	mv	a0,s2
   1ae50:	a54fa0ef          	jal	ra,150a4 <_localeconv_r>
   1ae54:	00853783          	ld	a5,8(a0)
   1ae58:	00078513          	mv	a0,a5
   1ae5c:	02f13c23          	sd	a5,56(sp)
   1ae60:	d01fb0ef          	jal	ra,16b60 <strlen>
   1ae64:	00a13c23          	sd	a0,24(sp)
   1ae68:	00090513          	mv	a0,s2
   1ae6c:	a38fa0ef          	jal	ra,150a4 <_localeconv_r>
   1ae70:	01053783          	ld	a5,16(a0)
   1ae74:	00f13823          	sd	a5,16(sp)
   1ae78:	01813783          	ld	a5,24(sp)
   1ae7c:	00078c63          	beqz	a5,1ae94 <_svfiprintf_r+0x220>
   1ae80:	01013783          	ld	a5,16(sp)
   1ae84:	00078863          	beqz	a5,1ae94 <_svfiprintf_r+0x220>
   1ae88:	0007c683          	lbu	a3,0(a5)
   1ae8c:	00068463          	beqz	a3,1ae94 <_svfiprintf_r+0x220>
   1ae90:	400d6d13          	ori	s10,s10,1024
   1ae94:	000a8693          	mv	a3,s5
   1ae98:	f39ff06f          	j	1add0 <_svfiprintf_r+0x15c>
   1ae9c:	07714683          	lbu	a3,119(sp)
   1aea0:	fe069ae3          	bnez	a3,1ae94 <_svfiprintf_r+0x220>
   1aea4:	02000693          	li	a3,32
   1aea8:	06d10ba3          	sb	a3,119(sp)
   1aeac:	fe9ff06f          	j	1ae94 <_svfiprintf_r+0x220>
   1aeb0:	001d6d13          	ori	s10,s10,1
   1aeb4:	fe1ff06f          	j	1ae94 <_svfiprintf_r+0x220>
   1aeb8:	0009aa03          	lw	s4,0(s3)
   1aebc:	00898993          	addi	s3,s3,8
   1aec0:	fc0a5ae3          	bgez	s4,1ae94 <_svfiprintf_r+0x220>
   1aec4:	41400a3b          	negw	s4,s4
   1aec8:	004d6d13          	ori	s10,s10,4
   1aecc:	fc9ff06f          	j	1ae94 <_svfiprintf_r+0x220>
   1aed0:	02b00693          	li	a3,43
   1aed4:	fd5ff06f          	j	1aea8 <_svfiprintf_r+0x234>
   1aed8:	000ac683          	lbu	a3,0(s5)
   1aedc:	001a8613          	addi	a2,s5,1
   1aee0:	05069263          	bne	a3,a6,1af24 <_svfiprintf_r+0x2b0>
   1aee4:	0009a403          	lw	s0,0(s3)
   1aee8:	00898693          	addi	a3,s3,8
   1aeec:	00045463          	bgez	s0,1aef4 <_svfiprintf_r+0x280>
   1aef0:	fff00413          	li	s0,-1
   1aef4:	0004041b          	sext.w	s0,s0
   1aef8:	00068993          	mv	s3,a3
   1aefc:	00060a93          	mv	s5,a2
   1af00:	f95ff06f          	j	1ae94 <_svfiprintf_r+0x220>
   1af04:	028c043b          	mulw	s0,s8,s0
   1af08:	00160613          	addi	a2,a2,1
   1af0c:	fff64683          	lbu	a3,-1(a2)
   1af10:	00b4043b          	addw	s0,s0,a1
   1af14:	fd06859b          	addiw	a1,a3,-48
   1af18:	feb576e3          	bgeu	a0,a1,1af04 <_svfiprintf_r+0x290>
   1af1c:	00060a93          	mv	s5,a2
   1af20:	ec1ff06f          	j	1ade0 <_svfiprintf_r+0x16c>
   1af24:	00000413          	li	s0,0
   1af28:	fedff06f          	j	1af14 <_svfiprintf_r+0x2a0>
   1af2c:	080d6d13          	ori	s10,s10,128
   1af30:	f65ff06f          	j	1ae94 <_svfiprintf_r+0x220>
   1af34:	000a8613          	mv	a2,s5
   1af38:	00000a13          	li	s4,0
   1af3c:	034c0a3b          	mulw	s4,s8,s4
   1af40:	fd06869b          	addiw	a3,a3,-48
   1af44:	00160613          	addi	a2,a2,1
   1af48:	01468a3b          	addw	s4,a3,s4
   1af4c:	fff64683          	lbu	a3,-1(a2)
   1af50:	fd06859b          	addiw	a1,a3,-48
   1af54:	feb574e3          	bgeu	a0,a1,1af3c <_svfiprintf_r+0x2c8>
   1af58:	fc5ff06f          	j	1af1c <_svfiprintf_r+0x2a8>
   1af5c:	000ac603          	lbu	a2,0(s5)
   1af60:	06800693          	li	a3,104
   1af64:	00d61863          	bne	a2,a3,1af74 <_svfiprintf_r+0x300>
   1af68:	001a8a93          	addi	s5,s5,1
   1af6c:	200d6d13          	ori	s10,s10,512
   1af70:	f25ff06f          	j	1ae94 <_svfiprintf_r+0x220>
   1af74:	040d6d13          	ori	s10,s10,64
   1af78:	f1dff06f          	j	1ae94 <_svfiprintf_r+0x220>
   1af7c:	000ac603          	lbu	a2,0(s5)
   1af80:	06c00693          	li	a3,108
   1af84:	00d61863          	bne	a2,a3,1af94 <_svfiprintf_r+0x320>
   1af88:	001a8a93          	addi	s5,s5,1
   1af8c:	020d6d13          	ori	s10,s10,32
   1af90:	f05ff06f          	j	1ae94 <_svfiprintf_r+0x220>
   1af94:	010d6d13          	ori	s10,s10,16
   1af98:	efdff06f          	j	1ae94 <_svfiprintf_r+0x220>
   1af9c:	0009a683          	lw	a3,0(s3)
   1afa0:	00898793          	addi	a5,s3,8
   1afa4:	00f13423          	sd	a5,8(sp)
   1afa8:	08d10c23          	sb	a3,152(sp)
   1afac:	06010ba3          	sb	zero,119(sp)
   1afb0:	00100413          	li	s0,1
   1afb4:	00000993          	li	s3,0
   1afb8:	09810c13          	addi	s8,sp,152
   1afbc:	1e80006f          	j	1b1a4 <_svfiprintf_r+0x530>
   1afc0:	010d6d13          	ori	s10,s10,16
   1afc4:	00898793          	addi	a5,s3,8
   1afc8:	00f13423          	sd	a5,8(sp)
   1afcc:	020d7693          	andi	a3,s10,32
   1afd0:	02068c63          	beqz	a3,1b008 <_svfiprintf_r+0x394>
   1afd4:	0009b983          	ld	s3,0(s3)
   1afd8:	0009d863          	bgez	s3,1afe8 <_svfiprintf_r+0x374>
   1afdc:	02d00693          	li	a3,45
   1afe0:	413009b3          	neg	s3,s3
   1afe4:	06d10ba3          	sb	a3,119(sp)
   1afe8:	fff00693          	li	a3,-1
   1afec:	50d41a63          	bne	s0,a3,1b500 <_svfiprintf_r+0x88c>
   1aff0:	00900693          	li	a3,9
   1aff4:	5336ea63          	bltu	a3,s3,1b528 <_svfiprintf_r+0x8b4>
   1aff8:	0309899b          	addiw	s3,s3,48
   1affc:	0f310da3          	sb	s3,251(sp)
   1b000:	0fb10c13          	addi	s8,sp,251
   1b004:	0f00006f          	j	1b0f4 <_svfiprintf_r+0x480>
   1b008:	010d7693          	andi	a3,s10,16
   1b00c:	fc0694e3          	bnez	a3,1afd4 <_svfiprintf_r+0x360>
   1b010:	040d7693          	andi	a3,s10,64
   1b014:	00068663          	beqz	a3,1b020 <_svfiprintf_r+0x3ac>
   1b018:	00099983          	lh	s3,0(s3)
   1b01c:	fbdff06f          	j	1afd8 <_svfiprintf_r+0x364>
   1b020:	200d7693          	andi	a3,s10,512
   1b024:	00068663          	beqz	a3,1b030 <_svfiprintf_r+0x3bc>
   1b028:	00098983          	lb	s3,0(s3)
   1b02c:	fadff06f          	j	1afd8 <_svfiprintf_r+0x364>
   1b030:	0009a983          	lw	s3,0(s3)
   1b034:	fa5ff06f          	j	1afd8 <_svfiprintf_r+0x364>
   1b038:	020d7613          	andi	a2,s10,32
   1b03c:	0009b683          	ld	a3,0(s3)
   1b040:	00898993          	addi	s3,s3,8
   1b044:	00060663          	beqz	a2,1b050 <_svfiprintf_r+0x3dc>
   1b048:	0176b023          	sd	s7,0(a3)
   1b04c:	cfdff06f          	j	1ad48 <_svfiprintf_r+0xd4>
   1b050:	010d7613          	andi	a2,s10,16
   1b054:	fe061ae3          	bnez	a2,1b048 <_svfiprintf_r+0x3d4>
   1b058:	040d7613          	andi	a2,s10,64
   1b05c:	00060663          	beqz	a2,1b068 <_svfiprintf_r+0x3f4>
   1b060:	01769023          	sh	s7,0(a3)
   1b064:	ce5ff06f          	j	1ad48 <_svfiprintf_r+0xd4>
   1b068:	200d7793          	andi	a5,s10,512
   1b06c:	00078663          	beqz	a5,1b078 <_svfiprintf_r+0x404>
   1b070:	01768023          	sb	s7,0(a3)
   1b074:	cd5ff06f          	j	1ad48 <_svfiprintf_r+0xd4>
   1b078:	0176a023          	sw	s7,0(a3)
   1b07c:	ccdff06f          	j	1ad48 <_svfiprintf_r+0xd4>
   1b080:	010d6d13          	ori	s10,s10,16
   1b084:	00898793          	addi	a5,s3,8
   1b088:	00f13423          	sd	a5,8(sp)
   1b08c:	020d7693          	andi	a3,s10,32
   1b090:	06068a63          	beqz	a3,1b104 <_svfiprintf_r+0x490>
   1b094:	0009b983          	ld	s3,0(s3)
   1b098:	bffd7d13          	andi	s10,s10,-1025
   1b09c:	00000613          	li	a2,0
   1b0a0:	06010ba3          	sb	zero,119(sp)
   1b0a4:	fff00693          	li	a3,-1
   1b0a8:	000d0593          	mv	a1,s10
   1b0ac:	44d41e63          	bne	s0,a3,1b508 <_svfiprintf_r+0x894>
   1b0b0:	00100693          	li	a3,1
   1b0b4:	f2d60ee3          	beq	a2,a3,1aff0 <_svfiprintf_r+0x37c>
   1b0b8:	00200693          	li	a3,2
   1b0bc:	50d60663          	beq	a2,a3,1b5c8 <_svfiprintf_r+0x954>
   1b0c0:	0fc10613          	addi	a2,sp,252
   1b0c4:	0079f593          	andi	a1,s3,7
   1b0c8:	03058593          	addi	a1,a1,48
   1b0cc:	feb60fa3          	sb	a1,-1(a2)
   1b0d0:	0039d993          	srli	s3,s3,0x3
   1b0d4:	fff60c13          	addi	s8,a2,-1
   1b0d8:	44099463          	bnez	s3,1b520 <_svfiprintf_r+0x8ac>
   1b0dc:	001d7513          	andi	a0,s10,1
   1b0e0:	00050a63          	beqz	a0,1b0f4 <_svfiprintf_r+0x480>
   1b0e4:	03000513          	li	a0,48
   1b0e8:	00a58663          	beq	a1,a0,1b0f4 <_svfiprintf_r+0x480>
   1b0ec:	feac0fa3          	sb	a0,-1(s8)
   1b0f0:	ffe60c13          	addi	s8,a2,-2
   1b0f4:	00040993          	mv	s3,s0
   1b0f8:	0fc10413          	addi	s0,sp,252
   1b0fc:	4184043b          	subw	s0,s0,s8
   1b100:	0a40006f          	j	1b1a4 <_svfiprintf_r+0x530>
   1b104:	010d7693          	andi	a3,s10,16
   1b108:	f80696e3          	bnez	a3,1b094 <_svfiprintf_r+0x420>
   1b10c:	040d7693          	andi	a3,s10,64
   1b110:	0009a983          	lw	s3,0(s3)
   1b114:	00068863          	beqz	a3,1b124 <_svfiprintf_r+0x4b0>
   1b118:	03099993          	slli	s3,s3,0x30
   1b11c:	0309d993          	srli	s3,s3,0x30
   1b120:	f79ff06f          	j	1b098 <_svfiprintf_r+0x424>
   1b124:	200d7693          	andi	a3,s10,512
   1b128:	00068663          	beqz	a3,1b134 <_svfiprintf_r+0x4c0>
   1b12c:	0ff9f993          	zext.b	s3,s3
   1b130:	f69ff06f          	j	1b098 <_svfiprintf_r+0x424>
   1b134:	02099993          	slli	s3,s3,0x20
   1b138:	0209d993          	srli	s3,s3,0x20
   1b13c:	f5dff06f          	j	1b098 <_svfiprintf_r+0x424>
   1b140:	ffff86b7          	lui	a3,0xffff8
   1b144:	8306c693          	xori	a3,a3,-2000
   1b148:	00898793          	addi	a5,s3,8
   1b14c:	06d11c23          	sh	a3,120(sp)
   1b150:	0009b983          	ld	s3,0(s3)
   1b154:	0001e6b7          	lui	a3,0x1e
   1b158:	00f13423          	sd	a5,8(sp)
   1b15c:	c1068793          	addi	a5,a3,-1008 # 1dc10 <zeroes.4441+0x68>
   1b160:	002d6d13          	ori	s10,s10,2
   1b164:	02f13023          	sd	a5,32(sp)
   1b168:	00200613          	li	a2,2
   1b16c:	f35ff06f          	j	1b0a0 <_svfiprintf_r+0x42c>
   1b170:	00898793          	addi	a5,s3,8
   1b174:	00f13423          	sd	a5,8(sp)
   1b178:	06010ba3          	sb	zero,119(sp)
   1b17c:	fff00613          	li	a2,-1
   1b180:	0009bc03          	ld	s8,0(s3)
   1b184:	2cc40263          	beq	s0,a2,1b448 <_svfiprintf_r+0x7d4>
   1b188:	00040613          	mv	a2,s0
   1b18c:	00000593          	li	a1,0
   1b190:	000c0513          	mv	a0,s8
   1b194:	f78fa0ef          	jal	ra,1590c <memchr>
   1b198:	00000993          	li	s3,0
   1b19c:	00050463          	beqz	a0,1b1a4 <_svfiprintf_r+0x530>
   1b1a0:	4185043b          	subw	s0,a0,s8
   1b1a4:	00098613          	mv	a2,s3
   1b1a8:	0089d463          	bge	s3,s0,1b1b0 <_svfiprintf_r+0x53c>
   1b1ac:	00040613          	mv	a2,s0
   1b1b0:	07714583          	lbu	a1,119(sp)
   1b1b4:	00060c9b          	sext.w	s9,a2
   1b1b8:	00058463          	beqz	a1,1b1c0 <_svfiprintf_r+0x54c>
   1b1bc:	00160c9b          	addiw	s9,a2,1
   1b1c0:	002d7613          	andi	a2,s10,2
   1b1c4:	0006079b          	sext.w	a5,a2
   1b1c8:	04f13023          	sd	a5,64(sp)
   1b1cc:	00078463          	beqz	a5,1b1d4 <_svfiprintf_r+0x560>
   1b1d0:	002c8c9b          	addiw	s9,s9,2
   1b1d4:	084d7793          	andi	a5,s10,132
   1b1d8:	04f13423          	sd	a5,72(sp)
   1b1dc:	06079463          	bnez	a5,1b244 <_svfiprintf_r+0x5d0>
   1b1e0:	419a083b          	subw	a6,s4,s9
   1b1e4:	07005063          	blez	a6,1b244 <_svfiprintf_r+0x5d0>
   1b1e8:	01000313          	li	t1,16
   1b1ec:	00700e13          	li	t3,7
   1b1f0:	08812583          	lw	a1,136(sp)
   1b1f4:	03013783          	ld	a5,48(sp)
   1b1f8:	09013603          	ld	a2,144(sp)
   1b1fc:	0015851b          	addiw	a0,a1,1
   1b200:	00fdb023          	sd	a5,0(s11)
   1b204:	00050593          	mv	a1,a0
   1b208:	010d8893          	addi	a7,s11,16
   1b20c:	41034a63          	blt	t1,a6,1b620 <_svfiprintf_r+0x9ac>
   1b210:	010db423          	sd	a6,8(s11)
   1b214:	00c80833          	add	a6,a6,a2
   1b218:	09013823          	sd	a6,144(sp)
   1b21c:	08a12423          	sw	a0,136(sp)
   1b220:	00700613          	li	a2,7
   1b224:	00088d93          	mv	s11,a7
   1b228:	00a65e63          	bge	a2,a0,1b244 <_svfiprintf_r+0x5d0>
   1b22c:	08010613          	addi	a2,sp,128
   1b230:	00048593          	mv	a1,s1
   1b234:	00090513          	mv	a0,s2
   1b238:	861ff0ef          	jal	ra,1aa98 <__ssprint_r>
   1b23c:	52051263          	bnez	a0,1b760 <_svfiprintf_r+0xaec>
   1b240:	000b0d93          	mv	s11,s6
   1b244:	07714603          	lbu	a2,119(sp)
   1b248:	04060863          	beqz	a2,1b298 <_svfiprintf_r+0x624>
   1b24c:	07710593          	addi	a1,sp,119
   1b250:	00bdb023          	sd	a1,0(s11)
   1b254:	00100593          	li	a1,1
   1b258:	08812603          	lw	a2,136(sp)
   1b25c:	00bdb423          	sd	a1,8(s11)
   1b260:	09013583          	ld	a1,144(sp)
   1b264:	0016051b          	addiw	a0,a2,1
   1b268:	08a12423          	sw	a0,136(sp)
   1b26c:	00158593          	addi	a1,a1,1
   1b270:	08b13823          	sd	a1,144(sp)
   1b274:	00700613          	li	a2,7
   1b278:	010d8d93          	addi	s11,s11,16
   1b27c:	00a65e63          	bge	a2,a0,1b298 <_svfiprintf_r+0x624>
   1b280:	08010613          	addi	a2,sp,128
   1b284:	00048593          	mv	a1,s1
   1b288:	00090513          	mv	a0,s2
   1b28c:	80dff0ef          	jal	ra,1aa98 <__ssprint_r>
   1b290:	4c051863          	bnez	a0,1b760 <_svfiprintf_r+0xaec>
   1b294:	000b0d93          	mv	s11,s6
   1b298:	04013783          	ld	a5,64(sp)
   1b29c:	04078863          	beqz	a5,1b2ec <_svfiprintf_r+0x678>
   1b2a0:	07810593          	addi	a1,sp,120
   1b2a4:	00bdb023          	sd	a1,0(s11)
   1b2a8:	00200593          	li	a1,2
   1b2ac:	08812603          	lw	a2,136(sp)
   1b2b0:	00bdb423          	sd	a1,8(s11)
   1b2b4:	09013583          	ld	a1,144(sp)
   1b2b8:	0016051b          	addiw	a0,a2,1
   1b2bc:	08a12423          	sw	a0,136(sp)
   1b2c0:	00258593          	addi	a1,a1,2
   1b2c4:	08b13823          	sd	a1,144(sp)
   1b2c8:	00700613          	li	a2,7
   1b2cc:	010d8d93          	addi	s11,s11,16
   1b2d0:	00a65e63          	bge	a2,a0,1b2ec <_svfiprintf_r+0x678>
   1b2d4:	08010613          	addi	a2,sp,128
   1b2d8:	00048593          	mv	a1,s1
   1b2dc:	00090513          	mv	a0,s2
   1b2e0:	fb8ff0ef          	jal	ra,1aa98 <__ssprint_r>
   1b2e4:	46051e63          	bnez	a0,1b760 <_svfiprintf_r+0xaec>
   1b2e8:	000b0d93          	mv	s11,s6
   1b2ec:	04813783          	ld	a5,72(sp)
   1b2f0:	08000613          	li	a2,128
   1b2f4:	06c79463          	bne	a5,a2,1b35c <_svfiprintf_r+0x6e8>
   1b2f8:	419a083b          	subw	a6,s4,s9
   1b2fc:	07005063          	blez	a6,1b35c <_svfiprintf_r+0x6e8>
   1b300:	01000313          	li	t1,16
   1b304:	00700e13          	li	t3,7
   1b308:	08812583          	lw	a1,136(sp)
   1b30c:	02813783          	ld	a5,40(sp)
   1b310:	09013603          	ld	a2,144(sp)
   1b314:	0015851b          	addiw	a0,a1,1
   1b318:	00fdb023          	sd	a5,0(s11)
   1b31c:	00050593          	mv	a1,a0
   1b320:	010d8893          	addi	a7,s11,16
   1b324:	35034663          	blt	t1,a6,1b670 <_svfiprintf_r+0x9fc>
   1b328:	010db423          	sd	a6,8(s11)
   1b32c:	00c80833          	add	a6,a6,a2
   1b330:	09013823          	sd	a6,144(sp)
   1b334:	08a12423          	sw	a0,136(sp)
   1b338:	00700613          	li	a2,7
   1b33c:	00088d93          	mv	s11,a7
   1b340:	00a65e63          	bge	a2,a0,1b35c <_svfiprintf_r+0x6e8>
   1b344:	08010613          	addi	a2,sp,128
   1b348:	00048593          	mv	a1,s1
   1b34c:	00090513          	mv	a0,s2
   1b350:	f48ff0ef          	jal	ra,1aa98 <__ssprint_r>
   1b354:	40051663          	bnez	a0,1b760 <_svfiprintf_r+0xaec>
   1b358:	000b0d93          	mv	s11,s6
   1b35c:	408989bb          	subw	s3,s3,s0
   1b360:	07305063          	blez	s3,1b3c0 <_svfiprintf_r+0x74c>
   1b364:	01000893          	li	a7,16
   1b368:	00700313          	li	t1,7
   1b36c:	08812583          	lw	a1,136(sp)
   1b370:	02813783          	ld	a5,40(sp)
   1b374:	09013603          	ld	a2,144(sp)
   1b378:	0015851b          	addiw	a0,a1,1
   1b37c:	00fdb023          	sd	a5,0(s11)
   1b380:	00050593          	mv	a1,a0
   1b384:	010d8813          	addi	a6,s11,16
   1b388:	3338cc63          	blt	a7,s3,1b6c0 <_svfiprintf_r+0xa4c>
   1b38c:	013db423          	sd	s3,8(s11)
   1b390:	00c989b3          	add	s3,s3,a2
   1b394:	09313823          	sd	s3,144(sp)
   1b398:	08a12423          	sw	a0,136(sp)
   1b39c:	00700613          	li	a2,7
   1b3a0:	00080d93          	mv	s11,a6
   1b3a4:	00a65e63          	bge	a2,a0,1b3c0 <_svfiprintf_r+0x74c>
   1b3a8:	08010613          	addi	a2,sp,128
   1b3ac:	00048593          	mv	a1,s1
   1b3b0:	00090513          	mv	a0,s2
   1b3b4:	ee4ff0ef          	jal	ra,1aa98 <__ssprint_r>
   1b3b8:	3a051463          	bnez	a0,1b760 <_svfiprintf_r+0xaec>
   1b3bc:	000b0d93          	mv	s11,s6
   1b3c0:	09013683          	ld	a3,144(sp)
   1b3c4:	008db423          	sd	s0,8(s11)
   1b3c8:	018db023          	sd	s8,0(s11)
   1b3cc:	00868433          	add	s0,a3,s0
   1b3d0:	08812683          	lw	a3,136(sp)
   1b3d4:	08813823          	sd	s0,144(sp)
   1b3d8:	010d8713          	addi	a4,s11,16
   1b3dc:	0016861b          	addiw	a2,a3,1
   1b3e0:	08c12423          	sw	a2,136(sp)
   1b3e4:	00700693          	li	a3,7
   1b3e8:	00c6de63          	bge	a3,a2,1b404 <_svfiprintf_r+0x790>
   1b3ec:	08010613          	addi	a2,sp,128
   1b3f0:	00048593          	mv	a1,s1
   1b3f4:	00090513          	mv	a0,s2
   1b3f8:	ea0ff0ef          	jal	ra,1aa98 <__ssprint_r>
   1b3fc:	36051263          	bnez	a0,1b760 <_svfiprintf_r+0xaec>
   1b400:	000b0713          	mv	a4,s6
   1b404:	004d7793          	andi	a5,s10,4
   1b408:	30079063          	bnez	a5,1b708 <_svfiprintf_r+0xa94>
   1b40c:	000a0793          	mv	a5,s4
   1b410:	019a5463          	bge	s4,s9,1b418 <_svfiprintf_r+0x7a4>
   1b414:	000c8793          	mv	a5,s9
   1b418:	01778bbb          	addw	s7,a5,s7
   1b41c:	09013783          	ld	a5,144(sp)
   1b420:	00078c63          	beqz	a5,1b438 <_svfiprintf_r+0x7c4>
   1b424:	08010613          	addi	a2,sp,128
   1b428:	00048593          	mv	a1,s1
   1b42c:	00090513          	mv	a0,s2
   1b430:	e68ff0ef          	jal	ra,1aa98 <__ssprint_r>
   1b434:	32051663          	bnez	a0,1b760 <_svfiprintf_r+0xaec>
   1b438:	08012423          	sw	zero,136(sp)
   1b43c:	00813983          	ld	s3,8(sp)
   1b440:	000b0d93          	mv	s11,s6
   1b444:	905ff06f          	j	1ad48 <_svfiprintf_r+0xd4>
   1b448:	000c0513          	mv	a0,s8
   1b44c:	f14fb0ef          	jal	ra,16b60 <strlen>
   1b450:	0005041b          	sext.w	s0,a0
   1b454:	00000993          	li	s3,0
   1b458:	d4dff06f          	j	1b1a4 <_svfiprintf_r+0x530>
   1b45c:	010d6d13          	ori	s10,s10,16
   1b460:	00898793          	addi	a5,s3,8
   1b464:	00f13423          	sd	a5,8(sp)
   1b468:	020d7693          	andi	a3,s10,32
   1b46c:	00068863          	beqz	a3,1b47c <_svfiprintf_r+0x808>
   1b470:	0009b983          	ld	s3,0(s3)
   1b474:	00100613          	li	a2,1
   1b478:	c29ff06f          	j	1b0a0 <_svfiprintf_r+0x42c>
   1b47c:	010d7693          	andi	a3,s10,16
   1b480:	fe0698e3          	bnez	a3,1b470 <_svfiprintf_r+0x7fc>
   1b484:	040d7693          	andi	a3,s10,64
   1b488:	0009a983          	lw	s3,0(s3)
   1b48c:	00068863          	beqz	a3,1b49c <_svfiprintf_r+0x828>
   1b490:	03099993          	slli	s3,s3,0x30
   1b494:	0309d993          	srli	s3,s3,0x30
   1b498:	fddff06f          	j	1b474 <_svfiprintf_r+0x800>
   1b49c:	200d7693          	andi	a3,s10,512
   1b4a0:	00068663          	beqz	a3,1b4ac <_svfiprintf_r+0x838>
   1b4a4:	0ff9f993          	zext.b	s3,s3
   1b4a8:	fcdff06f          	j	1b474 <_svfiprintf_r+0x800>
   1b4ac:	02099993          	slli	s3,s3,0x20
   1b4b0:	0209d993          	srli	s3,s3,0x20
   1b4b4:	fc1ff06f          	j	1b474 <_svfiprintf_r+0x800>
   1b4b8:	0001e637          	lui	a2,0x1e
   1b4bc:	c1060793          	addi	a5,a2,-1008 # 1dc10 <zeroes.4441+0x68>
   1b4c0:	951ff06f          	j	1ae10 <_svfiprintf_r+0x19c>
   1b4c4:	010d7613          	andi	a2,s10,16
   1b4c8:	94061ee3          	bnez	a2,1ae24 <_svfiprintf_r+0x1b0>
   1b4cc:	040d7613          	andi	a2,s10,64
   1b4d0:	0009a983          	lw	s3,0(s3)
   1b4d4:	00060863          	beqz	a2,1b4e4 <_svfiprintf_r+0x870>
   1b4d8:	03099993          	slli	s3,s3,0x30
   1b4dc:	0309d993          	srli	s3,s3,0x30
   1b4e0:	949ff06f          	j	1ae28 <_svfiprintf_r+0x1b4>
   1b4e4:	200d7613          	andi	a2,s10,512
   1b4e8:	00060663          	beqz	a2,1b4f4 <_svfiprintf_r+0x880>
   1b4ec:	0ff9f993          	zext.b	s3,s3
   1b4f0:	939ff06f          	j	1ae28 <_svfiprintf_r+0x1b4>
   1b4f4:	02099993          	slli	s3,s3,0x20
   1b4f8:	0209d993          	srli	s3,s3,0x20
   1b4fc:	92dff06f          	j	1ae28 <_svfiprintf_r+0x1b4>
   1b500:	000d0593          	mv	a1,s10
   1b504:	00100613          	li	a2,1
   1b508:	f7fd7d13          	andi	s10,s10,-129
   1b50c:	ba0992e3          	bnez	s3,1b0b0 <_svfiprintf_r+0x43c>
   1b510:	0e040063          	beqz	s0,1b5f0 <_svfiprintf_r+0x97c>
   1b514:	00100693          	li	a3,1
   1b518:	bad610e3          	bne	a2,a3,1b0b8 <_svfiprintf_r+0x444>
   1b51c:	addff06f          	j	1aff8 <_svfiprintf_r+0x384>
   1b520:	000c0613          	mv	a2,s8
   1b524:	ba1ff06f          	j	1b0c4 <_svfiprintf_r+0x450>
   1b528:	400d7c93          	andi	s9,s10,1024
   1b52c:	00000613          	li	a2,0
   1b530:	0fc10593          	addi	a1,sp,252
   1b534:	00a00813          	li	a6,10
   1b538:	000c8c9b          	sext.w	s9,s9
   1b53c:	0ff00893          	li	a7,255
   1b540:	00900313          	li	t1,9
   1b544:	0309f533          	remu	a0,s3,a6
   1b548:	fff58c13          	addi	s8,a1,-1
   1b54c:	0016061b          	addiw	a2,a2,1
   1b550:	0305051b          	addiw	a0,a0,48
   1b554:	fea58fa3          	sb	a0,-1(a1)
   1b558:	060c8063          	beqz	s9,1b5b8 <_svfiprintf_r+0x944>
   1b55c:	01013783          	ld	a5,16(sp)
   1b560:	0007c583          	lbu	a1,0(a5)
   1b564:	04c59a63          	bne	a1,a2,1b5b8 <_svfiprintf_r+0x944>
   1b568:	05158863          	beq	a1,a7,1b5b8 <_svfiprintf_r+0x944>
   1b56c:	05337663          	bgeu	t1,s3,1b5b8 <_svfiprintf_r+0x944>
   1b570:	01813783          	ld	a5,24(sp)
   1b574:	03813583          	ld	a1,56(sp)
   1b578:	04613c23          	sd	t1,88(sp)
   1b57c:	40fc0c33          	sub	s8,s8,a5
   1b580:	00078613          	mv	a2,a5
   1b584:	000c0513          	mv	a0,s8
   1b588:	05113423          	sd	a7,72(sp)
   1b58c:	05013023          	sd	a6,64(sp)
   1b590:	decfb0ef          	jal	ra,16b7c <strncpy>
   1b594:	01013783          	ld	a5,16(sp)
   1b598:	00000613          	li	a2,0
   1b59c:	04013803          	ld	a6,64(sp)
   1b5a0:	0017c583          	lbu	a1,1(a5)
   1b5a4:	04813883          	ld	a7,72(sp)
   1b5a8:	05813303          	ld	t1,88(sp)
   1b5ac:	00058663          	beqz	a1,1b5b8 <_svfiprintf_r+0x944>
   1b5b0:	00178793          	addi	a5,a5,1
   1b5b4:	00f13823          	sd	a5,16(sp)
   1b5b8:	0309d9b3          	divu	s3,s3,a6
   1b5bc:	b2098ce3          	beqz	s3,1b0f4 <_svfiprintf_r+0x480>
   1b5c0:	000c0593          	mv	a1,s8
   1b5c4:	f81ff06f          	j	1b544 <_svfiprintf_r+0x8d0>
   1b5c8:	0fc10c13          	addi	s8,sp,252
   1b5cc:	02013783          	ld	a5,32(sp)
   1b5d0:	00f9f613          	andi	a2,s3,15
   1b5d4:	fffc0c13          	addi	s8,s8,-1
   1b5d8:	00c78633          	add	a2,a5,a2
   1b5dc:	00064603          	lbu	a2,0(a2)
   1b5e0:	0049d993          	srli	s3,s3,0x4
   1b5e4:	00cc0023          	sb	a2,0(s8)
   1b5e8:	fe0992e3          	bnez	s3,1b5cc <_svfiprintf_r+0x958>
   1b5ec:	b09ff06f          	j	1b0f4 <_svfiprintf_r+0x480>
   1b5f0:	0fc10c13          	addi	s8,sp,252
   1b5f4:	b00610e3          	bnez	a2,1b0f4 <_svfiprintf_r+0x480>
   1b5f8:	0015f593          	andi	a1,a1,1
   1b5fc:	ae058ce3          	beqz	a1,1b0f4 <_svfiprintf_r+0x480>
   1b600:	03000693          	li	a3,48
   1b604:	0ed10da3          	sb	a3,251(sp)
   1b608:	9f9ff06f          	j	1b000 <_svfiprintf_r+0x38c>
   1b60c:	1e068063          	beqz	a3,1b7ec <_svfiprintf_r+0xb78>
   1b610:	08d10c23          	sb	a3,152(sp)
   1b614:	06010ba3          	sb	zero,119(sp)
   1b618:	01313423          	sd	s3,8(sp)
   1b61c:	995ff06f          	j	1afb0 <_svfiprintf_r+0x33c>
   1b620:	01060613          	addi	a2,a2,16
   1b624:	006db423          	sd	t1,8(s11)
   1b628:	08c13823          	sd	a2,144(sp)
   1b62c:	08b12423          	sw	a1,136(sp)
   1b630:	02ae5a63          	bge	t3,a0,1b664 <_svfiprintf_r+0x9f0>
   1b634:	08010613          	addi	a2,sp,128
   1b638:	00048593          	mv	a1,s1
   1b63c:	00090513          	mv	a0,s2
   1b640:	07c13423          	sd	t3,104(sp)
   1b644:	06613023          	sd	t1,96(sp)
   1b648:	05013c23          	sd	a6,88(sp)
   1b64c:	c4cff0ef          	jal	ra,1aa98 <__ssprint_r>
   1b650:	10051863          	bnez	a0,1b760 <_svfiprintf_r+0xaec>
   1b654:	06813e03          	ld	t3,104(sp)
   1b658:	06013303          	ld	t1,96(sp)
   1b65c:	05813803          	ld	a6,88(sp)
   1b660:	000b0893          	mv	a7,s6
   1b664:	ff08081b          	addiw	a6,a6,-16
   1b668:	00088d93          	mv	s11,a7
   1b66c:	b85ff06f          	j	1b1f0 <_svfiprintf_r+0x57c>
   1b670:	01060613          	addi	a2,a2,16
   1b674:	006db423          	sd	t1,8(s11)
   1b678:	08c13823          	sd	a2,144(sp)
   1b67c:	08b12423          	sw	a1,136(sp)
   1b680:	02ae5a63          	bge	t3,a0,1b6b4 <_svfiprintf_r+0xa40>
   1b684:	08010613          	addi	a2,sp,128
   1b688:	00048593          	mv	a1,s1
   1b68c:	00090513          	mv	a0,s2
   1b690:	05c13c23          	sd	t3,88(sp)
   1b694:	04613423          	sd	t1,72(sp)
   1b698:	05013023          	sd	a6,64(sp)
   1b69c:	bfcff0ef          	jal	ra,1aa98 <__ssprint_r>
   1b6a0:	0c051063          	bnez	a0,1b760 <_svfiprintf_r+0xaec>
   1b6a4:	05813e03          	ld	t3,88(sp)
   1b6a8:	04813303          	ld	t1,72(sp)
   1b6ac:	04013803          	ld	a6,64(sp)
   1b6b0:	000b0893          	mv	a7,s6
   1b6b4:	ff08081b          	addiw	a6,a6,-16
   1b6b8:	00088d93          	mv	s11,a7
   1b6bc:	c4dff06f          	j	1b308 <_svfiprintf_r+0x694>
   1b6c0:	01060613          	addi	a2,a2,16
   1b6c4:	011db423          	sd	a7,8(s11)
   1b6c8:	08c13823          	sd	a2,144(sp)
   1b6cc:	08b12423          	sw	a1,136(sp)
   1b6d0:	02a35663          	bge	t1,a0,1b6fc <_svfiprintf_r+0xa88>
   1b6d4:	08010613          	addi	a2,sp,128
   1b6d8:	00048593          	mv	a1,s1
   1b6dc:	00090513          	mv	a0,s2
   1b6e0:	04613423          	sd	t1,72(sp)
   1b6e4:	05113023          	sd	a7,64(sp)
   1b6e8:	bb0ff0ef          	jal	ra,1aa98 <__ssprint_r>
   1b6ec:	06051a63          	bnez	a0,1b760 <_svfiprintf_r+0xaec>
   1b6f0:	04813303          	ld	t1,72(sp)
   1b6f4:	04013883          	ld	a7,64(sp)
   1b6f8:	000b0813          	mv	a6,s6
   1b6fc:	ff09899b          	addiw	s3,s3,-16
   1b700:	00080d93          	mv	s11,a6
   1b704:	c69ff06f          	j	1b36c <_svfiprintf_r+0x6f8>
   1b708:	419a043b          	subw	s0,s4,s9
   1b70c:	d08050e3          	blez	s0,1b40c <_svfiprintf_r+0x798>
   1b710:	01000993          	li	s3,16
   1b714:	00700d13          	li	s10,7
   1b718:	08812683          	lw	a3,136(sp)
   1b71c:	09013783          	ld	a5,144(sp)
   1b720:	0016861b          	addiw	a2,a3,1
   1b724:	00060693          	mv	a3,a2
   1b728:	0889c263          	blt	s3,s0,1b7ac <_svfiprintf_r+0xb38>
   1b72c:	03013683          	ld	a3,48(sp)
   1b730:	00873423          	sd	s0,8(a4)
   1b734:	00f40433          	add	s0,s0,a5
   1b738:	00d73023          	sd	a3,0(a4)
   1b73c:	08813823          	sd	s0,144(sp)
   1b740:	08c12423          	sw	a2,136(sp)
   1b744:	00700793          	li	a5,7
   1b748:	ccc7d2e3          	bge	a5,a2,1b40c <_svfiprintf_r+0x798>
   1b74c:	08010613          	addi	a2,sp,128
   1b750:	00048593          	mv	a1,s1
   1b754:	00090513          	mv	a0,s2
   1b758:	b40ff0ef          	jal	ra,1aa98 <__ssprint_r>
   1b75c:	ca0508e3          	beqz	a0,1b40c <_svfiprintf_r+0x798>
   1b760:	0104d783          	lhu	a5,16(s1)
   1b764:	0407f793          	andi	a5,a5,64
   1b768:	d8079263          	bnez	a5,1acec <_svfiprintf_r+0x78>
   1b76c:	1e813083          	ld	ra,488(sp)
   1b770:	1e013403          	ld	s0,480(sp)
   1b774:	000b8513          	mv	a0,s7
   1b778:	1d813483          	ld	s1,472(sp)
   1b77c:	1d013903          	ld	s2,464(sp)
   1b780:	1c813983          	ld	s3,456(sp)
   1b784:	1c013a03          	ld	s4,448(sp)
   1b788:	1b813a83          	ld	s5,440(sp)
   1b78c:	1b013b03          	ld	s6,432(sp)
   1b790:	1a813b83          	ld	s7,424(sp)
   1b794:	1a013c03          	ld	s8,416(sp)
   1b798:	19813c83          	ld	s9,408(sp)
   1b79c:	19013d03          	ld	s10,400(sp)
   1b7a0:	18813d83          	ld	s11,392(sp)
   1b7a4:	1f010113          	addi	sp,sp,496
   1b7a8:	00008067          	ret
   1b7ac:	03013583          	ld	a1,48(sp)
   1b7b0:	01078793          	addi	a5,a5,16
   1b7b4:	01373423          	sd	s3,8(a4)
   1b7b8:	00b73023          	sd	a1,0(a4)
   1b7bc:	08f13823          	sd	a5,144(sp)
   1b7c0:	08d12423          	sw	a3,136(sp)
   1b7c4:	01070713          	addi	a4,a4,16
   1b7c8:	00cd5e63          	bge	s10,a2,1b7e4 <_svfiprintf_r+0xb70>
   1b7cc:	08010613          	addi	a2,sp,128
   1b7d0:	00048593          	mv	a1,s1
   1b7d4:	00090513          	mv	a0,s2
   1b7d8:	ac0ff0ef          	jal	ra,1aa98 <__ssprint_r>
   1b7dc:	f80512e3          	bnez	a0,1b760 <_svfiprintf_r+0xaec>
   1b7e0:	000b0713          	mv	a4,s6
   1b7e4:	ff04041b          	addiw	s0,s0,-16
   1b7e8:	f31ff06f          	j	1b718 <_svfiprintf_r+0xaa4>
   1b7ec:	09013783          	ld	a5,144(sp)
   1b7f0:	f60788e3          	beqz	a5,1b760 <_svfiprintf_r+0xaec>
   1b7f4:	08010613          	addi	a2,sp,128
   1b7f8:	00048593          	mv	a1,s1
   1b7fc:	00090513          	mv	a0,s2
   1b800:	a98ff0ef          	jal	ra,1aa98 <__ssprint_r>
   1b804:	f5dff06f          	j	1b760 <_svfiprintf_r+0xaec>

000000000001b808 <__swbuf_r>:
   1b808:	fd010113          	addi	sp,sp,-48
   1b80c:	02813023          	sd	s0,32(sp)
   1b810:	00913c23          	sd	s1,24(sp)
   1b814:	01213823          	sd	s2,16(sp)
   1b818:	02113423          	sd	ra,40(sp)
   1b81c:	01313423          	sd	s3,8(sp)
   1b820:	00050913          	mv	s2,a0
   1b824:	00058493          	mv	s1,a1
   1b828:	00060413          	mv	s0,a2
   1b82c:	00050863          	beqz	a0,1b83c <__swbuf_r+0x34>
   1b830:	05052783          	lw	a5,80(a0)
   1b834:	00079463          	bnez	a5,1b83c <__swbuf_r+0x34>
   1b838:	9e4f70ef          	jal	ra,12a1c <__sinit>
   1b83c:	02842783          	lw	a5,40(s0)
   1b840:	00f42623          	sw	a5,12(s0)
   1b844:	01045783          	lhu	a5,16(s0)
   1b848:	0087f793          	andi	a5,a5,8
   1b84c:	08078a63          	beqz	a5,1b8e0 <__swbuf_r+0xd8>
   1b850:	01843783          	ld	a5,24(s0)
   1b854:	08078663          	beqz	a5,1b8e0 <__swbuf_r+0xd8>
   1b858:	01041783          	lh	a5,16(s0)
   1b85c:	0ff4f993          	zext.b	s3,s1
   1b860:	00098493          	mv	s1,s3
   1b864:	03279713          	slli	a4,a5,0x32
   1b868:	0a075663          	bgez	a4,1b914 <__swbuf_r+0x10c>
   1b86c:	01843783          	ld	a5,24(s0)
   1b870:	00043503          	ld	a0,0(s0)
   1b874:	40f5053b          	subw	a0,a0,a5
   1b878:	02042783          	lw	a5,32(s0)
   1b87c:	00f54a63          	blt	a0,a5,1b890 <__swbuf_r+0x88>
   1b880:	00040593          	mv	a1,s0
   1b884:	00090513          	mv	a0,s2
   1b888:	808f70ef          	jal	ra,12890 <_fflush_r>
   1b88c:	06051263          	bnez	a0,1b8f0 <__swbuf_r+0xe8>
   1b890:	00c42783          	lw	a5,12(s0)
   1b894:	0015051b          	addiw	a0,a0,1
   1b898:	fff7879b          	addiw	a5,a5,-1
   1b89c:	00f42623          	sw	a5,12(s0)
   1b8a0:	00043783          	ld	a5,0(s0)
   1b8a4:	00178713          	addi	a4,a5,1
   1b8a8:	00e43023          	sd	a4,0(s0)
   1b8ac:	01378023          	sb	s3,0(a5)
   1b8b0:	02042783          	lw	a5,32(s0)
   1b8b4:	00a78c63          	beq	a5,a0,1b8cc <__swbuf_r+0xc4>
   1b8b8:	01045783          	lhu	a5,16(s0)
   1b8bc:	0017f793          	andi	a5,a5,1
   1b8c0:	02078a63          	beqz	a5,1b8f4 <__swbuf_r+0xec>
   1b8c4:	00a00793          	li	a5,10
   1b8c8:	02f49663          	bne	s1,a5,1b8f4 <__swbuf_r+0xec>
   1b8cc:	00040593          	mv	a1,s0
   1b8d0:	00090513          	mv	a0,s2
   1b8d4:	fbdf60ef          	jal	ra,12890 <_fflush_r>
   1b8d8:	00050e63          	beqz	a0,1b8f4 <__swbuf_r+0xec>
   1b8dc:	0140006f          	j	1b8f0 <__swbuf_r+0xe8>
   1b8e0:	00040593          	mv	a1,s0
   1b8e4:	00090513          	mv	a0,s2
   1b8e8:	ad5f60ef          	jal	ra,123bc <__swsetup_r>
   1b8ec:	f60506e3          	beqz	a0,1b858 <__swbuf_r+0x50>
   1b8f0:	fff00493          	li	s1,-1
   1b8f4:	02813083          	ld	ra,40(sp)
   1b8f8:	02013403          	ld	s0,32(sp)
   1b8fc:	00048513          	mv	a0,s1
   1b900:	01013903          	ld	s2,16(sp)
   1b904:	01813483          	ld	s1,24(sp)
   1b908:	00813983          	ld	s3,8(sp)
   1b90c:	03010113          	addi	sp,sp,48
   1b910:	00008067          	ret
   1b914:	00002737          	lui	a4,0x2
   1b918:	00e7e7b3          	or	a5,a5,a4
   1b91c:	00f41823          	sh	a5,16(s0)
   1b920:	0ac42783          	lw	a5,172(s0)
   1b924:	ffffe737          	lui	a4,0xffffe
   1b928:	fff70713          	addi	a4,a4,-1 # ffffffffffffdfff <__global_pointer$+0xfffffffffffdcfcf>
   1b92c:	00e7f7b3          	and	a5,a5,a4
   1b930:	0af42623          	sw	a5,172(s0)
   1b934:	f39ff06f          	j	1b86c <__swbuf_r+0x64>

000000000001b938 <__swbuf>:
   1b938:	00058613          	mv	a2,a1
   1b93c:	00050593          	mv	a1,a0
   1b940:	8301b503          	ld	a0,-2000(gp) # 20860 <_impure_ptr>
   1b944:	ec5ff06f          	j	1b808 <__swbuf_r>

000000000001b948 <_wcrtomb_r>:
   1b948:	8301b783          	ld	a5,-2000(gp) # 20860 <_impure_ptr>
   1b94c:	fd010113          	addi	sp,sp,-48
   1b950:	02813023          	sd	s0,32(sp)
   1b954:	00913c23          	sd	s1,24(sp)
   1b958:	02113423          	sd	ra,40(sp)
   1b95c:	00050413          	mv	s0,a0
   1b960:	00068493          	mv	s1,a3
   1b964:	0487b783          	ld	a5,72(a5)
   1b968:	04059863          	bnez	a1,1b9b8 <_wcrtomb_r+0x70>
   1b96c:	00079663          	bnez	a5,1b978 <_wcrtomb_r+0x30>
   1b970:	000207b7          	lui	a5,0x20
   1b974:	68878793          	addi	a5,a5,1672 # 20688 <__global_locale>
   1b978:	0e07b783          	ld	a5,224(a5)
   1b97c:	00048693          	mv	a3,s1
   1b980:	00000613          	li	a2,0
   1b984:	00010593          	mv	a1,sp
   1b988:	00040513          	mv	a0,s0
   1b98c:	000780e7          	jalr	a5
   1b990:	fff00793          	li	a5,-1
   1b994:	00f51863          	bne	a0,a5,1b9a4 <_wcrtomb_r+0x5c>
   1b998:	0004a023          	sw	zero,0(s1)
   1b99c:	08a00793          	li	a5,138
   1b9a0:	00f42023          	sw	a5,0(s0)
   1b9a4:	02813083          	ld	ra,40(sp)
   1b9a8:	02013403          	ld	s0,32(sp)
   1b9ac:	01813483          	ld	s1,24(sp)
   1b9b0:	03010113          	addi	sp,sp,48
   1b9b4:	00008067          	ret
   1b9b8:	00079663          	bnez	a5,1b9c4 <_wcrtomb_r+0x7c>
   1b9bc:	000207b7          	lui	a5,0x20
   1b9c0:	68878793          	addi	a5,a5,1672 # 20688 <__global_locale>
   1b9c4:	0e07b783          	ld	a5,224(a5)
   1b9c8:	00048693          	mv	a3,s1
   1b9cc:	fbdff06f          	j	1b988 <_wcrtomb_r+0x40>

000000000001b9d0 <wcrtomb>:
   1b9d0:	00060693          	mv	a3,a2
   1b9d4:	00058613          	mv	a2,a1
   1b9d8:	00050593          	mv	a1,a0
   1b9dc:	8301b503          	ld	a0,-2000(gp) # 20860 <_impure_ptr>
   1b9e0:	f69ff06f          	j	1b948 <_wcrtomb_r>

000000000001b9e4 <_wctomb_r>:
   1b9e4:	8301b783          	ld	a5,-2000(gp) # 20860 <_impure_ptr>
   1b9e8:	0487b783          	ld	a5,72(a5)
   1b9ec:	00079663          	bnez	a5,1b9f8 <_wctomb_r+0x14>
   1b9f0:	000207b7          	lui	a5,0x20
   1b9f4:	68878793          	addi	a5,a5,1672 # 20688 <__global_locale>
   1b9f8:	0e07b303          	ld	t1,224(a5)
   1b9fc:	00030067          	jr	t1

000000000001ba00 <__ascii_wctomb>:
   1ba00:	02058463          	beqz	a1,1ba28 <__ascii_wctomb+0x28>
   1ba04:	0ff00793          	li	a5,255
   1ba08:	00c7fa63          	bgeu	a5,a2,1ba1c <__ascii_wctomb+0x1c>
   1ba0c:	08a00793          	li	a5,138
   1ba10:	00f52023          	sw	a5,0(a0)
   1ba14:	fff00513          	li	a0,-1
   1ba18:	00008067          	ret
   1ba1c:	00c58023          	sb	a2,0(a1)
   1ba20:	00100513          	li	a0,1
   1ba24:	00008067          	ret
   1ba28:	00000513          	li	a0,0
   1ba2c:	00008067          	ret

000000000001ba30 <_close>:
   1ba30:	ff010113          	addi	sp,sp,-16
   1ba34:	00113423          	sd	ra,8(sp)
   1ba38:	00813023          	sd	s0,0(sp)
   1ba3c:	00000593          	li	a1,0
   1ba40:	00000613          	li	a2,0
   1ba44:	00000693          	li	a3,0
   1ba48:	00000713          	li	a4,0
   1ba4c:	00000793          	li	a5,0
   1ba50:	03900893          	li	a7,57
   1ba54:	00000073          	ecall
   1ba58:	00050413          	mv	s0,a0
   1ba5c:	00055a63          	bgez	a0,1ba70 <_close+0x40>
   1ba60:	4080043b          	negw	s0,s0
   1ba64:	318000ef          	jal	ra,1bd7c <__errno>
   1ba68:	00852023          	sw	s0,0(a0)
   1ba6c:	fff00413          	li	s0,-1
   1ba70:	0004051b          	sext.w	a0,s0
   1ba74:	00813083          	ld	ra,8(sp)
   1ba78:	00013403          	ld	s0,0(sp)
   1ba7c:	01010113          	addi	sp,sp,16
   1ba80:	00008067          	ret

000000000001ba84 <_exit>:
   1ba84:	00000593          	li	a1,0
   1ba88:	00000613          	li	a2,0
   1ba8c:	00000693          	li	a3,0
   1ba90:	00000713          	li	a4,0
   1ba94:	00000793          	li	a5,0
   1ba98:	05d00893          	li	a7,93
   1ba9c:	00000073          	ecall
   1baa0:	02055263          	bgez	a0,1bac4 <_exit+0x40>
   1baa4:	ff010113          	addi	sp,sp,-16
   1baa8:	00813023          	sd	s0,0(sp)
   1baac:	00050413          	mv	s0,a0
   1bab0:	00113423          	sd	ra,8(sp)
   1bab4:	4080043b          	negw	s0,s0
   1bab8:	2c4000ef          	jal	ra,1bd7c <__errno>
   1babc:	00852023          	sw	s0,0(a0)
   1bac0:	0000006f          	j	1bac0 <_exit+0x3c>
   1bac4:	0000006f          	j	1bac4 <_exit+0x40>

000000000001bac8 <_fstat>:
   1bac8:	f6010113          	addi	sp,sp,-160
   1bacc:	08913423          	sd	s1,136(sp)
   1bad0:	08113c23          	sd	ra,152(sp)
   1bad4:	00058493          	mv	s1,a1
   1bad8:	08813823          	sd	s0,144(sp)
   1badc:	00010593          	mv	a1,sp
   1bae0:	00000613          	li	a2,0
   1bae4:	00000693          	li	a3,0
   1bae8:	00000713          	li	a4,0
   1baec:	00000793          	li	a5,0
   1baf0:	05000893          	li	a7,80
   1baf4:	00000073          	ecall
   1baf8:	00050413          	mv	s0,a0
   1bafc:	00055a63          	bgez	a0,1bb10 <_fstat+0x48>
   1bb00:	4080043b          	negw	s0,s0
   1bb04:	278000ef          	jal	ra,1bd7c <__errno>
   1bb08:	00852023          	sw	s0,0(a0)
   1bb0c:	fff00413          	li	s0,-1
   1bb10:	00048513          	mv	a0,s1
   1bb14:	00010593          	mv	a1,sp
   1bb18:	1f8000ef          	jal	ra,1bd10 <_conv_stat>
   1bb1c:	0004051b          	sext.w	a0,s0
   1bb20:	09813083          	ld	ra,152(sp)
   1bb24:	09013403          	ld	s0,144(sp)
   1bb28:	08813483          	ld	s1,136(sp)
   1bb2c:	0a010113          	addi	sp,sp,160
   1bb30:	00008067          	ret

000000000001bb34 <_isatty>:
   1bb34:	f8010113          	addi	sp,sp,-128
   1bb38:	00810593          	addi	a1,sp,8
   1bb3c:	06113c23          	sd	ra,120(sp)
   1bb40:	f89ff0ef          	jal	ra,1bac8 <_fstat>
   1bb44:	fff00793          	li	a5,-1
   1bb48:	00f50863          	beq	a0,a5,1bb58 <_isatty+0x24>
   1bb4c:	00c12503          	lw	a0,12(sp)
   1bb50:	40d5551b          	sraiw	a0,a0,0xd
   1bb54:	00157513          	andi	a0,a0,1
   1bb58:	07813083          	ld	ra,120(sp)
   1bb5c:	08010113          	addi	sp,sp,128
   1bb60:	00008067          	ret

000000000001bb64 <_lseek>:
   1bb64:	ff010113          	addi	sp,sp,-16
   1bb68:	00113423          	sd	ra,8(sp)
   1bb6c:	00813023          	sd	s0,0(sp)
   1bb70:	00000693          	li	a3,0
   1bb74:	00000713          	li	a4,0
   1bb78:	00000793          	li	a5,0
   1bb7c:	03e00893          	li	a7,62
   1bb80:	00000073          	ecall
   1bb84:	00050413          	mv	s0,a0
   1bb88:	00055a63          	bgez	a0,1bb9c <_lseek+0x38>
   1bb8c:	4080043b          	negw	s0,s0
   1bb90:	1ec000ef          	jal	ra,1bd7c <__errno>
   1bb94:	00852023          	sw	s0,0(a0)
   1bb98:	fff00413          	li	s0,-1
   1bb9c:	00040513          	mv	a0,s0
   1bba0:	00813083          	ld	ra,8(sp)
   1bba4:	00013403          	ld	s0,0(sp)
   1bba8:	01010113          	addi	sp,sp,16
   1bbac:	00008067          	ret

000000000001bbb0 <_read>:
   1bbb0:	ff010113          	addi	sp,sp,-16
   1bbb4:	00113423          	sd	ra,8(sp)
   1bbb8:	00813023          	sd	s0,0(sp)
   1bbbc:	00000693          	li	a3,0
   1bbc0:	00000713          	li	a4,0
   1bbc4:	00000793          	li	a5,0
   1bbc8:	03f00893          	li	a7,63
   1bbcc:	00000073          	ecall
   1bbd0:	00050413          	mv	s0,a0
   1bbd4:	00055a63          	bgez	a0,1bbe8 <_read+0x38>
   1bbd8:	4080043b          	negw	s0,s0
   1bbdc:	1a0000ef          	jal	ra,1bd7c <__errno>
   1bbe0:	00852023          	sw	s0,0(a0)
   1bbe4:	fff00413          	li	s0,-1
   1bbe8:	00040513          	mv	a0,s0
   1bbec:	00813083          	ld	ra,8(sp)
   1bbf0:	00013403          	ld	s0,0(sp)
   1bbf4:	01010113          	addi	sp,sp,16
   1bbf8:	00008067          	ret

000000000001bbfc <_sbrk>:
   1bbfc:	fe010113          	addi	sp,sp,-32
   1bc00:	00813823          	sd	s0,16(sp)
   1bc04:	8681b783          	ld	a5,-1944(gp) # 20898 <heap_end.2510>
   1bc08:	01213023          	sd	s2,0(sp)
   1bc0c:	00113c23          	sd	ra,24(sp)
   1bc10:	00913423          	sd	s1,8(sp)
   1bc14:	00050913          	mv	s2,a0
   1bc18:	04079a63          	bnez	a5,1bc6c <_sbrk+0x70>
   1bc1c:	00000513          	li	a0,0
   1bc20:	00000593          	li	a1,0
   1bc24:	00000613          	li	a2,0
   1bc28:	00000693          	li	a3,0
   1bc2c:	00000713          	li	a4,0
   1bc30:	0d600893          	li	a7,214
   1bc34:	00000073          	ecall
   1bc38:	00050493          	mv	s1,a0
   1bc3c:	02055663          	bgez	a0,1bc68 <_sbrk+0x6c>
   1bc40:	13c000ef          	jal	ra,1bd7c <__errno>
   1bc44:	409004bb          	negw	s1,s1
   1bc48:	00952023          	sw	s1,0(a0)
   1bc4c:	fff00513          	li	a0,-1
   1bc50:	01813083          	ld	ra,24(sp)
   1bc54:	01013403          	ld	s0,16(sp)
   1bc58:	00813483          	ld	s1,8(sp)
   1bc5c:	00013903          	ld	s2,0(sp)
   1bc60:	02010113          	addi	sp,sp,32
   1bc64:	00008067          	ret
   1bc68:	86a1b423          	sd	a0,-1944(gp) # 20898 <heap_end.2510>
   1bc6c:	8681b503          	ld	a0,-1944(gp) # 20898 <heap_end.2510>
   1bc70:	00000593          	li	a1,0
   1bc74:	00000613          	li	a2,0
   1bc78:	00a90533          	add	a0,s2,a0
   1bc7c:	00000693          	li	a3,0
   1bc80:	00000713          	li	a4,0
   1bc84:	00000793          	li	a5,0
   1bc88:	0d600893          	li	a7,214
   1bc8c:	00000073          	ecall
   1bc90:	00050493          	mv	s1,a0
   1bc94:	00055a63          	bgez	a0,1bca8 <_sbrk+0xac>
   1bc98:	409004bb          	negw	s1,s1
   1bc9c:	0e0000ef          	jal	ra,1bd7c <__errno>
   1bca0:	00952023          	sw	s1,0(a0)
   1bca4:	fff00493          	li	s1,-1
   1bca8:	8681b783          	ld	a5,-1944(gp) # 20898 <heap_end.2510>
   1bcac:	fff00513          	li	a0,-1
   1bcb0:	00f90933          	add	s2,s2,a5
   1bcb4:	f9249ee3          	bne	s1,s2,1bc50 <_sbrk+0x54>
   1bcb8:	8691b423          	sd	s1,-1944(gp) # 20898 <heap_end.2510>
   1bcbc:	00078513          	mv	a0,a5
   1bcc0:	f91ff06f          	j	1bc50 <_sbrk+0x54>

000000000001bcc4 <_write>:
   1bcc4:	ff010113          	addi	sp,sp,-16
   1bcc8:	00113423          	sd	ra,8(sp)
   1bccc:	00813023          	sd	s0,0(sp)
   1bcd0:	00000693          	li	a3,0
   1bcd4:	00000713          	li	a4,0
   1bcd8:	00000793          	li	a5,0
   1bcdc:	04000893          	li	a7,64
   1bce0:	00000073          	ecall
   1bce4:	00050413          	mv	s0,a0
   1bce8:	00055a63          	bgez	a0,1bcfc <_write+0x38>
   1bcec:	4080043b          	negw	s0,s0
   1bcf0:	08c000ef          	jal	ra,1bd7c <__errno>
   1bcf4:	00852023          	sw	s0,0(a0)
   1bcf8:	fff00413          	li	s0,-1
   1bcfc:	00040513          	mv	a0,s0
   1bd00:	00813083          	ld	ra,8(sp)
   1bd04:	00013403          	ld	s0,0(sp)
   1bd08:	01010113          	addi	sp,sp,16
   1bd0c:	00008067          	ret

000000000001bd10 <_conv_stat>:
   1bd10:	0005b783          	ld	a5,0(a1)
   1bd14:	00f51023          	sh	a5,0(a0)
   1bd18:	0085b783          	ld	a5,8(a1)
   1bd1c:	00f51123          	sh	a5,2(a0)
   1bd20:	0105a783          	lw	a5,16(a1)
   1bd24:	00f52223          	sw	a5,4(a0)
   1bd28:	0145a783          	lw	a5,20(a1)
   1bd2c:	00f51423          	sh	a5,8(a0)
   1bd30:	0185a783          	lw	a5,24(a1)
   1bd34:	00f51523          	sh	a5,10(a0)
   1bd38:	01c5a783          	lw	a5,28(a1)
   1bd3c:	00f51623          	sh	a5,12(a0)
   1bd40:	0205b783          	ld	a5,32(a1)
   1bd44:	00f51723          	sh	a5,14(a0)
   1bd48:	0305b783          	ld	a5,48(a1)
   1bd4c:	00f53823          	sd	a5,16(a0)
   1bd50:	0405b783          	ld	a5,64(a1)
   1bd54:	04f53823          	sd	a5,80(a0)
   1bd58:	0385a783          	lw	a5,56(a1)
   1bd5c:	04f53423          	sd	a5,72(a0)
   1bd60:	0485b783          	ld	a5,72(a1)
   1bd64:	00f53c23          	sd	a5,24(a0)
   1bd68:	0585b783          	ld	a5,88(a1)
   1bd6c:	02f53423          	sd	a5,40(a0)
   1bd70:	0685b783          	ld	a5,104(a1)
   1bd74:	02f53c23          	sd	a5,56(a0)
   1bd78:	00008067          	ret

000000000001bd7c <__errno>:
   1bd7c:	8301b503          	ld	a0,-2000(gp) # 20860 <_impure_ptr>
   1bd80:	00008067          	ret

000000000001bd84 <__eqtf2>:
   1bd84:	ff010113          	addi	sp,sp,-16
   1bd88:	002027f3          	frrm	a5
   1bd8c:	00008737          	lui	a4,0x8
   1bd90:	0305d893          	srli	a7,a1,0x30
   1bd94:	fff70713          	addi	a4,a4,-1 # 7fff <_start-0x80b1>
   1bd98:	fff00793          	li	a5,-1
   1bd9c:	0107d793          	srli	a5,a5,0x10
   1bda0:	0306d313          	srli	t1,a3,0x30
   1bda4:	00e8f8b3          	and	a7,a7,a4
   1bda8:	00f5f833          	and	a6,a1,a5
   1bdac:	00e37333          	and	t1,t1,a4
   1bdb0:	00f6f7b3          	and	a5,a3,a5
   1bdb4:	03f5d593          	srli	a1,a1,0x3f
   1bdb8:	03f6d693          	srli	a3,a3,0x3f
   1bdbc:	00e89c63          	bne	a7,a4,1bdd4 <__eqtf2+0x50>
   1bdc0:	00a86733          	or	a4,a6,a0
   1bdc4:	02071463          	bnez	a4,1bdec <__eqtf2+0x68>
   1bdc8:	00100713          	li	a4,1
   1bdcc:	09131063          	bne	t1,a7,1be4c <__eqtf2+0xc8>
   1bdd0:	0080006f          	j	1bdd8 <__eqtf2+0x54>
   1bdd4:	04e31c63          	bne	t1,a4,1be2c <__eqtf2+0xa8>
   1bdd8:	00c7e733          	or	a4,a5,a2
   1bddc:	04070863          	beqz	a4,1be2c <__eqtf2+0xa8>
   1bde0:	00008737          	lui	a4,0x8
   1bde4:	fff70713          	addi	a4,a4,-1 # 7fff <_start-0x80b1>
   1bde8:	02e89263          	bne	a7,a4,1be0c <__eqtf2+0x88>
   1bdec:	00a86533          	or	a0,a6,a0
   1bdf0:	00050663          	beqz	a0,1bdfc <__eqtf2+0x78>
   1bdf4:	02f85813          	srli	a6,a6,0x2f
   1bdf8:	06080263          	beqz	a6,1be5c <__eqtf2+0xd8>
   1bdfc:	00008737          	lui	a4,0x8
   1be00:	fff70713          	addi	a4,a4,-1 # 7fff <_start-0x80b1>
   1be04:	00100513          	li	a0,1
   1be08:	00e31e63          	bne	t1,a4,1be24 <__eqtf2+0xa0>
   1be0c:	00c7e633          	or	a2,a5,a2
   1be10:	00100513          	li	a0,1
   1be14:	00060863          	beqz	a2,1be24 <__eqtf2+0xa0>
   1be18:	02f51713          	slli	a4,a0,0x2f
   1be1c:	00e7f7b3          	and	a5,a5,a4
   1be20:	02078e63          	beqz	a5,1be5c <__eqtf2+0xd8>
   1be24:	01010113          	addi	sp,sp,16
   1be28:	00008067          	ret
   1be2c:	00100713          	li	a4,1
   1be30:	00689e63          	bne	a7,t1,1be4c <__eqtf2+0xc8>
   1be34:	00f81c63          	bne	a6,a5,1be4c <__eqtf2+0xc8>
   1be38:	00c51a63          	bne	a0,a2,1be4c <__eqtf2+0xc8>
   1be3c:	00d58c63          	beq	a1,a3,1be54 <__eqtf2+0xd0>
   1be40:	00089663          	bnez	a7,1be4c <__eqtf2+0xc8>
   1be44:	00a86533          	or	a0,a6,a0
   1be48:	00a03733          	snez	a4,a0
   1be4c:	00070513          	mv	a0,a4
   1be50:	fd5ff06f          	j	1be24 <__eqtf2+0xa0>
   1be54:	00000713          	li	a4,0
   1be58:	ff5ff06f          	j	1be4c <__eqtf2+0xc8>
   1be5c:	00186073          	csrsi	fflags,16
   1be60:	00100513          	li	a0,1
   1be64:	fc1ff06f          	j	1be24 <__eqtf2+0xa0>

000000000001be68 <__getf2>:
   1be68:	ff010113          	addi	sp,sp,-16
   1be6c:	002027f3          	frrm	a5
   1be70:	000088b7          	lui	a7,0x8
   1be74:	0305d713          	srli	a4,a1,0x30
   1be78:	fff88893          	addi	a7,a7,-1 # 7fff <_start-0x80b1>
   1be7c:	fff00793          	li	a5,-1
   1be80:	0107d793          	srli	a5,a5,0x10
   1be84:	0306d813          	srli	a6,a3,0x30
   1be88:	01177733          	and	a4,a4,a7
   1be8c:	00f5f333          	and	t1,a1,a5
   1be90:	01187833          	and	a6,a6,a7
   1be94:	00f6f7b3          	and	a5,a3,a5
   1be98:	03f5d593          	srli	a1,a1,0x3f
   1be9c:	03f6d693          	srli	a3,a3,0x3f
   1bea0:	01171c63          	bne	a4,a7,1beb8 <__getf2+0x50>
   1bea4:	00a368b3          	or	a7,t1,a0
   1bea8:	0a088c63          	beqz	a7,1bf60 <__getf2+0xf8>
   1beac:	00186073          	csrsi	fflags,16
   1beb0:	ffe00793          	li	a5,-2
   1beb4:	0500006f          	j	1bf04 <__getf2+0x9c>
   1beb8:	01181e63          	bne	a6,a7,1bed4 <__getf2+0x6c>
   1bebc:	00c7e8b3          	or	a7,a5,a2
   1bec0:	fe0896e3          	bnez	a7,1beac <__getf2+0x44>
   1bec4:	02071663          	bnez	a4,1bef0 <__getf2+0x88>
   1bec8:	00a368b3          	or	a7,t1,a0
   1becc:	0018b893          	seqz	a7,a7
   1bed0:	01c0006f          	j	1beec <__getf2+0x84>
   1bed4:	08071863          	bnez	a4,1bf64 <__getf2+0xfc>
   1bed8:	00a368b3          	or	a7,t1,a0
   1bedc:	0018b893          	seqz	a7,a7
   1bee0:	00081663          	bnez	a6,1beec <__getf2+0x84>
   1bee4:	00c7ee33          	or	t3,a5,a2
   1bee8:	060e0663          	beqz	t3,1bf54 <__getf2+0xec>
   1beec:	02089263          	bnez	a7,1bf10 <__getf2+0xa8>
   1bef0:	00d59463          	bne	a1,a3,1bef8 <__getf2+0x90>
   1bef4:	02e85663          	bge	a6,a4,1bf20 <__getf2+0xb8>
   1bef8:	00100793          	li	a5,1
   1befc:	00058463          	beqz	a1,1bf04 <__getf2+0x9c>
   1bf00:	fff00793          	li	a5,-1
   1bf04:	00078513          	mv	a0,a5
   1bf08:	01010113          	addi	sp,sp,16
   1bf0c:	00008067          	ret
   1bf10:	fff00793          	li	a5,-1
   1bf14:	fe0688e3          	beqz	a3,1bf04 <__getf2+0x9c>
   1bf18:	00100793          	li	a5,1
   1bf1c:	fe9ff06f          	j	1bf04 <__getf2+0x9c>
   1bf20:	01075863          	bge	a4,a6,1bf30 <__getf2+0xc8>
   1bf24:	fff00793          	li	a5,-1
   1bf28:	fe0598e3          	bnez	a1,1bf18 <__getf2+0xb0>
   1bf2c:	fd9ff06f          	j	1bf04 <__getf2+0x9c>
   1bf30:	fc67e4e3          	bltu	a5,t1,1bef8 <__getf2+0x90>
   1bf34:	00f31a63          	bne	t1,a5,1bf48 <__getf2+0xe0>
   1bf38:	fca660e3          	bltu	a2,a0,1bef8 <__getf2+0x90>
   1bf3c:	00000793          	li	a5,0
   1bf40:	fcc572e3          	bgeu	a0,a2,1bf04 <__getf2+0x9c>
   1bf44:	fe1ff06f          	j	1bf24 <__getf2+0xbc>
   1bf48:	fcf36ee3          	bltu	t1,a5,1bf24 <__getf2+0xbc>
   1bf4c:	00000793          	li	a5,0
   1bf50:	fb5ff06f          	j	1bf04 <__getf2+0x9c>
   1bf54:	00000793          	li	a5,0
   1bf58:	fa0896e3          	bnez	a7,1bf04 <__getf2+0x9c>
   1bf5c:	f9dff06f          	j	1bef8 <__getf2+0x90>
   1bf60:	f4e80ee3          	beq	a6,a4,1bebc <__getf2+0x54>
   1bf64:	00000893          	li	a7,0
   1bf68:	f6080ee3          	beqz	a6,1bee4 <__getf2+0x7c>
   1bf6c:	f85ff06f          	j	1bef0 <__getf2+0x88>

000000000001bf70 <__letf2>:
   1bf70:	ff010113          	addi	sp,sp,-16
   1bf74:	002027f3          	frrm	a5
   1bf78:	000088b7          	lui	a7,0x8
   1bf7c:	0305d713          	srli	a4,a1,0x30
   1bf80:	fff88893          	addi	a7,a7,-1 # 7fff <_start-0x80b1>
   1bf84:	fff00793          	li	a5,-1
   1bf88:	0107d793          	srli	a5,a5,0x10
   1bf8c:	0306d813          	srli	a6,a3,0x30
   1bf90:	01177733          	and	a4,a4,a7
   1bf94:	00f5f333          	and	t1,a1,a5
   1bf98:	01187833          	and	a6,a6,a7
   1bf9c:	00f6f7b3          	and	a5,a3,a5
   1bfa0:	03f5d593          	srli	a1,a1,0x3f
   1bfa4:	03f6d693          	srli	a3,a3,0x3f
   1bfa8:	01171c63          	bne	a4,a7,1bfc0 <__letf2+0x50>
   1bfac:	00a368b3          	or	a7,t1,a0
   1bfb0:	0a088c63          	beqz	a7,1c068 <__letf2+0xf8>
   1bfb4:	00186073          	csrsi	fflags,16
   1bfb8:	00200793          	li	a5,2
   1bfbc:	0500006f          	j	1c00c <__letf2+0x9c>
   1bfc0:	01181e63          	bne	a6,a7,1bfdc <__letf2+0x6c>
   1bfc4:	00c7e8b3          	or	a7,a5,a2
   1bfc8:	fe0896e3          	bnez	a7,1bfb4 <__letf2+0x44>
   1bfcc:	02071663          	bnez	a4,1bff8 <__letf2+0x88>
   1bfd0:	00a368b3          	or	a7,t1,a0
   1bfd4:	0018b893          	seqz	a7,a7
   1bfd8:	01c0006f          	j	1bff4 <__letf2+0x84>
   1bfdc:	08071863          	bnez	a4,1c06c <__letf2+0xfc>
   1bfe0:	00a368b3          	or	a7,t1,a0
   1bfe4:	0018b893          	seqz	a7,a7
   1bfe8:	00081663          	bnez	a6,1bff4 <__letf2+0x84>
   1bfec:	00c7ee33          	or	t3,a5,a2
   1bff0:	060e0663          	beqz	t3,1c05c <__letf2+0xec>
   1bff4:	02089263          	bnez	a7,1c018 <__letf2+0xa8>
   1bff8:	00d59463          	bne	a1,a3,1c000 <__letf2+0x90>
   1bffc:	02e85663          	bge	a6,a4,1c028 <__letf2+0xb8>
   1c000:	00100793          	li	a5,1
   1c004:	00058463          	beqz	a1,1c00c <__letf2+0x9c>
   1c008:	fff00793          	li	a5,-1
   1c00c:	00078513          	mv	a0,a5
   1c010:	01010113          	addi	sp,sp,16
   1c014:	00008067          	ret
   1c018:	fff00793          	li	a5,-1
   1c01c:	fe0688e3          	beqz	a3,1c00c <__letf2+0x9c>
   1c020:	00100793          	li	a5,1
   1c024:	fe9ff06f          	j	1c00c <__letf2+0x9c>
   1c028:	01075863          	bge	a4,a6,1c038 <__letf2+0xc8>
   1c02c:	fff00793          	li	a5,-1
   1c030:	fe0598e3          	bnez	a1,1c020 <__letf2+0xb0>
   1c034:	fd9ff06f          	j	1c00c <__letf2+0x9c>
   1c038:	fc67e4e3          	bltu	a5,t1,1c000 <__letf2+0x90>
   1c03c:	00f31a63          	bne	t1,a5,1c050 <__letf2+0xe0>
   1c040:	fca660e3          	bltu	a2,a0,1c000 <__letf2+0x90>
   1c044:	00000793          	li	a5,0
   1c048:	fcc572e3          	bgeu	a0,a2,1c00c <__letf2+0x9c>
   1c04c:	fe1ff06f          	j	1c02c <__letf2+0xbc>
   1c050:	fcf36ee3          	bltu	t1,a5,1c02c <__letf2+0xbc>
   1c054:	00000793          	li	a5,0
   1c058:	fb5ff06f          	j	1c00c <__letf2+0x9c>
   1c05c:	00000793          	li	a5,0
   1c060:	fa0896e3          	bnez	a7,1c00c <__letf2+0x9c>
   1c064:	f9dff06f          	j	1c000 <__letf2+0x90>
   1c068:	f4e80ee3          	beq	a6,a4,1bfc4 <__letf2+0x54>
   1c06c:	00000893          	li	a7,0
   1c070:	f6080ee3          	beqz	a6,1bfec <__letf2+0x7c>
   1c074:	f85ff06f          	j	1bff8 <__letf2+0x88>

000000000001c078 <__multf3>:
   1c078:	f9010113          	addi	sp,sp,-112
   1c07c:	03613823          	sd	s6,48(sp)
   1c080:	01913c23          	sd	s9,24(sp)
   1c084:	06113423          	sd	ra,104(sp)
   1c088:	06813023          	sd	s0,96(sp)
   1c08c:	04913c23          	sd	s1,88(sp)
   1c090:	05213823          	sd	s2,80(sp)
   1c094:	05313423          	sd	s3,72(sp)
   1c098:	05413023          	sd	s4,64(sp)
   1c09c:	03513c23          	sd	s5,56(sp)
   1c0a0:	03713423          	sd	s7,40(sp)
   1c0a4:	03813023          	sd	s8,32(sp)
   1c0a8:	00060c93          	mv	s9,a2
   1c0ac:	00068b13          	mv	s6,a3
   1c0b0:	00202af3          	frrm	s5
   1c0b4:	fff00793          	li	a5,-1
   1c0b8:	0107d793          	srli	a5,a5,0x10
   1c0bc:	00f5f933          	and	s2,a1,a5
   1c0c0:	000087b7          	lui	a5,0x8
   1c0c4:	0305da13          	srli	s4,a1,0x30
   1c0c8:	fff78793          	addi	a5,a5,-1 # 7fff <_start-0x80b1>
   1c0cc:	00fa76b3          	and	a3,s4,a5
   1c0d0:	00068a1b          	sext.w	s4,a3
   1c0d4:	000a8a9b          	sext.w	s5,s5
   1c0d8:	03f5db93          	srli	s7,a1,0x3f
   1c0dc:	040a0063          	beqz	s4,1c11c <__multf3+0xa4>
   1c0e0:	00050413          	mv	s0,a0
   1c0e4:	0afa0863          	beq	s4,a5,1c194 <__multf3+0x11c>
   1c0e8:	00100593          	li	a1,1
   1c0ec:	03d55613          	srli	a2,a0,0x3d
   1c0f0:	03359593          	slli	a1,a1,0x33
   1c0f4:	ffffca37          	lui	s4,0xffffc
   1c0f8:	00391793          	slli	a5,s2,0x3
   1c0fc:	00b66633          	or	a2,a2,a1
   1c100:	001a0a13          	addi	s4,s4,1 # ffffffffffffc001 <__global_pointer$+0xfffffffffffdafd1>
   1c104:	00f66933          	or	s2,a2,a5
   1c108:	00351413          	slli	s0,a0,0x3
   1c10c:	01468a33          	add	s4,a3,s4
   1c110:	00000c13          	li	s8,0
   1c114:	00000493          	li	s1,0
   1c118:	0940006f          	j	1c1ac <__multf3+0x134>
   1c11c:	00a967b3          	or	a5,s2,a0
   1c120:	00050493          	mv	s1,a0
   1c124:	12078063          	beqz	a5,1c244 <__multf3+0x1cc>
   1c128:	04090663          	beqz	s2,1c174 <__multf3+0xfc>
   1c12c:	00090513          	mv	a0,s2
   1c130:	0a1010ef          	jal	ra,1d9d0 <__clzdi2>
   1c134:	0005051b          	sext.w	a0,a0
   1c138:	ff150793          	addi	a5,a0,-15
   1c13c:	03c00713          	li	a4,60
   1c140:	0007861b          	sext.w	a2,a5
   1c144:	04f74063          	blt	a4,a5,1c184 <__multf3+0x10c>
   1c148:	03d00593          	li	a1,61
   1c14c:	0036041b          	addiw	s0,a2,3
   1c150:	40c5863b          	subw	a2,a1,a2
   1c154:	008917b3          	sll	a5,s2,s0
   1c158:	00c4d633          	srl	a2,s1,a2
   1c15c:	00f66933          	or	s2,a2,a5
   1c160:	00849433          	sll	s0,s1,s0
   1c164:	ffffca37          	lui	s4,0xffffc
   1c168:	011a0a13          	addi	s4,s4,17 # ffffffffffffc011 <__global_pointer$+0xfffffffffffdafe1>
   1c16c:	40aa0a33          	sub	s4,s4,a0
   1c170:	fa1ff06f          	j	1c110 <__multf3+0x98>
   1c174:	05d010ef          	jal	ra,1d9d0 <__clzdi2>
   1c178:	0005051b          	sext.w	a0,a0
   1c17c:	04050513          	addi	a0,a0,64
   1c180:	fb9ff06f          	j	1c138 <__multf3+0xc0>
   1c184:	fc36079b          	addiw	a5,a2,-61
   1c188:	00f49933          	sll	s2,s1,a5
   1c18c:	00000413          	li	s0,0
   1c190:	fd5ff06f          	j	1c164 <__multf3+0xec>
   1c194:	00a967b3          	or	a5,s2,a0
   1c198:	0c078063          	beqz	a5,1c258 <__multf3+0x1e0>
   1c19c:	01091793          	slli	a5,s2,0x10
   1c1a0:	00300c13          	li	s8,3
   1c1a4:	01000493          	li	s1,16
   1c1a8:	f607c6e3          	bltz	a5,1c114 <__multf3+0x9c>
   1c1ac:	00008637          	lui	a2,0x8
   1c1b0:	030b5513          	srli	a0,s6,0x30
   1c1b4:	fff60613          	addi	a2,a2,-1 # 7fff <_start-0x80b1>
   1c1b8:	fff00993          	li	s3,-1
   1c1bc:	00c577b3          	and	a5,a0,a2
   1c1c0:	01613423          	sd	s6,8(sp)
   1c1c4:	0109d993          	srli	s3,s3,0x10
   1c1c8:	0007851b          	sext.w	a0,a5
   1c1cc:	013b79b3          	and	s3,s6,s3
   1c1d0:	000c8713          	mv	a4,s9
   1c1d4:	03fb5b13          	srli	s6,s6,0x3f
   1c1d8:	08050863          	beqz	a0,1c268 <__multf3+0x1f0>
   1c1dc:	10c50263          	beq	a0,a2,1c2e0 <__multf3+0x268>
   1c1e0:	00100613          	li	a2,1
   1c1e4:	03dcd693          	srli	a3,s9,0x3d
   1c1e8:	03361613          	slli	a2,a2,0x33
   1c1ec:	ffffc537          	lui	a0,0xffffc
   1c1f0:	00399993          	slli	s3,s3,0x3
   1c1f4:	00c6e6b3          	or	a3,a3,a2
   1c1f8:	00150513          	addi	a0,a0,1 # ffffffffffffc001 <__global_pointer$+0xfffffffffffdafd1>
   1c1fc:	0136e9b3          	or	s3,a3,s3
   1c200:	003c9713          	slli	a4,s9,0x3
   1c204:	00a78533          	add	a0,a5,a0
   1c208:	00000693          	li	a3,0
   1c20c:	002c1793          	slli	a5,s8,0x2
   1c210:	00d7e7b3          	or	a5,a5,a3
   1c214:	01450a33          	add	s4,a0,s4
   1c218:	fff78793          	addi	a5,a5,-1
   1c21c:	00e00613          	li	a2,14
   1c220:	016bc833          	xor	a6,s7,s6
   1c224:	001a0893          	addi	a7,s4,1
   1c228:	12f66a63          	bltu	a2,a5,1c35c <__multf3+0x2e4>
   1c22c:	0001e637          	lui	a2,0x1e
   1c230:	00279793          	slli	a5,a5,0x2
   1c234:	5dc60613          	addi	a2,a2,1500 # 1e5dc <_ctype_+0x104>
   1c238:	00c787b3          	add	a5,a5,a2
   1c23c:	0007a783          	lw	a5,0(a5)
   1c240:	00078067          	jr	a5
   1c244:	00000913          	li	s2,0
   1c248:	00000413          	li	s0,0
   1c24c:	00000a13          	li	s4,0
   1c250:	00100c13          	li	s8,1
   1c254:	ec1ff06f          	j	1c114 <__multf3+0x9c>
   1c258:	00000913          	li	s2,0
   1c25c:	00000413          	li	s0,0
   1c260:	00200c13          	li	s8,2
   1c264:	eb1ff06f          	j	1c114 <__multf3+0x9c>
   1c268:	0199e7b3          	or	a5,s3,s9
   1c26c:	08078863          	beqz	a5,1c2fc <__multf3+0x284>
   1c270:	04098663          	beqz	s3,1c2bc <__multf3+0x244>
   1c274:	00098513          	mv	a0,s3
   1c278:	758010ef          	jal	ra,1d9d0 <__clzdi2>
   1c27c:	0005051b          	sext.w	a0,a0
   1c280:	ff150713          	addi	a4,a0,-15
   1c284:	03c00693          	li	a3,60
   1c288:	0007079b          	sext.w	a5,a4
   1c28c:	04e6c263          	blt	a3,a4,1c2d0 <__multf3+0x258>
   1c290:	03d00693          	li	a3,61
   1c294:	0037871b          	addiw	a4,a5,3
   1c298:	40f687bb          	subw	a5,a3,a5
   1c29c:	00e999b3          	sll	s3,s3,a4
   1c2a0:	00fcd7b3          	srl	a5,s9,a5
   1c2a4:	0137e9b3          	or	s3,a5,s3
   1c2a8:	00ec9733          	sll	a4,s9,a4
   1c2ac:	ffffc7b7          	lui	a5,0xffffc
   1c2b0:	01178793          	addi	a5,a5,17 # ffffffffffffc011 <__global_pointer$+0xfffffffffffdafe1>
   1c2b4:	40a78533          	sub	a0,a5,a0
   1c2b8:	f51ff06f          	j	1c208 <__multf3+0x190>
   1c2bc:	000c8513          	mv	a0,s9
   1c2c0:	710010ef          	jal	ra,1d9d0 <__clzdi2>
   1c2c4:	0005051b          	sext.w	a0,a0
   1c2c8:	04050513          	addi	a0,a0,64
   1c2cc:	fb5ff06f          	j	1c280 <__multf3+0x208>
   1c2d0:	fc37899b          	addiw	s3,a5,-61
   1c2d4:	013c99b3          	sll	s3,s9,s3
   1c2d8:	00000713          	li	a4,0
   1c2dc:	fd1ff06f          	j	1c2ac <__multf3+0x234>
   1c2e0:	0199e7b3          	or	a5,s3,s9
   1c2e4:	02078663          	beqz	a5,1c310 <__multf3+0x298>
   1c2e8:	01099793          	slli	a5,s3,0x10
   1c2ec:	00300693          	li	a3,3
   1c2f0:	f007cee3          	bltz	a5,1c20c <__multf3+0x194>
   1c2f4:	01000493          	li	s1,16
   1c2f8:	f15ff06f          	j	1c20c <__multf3+0x194>
   1c2fc:	00000993          	li	s3,0
   1c300:	00000713          	li	a4,0
   1c304:	00000513          	li	a0,0
   1c308:	00100693          	li	a3,1
   1c30c:	f01ff06f          	j	1c20c <__multf3+0x194>
   1c310:	00000993          	li	s3,0
   1c314:	00000713          	li	a4,0
   1c318:	00200693          	li	a3,2
   1c31c:	ef1ff06f          	j	1c20c <__multf3+0x194>
   1c320:	00100793          	li	a5,1
   1c324:	02f79913          	slli	s2,a5,0x2f
   1c328:	00000413          	li	s0,0
   1c32c:	00000813          	li	a6,0
   1c330:	00300c13          	li	s8,3
   1c334:	00200793          	li	a5,2
   1c338:	5cfc0663          	beq	s8,a5,1c904 <__multf3+0x88c>
   1c33c:	00300793          	li	a5,3
   1c340:	58fc0463          	beq	s8,a5,1c8c8 <__multf3+0x850>
   1c344:	00100793          	li	a5,1
   1c348:	22fc1a63          	bne	s8,a5,1c57c <__multf3+0x504>
   1c34c:	00000713          	li	a4,0
   1c350:	00000513          	li	a0,0
   1c354:	00000793          	li	a5,0
   1c358:	2e40006f          	j	1c63c <__multf3+0x5c4>
   1c35c:	fff00793          	li	a5,-1
   1c360:	0207d793          	srli	a5,a5,0x20
   1c364:	00890333          	add	t1,s2,s0
   1c368:	01370e33          	add	t3,a4,s3
   1c36c:	02045e93          	srli	t4,s0,0x20
   1c370:	02075693          	srli	a3,a4,0x20
   1c374:	00833f33          	sltu	t5,t1,s0
   1c378:	00ee3fb3          	sltu	t6,t3,a4
   1c37c:	00f47433          	and	s0,s0,a5
   1c380:	00f77733          	and	a4,a4,a5
   1c384:	028705b3          	mul	a1,a4,s0
   1c388:	000f029b          	sext.w	t0,t5
   1c38c:	000f839b          	sext.w	t2,t6
   1c390:	02ee8733          	mul	a4,t4,a4
   1c394:	02de87b3          	mul	a5,t4,a3
   1c398:	028686b3          	mul	a3,a3,s0
   1c39c:	0205d413          	srli	s0,a1,0x20
   1c3a0:	00e686b3          	add	a3,a3,a4
   1c3a4:	00d40433          	add	s0,s0,a3
   1c3a8:	00e47863          	bgeu	s0,a4,1c3b8 <__multf3+0x340>
   1c3ac:	00100713          	li	a4,1
   1c3b0:	02071713          	slli	a4,a4,0x20
   1c3b4:	00e787b3          	add	a5,a5,a4
   1c3b8:	fff00713          	li	a4,-1
   1c3bc:	02075713          	srli	a4,a4,0x20
   1c3c0:	02045e93          	srli	t4,s0,0x20
   1c3c4:	00e47633          	and	a2,s0,a4
   1c3c8:	00e5f5b3          	and	a1,a1,a4
   1c3cc:	02035513          	srli	a0,t1,0x20
   1c3d0:	020e5693          	srli	a3,t3,0x20
   1c3d4:	00fe8eb3          	add	t4,t4,a5
   1c3d8:	00e377b3          	and	a5,t1,a4
   1c3dc:	00ee7733          	and	a4,t3,a4
   1c3e0:	02e78433          	mul	s0,a5,a4
   1c3e4:	02061613          	slli	a2,a2,0x20
   1c3e8:	00b60633          	add	a2,a2,a1
   1c3ec:	02e50733          	mul	a4,a0,a4
   1c3f0:	02d50bb3          	mul	s7,a0,a3
   1c3f4:	02f686b3          	mul	a3,a3,a5
   1c3f8:	02045793          	srli	a5,s0,0x20
   1c3fc:	00e686b3          	add	a3,a3,a4
   1c400:	00d787b3          	add	a5,a5,a3
   1c404:	00e7f863          	bgeu	a5,a4,1c414 <__multf3+0x39c>
   1c408:	00100713          	li	a4,1
   1c40c:	02071713          	slli	a4,a4,0x20
   1c410:	00eb8bb3          	add	s7,s7,a4
   1c414:	fff00513          	li	a0,-1
   1c418:	02055513          	srli	a0,a0,0x20
   1c41c:	0207db13          	srli	s6,a5,0x20
   1c420:	00a7f7b3          	and	a5,a5,a0
   1c424:	02079793          	slli	a5,a5,0x20
   1c428:	00a47433          	and	s0,s0,a0
   1c42c:	02095693          	srli	a3,s2,0x20
   1c430:	0209d593          	srli	a1,s3,0x20
   1c434:	00878433          	add	s0,a5,s0
   1c438:	00a9f9b3          	and	s3,s3,a0
   1c43c:	00a977b3          	and	a5,s2,a0
   1c440:	03378533          	mul	a0,a5,s3
   1c444:	033689b3          	mul	s3,a3,s3
   1c448:	02055913          	srli	s2,a0,0x20
   1c44c:	02b686b3          	mul	a3,a3,a1
   1c450:	02f585b3          	mul	a1,a1,a5
   1c454:	013585b3          	add	a1,a1,s3
   1c458:	00b90933          	add	s2,s2,a1
   1c45c:	01397863          	bgeu	s2,s3,1c46c <__multf3+0x3f4>
   1c460:	00100793          	li	a5,1
   1c464:	02079793          	slli	a5,a5,0x20
   1c468:	00f686b3          	add	a3,a3,a5
   1c46c:	fff00713          	li	a4,-1
   1c470:	02095793          	srli	a5,s2,0x20
   1c474:	02075713          	srli	a4,a4,0x20
   1c478:	00e57533          	and	a0,a0,a4
   1c47c:	00d786b3          	add	a3,a5,a3
   1c480:	00e977b3          	and	a5,s2,a4
   1c484:	01d40733          	add	a4,s0,t4
   1c488:	01d735b3          	sltu	a1,a4,t4
   1c48c:	02079793          	slli	a5,a5,0x20
   1c490:	00a787b3          	add	a5,a5,a0
   1c494:	407003bb          	negw	t2,t2
   1c498:	00bb0533          	add	a0,s6,a1
   1c49c:	01750533          	add	a0,a0,s7
   1c4a0:	405002bb          	negw	t0,t0
   1c4a4:	00737333          	and	t1,t1,t2
   1c4a8:	00a30333          	add	t1,t1,a0
   1c4ac:	005e7e33          	and	t3,t3,t0
   1c4b0:	00b535b3          	sltu	a1,a0,a1
   1c4b4:	01ff7f33          	and	t5,t5,t6
   1c4b8:	006e0e33          	add	t3,t3,t1
   1c4bc:	00a33533          	sltu	a0,t1,a0
   1c4c0:	01e585b3          	add	a1,a1,t5
   1c4c4:	00a585b3          	add	a1,a1,a0
   1c4c8:	006e3333          	sltu	t1,t3,t1
   1c4cc:	40c70f33          	sub	t5,a4,a2
   1c4d0:	41de0533          	sub	a0,t3,t4
   1c4d4:	006585b3          	add	a1,a1,t1
   1c4d8:	01e73333          	sltu	t1,a4,t5
   1c4dc:	00ae3933          	sltu	s2,t3,a0
   1c4e0:	00000293          	li	t0,0
   1c4e4:	40650533          	sub	a0,a0,t1
   1c4e8:	01e77663          	bgeu	a4,t5,1c4f4 <__multf3+0x47c>
   1c4ec:	41ce8e33          	sub	t3,t4,t3
   1c4f0:	001e3293          	seqz	t0,t3
   1c4f4:	40ff0333          	sub	t1,t5,a5
   1c4f8:	00d585b3          	add	a1,a1,a3
   1c4fc:	006f3433          	sltu	s0,t5,t1
   1c500:	40d506b3          	sub	a3,a0,a3
   1c504:	0122ee33          	or	t3,t0,s2
   1c508:	00d53533          	sltu	a0,a0,a3
   1c50c:	40878433          	sub	s0,a5,s0
   1c510:	00000913          	li	s2,0
   1c514:	006f7463          	bgeu	t5,t1,1c51c <__multf3+0x4a4>
   1c518:	0016b913          	seqz	s2,a3
   1c51c:	008686b3          	add	a3,a3,s0
   1c520:	00f6b7b3          	sltu	a5,a3,a5
   1c524:	00b787b3          	add	a5,a5,a1
   1c528:	00a96533          	or	a0,s2,a0
   1c52c:	41c787b3          	sub	a5,a5,t3
   1c530:	40a787b3          	sub	a5,a5,a0
   1c534:	00d31413          	slli	s0,t1,0xd
   1c538:	00d79793          	slli	a5,a5,0xd
   1c53c:	0336d713          	srli	a4,a3,0x33
   1c540:	00c46433          	or	s0,s0,a2
   1c544:	00e7e933          	or	s2,a5,a4
   1c548:	00803433          	snez	s0,s0
   1c54c:	03335513          	srli	a0,t1,0x33
   1c550:	00a46433          	or	s0,s0,a0
   1c554:	00d69693          	slli	a3,a3,0xd
   1c558:	00b91793          	slli	a5,s2,0xb
   1c55c:	00d46433          	or	s0,s0,a3
   1c560:	0807d463          	bgez	a5,1c5e8 <__multf3+0x570>
   1c564:	00145793          	srli	a5,s0,0x1
   1c568:	00147413          	andi	s0,s0,1
   1c56c:	03f91513          	slli	a0,s2,0x3f
   1c570:	0087e433          	or	s0,a5,s0
   1c574:	00a46433          	or	s0,s0,a0
   1c578:	00195913          	srli	s2,s2,0x1
   1c57c:	000047b7          	lui	a5,0x4
   1c580:	fff78793          	addi	a5,a5,-1 # 3fff <_start-0xc0b1>
   1c584:	00f887b3          	add	a5,a7,a5
   1c588:	18f05463          	blez	a5,1c710 <__multf3+0x698>
   1c58c:	00747713          	andi	a4,s0,7
   1c590:	06070863          	beqz	a4,1c600 <__multf3+0x588>
   1c594:	00200713          	li	a4,2
   1c598:	0014e493          	ori	s1,s1,1
   1c59c:	06ea8063          	beq	s5,a4,1c5fc <__multf3+0x584>
   1c5a0:	00300713          	li	a4,3
   1c5a4:	04ea8663          	beq	s5,a4,1c5f0 <__multf3+0x578>
   1c5a8:	040a9c63          	bnez	s5,1c600 <__multf3+0x588>
   1c5ac:	00f47713          	andi	a4,s0,15
   1c5b0:	00400693          	li	a3,4
   1c5b4:	04d70663          	beq	a4,a3,1c600 <__multf3+0x588>
   1c5b8:	00440713          	addi	a4,s0,4
   1c5bc:	00873433          	sltu	s0,a4,s0
   1c5c0:	00890933          	add	s2,s2,s0
   1c5c4:	00070413          	mv	s0,a4
   1c5c8:	0380006f          	j	1c600 <__multf3+0x588>
   1c5cc:	000b8813          	mv	a6,s7
   1c5d0:	d65ff06f          	j	1c334 <__multf3+0x2bc>
   1c5d4:	000b0813          	mv	a6,s6
   1c5d8:	00098913          	mv	s2,s3
   1c5dc:	00070413          	mv	s0,a4
   1c5e0:	00068c13          	mv	s8,a3
   1c5e4:	d51ff06f          	j	1c334 <__multf3+0x2bc>
   1c5e8:	000a0893          	mv	a7,s4
   1c5ec:	f91ff06f          	j	1c57c <__multf3+0x504>
   1c5f0:	00081863          	bnez	a6,1c600 <__multf3+0x588>
   1c5f4:	00840713          	addi	a4,s0,8
   1c5f8:	fc5ff06f          	j	1c5bc <__multf3+0x544>
   1c5fc:	fe081ce3          	bnez	a6,1c5f4 <__multf3+0x57c>
   1c600:	00b91713          	slli	a4,s2,0xb
   1c604:	00075e63          	bgez	a4,1c620 <__multf3+0x5a8>
   1c608:	fff00793          	li	a5,-1
   1c60c:	03479793          	slli	a5,a5,0x34
   1c610:	fff78793          	addi	a5,a5,-1
   1c614:	00f97933          	and	s2,s2,a5
   1c618:	000047b7          	lui	a5,0x4
   1c61c:	00f887b3          	add	a5,a7,a5
   1c620:	00008737          	lui	a4,0x8
   1c624:	ffe70693          	addi	a3,a4,-2 # 7ffe <_start-0x80b2>
   1c628:	0af6c063          	blt	a3,a5,1c6c8 <__multf3+0x650>
   1c62c:	00345413          	srli	s0,s0,0x3
   1c630:	03d91513          	slli	a0,s2,0x3d
   1c634:	00856533          	or	a0,a0,s0
   1c638:	00395713          	srli	a4,s2,0x3
   1c63c:	fff00693          	li	a3,-1
   1c640:	00813583          	ld	a1,8(sp)
   1c644:	0106d613          	srli	a2,a3,0x10
   1c648:	00c77733          	and	a4,a4,a2
   1c64c:	03069613          	slli	a2,a3,0x30
   1c650:	00c5f5b3          	and	a1,a1,a2
   1c654:	00e5e733          	or	a4,a1,a4
   1c658:	00008637          	lui	a2,0x8
   1c65c:	f80015b7          	lui	a1,0xf8001
   1c660:	fff60613          	addi	a2,a2,-1 # 7fff <_start-0x80b1>
   1c664:	02459593          	slli	a1,a1,0x24
   1c668:	00c7f7b3          	and	a5,a5,a2
   1c66c:	fff58593          	addi	a1,a1,-1 # fffffffff8000fff <__global_pointer$+0xfffffffff7fdffcf>
   1c670:	00b775b3          	and	a1,a4,a1
   1c674:	03079793          	slli	a5,a5,0x30
   1c678:	00f5e7b3          	or	a5,a1,a5
   1c67c:	0016d593          	srli	a1,a3,0x1
   1c680:	03f81813          	slli	a6,a6,0x3f
   1c684:	00b7f5b3          	and	a1,a5,a1
   1c688:	0105e5b3          	or	a1,a1,a6
   1c68c:	00048463          	beqz	s1,1c694 <__multf3+0x61c>
   1c690:	0014a073          	csrs	fflags,s1
   1c694:	06813083          	ld	ra,104(sp)
   1c698:	06013403          	ld	s0,96(sp)
   1c69c:	05813483          	ld	s1,88(sp)
   1c6a0:	05013903          	ld	s2,80(sp)
   1c6a4:	04813983          	ld	s3,72(sp)
   1c6a8:	04013a03          	ld	s4,64(sp)
   1c6ac:	03813a83          	ld	s5,56(sp)
   1c6b0:	03013b03          	ld	s6,48(sp)
   1c6b4:	02813b83          	ld	s7,40(sp)
   1c6b8:	02013c03          	ld	s8,32(sp)
   1c6bc:	01813c83          	ld	s9,24(sp)
   1c6c0:	07010113          	addi	sp,sp,112
   1c6c4:	00008067          	ret
   1c6c8:	00200793          	li	a5,2
   1c6cc:	02fa8a63          	beq	s5,a5,1c700 <__multf3+0x688>
   1c6d0:	00300613          	li	a2,3
   1c6d4:	fff70793          	addi	a5,a4,-1
   1c6d8:	00ca8863          	beq	s5,a2,1c6e8 <__multf3+0x670>
   1c6dc:	000a9863          	bnez	s5,1c6ec <__multf3+0x674>
   1c6e0:	00000513          	li	a0,0
   1c6e4:	0100006f          	j	1c6f4 <__multf3+0x67c>
   1c6e8:	fe080ce3          	beqz	a6,1c6e0 <__multf3+0x668>
   1c6ec:	fff00513          	li	a0,-1
   1c6f0:	00068793          	mv	a5,a3
   1c6f4:	0054e493          	ori	s1,s1,5
   1c6f8:	00050713          	mv	a4,a0
   1c6fc:	f41ff06f          	j	1c63c <__multf3+0x5c4>
   1c700:	fe0806e3          	beqz	a6,1c6ec <__multf3+0x674>
   1c704:	00000513          	li	a0,0
   1c708:	fff70793          	addi	a5,a4,-1
   1c70c:	fe9ff06f          	j	1c6f4 <__multf3+0x67c>
   1c710:	00100593          	li	a1,1
   1c714:	06079063          	bnez	a5,1c774 <__multf3+0x6fc>
   1c718:	00747713          	andi	a4,s0,7
   1c71c:	00090693          	mv	a3,s2
   1c720:	04070463          	beqz	a4,1c768 <__multf3+0x6f0>
   1c724:	00200713          	li	a4,2
   1c728:	0014e493          	ori	s1,s1,1
   1c72c:	02ea8c63          	beq	s5,a4,1c764 <__multf3+0x6ec>
   1c730:	00300713          	li	a4,3
   1c734:	02ea8263          	beq	s5,a4,1c758 <__multf3+0x6e0>
   1c738:	020a9863          	bnez	s5,1c768 <__multf3+0x6f0>
   1c73c:	00f47713          	andi	a4,s0,15
   1c740:	00400613          	li	a2,4
   1c744:	02c70263          	beq	a4,a2,1c768 <__multf3+0x6f0>
   1c748:	ffc43693          	sltiu	a3,s0,-4
   1c74c:	0016c693          	xori	a3,a3,1
   1c750:	00d906b3          	add	a3,s2,a3
   1c754:	0140006f          	j	1c768 <__multf3+0x6f0>
   1c758:	00081863          	bnez	a6,1c768 <__multf3+0x6f0>
   1c75c:	ff843693          	sltiu	a3,s0,-8
   1c760:	fedff06f          	j	1c74c <__multf3+0x6d4>
   1c764:	fe081ce3          	bnez	a6,1c75c <__multf3+0x6e4>
   1c768:	0346d693          	srli	a3,a3,0x34
   1c76c:	0016c693          	xori	a3,a3,1
   1c770:	0016f593          	andi	a1,a3,1
   1c774:	00100713          	li	a4,1
   1c778:	40f70733          	sub	a4,a4,a5
   1c77c:	07400793          	li	a5,116
   1c780:	0ee7cc63          	blt	a5,a4,1c878 <__multf3+0x800>
   1c784:	03f00793          	li	a5,63
   1c788:	0007069b          	sext.w	a3,a4
   1c78c:	06e7c463          	blt	a5,a4,1c7f4 <__multf3+0x77c>
   1c790:	04000513          	li	a0,64
   1c794:	40d5053b          	subw	a0,a0,a3
   1c798:	00d457b3          	srl	a5,s0,a3
   1c79c:	00a91633          	sll	a2,s2,a0
   1c7a0:	00a41433          	sll	s0,s0,a0
   1c7a4:	00f66633          	or	a2,a2,a5
   1c7a8:	00803433          	snez	s0,s0
   1c7ac:	00866433          	or	s0,a2,s0
   1c7b0:	00d957b3          	srl	a5,s2,a3
   1c7b4:	00747713          	andi	a4,s0,7
   1c7b8:	06070e63          	beqz	a4,1c834 <__multf3+0x7bc>
   1c7bc:	00200713          	li	a4,2
   1c7c0:	0014e493          	ori	s1,s1,1
   1c7c4:	06ea8663          	beq	s5,a4,1c830 <__multf3+0x7b8>
   1c7c8:	00300713          	li	a4,3
   1c7cc:	04ea8c63          	beq	s5,a4,1c824 <__multf3+0x7ac>
   1c7d0:	060a9263          	bnez	s5,1c834 <__multf3+0x7bc>
   1c7d4:	00f47713          	andi	a4,s0,15
   1c7d8:	00400693          	li	a3,4
   1c7dc:	04d70c63          	beq	a4,a3,1c834 <__multf3+0x7bc>
   1c7e0:	00440713          	addi	a4,s0,4
   1c7e4:	00873433          	sltu	s0,a4,s0
   1c7e8:	008787b3          	add	a5,a5,s0
   1c7ec:	00070413          	mv	s0,a4
   1c7f0:	0440006f          	j	1c834 <__multf3+0x7bc>
   1c7f4:	04000513          	li	a0,64
   1c7f8:	00d95633          	srl	a2,s2,a3
   1c7fc:	00000793          	li	a5,0
   1c800:	00a70863          	beq	a4,a0,1c810 <__multf3+0x798>
   1c804:	08000793          	li	a5,128
   1c808:	40d787bb          	subw	a5,a5,a3
   1c80c:	00f917b3          	sll	a5,s2,a5
   1c810:	0087e433          	or	s0,a5,s0
   1c814:	00803433          	snez	s0,s0
   1c818:	00866433          	or	s0,a2,s0
   1c81c:	00000793          	li	a5,0
   1c820:	f95ff06f          	j	1c7b4 <__multf3+0x73c>
   1c824:	00081863          	bnez	a6,1c834 <__multf3+0x7bc>
   1c828:	00840713          	addi	a4,s0,8
   1c82c:	fb9ff06f          	j	1c7e4 <__multf3+0x76c>
   1c830:	fe081ce3          	bnez	a6,1c828 <__multf3+0x7b0>
   1c834:	00c79713          	slli	a4,a5,0xc
   1c838:	02075463          	bgez	a4,1c860 <__multf3+0x7e8>
   1c83c:	0014e493          	ori	s1,s1,1
   1c840:	00000713          	li	a4,0
   1c844:	00000513          	li	a0,0
   1c848:	00100793          	li	a5,1
   1c84c:	de0588e3          	beqz	a1,1c63c <__multf3+0x5c4>
   1c850:	0014f693          	andi	a3,s1,1
   1c854:	de0684e3          	beqz	a3,1c63c <__multf3+0x5c4>
   1c858:	0024e493          	ori	s1,s1,2
   1c85c:	de1ff06f          	j	1c63c <__multf3+0x5c4>
   1c860:	03d79513          	slli	a0,a5,0x3d
   1c864:	00345413          	srli	s0,s0,0x3
   1c868:	0037d713          	srli	a4,a5,0x3
   1c86c:	00856533          	or	a0,a0,s0
   1c870:	00000793          	li	a5,0
   1c874:	fd9ff06f          	j	1c84c <__multf3+0x7d4>
   1c878:	01246533          	or	a0,s0,s2
   1c87c:	02050a63          	beqz	a0,1c8b0 <__multf3+0x838>
   1c880:	00200793          	li	a5,2
   1c884:	0014e493          	ori	s1,s1,1
   1c888:	02fa8a63          	beq	s5,a5,1c8bc <__multf3+0x844>
   1c88c:	00300793          	li	a5,3
   1c890:	00fa8a63          	beq	s5,a5,1c8a4 <__multf3+0x82c>
   1c894:	00500413          	li	s0,5
   1c898:	000a8a63          	beqz	s5,1c8ac <__multf3+0x834>
   1c89c:	00100413          	li	s0,1
   1c8a0:	00c0006f          	j	1c8ac <__multf3+0x834>
   1c8a4:	00900413          	li	s0,9
   1c8a8:	fe081ae3          	bnez	a6,1c89c <__multf3+0x824>
   1c8ac:	00345513          	srli	a0,s0,0x3
   1c8b0:	0024e493          	ori	s1,s1,2
   1c8b4:	00000713          	li	a4,0
   1c8b8:	a9dff06f          	j	1c354 <__multf3+0x2dc>
   1c8bc:	00900413          	li	s0,9
   1c8c0:	fe0816e3          	bnez	a6,1c8ac <__multf3+0x834>
   1c8c4:	fd9ff06f          	j	1c89c <__multf3+0x824>
   1c8c8:	00100793          	li	a5,1
   1c8cc:	02f79713          	slli	a4,a5,0x2f
   1c8d0:	000087b7          	lui	a5,0x8
   1c8d4:	00000513          	li	a0,0
   1c8d8:	fff78793          	addi	a5,a5,-1 # 7fff <_start-0x80b1>
   1c8dc:	00000813          	li	a6,0
   1c8e0:	d5dff06f          	j	1c63c <__multf3+0x5c4>
   1c8e4:	00100793          	li	a5,1
   1c8e8:	02f79713          	slli	a4,a5,0x2f
   1c8ec:	000087b7          	lui	a5,0x8
   1c8f0:	00000513          	li	a0,0
   1c8f4:	fff78793          	addi	a5,a5,-1 # 7fff <_start-0x80b1>
   1c8f8:	00000813          	li	a6,0
   1c8fc:	01000493          	li	s1,16
   1c900:	d3dff06f          	j	1c63c <__multf3+0x5c4>
   1c904:	000087b7          	lui	a5,0x8
   1c908:	00000713          	li	a4,0
   1c90c:	00000513          	li	a0,0
   1c910:	fff78793          	addi	a5,a5,-1 # 7fff <_start-0x80b1>
   1c914:	d29ff06f          	j	1c63c <__multf3+0x5c4>

000000000001c918 <__subtf3>:
   1c918:	fc010113          	addi	sp,sp,-64
   1c91c:	02113c23          	sd	ra,56(sp)
   1c920:	02813823          	sd	s0,48(sp)
   1c924:	02913423          	sd	s1,40(sp)
   1c928:	03213023          	sd	s2,32(sp)
   1c92c:	01313c23          	sd	s3,24(sp)
   1c930:	01413823          	sd	s4,16(sp)
   1c934:	00202973          	frrm	s2
   1c938:	fff00393          	li	t2,-1
   1c93c:	0103d393          	srli	t2,t2,0x10
   1c940:	000082b7          	lui	t0,0x8
   1c944:	0305df13          	srli	t5,a1,0x30
   1c948:	fff28293          	addi	t0,t0,-1 # 7fff <_start-0x80b1>
   1c94c:	0306d893          	srli	a7,a3,0x30
   1c950:	03f5d493          	srli	s1,a1,0x3f
   1c954:	00d13423          	sd	a3,8(sp)
   1c958:	0075f5b3          	and	a1,a1,t2
   1c95c:	03f6de93          	srli	t4,a3,0x3f
   1c960:	0076f6b3          	and	a3,a3,t2
   1c964:	03d55713          	srli	a4,a0,0x3d
   1c968:	005f7f33          	and	t5,t5,t0
   1c96c:	00359593          	slli	a1,a1,0x3
   1c970:	00351313          	slli	t1,a0,0x3
   1c974:	0058f8b3          	and	a7,a7,t0
   1c978:	00369693          	slli	a3,a3,0x3
   1c97c:	03d65513          	srli	a0,a2,0x3d
   1c980:	0009091b          	sext.w	s2,s2
   1c984:	000f0993          	mv	s3,t5
   1c988:	00b76e33          	or	t3,a4,a1
   1c98c:	00088f93          	mv	t6,a7
   1c990:	00d566b3          	or	a3,a0,a3
   1c994:	00361793          	slli	a5,a2,0x3
   1c998:	00589663          	bne	a7,t0,1c9a4 <__subtf3+0x8c>
   1c99c:	00f6e733          	or	a4,a3,a5
   1c9a0:	00071463          	bnez	a4,1c9a8 <__subtf3+0x90>
   1c9a4:	001ece93          	xori	t4,t4,1
   1c9a8:	411f073b          	subw	a4,t5,a7
   1c9ac:	000085b7          	lui	a1,0x8
   1c9b0:	0007081b          	sext.w	a6,a4
   1c9b4:	fff58613          	addi	a2,a1,-1 # 7fff <_start-0x80b1>
   1c9b8:	4a9e9a63          	bne	t4,s1,1ce6c <__subtf3+0x554>
   1c9bc:	13005663          	blez	a6,1cae8 <__subtf3+0x1d0>
   1c9c0:	0a089263          	bnez	a7,1ca64 <__subtf3+0x14c>
   1c9c4:	00f6e5b3          	or	a1,a3,a5
   1c9c8:	00059a63          	bnez	a1,1c9dc <__subtf3+0xc4>
   1c9cc:	06cf0e63          	beq	t5,a2,1ca48 <__subtf3+0x130>
   1c9d0:	000e0693          	mv	a3,t3
   1c9d4:	000f0f93          	mv	t6,t5
   1c9d8:	0e10006f          	j	1d2b8 <__subtf3+0x9a0>
   1c9dc:	fff7081b          	addiw	a6,a4,-1
   1c9e0:	06081263          	bnez	a6,1ca44 <__subtf3+0x12c>
   1c9e4:	006787b3          	add	a5,a5,t1
   1c9e8:	0067b333          	sltu	t1,a5,t1
   1c9ec:	01c686b3          	add	a3,a3,t3
   1c9f0:	006686b3          	add	a3,a3,t1
   1c9f4:	000f0f93          	mv	t6,t5
   1c9f8:	00078313          	mv	t1,a5
   1c9fc:	00c69793          	slli	a5,a3,0xc
   1ca00:	0a07dce3          	bgez	a5,1d2b8 <__subtf3+0x9a0>
   1ca04:	00008737          	lui	a4,0x8
   1ca08:	001f8993          	addi	s3,t6,1
   1ca0c:	fff70793          	addi	a5,a4,-1 # 7fff <_start-0x80b1>
   1ca10:	40f98e63          	beq	s3,a5,1ce2c <__subtf3+0x514>
   1ca14:	fff00593          	li	a1,-1
   1ca18:	03359593          	slli	a1,a1,0x33
   1ca1c:	fff58593          	addi	a1,a1,-1
   1ca20:	00135793          	srli	a5,t1,0x1
   1ca24:	00b6f5b3          	and	a1,a3,a1
   1ca28:	00137313          	andi	t1,t1,1
   1ca2c:	03f59693          	slli	a3,a1,0x3f
   1ca30:	0067e333          	or	t1,a5,t1
   1ca34:	0066e7b3          	or	a5,a3,t1
   1ca38:	0015d693          	srli	a3,a1,0x1
   1ca3c:	00000813          	li	a6,0
   1ca40:	3780006f          	j	1cdb8 <__subtf3+0x4a0>
   1ca44:	02cf1863          	bne	t5,a2,1ca74 <__subtf3+0x15c>
   1ca48:	006e67b3          	or	a5,t3,t1
   1ca4c:	0e0782e3          	beqz	a5,1d330 <__subtf3+0xa18>
   1ca50:	00de1793          	slli	a5,t3,0xd
   1ca54:	000e0693          	mv	a3,t3
   1ca58:	0e07d0e3          	bgez	a5,1d338 <__subtf3+0xa20>
   1ca5c:	00030793          	mv	a5,t1
   1ca60:	fddff06f          	j	1ca3c <__subtf3+0x124>
   1ca64:	fecf02e3          	beq	t5,a2,1ca48 <__subtf3+0x130>
   1ca68:	00100713          	li	a4,1
   1ca6c:	03371713          	slli	a4,a4,0x33
   1ca70:	00e6e6b3          	or	a3,a3,a4
   1ca74:	07400713          	li	a4,116
   1ca78:	07074263          	blt	a4,a6,1cadc <__subtf3+0x1c4>
   1ca7c:	03f00713          	li	a4,63
   1ca80:	03074663          	blt	a4,a6,1caac <__subtf3+0x194>
   1ca84:	04000613          	li	a2,64
   1ca88:	4106063b          	subw	a2,a2,a6
   1ca8c:	00c69733          	sll	a4,a3,a2
   1ca90:	0107d5b3          	srl	a1,a5,a6
   1ca94:	00c797b3          	sll	a5,a5,a2
   1ca98:	00b76733          	or	a4,a4,a1
   1ca9c:	00f037b3          	snez	a5,a5
   1caa0:	00f767b3          	or	a5,a4,a5
   1caa4:	0106d6b3          	srl	a3,a3,a6
   1caa8:	f3dff06f          	j	1c9e4 <__subtf3+0xcc>
   1caac:	04000593          	li	a1,64
   1cab0:	0106d733          	srl	a4,a3,a6
   1cab4:	00000613          	li	a2,0
   1cab8:	00b80863          	beq	a6,a1,1cac8 <__subtf3+0x1b0>
   1cabc:	08000613          	li	a2,128
   1cac0:	4106083b          	subw	a6,a2,a6
   1cac4:	01069633          	sll	a2,a3,a6
   1cac8:	00f667b3          	or	a5,a2,a5
   1cacc:	00f037b3          	snez	a5,a5
   1cad0:	00f767b3          	or	a5,a4,a5
   1cad4:	00000693          	li	a3,0
   1cad8:	f0dff06f          	j	1c9e4 <__subtf3+0xcc>
   1cadc:	00f6e6b3          	or	a3,a3,a5
   1cae0:	00d037b3          	snez	a5,a3
   1cae4:	ff1ff06f          	j	1cad4 <__subtf3+0x1bc>
   1cae8:	0e080c63          	beqz	a6,1cbe0 <__subtf3+0x2c8>
   1caec:	0a0f1063          	bnez	t5,1cb8c <__subtf3+0x274>
   1caf0:	006e65b3          	or	a1,t3,t1
   1caf4:	02059663          	bnez	a1,1cb20 <__subtf3+0x208>
   1caf8:	00078313          	mv	t1,a5
   1cafc:	7ac89e63          	bne	a7,a2,1d2b8 <__subtf3+0x9a0>
   1cb00:	00f6e733          	or	a4,a3,a5
   1cb04:	00070ce3          	beqz	a4,1d31c <__subtf3+0xa04>
   1cb08:	00d69713          	slli	a4,a3,0xd
   1cb0c:	00088993          	mv	s3,a7
   1cb10:	00000813          	li	a6,0
   1cb14:	2a074263          	bltz	a4,1cdb8 <__subtf3+0x4a0>
   1cb18:	01000713          	li	a4,16
   1cb1c:	11c0006f          	j	1cc38 <__subtf3+0x320>
   1cb20:	fff00593          	li	a1,-1
   1cb24:	00b81c63          	bne	a6,a1,1cb3c <__subtf3+0x224>
   1cb28:	00f30333          	add	t1,t1,a5
   1cb2c:	00de06b3          	add	a3,t3,a3
   1cb30:	00f337b3          	sltu	a5,t1,a5
   1cb34:	00f686b3          	add	a3,a3,a5
   1cb38:	ec5ff06f          	j	1c9fc <__subtf3+0xe4>
   1cb3c:	fff74713          	not	a4,a4
   1cb40:	fcc880e3          	beq	a7,a2,1cb00 <__subtf3+0x1e8>
   1cb44:	07400613          	li	a2,116
   1cb48:	08e64663          	blt	a2,a4,1cbd4 <__subtf3+0x2bc>
   1cb4c:	03f00613          	li	a2,63
   1cb50:	04e64a63          	blt	a2,a4,1cba4 <__subtf3+0x28c>
   1cb54:	04000513          	li	a0,64
   1cb58:	40e5053b          	subw	a0,a0,a4
   1cb5c:	00e35633          	srl	a2,t1,a4
   1cb60:	00ae1433          	sll	s0,t3,a0
   1cb64:	00a31333          	sll	t1,t1,a0
   1cb68:	00c46433          	or	s0,s0,a2
   1cb6c:	00603333          	snez	t1,t1
   1cb70:	00646333          	or	t1,s0,t1
   1cb74:	00ee5733          	srl	a4,t3,a4
   1cb78:	00f30333          	add	t1,t1,a5
   1cb7c:	00d70733          	add	a4,a4,a3
   1cb80:	00f336b3          	sltu	a3,t1,a5
   1cb84:	00d706b3          	add	a3,a4,a3
   1cb88:	e75ff06f          	j	1c9fc <__subtf3+0xe4>
   1cb8c:	f6c88ae3          	beq	a7,a2,1cb00 <__subtf3+0x1e8>
   1cb90:	00100613          	li	a2,1
   1cb94:	03361613          	slli	a2,a2,0x33
   1cb98:	40e0073b          	negw	a4,a4
   1cb9c:	00ce6e33          	or	t3,t3,a2
   1cba0:	fa5ff06f          	j	1cb44 <__subtf3+0x22c>
   1cba4:	04000613          	li	a2,64
   1cba8:	00ee5433          	srl	s0,t3,a4
   1cbac:	00000513          	li	a0,0
   1cbb0:	00c70863          	beq	a4,a2,1cbc0 <__subtf3+0x2a8>
   1cbb4:	08000513          	li	a0,128
   1cbb8:	40e5073b          	subw	a4,a0,a4
   1cbbc:	00ee1533          	sll	a0,t3,a4
   1cbc0:	00656333          	or	t1,a0,t1
   1cbc4:	00603333          	snez	t1,t1
   1cbc8:	00646333          	or	t1,s0,t1
   1cbcc:	00000713          	li	a4,0
   1cbd0:	fa9ff06f          	j	1cb78 <__subtf3+0x260>
   1cbd4:	006e6733          	or	a4,t3,t1
   1cbd8:	00e03333          	snez	t1,a4
   1cbdc:	ff1ff06f          	j	1cbcc <__subtf3+0x2b4>
   1cbe0:	001f0f93          	addi	t6,t5,1
   1cbe4:	00cff733          	and	a4,t6,a2
   1cbe8:	00100e93          	li	t4,1
   1cbec:	1aeec263          	blt	t4,a4,1cd90 <__subtf3+0x478>
   1cbf0:	006e65b3          	or	a1,t3,t1
   1cbf4:	060f1063          	bnez	t5,1cc54 <__subtf3+0x33c>
   1cbf8:	6c058e63          	beqz	a1,1d2d4 <__subtf3+0x9bc>
   1cbfc:	00f6e733          	or	a4,a3,a5
   1cc00:	6e070263          	beqz	a4,1d2e4 <__subtf3+0x9cc>
   1cc04:	006787b3          	add	a5,a5,t1
   1cc08:	00de06b3          	add	a3,t3,a3
   1cc0c:	0067b333          	sltu	t1,a5,t1
   1cc10:	006686b3          	add	a3,a3,t1
   1cc14:	033e9e93          	slli	t4,t4,0x33
   1cc18:	01d6feb3          	and	t4,a3,t4
   1cc1c:	6a0e8c63          	beqz	t4,1d2d4 <__subtf3+0x9bc>
   1cc20:	fff00713          	li	a4,-1
   1cc24:	03371713          	slli	a4,a4,0x33
   1cc28:	fff70713          	addi	a4,a4,-1
   1cc2c:	00e6f6b3          	and	a3,a3,a4
   1cc30:	00100993          	li	s3,1
   1cc34:	00000713          	li	a4,0
   1cc38:	0077f613          	andi	a2,a5,7
   1cc3c:	1a061263          	bnez	a2,1cde0 <__subtf3+0x4c8>
   1cc40:	06080463          	beqz	a6,1cca8 <__subtf3+0x390>
   1cc44:	00177613          	andi	a2,a4,1
   1cc48:	06060063          	beqz	a2,1cca8 <__subtf3+0x390>
   1cc4c:	00276713          	ori	a4,a4,2
   1cc50:	0580006f          	j	1cca8 <__subtf3+0x390>
   1cc54:	12cf1663          	bne	t5,a2,1cd80 <__subtf3+0x468>
   1cc58:	76058263          	beqz	a1,1d3bc <__subtf3+0xaa4>
   1cc5c:	032e9713          	slli	a4,t4,0x32
   1cc60:	00ee7733          	and	a4,t3,a4
   1cc64:	00173713          	seqz	a4,a4
   1cc68:	00471713          	slli	a4,a4,0x4
   1cc6c:	01e89e63          	bne	a7,t5,1cc88 <__subtf3+0x370>
   1cc70:	00f6e633          	or	a2,a3,a5
   1cc74:	00060863          	beqz	a2,1cc84 <__subtf3+0x36c>
   1cc78:	00d69613          	slli	a2,a3,0xd
   1cc7c:	00064463          	bltz	a2,1cc84 <__subtf3+0x36c>
   1cc80:	01000713          	li	a4,16
   1cc84:	50058a63          	beqz	a1,1d198 <__subtf3+0x880>
   1cc88:	00f6e6b3          	or	a3,a3,a5
   1cc8c:	50068263          	beqz	a3,1d190 <__subtf3+0x878>
   1cc90:	00100693          	li	a3,1
   1cc94:	000089b7          	lui	s3,0x8
   1cc98:	03269693          	slli	a3,a3,0x32
   1cc9c:	00000793          	li	a5,0
   1cca0:	fff98993          	addi	s3,s3,-1 # 7fff <_start-0x80b1>
   1cca4:	00000493          	li	s1,0
   1cca8:	00c69613          	slli	a2,a3,0xc
   1ccac:	02065263          	bgez	a2,1ccd0 <__subtf3+0x3b8>
   1ccb0:	00008637          	lui	a2,0x8
   1ccb4:	00198993          	addi	s3,s3,1
   1ccb8:	fff60593          	addi	a1,a2,-1 # 7fff <_start-0x80b1>
   1ccbc:	6ab98e63          	beq	s3,a1,1d378 <__subtf3+0xa60>
   1ccc0:	fff00613          	li	a2,-1
   1ccc4:	03361613          	slli	a2,a2,0x33
   1ccc8:	fff60613          	addi	a2,a2,-1
   1cccc:	00c6f6b3          	and	a3,a3,a2
   1ccd0:	0037d793          	srli	a5,a5,0x3
   1ccd4:	03d69513          	slli	a0,a3,0x3d
   1ccd8:	00f56533          	or	a0,a0,a5
   1ccdc:	000087b7          	lui	a5,0x8
   1cce0:	fff78793          	addi	a5,a5,-1 # 7fff <_start-0x80b1>
   1cce4:	0036d693          	srli	a3,a3,0x3
   1cce8:	02f99063          	bne	s3,a5,1cd08 <__subtf3+0x3f0>
   1ccec:	00d56533          	or	a0,a0,a3
   1ccf0:	00000693          	li	a3,0
   1ccf4:	00050a63          	beqz	a0,1cd08 <__subtf3+0x3f0>
   1ccf8:	00100693          	li	a3,1
   1ccfc:	02f69693          	slli	a3,a3,0x2f
   1cd00:	00000513          	li	a0,0
   1cd04:	00000493          	li	s1,0
   1cd08:	fff00893          	li	a7,-1
   1cd0c:	0108d813          	srli	a6,a7,0x10
   1cd10:	0106f833          	and	a6,a3,a6
   1cd14:	00813683          	ld	a3,8(sp)
   1cd18:	03089593          	slli	a1,a7,0x30
   1cd1c:	0018d893          	srli	a7,a7,0x1
   1cd20:	00b6f5b3          	and	a1,a3,a1
   1cd24:	0105e6b3          	or	a3,a1,a6
   1cd28:	000085b7          	lui	a1,0x8
   1cd2c:	fff58593          	addi	a1,a1,-1 # 7fff <_start-0x80b1>
   1cd30:	00b9f9b3          	and	s3,s3,a1
   1cd34:	f80015b7          	lui	a1,0xf8001
   1cd38:	02459593          	slli	a1,a1,0x24
   1cd3c:	fff58593          	addi	a1,a1,-1 # fffffffff8000fff <__global_pointer$+0xfffffffff7fdffcf>
   1cd40:	03099993          	slli	s3,s3,0x30
   1cd44:	00b6f5b3          	and	a1,a3,a1
   1cd48:	0135e5b3          	or	a1,a1,s3
   1cd4c:	03f49493          	slli	s1,s1,0x3f
   1cd50:	0115f5b3          	and	a1,a1,a7
   1cd54:	0095e5b3          	or	a1,a1,s1
   1cd58:	00070463          	beqz	a4,1cd60 <__subtf3+0x448>
   1cd5c:	00172073          	csrs	fflags,a4
   1cd60:	03813083          	ld	ra,56(sp)
   1cd64:	03013403          	ld	s0,48(sp)
   1cd68:	02813483          	ld	s1,40(sp)
   1cd6c:	02013903          	ld	s2,32(sp)
   1cd70:	01813983          	ld	s3,24(sp)
   1cd74:	01013a03          	ld	s4,16(sp)
   1cd78:	04010113          	addi	sp,sp,64
   1cd7c:	00008067          	ret
   1cd80:	00000713          	li	a4,0
   1cd84:	f0c890e3          	bne	a7,a2,1cc84 <__subtf3+0x36c>
   1cd88:	00000713          	li	a4,0
   1cd8c:	ee5ff06f          	j	1cc70 <__subtf3+0x358>
   1cd90:	02cf8863          	beq	t6,a2,1cdc0 <__subtf3+0x4a8>
   1cd94:	00f307b3          	add	a5,t1,a5
   1cd98:	00de0733          	add	a4,t3,a3
   1cd9c:	0067b6b3          	sltu	a3,a5,t1
   1cda0:	00d70333          	add	t1,a4,a3
   1cda4:	03f31693          	slli	a3,t1,0x3f
   1cda8:	0017d793          	srli	a5,a5,0x1
   1cdac:	00f6e7b3          	or	a5,a3,a5
   1cdb0:	000f8993          	mv	s3,t6
   1cdb4:	00135693          	srli	a3,t1,0x1
   1cdb8:	00000713          	li	a4,0
   1cdbc:	e7dff06f          	j	1cc38 <__subtf3+0x320>
   1cdc0:	06090263          	beqz	s2,1ce24 <__subtf3+0x50c>
   1cdc4:	00300793          	li	a5,3
   1cdc8:	04f91863          	bne	s2,a5,1ce18 <__subtf3+0x500>
   1cdcc:	04048c63          	beqz	s1,1ce24 <__subtf3+0x50c>
   1cdd0:	fff00693          	li	a3,-1
   1cdd4:	fff00793          	li	a5,-1
   1cdd8:	ffe58993          	addi	s3,a1,-2
   1cddc:	00500713          	li	a4,5
   1cde0:	00200613          	li	a2,2
   1cde4:	00176713          	ori	a4,a4,1
   1cde8:	58c90463          	beq	s2,a2,1d370 <__subtf3+0xa58>
   1cdec:	00300613          	li	a2,3
   1cdf0:	56c90a63          	beq	s2,a2,1d364 <__subtf3+0xa4c>
   1cdf4:	e40916e3          	bnez	s2,1cc40 <__subtf3+0x328>
   1cdf8:	00f7f613          	andi	a2,a5,15
   1cdfc:	00400593          	li	a1,4
   1ce00:	e4b600e3          	beq	a2,a1,1cc40 <__subtf3+0x328>
   1ce04:	00478593          	addi	a1,a5,4
   1ce08:	00f5b7b3          	sltu	a5,a1,a5
   1ce0c:	00f686b3          	add	a3,a3,a5
   1ce10:	00058793          	mv	a5,a1
   1ce14:	e2dff06f          	j	1cc40 <__subtf3+0x328>
   1ce18:	00200793          	li	a5,2
   1ce1c:	faf91ae3          	bne	s2,a5,1cdd0 <__subtf3+0x4b8>
   1ce20:	fa0488e3          	beqz	s1,1cdd0 <__subtf3+0x4b8>
   1ce24:	000f8993          	mv	s3,t6
   1ce28:	0340006f          	j	1ce5c <__subtf3+0x544>
   1ce2c:	02090863          	beqz	s2,1ce5c <__subtf3+0x544>
   1ce30:	00300793          	li	a5,3
   1ce34:	00f91e63          	bne	s2,a5,1ce50 <__subtf3+0x538>
   1ce38:	02048263          	beqz	s1,1ce5c <__subtf3+0x544>
   1ce3c:	fff00693          	li	a3,-1
   1ce40:	fff00793          	li	a5,-1
   1ce44:	ffe70993          	addi	s3,a4,-2
   1ce48:	00000813          	li	a6,0
   1ce4c:	f91ff06f          	j	1cddc <__subtf3+0x4c4>
   1ce50:	00200793          	li	a5,2
   1ce54:	fef914e3          	bne	s2,a5,1ce3c <__subtf3+0x524>
   1ce58:	fe0482e3          	beqz	s1,1ce3c <__subtf3+0x524>
   1ce5c:	00000693          	li	a3,0
   1ce60:	00000793          	li	a5,0
   1ce64:	00500713          	li	a4,5
   1ce68:	e41ff06f          	j	1cca8 <__subtf3+0x390>
   1ce6c:	0d005e63          	blez	a6,1cf48 <__subtf3+0x630>
   1ce70:	08089463          	bnez	a7,1cef8 <__subtf3+0x5e0>
   1ce74:	00f6e5b3          	or	a1,a3,a5
   1ce78:	b4058ae3          	beqz	a1,1c9cc <__subtf3+0xb4>
   1ce7c:	fff7081b          	addiw	a6,a4,-1
   1ce80:	02081e63          	bnez	a6,1cebc <__subtf3+0x5a4>
   1ce84:	40f307b3          	sub	a5,t1,a5
   1ce88:	00f33333          	sltu	t1,t1,a5
   1ce8c:	40de06b3          	sub	a3,t3,a3
   1ce90:	406686b3          	sub	a3,a3,t1
   1ce94:	000f0f93          	mv	t6,t5
   1ce98:	00078313          	mv	t1,a5
   1ce9c:	00c69793          	slli	a5,a3,0xc
   1cea0:	4007dc63          	bgez	a5,1d2b8 <__subtf3+0x9a0>
   1cea4:	fff00413          	li	s0,-1
   1cea8:	00d45413          	srli	s0,s0,0xd
   1ceac:	0086f433          	and	s0,a3,s0
   1ceb0:	00030a13          	mv	s4,t1
   1ceb4:	000f8993          	mv	s3,t6
   1ceb8:	31c0006f          	j	1d1d4 <__subtf3+0x8bc>
   1cebc:	b8cf06e3          	beq	t5,a2,1ca48 <__subtf3+0x130>
   1cec0:	07400713          	li	a4,116
   1cec4:	07074c63          	blt	a4,a6,1cf3c <__subtf3+0x624>
   1cec8:	03f00713          	li	a4,63
   1cecc:	05074063          	blt	a4,a6,1cf0c <__subtf3+0x5f4>
   1ced0:	04000613          	li	a2,64
   1ced4:	4106063b          	subw	a2,a2,a6
   1ced8:	00c69733          	sll	a4,a3,a2
   1cedc:	0107d5b3          	srl	a1,a5,a6
   1cee0:	00c797b3          	sll	a5,a5,a2
   1cee4:	00b76733          	or	a4,a4,a1
   1cee8:	00f037b3          	snez	a5,a5
   1ceec:	00f767b3          	or	a5,a4,a5
   1cef0:	0106d6b3          	srl	a3,a3,a6
   1cef4:	f91ff06f          	j	1ce84 <__subtf3+0x56c>
   1cef8:	b4cf08e3          	beq	t5,a2,1ca48 <__subtf3+0x130>
   1cefc:	00100713          	li	a4,1
   1cf00:	03371713          	slli	a4,a4,0x33
   1cf04:	00e6e6b3          	or	a3,a3,a4
   1cf08:	fb9ff06f          	j	1cec0 <__subtf3+0x5a8>
   1cf0c:	04000593          	li	a1,64
   1cf10:	0106d733          	srl	a4,a3,a6
   1cf14:	00000613          	li	a2,0
   1cf18:	00b80863          	beq	a6,a1,1cf28 <__subtf3+0x610>
   1cf1c:	08000613          	li	a2,128
   1cf20:	4106083b          	subw	a6,a2,a6
   1cf24:	01069633          	sll	a2,a3,a6
   1cf28:	00f667b3          	or	a5,a2,a5
   1cf2c:	00f037b3          	snez	a5,a5
   1cf30:	00f767b3          	or	a5,a4,a5
   1cf34:	00000693          	li	a3,0
   1cf38:	f4dff06f          	j	1ce84 <__subtf3+0x56c>
   1cf3c:	00f6e6b3          	or	a3,a3,a5
   1cf40:	00d037b3          	snez	a5,a3
   1cf44:	ff1ff06f          	j	1cf34 <__subtf3+0x61c>
   1cf48:	0e080863          	beqz	a6,1d038 <__subtf3+0x720>
   1cf4c:	080f1c63          	bnez	t5,1cfe4 <__subtf3+0x6cc>
   1cf50:	006e65b3          	or	a1,t3,t1
   1cf54:	02059063          	bnez	a1,1cf74 <__subtf3+0x65c>
   1cf58:	36c89863          	bne	a7,a2,1d2c8 <__subtf3+0x9b0>
   1cf5c:	00f6e733          	or	a4,a3,a5
   1cf60:	3e070263          	beqz	a4,1d344 <__subtf3+0xa2c>
   1cf64:	00d69713          	slli	a4,a3,0xd
   1cf68:	00088993          	mv	s3,a7
   1cf6c:	000e8493          	mv	s1,t4
   1cf70:	ba1ff06f          	j	1cb10 <__subtf3+0x1f8>
   1cf74:	fff00593          	li	a1,-1
   1cf78:	00b81e63          	bne	a6,a1,1cf94 <__subtf3+0x67c>
   1cf7c:	40678333          	sub	t1,a5,t1
   1cf80:	41c686b3          	sub	a3,a3,t3
   1cf84:	0067b7b3          	sltu	a5,a5,t1
   1cf88:	40f686b3          	sub	a3,a3,a5
   1cf8c:	000e8493          	mv	s1,t4
   1cf90:	f0dff06f          	j	1ce9c <__subtf3+0x584>
   1cf94:	fff74713          	not	a4,a4
   1cf98:	fcc882e3          	beq	a7,a2,1cf5c <__subtf3+0x644>
   1cf9c:	07400613          	li	a2,116
   1cfa0:	08e64663          	blt	a2,a4,1d02c <__subtf3+0x714>
   1cfa4:	03f00613          	li	a2,63
   1cfa8:	04e64a63          	blt	a2,a4,1cffc <__subtf3+0x6e4>
   1cfac:	04000513          	li	a0,64
   1cfb0:	40e5053b          	subw	a0,a0,a4
   1cfb4:	00e35633          	srl	a2,t1,a4
   1cfb8:	00ae1433          	sll	s0,t3,a0
   1cfbc:	00a31333          	sll	t1,t1,a0
   1cfc0:	00c46433          	or	s0,s0,a2
   1cfc4:	00603333          	snez	t1,t1
   1cfc8:	00646333          	or	t1,s0,t1
   1cfcc:	00ee5733          	srl	a4,t3,a4
   1cfd0:	40678333          	sub	t1,a5,t1
   1cfd4:	40e68733          	sub	a4,a3,a4
   1cfd8:	0067b6b3          	sltu	a3,a5,t1
   1cfdc:	40d706b3          	sub	a3,a4,a3
   1cfe0:	fadff06f          	j	1cf8c <__subtf3+0x674>
   1cfe4:	f6c88ce3          	beq	a7,a2,1cf5c <__subtf3+0x644>
   1cfe8:	00100613          	li	a2,1
   1cfec:	03361613          	slli	a2,a2,0x33
   1cff0:	40e0073b          	negw	a4,a4
   1cff4:	00ce6e33          	or	t3,t3,a2
   1cff8:	fa5ff06f          	j	1cf9c <__subtf3+0x684>
   1cffc:	04000613          	li	a2,64
   1d000:	00ee5433          	srl	s0,t3,a4
   1d004:	00000513          	li	a0,0
   1d008:	00c70863          	beq	a4,a2,1d018 <__subtf3+0x700>
   1d00c:	08000513          	li	a0,128
   1d010:	40e5073b          	subw	a4,a0,a4
   1d014:	00ee1533          	sll	a0,t3,a4
   1d018:	00656333          	or	t1,a0,t1
   1d01c:	00603333          	snez	t1,t1
   1d020:	00646333          	or	t1,s0,t1
   1d024:	00000713          	li	a4,0
   1d028:	fa9ff06f          	j	1cfd0 <__subtf3+0x6b8>
   1d02c:	006e6733          	or	a4,t3,t1
   1d030:	00e03333          	snez	t1,a4
   1d034:	ff1ff06f          	j	1d024 <__subtf3+0x70c>
   1d038:	001f0713          	addi	a4,t5,1
   1d03c:	00c77733          	and	a4,a4,a2
   1d040:	00100593          	li	a1,1
   1d044:	16e5c063          	blt	a1,a4,1d1a4 <__subtf3+0x88c>
   1d048:	006e6fb3          	or	t6,t3,t1
   1d04c:	00f6e533          	or	a0,a3,a5
   1d050:	0c0f1a63          	bnez	t5,1d124 <__subtf3+0x80c>
   1d054:	080f9063          	bnez	t6,1d0d4 <__subtf3+0x7bc>
   1d058:	28051263          	bnez	a0,1d2dc <__subtf3+0x9c4>
   1d05c:	ffe90493          	addi	s1,s2,-2
   1d060:	0014b493          	seqz	s1,s1
   1d064:	00000693          	li	a3,0
   1d068:	00000313          	li	t1,0
   1d06c:	00d367b3          	or	a5,t1,a3
   1d070:	2e078463          	beqz	a5,1d358 <__subtf3+0xa40>
   1d074:	03f35793          	srli	a5,t1,0x3f
   1d078:	00169813          	slli	a6,a3,0x1
   1d07c:	00f80833          	add	a6,a6,a5
   1d080:	00131793          	slli	a5,t1,0x1
   1d084:	0077f613          	andi	a2,a5,7
   1d088:	00000713          	li	a4,0
   1d08c:	02060863          	beqz	a2,1d0bc <__subtf3+0x7a4>
   1d090:	00200713          	li	a4,2
   1d094:	26e90e63          	beq	s2,a4,1d310 <__subtf3+0x9f8>
   1d098:	00300713          	li	a4,3
   1d09c:	24e90e63          	beq	s2,a4,1d2f8 <__subtf3+0x9e0>
   1d0a0:	00100713          	li	a4,1
   1d0a4:	00091c63          	bnez	s2,1d0bc <__subtf3+0x7a4>
   1d0a8:	00f7f613          	andi	a2,a5,15
   1d0ac:	00400593          	li	a1,4
   1d0b0:	00100713          	li	a4,1
   1d0b4:	ffc7b793          	sltiu	a5,a5,-4
   1d0b8:	24b61663          	bne	a2,a1,1d304 <__subtf3+0x9ec>
   1d0bc:	03485813          	srli	a6,a6,0x34
   1d0c0:	00184813          	xori	a6,a6,1
   1d0c4:	00187813          	andi	a6,a6,1
   1d0c8:	00030793          	mv	a5,t1
   1d0cc:	00000993          	li	s3,0
   1d0d0:	b69ff06f          	j	1cc38 <__subtf3+0x320>
   1d0d4:	20050863          	beqz	a0,1d2e4 <__subtf3+0x9cc>
   1d0d8:	40f30633          	sub	a2,t1,a5
   1d0dc:	40de0733          	sub	a4,t3,a3
   1d0e0:	00c33533          	sltu	a0,t1,a2
   1d0e4:	40a70733          	sub	a4,a4,a0
   1d0e8:	03359593          	slli	a1,a1,0x33
   1d0ec:	00b775b3          	and	a1,a4,a1
   1d0f0:	00058e63          	beqz	a1,1d10c <__subtf3+0x7f4>
   1d0f4:	40678333          	sub	t1,a5,t1
   1d0f8:	41c686b3          	sub	a3,a3,t3
   1d0fc:	0067b7b3          	sltu	a5,a5,t1
   1d100:	40f686b3          	sub	a3,a3,a5
   1d104:	000e8493          	mv	s1,t4
   1d108:	f65ff06f          	j	1d06c <__subtf3+0x754>
   1d10c:	00e66333          	or	t1,a2,a4
   1d110:	1c031e63          	bnez	t1,1d2ec <__subtf3+0x9d4>
   1d114:	ffe90493          	addi	s1,s2,-2
   1d118:	0014b493          	seqz	s1,s1
   1d11c:	00000693          	li	a3,0
   1d120:	f4dff06f          	j	1d06c <__subtf3+0x754>
   1d124:	04cf1c63          	bne	t5,a2,1d17c <__subtf3+0x864>
   1d128:	280f8463          	beqz	t6,1d3b0 <__subtf3+0xa98>
   1d12c:	03259593          	slli	a1,a1,0x32
   1d130:	00be75b3          	and	a1,t3,a1
   1d134:	0015b713          	seqz	a4,a1
   1d138:	00471713          	slli	a4,a4,0x4
   1d13c:	05e89863          	bne	a7,t5,1d18c <__subtf3+0x874>
   1d140:	00050863          	beqz	a0,1d150 <__subtf3+0x838>
   1d144:	00d69613          	slli	a2,a3,0xd
   1d148:	00064463          	bltz	a2,1d150 <__subtf3+0x838>
   1d14c:	01000713          	li	a4,16
   1d150:	020f9e63          	bnez	t6,1d18c <__subtf3+0x874>
   1d154:	000e8493          	mv	s1,t4
   1d158:	04051063          	bnez	a0,1d198 <__subtf3+0x880>
   1d15c:	00100693          	li	a3,1
   1d160:	000089b7          	lui	s3,0x8
   1d164:	00000793          	li	a5,0
   1d168:	03269693          	slli	a3,a3,0x32
   1d16c:	fff98993          	addi	s3,s3,-1 # 7fff <_start-0x80b1>
   1d170:	00000493          	li	s1,0
   1d174:	01000713          	li	a4,16
   1d178:	b31ff06f          	j	1cca8 <__subtf3+0x390>
   1d17c:	00000713          	li	a4,0
   1d180:	fcc898e3          	bne	a7,a2,1d150 <__subtf3+0x838>
   1d184:	00000713          	li	a4,0
   1d188:	fb9ff06f          	j	1d140 <__subtf3+0x828>
   1d18c:	b00512e3          	bnez	a0,1cc90 <__subtf3+0x378>
   1d190:	000e0693          	mv	a3,t3
   1d194:	00030793          	mv	a5,t1
   1d198:	000089b7          	lui	s3,0x8
   1d19c:	fff98993          	addi	s3,s3,-1 # 7fff <_start-0x80b1>
   1d1a0:	a99ff06f          	j	1cc38 <__subtf3+0x320>
   1d1a4:	40f30a33          	sub	s4,t1,a5
   1d1a8:	40de0433          	sub	s0,t3,a3
   1d1ac:	01433733          	sltu	a4,t1,s4
   1d1b0:	40e40433          	sub	s0,s0,a4
   1d1b4:	03359593          	slli	a1,a1,0x33
   1d1b8:	00b475b3          	and	a1,s0,a1
   1d1bc:	08058863          	beqz	a1,1d24c <__subtf3+0x934>
   1d1c0:	40678a33          	sub	s4,a5,t1
   1d1c4:	41c68733          	sub	a4,a3,t3
   1d1c8:	0147b6b3          	sltu	a3,a5,s4
   1d1cc:	40d70433          	sub	s0,a4,a3
   1d1d0:	000e8493          	mv	s1,t4
   1d1d4:	08040263          	beqz	s0,1d258 <__subtf3+0x940>
   1d1d8:	00040513          	mv	a0,s0
   1d1dc:	7f4000ef          	jal	ra,1d9d0 <__clzdi2>
   1d1e0:	0005051b          	sext.w	a0,a0
   1d1e4:	ff450f9b          	addiw	t6,a0,-12
   1d1e8:	03f00793          	li	a5,63
   1d1ec:	000f8713          	mv	a4,t6
   1d1f0:	07f7cc63          	blt	a5,t6,1d268 <__subtf3+0x950>
   1d1f4:	04000693          	li	a3,64
   1d1f8:	41f686bb          	subw	a3,a3,t6
   1d1fc:	01f41433          	sll	s0,s0,t6
   1d200:	00da56b3          	srl	a3,s4,a3
   1d204:	0086e433          	or	s0,a3,s0
   1d208:	01fa1333          	sll	t1,s4,t6
   1d20c:	093fcc63          	blt	t6,s3,1d2a4 <__subtf3+0x98c>
   1d210:	413709bb          	subw	s3,a4,s3
   1d214:	0019899b          	addiw	s3,s3,1
   1d218:	0009869b          	sext.w	a3,s3
   1d21c:	03f00793          	li	a5,63
   1d220:	04d7cc63          	blt	a5,a3,1d278 <__subtf3+0x960>
   1d224:	04000513          	li	a0,64
   1d228:	4135053b          	subw	a0,a0,s3
   1d22c:	00d35733          	srl	a4,t1,a3
   1d230:	00a417b3          	sll	a5,s0,a0
   1d234:	00a31333          	sll	t1,t1,a0
   1d238:	00e7e7b3          	or	a5,a5,a4
   1d23c:	00603333          	snez	t1,t1
   1d240:	0067e333          	or	t1,a5,t1
   1d244:	00d456b3          	srl	a3,s0,a3
   1d248:	e25ff06f          	j	1d06c <__subtf3+0x754>
   1d24c:	008a6333          	or	t1,s4,s0
   1d250:	f80312e3          	bnez	t1,1d1d4 <__subtf3+0x8bc>
   1d254:	ec1ff06f          	j	1d114 <__subtf3+0x7fc>
   1d258:	000a0513          	mv	a0,s4
   1d25c:	774000ef          	jal	ra,1d9d0 <__clzdi2>
   1d260:	0405051b          	addiw	a0,a0,64
   1d264:	f81ff06f          	j	1d1e4 <__subtf3+0x8cc>
   1d268:	fb45041b          	addiw	s0,a0,-76
   1d26c:	008a1433          	sll	s0,s4,s0
   1d270:	00000313          	li	t1,0
   1d274:	f99ff06f          	j	1d20c <__subtf3+0x8f4>
   1d278:	04000713          	li	a4,64
   1d27c:	013457b3          	srl	a5,s0,s3
   1d280:	00000513          	li	a0,0
   1d284:	00e68863          	beq	a3,a4,1d294 <__subtf3+0x97c>
   1d288:	08000513          	li	a0,128
   1d28c:	4135053b          	subw	a0,a0,s3
   1d290:	00a41533          	sll	a0,s0,a0
   1d294:	00a36333          	or	t1,t1,a0
   1d298:	006036b3          	snez	a3,t1
   1d29c:	00d7e333          	or	t1,a5,a3
   1d2a0:	e7dff06f          	j	1d11c <__subtf3+0x804>
   1d2a4:	fff00693          	li	a3,-1
   1d2a8:	03369693          	slli	a3,a3,0x33
   1d2ac:	fff68693          	addi	a3,a3,-1
   1d2b0:	41f98fb3          	sub	t6,s3,t6
   1d2b4:	00d476b3          	and	a3,s0,a3
   1d2b8:	da0f8ae3          	beqz	t6,1d06c <__subtf3+0x754>
   1d2bc:	00030793          	mv	a5,t1
   1d2c0:	000f8993          	mv	s3,t6
   1d2c4:	f78ff06f          	j	1ca3c <__subtf3+0x124>
   1d2c8:	00078313          	mv	t1,a5
   1d2cc:	000e8493          	mv	s1,t4
   1d2d0:	fe9ff06f          	j	1d2b8 <__subtf3+0x9a0>
   1d2d4:	00078313          	mv	t1,a5
   1d2d8:	d95ff06f          	j	1d06c <__subtf3+0x754>
   1d2dc:	00078313          	mv	t1,a5
   1d2e0:	e25ff06f          	j	1d104 <__subtf3+0x7ec>
   1d2e4:	000e0693          	mv	a3,t3
   1d2e8:	d85ff06f          	j	1d06c <__subtf3+0x754>
   1d2ec:	00070693          	mv	a3,a4
   1d2f0:	00060313          	mv	t1,a2
   1d2f4:	d79ff06f          	j	1d06c <__subtf3+0x754>
   1d2f8:	00100713          	li	a4,1
   1d2fc:	dc0490e3          	bnez	s1,1d0bc <__subtf3+0x7a4>
   1d300:	ff87b793          	sltiu	a5,a5,-8
   1d304:	0017c793          	xori	a5,a5,1
   1d308:	00f80833          	add	a6,a6,a5
   1d30c:	db1ff06f          	j	1d0bc <__subtf3+0x7a4>
   1d310:	00100713          	li	a4,1
   1d314:	da0484e3          	beqz	s1,1d0bc <__subtf3+0x7a4>
   1d318:	fe9ff06f          	j	1d300 <__subtf3+0x9e8>
   1d31c:	00000693          	li	a3,0
   1d320:	00000793          	li	a5,0
   1d324:	00088993          	mv	s3,a7
   1d328:	00000713          	li	a4,0
   1d32c:	97dff06f          	j	1cca8 <__subtf3+0x390>
   1d330:	00000693          	li	a3,0
   1d334:	ff5ff06f          	j	1d328 <__subtf3+0xa10>
   1d338:	00030793          	mv	a5,t1
   1d33c:	00000813          	li	a6,0
   1d340:	fd8ff06f          	j	1cb18 <__subtf3+0x200>
   1d344:	00000693          	li	a3,0
   1d348:	00000793          	li	a5,0
   1d34c:	00088993          	mv	s3,a7
   1d350:	000e8493          	mv	s1,t4
   1d354:	fd5ff06f          	j	1d328 <__subtf3+0xa10>
   1d358:	00000693          	li	a3,0
   1d35c:	00000993          	li	s3,0
   1d360:	fc9ff06f          	j	1d328 <__subtf3+0xa10>
   1d364:	8c049ee3          	bnez	s1,1cc40 <__subtf3+0x328>
   1d368:	00878593          	addi	a1,a5,8
   1d36c:	a9dff06f          	j	1ce08 <__subtf3+0x4f0>
   1d370:	8c0488e3          	beqz	s1,1cc40 <__subtf3+0x328>
   1d374:	ff5ff06f          	j	1d368 <__subtf3+0xa50>
   1d378:	00000793          	li	a5,0
   1d37c:	02090463          	beqz	s2,1d3a4 <__subtf3+0xa8c>
   1d380:	00300693          	li	a3,3
   1d384:	00d91a63          	bne	s2,a3,1d398 <__subtf3+0xa80>
   1d388:	00048e63          	beqz	s1,1d3a4 <__subtf3+0xa8c>
   1d38c:	fff00793          	li	a5,-1
   1d390:	ffe60993          	addi	s3,a2,-2
   1d394:	0100006f          	j	1d3a4 <__subtf3+0xa8c>
   1d398:	00200693          	li	a3,2
   1d39c:	fed918e3          	bne	s2,a3,1d38c <__subtf3+0xa74>
   1d3a0:	fe0486e3          	beqz	s1,1d38c <__subtf3+0xa74>
   1d3a4:	00576713          	ori	a4,a4,5
   1d3a8:	00078693          	mv	a3,a5
   1d3ac:	925ff06f          	j	1ccd0 <__subtf3+0x3b8>
   1d3b0:	00000713          	li	a4,0
   1d3b4:	dbe890e3          	bne	a7,t5,1d154 <__subtf3+0x83c>
   1d3b8:	dcdff06f          	j	1d184 <__subtf3+0x86c>
   1d3bc:	9fe89ee3          	bne	a7,t5,1cdb8 <__subtf3+0x4a0>
   1d3c0:	9c9ff06f          	j	1cd88 <__subtf3+0x470>

000000000001d3c4 <__fixtfsi>:
   1d3c4:	ff010113          	addi	sp,sp,-16
   1d3c8:	002027f3          	frrm	a5
   1d3cc:	fff00793          	li	a5,-1
   1d3d0:	00159613          	slli	a2,a1,0x1
   1d3d4:	00004837          	lui	a6,0x4
   1d3d8:	0107d793          	srli	a5,a5,0x10
   1d3dc:	03165613          	srli	a2,a2,0x31
   1d3e0:	ffe80713          	addi	a4,a6,-2 # 3ffe <_start-0xc0b2>
   1d3e4:	00f5f7b3          	and	a5,a1,a5
   1d3e8:	02c74063          	blt	a4,a2,1d408 <__fixtfsi+0x44>
   1d3ec:	08061e63          	bnez	a2,1d488 <__fixtfsi+0xc4>
   1d3f0:	00a7e7b3          	or	a5,a5,a0
   1d3f4:	00000693          	li	a3,0
   1d3f8:	04079663          	bnez	a5,1d444 <__fixtfsi+0x80>
   1d3fc:	00068513          	mv	a0,a3
   1d400:	01010113          	addi	sp,sp,16
   1d404:	00008067          	ret
   1d408:	01d80713          	addi	a4,a6,29
   1d40c:	03f5d593          	srli	a1,a1,0x3f
   1d410:	02c75e63          	bge	a4,a2,1d44c <__fixtfsi+0x88>
   1d414:	800006b7          	lui	a3,0x80000
   1d418:	fff6c693          	not	a3,a3
   1d41c:	00b686bb          	addw	a3,a3,a1
   1d420:	06058863          	beqz	a1,1d490 <__fixtfsi+0xcc>
   1d424:	01e80813          	addi	a6,a6,30
   1d428:	01000593          	li	a1,16
   1d42c:	07061463          	bne	a2,a6,1d494 <__fixtfsi+0xd0>
   1d430:	0117d713          	srli	a4,a5,0x11
   1d434:	06071063          	bnez	a4,1d494 <__fixtfsi+0xd0>
   1d438:	02f79713          	slli	a4,a5,0x2f
   1d43c:	00a76733          	or	a4,a4,a0
   1d440:	fa070ee3          	beqz	a4,1d3fc <__fixtfsi+0x38>
   1d444:	00100593          	li	a1,1
   1d448:	04c0006f          	j	1d494 <__fixtfsi+0xd0>
   1d44c:	00100713          	li	a4,1
   1d450:	03071713          	slli	a4,a4,0x30
   1d454:	0006061b          	sext.w	a2,a2
   1d458:	00e7e7b3          	or	a5,a5,a4
   1d45c:	01160713          	addi	a4,a2,17
   1d460:	00e79733          	sll	a4,a5,a4
   1d464:	00a76733          	or	a4,a4,a0
   1d468:	00004537          	lui	a0,0x4
   1d46c:	02f5051b          	addiw	a0,a0,47
   1d470:	40c5063b          	subw	a2,a0,a2
   1d474:	00c7d7b3          	srl	a5,a5,a2
   1d478:	0007869b          	sext.w	a3,a5
   1d47c:	fc0582e3          	beqz	a1,1d440 <__fixtfsi+0x7c>
   1d480:	40d006bb          	negw	a3,a3
   1d484:	fbdff06f          	j	1d440 <__fixtfsi+0x7c>
   1d488:	00000693          	li	a3,0
   1d48c:	fb9ff06f          	j	1d444 <__fixtfsi+0x80>
   1d490:	01000593          	li	a1,16
   1d494:	0015a073          	csrs	fflags,a1
   1d498:	f65ff06f          	j	1d3fc <__fixtfsi+0x38>

000000000001d49c <__floatsitf>:
   1d49c:	fd010113          	addi	sp,sp,-48
   1d4a0:	02113423          	sd	ra,40(sp)
   1d4a4:	02813023          	sd	s0,32(sp)
   1d4a8:	00913c23          	sd	s1,24(sp)
   1d4ac:	0a050263          	beqz	a0,1d550 <__floatsitf+0xb4>
   1d4b0:	0005079b          	sext.w	a5,a0
   1d4b4:	03f55493          	srli	s1,a0,0x3f
   1d4b8:	00055463          	bgez	a0,1d4c0 <__floatsitf+0x24>
   1d4bc:	40f007bb          	negw	a5,a5
   1d4c0:	02079413          	slli	s0,a5,0x20
   1d4c4:	02045413          	srli	s0,s0,0x20
   1d4c8:	00040513          	mv	a0,s0
   1d4cc:	504000ef          	jal	ra,1d9d0 <__clzdi2>
   1d4d0:	000046b7          	lui	a3,0x4
   1d4d4:	03e6879b          	addiw	a5,a3,62
   1d4d8:	40a7873b          	subw	a4,a5,a0
   1d4dc:	02f6879b          	addiw	a5,a3,47
   1d4e0:	40e787bb          	subw	a5,a5,a4
   1d4e4:	00f417b3          	sll	a5,s0,a5
   1d4e8:	fff00693          	li	a3,-1
   1d4ec:	0106d413          	srli	s0,a3,0x10
   1d4f0:	0087f7b3          	and	a5,a5,s0
   1d4f4:	00813403          	ld	s0,8(sp)
   1d4f8:	03069613          	slli	a2,a3,0x30
   1d4fc:	000085b7          	lui	a1,0x8
   1d500:	00c47433          	and	s0,s0,a2
   1d504:	00f467b3          	or	a5,s0,a5
   1d508:	f8001437          	lui	s0,0xf8001
   1d50c:	fff58593          	addi	a1,a1,-1 # 7fff <_start-0x80b1>
   1d510:	02441413          	slli	s0,s0,0x24
   1d514:	00b77733          	and	a4,a4,a1
   1d518:	fff40413          	addi	s0,s0,-1 # fffffffff8000fff <__global_pointer$+0xfffffffff7fdffcf>
   1d51c:	0087f7b3          	and	a5,a5,s0
   1d520:	02813083          	ld	ra,40(sp)
   1d524:	02013403          	ld	s0,32(sp)
   1d528:	03071713          	slli	a4,a4,0x30
   1d52c:	00e7e7b3          	or	a5,a5,a4
   1d530:	0016d693          	srli	a3,a3,0x1
   1d534:	03f49593          	slli	a1,s1,0x3f
   1d538:	00d7f7b3          	and	a5,a5,a3
   1d53c:	01813483          	ld	s1,24(sp)
   1d540:	00000513          	li	a0,0
   1d544:	00b7e5b3          	or	a1,a5,a1
   1d548:	03010113          	addi	sp,sp,48
   1d54c:	00008067          	ret
   1d550:	00000793          	li	a5,0
   1d554:	00000713          	li	a4,0
   1d558:	00000493          	li	s1,0
   1d55c:	f8dff06f          	j	1d4e8 <__floatsitf+0x4c>

000000000001d560 <__extenddftf2>:
   1d560:	fd010113          	addi	sp,sp,-48
   1d564:	00913c23          	sd	s1,24(sp)
   1d568:	02113423          	sd	ra,40(sp)
   1d56c:	02813023          	sd	s0,32(sp)
   1d570:	e20504d3          	fmv.x.d	s1,fa0
   1d574:	002027f3          	frrm	a5
   1d578:	0344d513          	srli	a0,s1,0x34
   1d57c:	7ff57513          	andi	a0,a0,2047
   1d580:	fff00413          	li	s0,-1
   1d584:	00150793          	addi	a5,a0,1 # 4001 <_start-0xc0af>
   1d588:	00c45413          	srli	s0,s0,0xc
   1d58c:	7ff7f793          	andi	a5,a5,2047
   1d590:	00100693          	li	a3,1
   1d594:	00947433          	and	s0,s0,s1
   1d598:	03f4d493          	srli	s1,s1,0x3f
   1d59c:	02f6d063          	bge	a3,a5,1d5bc <__extenddftf2+0x5c>
   1d5a0:	000047b7          	lui	a5,0x4
   1d5a4:	c0078793          	addi	a5,a5,-1024 # 3c00 <_start-0xc4b0>
   1d5a8:	00445713          	srli	a4,s0,0x4
   1d5ac:	00f50533          	add	a0,a0,a5
   1d5b0:	03c41413          	slli	s0,s0,0x3c
   1d5b4:	00000793          	li	a5,0
   1d5b8:	0840006f          	j	1d63c <__extenddftf2+0xdc>
   1d5bc:	04051a63          	bnez	a0,1d610 <__extenddftf2+0xb0>
   1d5c0:	00000713          	li	a4,0
   1d5c4:	fe0408e3          	beqz	s0,1d5b4 <__extenddftf2+0x54>
   1d5c8:	00040513          	mv	a0,s0
   1d5cc:	404000ef          	jal	ra,1d9d0 <__clzdi2>
   1d5d0:	0005071b          	sext.w	a4,a0
   1d5d4:	00e00793          	li	a5,14
   1d5d8:	02e7c463          	blt	a5,a4,1d600 <__extenddftf2+0xa0>
   1d5dc:	00f00713          	li	a4,15
   1d5e0:	40a7073b          	subw	a4,a4,a0
   1d5e4:	0315079b          	addiw	a5,a0,49
   1d5e8:	00e45733          	srl	a4,s0,a4
   1d5ec:	00f41433          	sll	s0,s0,a5
   1d5f0:	000047b7          	lui	a5,0x4
   1d5f4:	c0c7879b          	addiw	a5,a5,-1012
   1d5f8:	40a7853b          	subw	a0,a5,a0
   1d5fc:	fb9ff06f          	j	1d5b4 <__extenddftf2+0x54>
   1d600:	ff15071b          	addiw	a4,a0,-15
   1d604:	00e41733          	sll	a4,s0,a4
   1d608:	00000413          	li	s0,0
   1d60c:	fe5ff06f          	j	1d5f0 <__extenddftf2+0x90>
   1d610:	08040e63          	beqz	s0,1d6ac <__extenddftf2+0x14c>
   1d614:	03369793          	slli	a5,a3,0x33
   1d618:	00f477b3          	and	a5,s0,a5
   1d61c:	00445713          	srli	a4,s0,0x4
   1d620:	0017b793          	seqz	a5,a5
   1d624:	02f69693          	slli	a3,a3,0x2f
   1d628:	00008537          	lui	a0,0x8
   1d62c:	00479793          	slli	a5,a5,0x4
   1d630:	00d76733          	or	a4,a4,a3
   1d634:	03c41413          	slli	s0,s0,0x3c
   1d638:	fff50513          	addi	a0,a0,-1 # 7fff <_start-0x80b1>
   1d63c:	fff00693          	li	a3,-1
   1d640:	00813583          	ld	a1,8(sp)
   1d644:	0106d613          	srli	a2,a3,0x10
   1d648:	00c77733          	and	a4,a4,a2
   1d64c:	03069613          	slli	a2,a3,0x30
   1d650:	00c5f5b3          	and	a1,a1,a2
   1d654:	00e5e733          	or	a4,a1,a4
   1d658:	00008637          	lui	a2,0x8
   1d65c:	f80015b7          	lui	a1,0xf8001
   1d660:	fff60613          	addi	a2,a2,-1 # 7fff <_start-0x80b1>
   1d664:	02459593          	slli	a1,a1,0x24
   1d668:	00c57533          	and	a0,a0,a2
   1d66c:	fff58593          	addi	a1,a1,-1 # fffffffff8000fff <__global_pointer$+0xfffffffff7fdffcf>
   1d670:	00b775b3          	and	a1,a4,a1
   1d674:	03051513          	slli	a0,a0,0x30
   1d678:	00a5e533          	or	a0,a1,a0
   1d67c:	0016d593          	srli	a1,a3,0x1
   1d680:	03f49493          	slli	s1,s1,0x3f
   1d684:	00b575b3          	and	a1,a0,a1
   1d688:	0095e5b3          	or	a1,a1,s1
   1d68c:	00078463          	beqz	a5,1d694 <__extenddftf2+0x134>
   1d690:	0017a073          	csrs	fflags,a5
   1d694:	00040513          	mv	a0,s0
   1d698:	02813083          	ld	ra,40(sp)
   1d69c:	02013403          	ld	s0,32(sp)
   1d6a0:	01813483          	ld	s1,24(sp)
   1d6a4:	03010113          	addi	sp,sp,48
   1d6a8:	00008067          	ret
   1d6ac:	00008537          	lui	a0,0x8
   1d6b0:	00000713          	li	a4,0
   1d6b4:	fff50513          	addi	a0,a0,-1 # 7fff <_start-0x80b1>
   1d6b8:	efdff06f          	j	1d5b4 <__extenddftf2+0x54>

000000000001d6bc <__trunctfdf2>:
   1d6bc:	ff010113          	addi	sp,sp,-16
   1d6c0:	002028f3          	frrm	a7
   1d6c4:	fff00793          	li	a5,-1
   1d6c8:	0107d793          	srli	a5,a5,0x10
   1d6cc:	00008337          	lui	t1,0x8
   1d6d0:	0305d713          	srli	a4,a1,0x30
   1d6d4:	fff30313          	addi	t1,t1,-1 # 7fff <_start-0x80b1>
   1d6d8:	03f5d813          	srli	a6,a1,0x3f
   1d6dc:	00f5f5b3          	and	a1,a1,a5
   1d6e0:	00359793          	slli	a5,a1,0x3
   1d6e4:	00677733          	and	a4,a4,t1
   1d6e8:	03d55593          	srli	a1,a0,0x3d
   1d6ec:	00f5e5b3          	or	a1,a1,a5
   1d6f0:	00170793          	addi	a5,a4,1
   1d6f4:	0067f7b3          	and	a5,a5,t1
   1d6f8:	00100613          	li	a2,1
   1d6fc:	0008889b          	sext.w	a7,a7
   1d700:	00351e93          	slli	t4,a0,0x3
   1d704:	20f65063          	bge	a2,a5,1d904 <__trunctfdf2+0x248>
   1d708:	ffffc7b7          	lui	a5,0xffffc
   1d70c:	40078793          	addi	a5,a5,1024 # ffffffffffffc400 <__global_pointer$+0xfffffffffffdb3d0>
   1d710:	00f70733          	add	a4,a4,a5
   1d714:	7fe00793          	li	a5,2046
   1d718:	0ce7de63          	bge	a5,a4,1d7f4 <__trunctfdf2+0x138>
   1d71c:	04088c63          	beqz	a7,1d774 <__trunctfdf2+0xb8>
   1d720:	00300793          	li	a5,3
   1d724:	04f89263          	bne	a7,a5,1d768 <__trunctfdf2+0xac>
   1d728:	04080663          	beqz	a6,1d774 <__trunctfdf2+0xb8>
   1d72c:	fff00793          	li	a5,-1
   1d730:	7fe00713          	li	a4,2046
   1d734:	00000693          	li	a3,0
   1d738:	00500e13          	li	t3,5
   1d73c:	00200613          	li	a2,2
   1d740:	001e6e13          	ori	t3,t3,1
   1d744:	24c88863          	beq	a7,a2,1d994 <__trunctfdf2+0x2d8>
   1d748:	00300613          	li	a2,3
   1d74c:	22c88e63          	beq	a7,a2,1d988 <__trunctfdf2+0x2cc>
   1d750:	1a089063          	bnez	a7,1d8f0 <__trunctfdf2+0x234>
   1d754:	00f7f613          	andi	a2,a5,15
   1d758:	00400593          	li	a1,4
   1d75c:	18b60a63          	beq	a2,a1,1d8f0 <__trunctfdf2+0x234>
   1d760:	00478793          	addi	a5,a5,4
   1d764:	18c0006f          	j	1d8f0 <__trunctfdf2+0x234>
   1d768:	00200793          	li	a5,2
   1d76c:	fcf890e3          	bne	a7,a5,1d72c <__trunctfdf2+0x70>
   1d770:	fa080ee3          	beqz	a6,1d72c <__trunctfdf2+0x70>
   1d774:	00000793          	li	a5,0
   1d778:	7ff00713          	li	a4,2047
   1d77c:	00500e13          	li	t3,5
   1d780:	00879693          	slli	a3,a5,0x8
   1d784:	0206d063          	bgez	a3,1d7a4 <__trunctfdf2+0xe8>
   1d788:	00170713          	addi	a4,a4,1
   1d78c:	7ff00693          	li	a3,2047
   1d790:	20d70663          	beq	a4,a3,1d99c <__trunctfdf2+0x2e0>
   1d794:	fff00593          	li	a1,-1
   1d798:	03759593          	slli	a1,a1,0x37
   1d79c:	fff58593          	addi	a1,a1,-1
   1d7a0:	00b7f7b3          	and	a5,a5,a1
   1d7a4:	7ff00693          	li	a3,2047
   1d7a8:	0037d793          	srli	a5,a5,0x3
   1d7ac:	00d71a63          	bne	a4,a3,1d7c0 <__trunctfdf2+0x104>
   1d7b0:	00078863          	beqz	a5,1d7c0 <__trunctfdf2+0x104>
   1d7b4:	00100793          	li	a5,1
   1d7b8:	03379793          	slli	a5,a5,0x33
   1d7bc:	00000813          	li	a6,0
   1d7c0:	fff00693          	li	a3,-1
   1d7c4:	00c6d693          	srli	a3,a3,0xc
   1d7c8:	7ff77713          	andi	a4,a4,2047
   1d7cc:	00d7f7b3          	and	a5,a5,a3
   1d7d0:	03471713          	slli	a4,a4,0x34
   1d7d4:	03f81693          	slli	a3,a6,0x3f
   1d7d8:	00e7e7b3          	or	a5,a5,a4
   1d7dc:	00d7e7b3          	or	a5,a5,a3
   1d7e0:	000e0463          	beqz	t3,1d7e8 <__trunctfdf2+0x12c>
   1d7e4:	001e2073          	csrs	fflags,t3
   1d7e8:	f2078553          	fmv.d.x	fa0,a5
   1d7ec:	01010113          	addi	sp,sp,16
   1d7f0:	00008067          	ret
   1d7f4:	0ce04a63          	bgtz	a4,1d8c8 <__trunctfdf2+0x20c>
   1d7f8:	fcc00793          	li	a5,-52
   1d7fc:	14f74e63          	blt	a4,a5,1d958 <__trunctfdf2+0x29c>
   1d800:	03361613          	slli	a2,a2,0x33
   1d804:	00c5e5b3          	or	a1,a1,a2
   1d808:	03d00613          	li	a2,61
   1d80c:	40e60633          	sub	a2,a2,a4
   1d810:	03f00793          	li	a5,63
   1d814:	0007071b          	sext.w	a4,a4
   1d818:	08c7c063          	blt	a5,a2,1d898 <__trunctfdf2+0x1dc>
   1d81c:	0037061b          	addiw	a2,a4,3
   1d820:	03d00793          	li	a5,61
   1d824:	40e787bb          	subw	a5,a5,a4
   1d828:	00ce96b3          	sll	a3,t4,a2
   1d82c:	00fed7b3          	srl	a5,t4,a5
   1d830:	00d036b3          	snez	a3,a3
   1d834:	00d7e7b3          	or	a5,a5,a3
   1d838:	00c595b3          	sll	a1,a1,a2
   1d83c:	00f5e7b3          	or	a5,a1,a5
   1d840:	00000713          	li	a4,0
   1d844:	12078e63          	beqz	a5,1d980 <__trunctfdf2+0x2c4>
   1d848:	00179713          	slli	a4,a5,0x1
   1d84c:	00777693          	andi	a3,a4,7
   1d850:	00000e13          	li	t3,0
   1d854:	02068863          	beqz	a3,1d884 <__trunctfdf2+0x1c8>
   1d858:	00200693          	li	a3,2
   1d85c:	10d88a63          	beq	a7,a3,1d970 <__trunctfdf2+0x2b4>
   1d860:	00300693          	li	a3,3
   1d864:	0ed88e63          	beq	a7,a3,1d960 <__trunctfdf2+0x2a4>
   1d868:	00100e13          	li	t3,1
   1d86c:	00089c63          	bnez	a7,1d884 <__trunctfdf2+0x1c8>
   1d870:	00f77693          	andi	a3,a4,15
   1d874:	00400613          	li	a2,4
   1d878:	00100e13          	li	t3,1
   1d87c:	00c68463          	beq	a3,a2,1d884 <__trunctfdf2+0x1c8>
   1d880:	00470713          	addi	a4,a4,4
   1d884:	03875693          	srli	a3,a4,0x38
   1d888:	0016c693          	xori	a3,a3,1
   1d88c:	0016f693          	andi	a3,a3,1
   1d890:	00000713          	li	a4,0
   1d894:	0540006f          	j	1d8e8 <__trunctfdf2+0x22c>
   1d898:	ffd00793          	li	a5,-3
   1d89c:	40e787bb          	subw	a5,a5,a4
   1d8a0:	04000513          	li	a0,64
   1d8a4:	00f5d7b3          	srl	a5,a1,a5
   1d8a8:	00000693          	li	a3,0
   1d8ac:	00a60663          	beq	a2,a0,1d8b8 <__trunctfdf2+0x1fc>
   1d8b0:	0437071b          	addiw	a4,a4,67
   1d8b4:	00e596b3          	sll	a3,a1,a4
   1d8b8:	01d6e6b3          	or	a3,a3,t4
   1d8bc:	00d036b3          	snez	a3,a3
   1d8c0:	00d7e7b3          	or	a5,a5,a3
   1d8c4:	f7dff06f          	j	1d840 <__trunctfdf2+0x184>
   1d8c8:	00751513          	slli	a0,a0,0x7
   1d8cc:	03ced693          	srli	a3,t4,0x3c
   1d8d0:	00a03533          	snez	a0,a0
   1d8d4:	00d56533          	or	a0,a0,a3
   1d8d8:	00459593          	slli	a1,a1,0x4
   1d8dc:	00a5e7b3          	or	a5,a1,a0
   1d8e0:	00000693          	li	a3,0
   1d8e4:	00000e13          	li	t3,0
   1d8e8:	0077f613          	andi	a2,a5,7
   1d8ec:	e40618e3          	bnez	a2,1d73c <__trunctfdf2+0x80>
   1d8f0:	e80688e3          	beqz	a3,1d780 <__trunctfdf2+0xc4>
   1d8f4:	001e7693          	andi	a3,t3,1
   1d8f8:	e80684e3          	beqz	a3,1d780 <__trunctfdf2+0xc4>
   1d8fc:	002e6e13          	ori	t3,t3,2
   1d900:	e81ff06f          	j	1d780 <__trunctfdf2+0xc4>
   1d904:	01d5e7b3          	or	a5,a1,t4
   1d908:	00071663          	bnez	a4,1d914 <__trunctfdf2+0x258>
   1d90c:	00f037b3          	snez	a5,a5
   1d910:	f31ff06f          	j	1d840 <__trunctfdf2+0x184>
   1d914:	06078463          	beqz	a5,1d97c <__trunctfdf2+0x2c0>
   1d918:	00000e13          	li	t3,0
   1d91c:	00671a63          	bne	a4,t1,1d930 <__trunctfdf2+0x274>
   1d920:	03261613          	slli	a2,a2,0x32
   1d924:	00c5f633          	and	a2,a1,a2
   1d928:	00163e13          	seqz	t3,a2
   1d92c:	004e1e13          	slli	t3,t3,0x4
   1d930:	03ced513          	srli	a0,t4,0x3c
   1d934:	00459593          	slli	a1,a1,0x4
   1d938:	00a5e5b3          	or	a1,a1,a0
   1d93c:	00100793          	li	a5,1
   1d940:	ff85f593          	andi	a1,a1,-8
   1d944:	03679793          	slli	a5,a5,0x36
   1d948:	00f5e7b3          	or	a5,a1,a5
   1d94c:	7ff00713          	li	a4,2047
   1d950:	00000693          	li	a3,0
   1d954:	f95ff06f          	j	1d8e8 <__trunctfdf2+0x22c>
   1d958:	00100793          	li	a5,1
   1d95c:	eedff06f          	j	1d848 <__trunctfdf2+0x18c>
   1d960:	00100e13          	li	t3,1
   1d964:	f20810e3          	bnez	a6,1d884 <__trunctfdf2+0x1c8>
   1d968:	00870713          	addi	a4,a4,8
   1d96c:	f19ff06f          	j	1d884 <__trunctfdf2+0x1c8>
   1d970:	00100e13          	li	t3,1
   1d974:	f00808e3          	beqz	a6,1d884 <__trunctfdf2+0x1c8>
   1d978:	ff1ff06f          	j	1d968 <__trunctfdf2+0x2ac>
   1d97c:	7ff00713          	li	a4,2047
   1d980:	00000e13          	li	t3,0
   1d984:	dfdff06f          	j	1d780 <__trunctfdf2+0xc4>
   1d988:	f60814e3          	bnez	a6,1d8f0 <__trunctfdf2+0x234>
   1d98c:	00878793          	addi	a5,a5,8
   1d990:	f61ff06f          	j	1d8f0 <__trunctfdf2+0x234>
   1d994:	f4080ee3          	beqz	a6,1d8f0 <__trunctfdf2+0x234>
   1d998:	ff5ff06f          	j	1d98c <__trunctfdf2+0x2d0>
   1d99c:	00000793          	li	a5,0
   1d9a0:	02088463          	beqz	a7,1d9c8 <__trunctfdf2+0x30c>
   1d9a4:	00300693          	li	a3,3
   1d9a8:	00d89a63          	bne	a7,a3,1d9bc <__trunctfdf2+0x300>
   1d9ac:	00080e63          	beqz	a6,1d9c8 <__trunctfdf2+0x30c>
   1d9b0:	fff00793          	li	a5,-1
   1d9b4:	7fe00713          	li	a4,2046
   1d9b8:	0100006f          	j	1d9c8 <__trunctfdf2+0x30c>
   1d9bc:	00200693          	li	a3,2
   1d9c0:	fed898e3          	bne	a7,a3,1d9b0 <__trunctfdf2+0x2f4>
   1d9c4:	fe0806e3          	beqz	a6,1d9b0 <__trunctfdf2+0x2f4>
   1d9c8:	005e6e13          	ori	t3,t3,5
   1d9cc:	dd9ff06f          	j	1d7a4 <__trunctfdf2+0xe8>

000000000001d9d0 <__clzdi2>:
   1d9d0:	03800793          	li	a5,56
   1d9d4:	00f55733          	srl	a4,a0,a5
   1d9d8:	0ff77713          	zext.b	a4,a4
   1d9dc:	00071663          	bnez	a4,1d9e8 <__clzdi2+0x18>
   1d9e0:	ff878793          	addi	a5,a5,-8
   1d9e4:	fe0798e3          	bnez	a5,1d9d4 <__clzdi2+0x4>
   1d9e8:	04000713          	li	a4,64
   1d9ec:	40f70733          	sub	a4,a4,a5
   1d9f0:	00f557b3          	srl	a5,a0,a5
   1d9f4:	0001e537          	lui	a0,0x1e
   1d9f8:	61850513          	addi	a0,a0,1560 # 1e618 <__clz_tab>
   1d9fc:	00a787b3          	add	a5,a5,a0
   1da00:	0007c503          	lbu	a0,0(a5)
   1da04:	40a7053b          	subw	a0,a4,a0
   1da08:	00008067          	ret
