
supp/add-fp.riscv:     file format elf64-littleriscv


Disassembly of section .text:

00000000000100b0 <_start>:
   100b0:	00011197          	auipc	gp,0x11
   100b4:	f8018193          	addi	gp,gp,-128 # 21030 <__global_pointer$>
   100b8:	84818513          	addi	a0,gp,-1976 # 20878 <__malloc_max_total_mem>
   100bc:	8d818613          	addi	a2,gp,-1832 # 20908 <_end>
   100c0:	40a60633          	sub	a2,a2,a0
   100c4:	00000593          	li	a1,0
   100c8:	2ec000ef          	jal	ra,103b4 <memset>
   100cc:	00000517          	auipc	a0,0x0
   100d0:	1d450513          	addi	a0,a0,468 # 102a0 <__libc_fini_array>
   100d4:	188000ef          	jal	ra,1025c <atexit>
   100d8:	23c000ef          	jal	ra,10314 <__libc_init_array>
   100dc:	00012503          	lw	a0,0(sp)
   100e0:	00810593          	addi	a1,sp,8
   100e4:	00000613          	li	a2,0
   100e8:	0fc000ef          	jal	ra,101e4 <main>
   100ec:	1840006f          	j	10270 <exit>

00000000000100f0 <_fini>:
   100f0:	00008067          	ret

00000000000100f4 <deregister_tm_clones>:
   100f4:	00021537          	lui	a0,0x21
   100f8:	000217b7          	lui	a5,0x21
   100fc:	83050713          	addi	a4,a0,-2000 # 20830 <__TMC_END__>
   10100:	83078793          	addi	a5,a5,-2000 # 20830 <__TMC_END__>
   10104:	00e78c63          	beq	a5,a4,1011c <deregister_tm_clones+0x28>
   10108:	00000337          	lui	t1,0x0
   1010c:	00030313          	mv	t1,t1
   10110:	00030663          	beqz	t1,1011c <deregister_tm_clones+0x28>
   10114:	83050513          	addi	a0,a0,-2000
   10118:	00030067          	jr	t1 # 0 <_start-0x100b0>
   1011c:	00008067          	ret

0000000000010120 <register_tm_clones>:
   10120:	000217b7          	lui	a5,0x21
   10124:	00021537          	lui	a0,0x21
   10128:	83078593          	addi	a1,a5,-2000 # 20830 <__TMC_END__>
   1012c:	83050793          	addi	a5,a0,-2000 # 20830 <__TMC_END__>
   10130:	40f585b3          	sub	a1,a1,a5
   10134:	4035d593          	srai	a1,a1,0x3
   10138:	00200793          	li	a5,2
   1013c:	02f5c5b3          	div	a1,a1,a5
   10140:	00058c63          	beqz	a1,10158 <register_tm_clones+0x38>
   10144:	00000337          	lui	t1,0x0
   10148:	00030313          	mv	t1,t1
   1014c:	00030663          	beqz	t1,10158 <register_tm_clones+0x38>
   10150:	83050513          	addi	a0,a0,-2000
   10154:	00030067          	jr	t1 # 0 <_start-0x100b0>
   10158:	00008067          	ret

000000000001015c <__do_global_dtors_aux>:
   1015c:	8701c703          	lbu	a4,-1936(gp) # 208a0 <completed.5212>
   10160:	04071663          	bnez	a4,101ac <__do_global_dtors_aux+0x50>
   10164:	ff010113          	addi	sp,sp,-16
   10168:	00813023          	sd	s0,0(sp)
   1016c:	00113423          	sd	ra,8(sp)
   10170:	00078413          	mv	s0,a5
   10174:	f81ff0ef          	jal	ra,100f4 <deregister_tm_clones>
   10178:	000007b7          	lui	a5,0x0
   1017c:	00078793          	mv	a5,a5
   10180:	00078a63          	beqz	a5,10194 <__do_global_dtors_aux+0x38>
   10184:	0001f537          	lui	a0,0x1f
   10188:	71850513          	addi	a0,a0,1816 # 1f718 <__EH_FRAME_BEGIN__>
   1018c:	ffff0097          	auipc	ra,0xffff0
   10190:	e74080e7          	jalr	-396(ra) # 0 <_start-0x100b0>
   10194:	00100793          	li	a5,1
   10198:	86f18823          	sb	a5,-1936(gp) # 208a0 <completed.5212>
   1019c:	00813083          	ld	ra,8(sp)
   101a0:	00013403          	ld	s0,0(sp)
   101a4:	01010113          	addi	sp,sp,16
   101a8:	00008067          	ret
   101ac:	00008067          	ret

00000000000101b0 <frame_dummy>:
   101b0:	000007b7          	lui	a5,0x0
   101b4:	00078793          	mv	a5,a5
   101b8:	02078463          	beqz	a5,101e0 <frame_dummy+0x30>
   101bc:	0001f537          	lui	a0,0x1f
   101c0:	ff010113          	addi	sp,sp,-16
   101c4:	87818593          	addi	a1,gp,-1928 # 208a8 <object.5217>
   101c8:	71850513          	addi	a0,a0,1816 # 1f718 <__EH_FRAME_BEGIN__>
   101cc:	00113423          	sd	ra,8(sp)
   101d0:	ffff0097          	auipc	ra,0xffff0
   101d4:	e30080e7          	jalr	-464(ra) # 0 <_start-0x100b0>
   101d8:	00813083          	ld	ra,8(sp)
   101dc:	01010113          	addi	sp,sp,16
   101e0:	f41ff06f          	j	10120 <register_tm_clones>

00000000000101e4 <main>:
   101e4:	fe010113          	addi	sp,sp,-32
   101e8:	00113c23          	sd	ra,24(sp)
   101ec:	00813823          	sd	s0,16(sp)
   101f0:	02010413          	addi	s0,sp,32
   101f4:	fe042623          	sw	zero,-20(s0)
   101f8:	03c0006f          	j	10234 <main+0x50>
   101fc:	fec42783          	lw	a5,-20(s0)
   10200:	d007f7d3          	fcvt.s.w	fa5,a5
   10204:	42078753          	fcvt.d.s	fa4,fa5
   10208:	0001e7b7          	lui	a5,0x1e
   1020c:	a207b787          	fld	fa5,-1504(a5) # 1da20 <__clzdi2+0x50>
   10210:	02f777d3          	fadd.d	fa5,fa4,fa5
   10214:	fef43027          	fsd	fa5,-32(s0)
   10218:	fe043583          	ld	a1,-32(s0)
   1021c:	0001e7b7          	lui	a5,0x1e
   10220:	a1078513          	addi	a0,a5,-1520 # 1da10 <__clzdi2+0x40>
   10224:	2ac000ef          	jal	ra,104d0 <printf>
   10228:	fec42783          	lw	a5,-20(s0)
   1022c:	0017879b          	addiw	a5,a5,1
   10230:	fef42623          	sw	a5,-20(s0)
   10234:	fec42783          	lw	a5,-20(s0)
   10238:	0007871b          	sext.w	a4,a5
   1023c:	00400793          	li	a5,4
   10240:	fae7dee3          	bge	a5,a4,101fc <main+0x18>
   10244:	00000793          	li	a5,0
   10248:	00078513          	mv	a0,a5
   1024c:	01813083          	ld	ra,24(sp)
   10250:	01013403          	ld	s0,16(sp)
   10254:	02010113          	addi	sp,sp,32
   10258:	00008067          	ret

000000000001025c <atexit>:
   1025c:	00050593          	mv	a1,a0
   10260:	00000693          	li	a3,0
   10264:	00000613          	li	a2,0
   10268:	00000513          	li	a0,0
   1026c:	2840206f          	j	124f0 <__register_exitproc>

0000000000010270 <exit>:
   10270:	ff010113          	addi	sp,sp,-16
   10274:	00000593          	li	a1,0
   10278:	00813023          	sd	s0,0(sp)
   1027c:	00113423          	sd	ra,8(sp)
   10280:	00050413          	mv	s0,a0
   10284:	2f0020ef          	jal	ra,12574 <__call_exitprocs>
   10288:	8281b503          	ld	a0,-2008(gp) # 20858 <_global_impure_ptr>
   1028c:	05853783          	ld	a5,88(a0)
   10290:	00078463          	beqz	a5,10298 <exit+0x28>
   10294:	000780e7          	jalr	a5
   10298:	00040513          	mv	a0,s0
   1029c:	7e80b0ef          	jal	ra,1ba84 <_exit>

00000000000102a0 <__libc_fini_array>:
   102a0:	fd010113          	addi	sp,sp,-48
   102a4:	0001f7b7          	lui	a5,0x1f
   102a8:	0001f737          	lui	a4,0x1f
   102ac:	02813023          	sd	s0,32(sp)
   102b0:	72870713          	addi	a4,a4,1832 # 1f728 <__do_global_dtors_aux_fini_array_entry>
   102b4:	73078413          	addi	s0,a5,1840 # 1f730 <impure_data>
   102b8:	40e40433          	sub	s0,s0,a4
   102bc:	00913c23          	sd	s1,24(sp)
   102c0:	01213823          	sd	s2,16(sp)
   102c4:	01313423          	sd	s3,8(sp)
   102c8:	02113423          	sd	ra,40(sp)
   102cc:	40345413          	srai	s0,s0,0x3
   102d0:	00000493          	li	s1,0
   102d4:	73078913          	addi	s2,a5,1840
   102d8:	ff800993          	li	s3,-8
   102dc:	02941063          	bne	s0,s1,102fc <__libc_fini_array+0x5c>
   102e0:	02013403          	ld	s0,32(sp)
   102e4:	02813083          	ld	ra,40(sp)
   102e8:	01813483          	ld	s1,24(sp)
   102ec:	01013903          	ld	s2,16(sp)
   102f0:	00813983          	ld	s3,8(sp)
   102f4:	03010113          	addi	sp,sp,48
   102f8:	df9ff06f          	j	100f0 <_fini>
   102fc:	033487b3          	mul	a5,s1,s3
   10300:	00148493          	addi	s1,s1,1
   10304:	00f907b3          	add	a5,s2,a5
   10308:	ff87b783          	ld	a5,-8(a5)
   1030c:	000780e7          	jalr	a5
   10310:	fcdff06f          	j	102dc <__libc_fini_array+0x3c>

0000000000010314 <__libc_init_array>:
   10314:	fe010113          	addi	sp,sp,-32
   10318:	00813823          	sd	s0,16(sp)
   1031c:	00913423          	sd	s1,8(sp)
   10320:	0001f437          	lui	s0,0x1f
   10324:	0001f4b7          	lui	s1,0x1f
   10328:	71c48793          	addi	a5,s1,1820 # 1f71c <__preinit_array_end>
   1032c:	71c40413          	addi	s0,s0,1820 # 1f71c <__preinit_array_end>
   10330:	40f40433          	sub	s0,s0,a5
   10334:	01213023          	sd	s2,0(sp)
   10338:	00113c23          	sd	ra,24(sp)
   1033c:	40345413          	srai	s0,s0,0x3
   10340:	71c48493          	addi	s1,s1,1820
   10344:	00000913          	li	s2,0
   10348:	04891263          	bne	s2,s0,1038c <__libc_init_array+0x78>
   1034c:	0001f4b7          	lui	s1,0x1f
   10350:	da1ff0ef          	jal	ra,100f0 <_fini>
   10354:	0001f437          	lui	s0,0x1f
   10358:	72048793          	addi	a5,s1,1824 # 1f720 <__frame_dummy_init_array_entry>
   1035c:	72840413          	addi	s0,s0,1832 # 1f728 <__do_global_dtors_aux_fini_array_entry>
   10360:	40f40433          	sub	s0,s0,a5
   10364:	40345413          	srai	s0,s0,0x3
   10368:	72048493          	addi	s1,s1,1824
   1036c:	00000913          	li	s2,0
   10370:	02891863          	bne	s2,s0,103a0 <__libc_init_array+0x8c>
   10374:	01813083          	ld	ra,24(sp)
   10378:	01013403          	ld	s0,16(sp)
   1037c:	00813483          	ld	s1,8(sp)
   10380:	00013903          	ld	s2,0(sp)
   10384:	02010113          	addi	sp,sp,32
   10388:	00008067          	ret
   1038c:	0004b783          	ld	a5,0(s1)
   10390:	00190913          	addi	s2,s2,1
   10394:	00848493          	addi	s1,s1,8
   10398:	000780e7          	jalr	a5
   1039c:	fadff06f          	j	10348 <__libc_init_array+0x34>
   103a0:	0004b783          	ld	a5,0(s1)
   103a4:	00190913          	addi	s2,s2,1
   103a8:	00848493          	addi	s1,s1,8
   103ac:	000780e7          	jalr	a5
   103b0:	fc1ff06f          	j	10370 <__libc_init_array+0x5c>

00000000000103b4 <memset>:
   103b4:	00f00313          	li	t1,15
   103b8:	00050713          	mv	a4,a0
   103bc:	02c37a63          	bgeu	t1,a2,103f0 <memset+0x3c>
   103c0:	00f77793          	andi	a5,a4,15
   103c4:	0a079063          	bnez	a5,10464 <memset+0xb0>
   103c8:	06059e63          	bnez	a1,10444 <memset+0x90>
   103cc:	ff067693          	andi	a3,a2,-16
   103d0:	00f67613          	andi	a2,a2,15
   103d4:	00e686b3          	add	a3,a3,a4
   103d8:	00b73023          	sd	a1,0(a4)
   103dc:	00b73423          	sd	a1,8(a4)
   103e0:	01070713          	addi	a4,a4,16
   103e4:	fed76ae3          	bltu	a4,a3,103d8 <memset+0x24>
   103e8:	00061463          	bnez	a2,103f0 <memset+0x3c>
   103ec:	00008067          	ret
   103f0:	40c306b3          	sub	a3,t1,a2
   103f4:	00269693          	slli	a3,a3,0x2
   103f8:	00000297          	auipc	t0,0x0
   103fc:	005686b3          	add	a3,a3,t0
   10400:	00c68067          	jr	12(a3)
   10404:	00b70723          	sb	a1,14(a4)
   10408:	00b706a3          	sb	a1,13(a4)
   1040c:	00b70623          	sb	a1,12(a4)
   10410:	00b705a3          	sb	a1,11(a4)
   10414:	00b70523          	sb	a1,10(a4)
   10418:	00b704a3          	sb	a1,9(a4)
   1041c:	00b70423          	sb	a1,8(a4)
   10420:	00b703a3          	sb	a1,7(a4)
   10424:	00b70323          	sb	a1,6(a4)
   10428:	00b702a3          	sb	a1,5(a4)
   1042c:	00b70223          	sb	a1,4(a4)
   10430:	00b701a3          	sb	a1,3(a4)
   10434:	00b70123          	sb	a1,2(a4)
   10438:	00b700a3          	sb	a1,1(a4)
   1043c:	00b70023          	sb	a1,0(a4)
   10440:	00008067          	ret
   10444:	0ff5f593          	zext.b	a1,a1
   10448:	00859693          	slli	a3,a1,0x8
   1044c:	00d5e5b3          	or	a1,a1,a3
   10450:	01059693          	slli	a3,a1,0x10
   10454:	00d5e5b3          	or	a1,a1,a3
   10458:	02059693          	slli	a3,a1,0x20
   1045c:	00d5e5b3          	or	a1,a1,a3
   10460:	f6dff06f          	j	103cc <memset+0x18>
   10464:	00279693          	slli	a3,a5,0x2
   10468:	00000297          	auipc	t0,0x0
   1046c:	005686b3          	add	a3,a3,t0
   10470:	00008293          	mv	t0,ra
   10474:	f98680e7          	jalr	-104(a3)
   10478:	00028093          	mv	ra,t0
   1047c:	ff078793          	addi	a5,a5,-16
   10480:	40f70733          	sub	a4,a4,a5
   10484:	00f60633          	add	a2,a2,a5
   10488:	f6c374e3          	bgeu	t1,a2,103f0 <memset+0x3c>
   1048c:	f3dff06f          	j	103c8 <memset+0x14>

0000000000010490 <_printf_r>:
   10490:	fb010113          	addi	sp,sp,-80
   10494:	02c13023          	sd	a2,32(sp)
   10498:	02d13423          	sd	a3,40(sp)
   1049c:	02e13823          	sd	a4,48(sp)
   104a0:	02f13c23          	sd	a5,56(sp)
   104a4:	05013023          	sd	a6,64(sp)
   104a8:	05113423          	sd	a7,72(sp)
   104ac:	00058613          	mv	a2,a1
   104b0:	01053583          	ld	a1,16(a0)
   104b4:	02010693          	addi	a3,sp,32
   104b8:	00113c23          	sd	ra,24(sp)
   104bc:	00d13423          	sd	a3,8(sp)
   104c0:	05c000ef          	jal	ra,1051c <_vfprintf_r>
   104c4:	01813083          	ld	ra,24(sp)
   104c8:	05010113          	addi	sp,sp,80
   104cc:	00008067          	ret

00000000000104d0 <printf>:
   104d0:	fa010113          	addi	sp,sp,-96
   104d4:	04f13423          	sd	a5,72(sp)
   104d8:	8301b783          	ld	a5,-2000(gp) # 20860 <_impure_ptr>
   104dc:	02c13823          	sd	a2,48(sp)
   104e0:	02d13c23          	sd	a3,56(sp)
   104e4:	02b13423          	sd	a1,40(sp)
   104e8:	04e13023          	sd	a4,64(sp)
   104ec:	05013823          	sd	a6,80(sp)
   104f0:	05113c23          	sd	a7,88(sp)
   104f4:	0107b583          	ld	a1,16(a5)
   104f8:	02810693          	addi	a3,sp,40
   104fc:	00050613          	mv	a2,a0
   10500:	00078513          	mv	a0,a5
   10504:	00113c23          	sd	ra,24(sp)
   10508:	00d13423          	sd	a3,8(sp)
   1050c:	010000ef          	jal	ra,1051c <_vfprintf_r>
   10510:	01813083          	ld	ra,24(sp)
   10514:	06010113          	addi	sp,sp,96
   10518:	00008067          	ret

000000000001051c <_vfprintf_r>:
   1051c:	d9010113          	addi	sp,sp,-624
   10520:	26113423          	sd	ra,616(sp)
   10524:	24913c23          	sd	s1,600(sp)
   10528:	25213823          	sd	s2,592(sp)
   1052c:	25313423          	sd	s3,584(sp)
   10530:	23713423          	sd	s7,552(sp)
   10534:	00058913          	mv	s2,a1
   10538:	00060493          	mv	s1,a2
   1053c:	00068b93          	mv	s7,a3
   10540:	26813023          	sd	s0,608(sp)
   10544:	25413023          	sd	s4,576(sp)
   10548:	23513c23          	sd	s5,568(sp)
   1054c:	23613823          	sd	s6,560(sp)
   10550:	23813023          	sd	s8,544(sp)
   10554:	21913c23          	sd	s9,536(sp)
   10558:	21a13823          	sd	s10,528(sp)
   1055c:	21b13423          	sd	s11,520(sp)
   10560:	00050993          	mv	s3,a0
   10564:	341040ef          	jal	ra,150a4 <_localeconv_r>
   10568:	00053783          	ld	a5,0(a0)
   1056c:	00078513          	mv	a0,a5
   10570:	04f13423          	sd	a5,72(sp)
   10574:	5ec060ef          	jal	ra,16b60 <strlen>
   10578:	00a13c23          	sd	a0,24(sp)
   1057c:	0e013823          	sd	zero,240(sp)
   10580:	0e013c23          	sd	zero,248(sp)
   10584:	00098a63          	beqz	s3,10598 <_vfprintf_r+0x7c>
   10588:	0509a783          	lw	a5,80(s3)
   1058c:	00079663          	bnez	a5,10598 <_vfprintf_r+0x7c>
   10590:	00098513          	mv	a0,s3
   10594:	488020ef          	jal	ra,12a1c <__sinit>
   10598:	01091783          	lh	a5,16(s2)
   1059c:	03279713          	slli	a4,a5,0x32
   105a0:	02074263          	bltz	a4,105c4 <_vfprintf_r+0xa8>
   105a4:	000026b7          	lui	a3,0x2
   105a8:	0ac92703          	lw	a4,172(s2)
   105ac:	00d7e7b3          	or	a5,a5,a3
   105b0:	00f91823          	sh	a5,16(s2)
   105b4:	ffffe7b7          	lui	a5,0xffffe
   105b8:	fff78793          	addi	a5,a5,-1 # ffffffffffffdfff <__global_pointer$+0xfffffffffffdcfcf>
   105bc:	00f777b3          	and	a5,a4,a5
   105c0:	0af92623          	sw	a5,172(s2)
   105c4:	01095783          	lhu	a5,16(s2)
   105c8:	0087f793          	andi	a5,a5,8
   105cc:	06078e63          	beqz	a5,10648 <_vfprintf_r+0x12c>
   105d0:	01893783          	ld	a5,24(s2)
   105d4:	06078a63          	beqz	a5,10648 <_vfprintf_r+0x12c>
   105d8:	01095783          	lhu	a5,16(s2)
   105dc:	00a00713          	li	a4,10
   105e0:	01a7f793          	andi	a5,a5,26
   105e4:	08e79063          	bne	a5,a4,10664 <_vfprintf_r+0x148>
   105e8:	01291783          	lh	a5,18(s2)
   105ec:	0607cc63          	bltz	a5,10664 <_vfprintf_r+0x148>
   105f0:	000b8693          	mv	a3,s7
   105f4:	00048613          	mv	a2,s1
   105f8:	00090593          	mv	a1,s2
   105fc:	00098513          	mv	a0,s3
   10600:	501010ef          	jal	ra,12300 <__sbprintf>
   10604:	02a13423          	sd	a0,40(sp)
   10608:	26813083          	ld	ra,616(sp)
   1060c:	26013403          	ld	s0,608(sp)
   10610:	02813503          	ld	a0,40(sp)
   10614:	25813483          	ld	s1,600(sp)
   10618:	25013903          	ld	s2,592(sp)
   1061c:	24813983          	ld	s3,584(sp)
   10620:	24013a03          	ld	s4,576(sp)
   10624:	23813a83          	ld	s5,568(sp)
   10628:	23013b03          	ld	s6,560(sp)
   1062c:	22813b83          	ld	s7,552(sp)
   10630:	22013c03          	ld	s8,544(sp)
   10634:	21813c83          	ld	s9,536(sp)
   10638:	21013d03          	ld	s10,528(sp)
   1063c:	20813d83          	ld	s11,520(sp)
   10640:	27010113          	addi	sp,sp,624
   10644:	00008067          	ret
   10648:	00090593          	mv	a1,s2
   1064c:	00098513          	mv	a0,s3
   10650:	56d010ef          	jal	ra,123bc <__swsetup_r>
   10654:	f80502e3          	beqz	a0,105d8 <_vfprintf_r+0xbc>
   10658:	fff00793          	li	a5,-1
   1065c:	02f13423          	sd	a5,40(sp)
   10660:	fa9ff06f          	j	10608 <_vfprintf_r+0xec>
   10664:	0001e7b7          	lui	a5,0x1e
   10668:	a2878793          	addi	a5,a5,-1496 # 1da28 <__clzdi2+0x58>
   1066c:	08f13c23          	sd	a5,152(sp)
   10670:	0001e7b7          	lui	a5,0x1e
   10674:	bc87b783          	ld	a5,-1080(a5) # 1dbc8 <zeroes.4441+0x20>
   10678:	18010a93          	addi	s5,sp,384
   1067c:	11513023          	sd	s5,256(sp)
   10680:	0af13023          	sd	a5,160(sp)
   10684:	0001e7b7          	lui	a5,0x1e
   10688:	bd87b783          	ld	a5,-1064(a5) # 1dbd8 <zeroes.4441+0x30>
   1068c:	10013823          	sd	zero,272(sp)
   10690:	10012423          	sw	zero,264(sp)
   10694:	0af13423          	sd	a5,168(sp)
   10698:	0001e7b7          	lui	a5,0x1e
   1069c:	be87b783          	ld	a5,-1048(a5) # 1dbe8 <zeroes.4441+0x40>
   106a0:	00000a13          	li	s4,0
   106a4:	000a8c93          	mv	s9,s5
   106a8:	06013023          	sd	zero,96(sp)
   106ac:	04013c23          	sd	zero,88(sp)
   106b0:	00013023          	sd	zero,0(sp)
   106b4:	04013023          	sd	zero,64(sp)
   106b8:	04013823          	sd	zero,80(sp)
   106bc:	02013423          	sd	zero,40(sp)
   106c0:	08f13823          	sd	a5,144(sp)
   106c4:	00048413          	mv	s0,s1
   106c8:	02500713          	li	a4,37
   106cc:	00044783          	lbu	a5,0(s0)
   106d0:	00078463          	beqz	a5,106d8 <_vfprintf_r+0x1bc>
   106d4:	0ce79063          	bne	a5,a4,10794 <_vfprintf_r+0x278>
   106d8:	40940b3b          	subw	s6,s0,s1
   106dc:	040b0a63          	beqz	s6,10730 <_vfprintf_r+0x214>
   106e0:	11013783          	ld	a5,272(sp)
   106e4:	009cb023          	sd	s1,0(s9)
   106e8:	016cb423          	sd	s6,8(s9)
   106ec:	016787b3          	add	a5,a5,s6
   106f0:	10f13823          	sd	a5,272(sp)
   106f4:	10812783          	lw	a5,264(sp)
   106f8:	010c8c93          	addi	s9,s9,16
   106fc:	0017871b          	addiw	a4,a5,1
   10700:	10e12423          	sw	a4,264(sp)
   10704:	00700793          	li	a5,7
   10708:	00e7de63          	bge	a5,a4,10724 <_vfprintf_r+0x208>
   1070c:	10010613          	addi	a2,sp,256
   10710:	00090593          	mv	a1,s2
   10714:	00098513          	mv	a0,s3
   10718:	220080ef          	jal	ra,18938 <__sprint_r>
   1071c:	70051e63          	bnez	a0,10e38 <_vfprintf_r+0x91c>
   10720:	000a8c93          	mv	s9,s5
   10724:	02812783          	lw	a5,40(sp)
   10728:	016787bb          	addw	a5,a5,s6
   1072c:	02f13423          	sd	a5,40(sp)
   10730:	00044783          	lbu	a5,0(s0)
   10734:	00079463          	bnez	a5,1073c <_vfprintf_r+0x220>
   10738:	3950106f          	j	122cc <_vfprintf_r+0x1db0>
   1073c:	00140793          	addi	a5,s0,1
   10740:	0c0107a3          	sb	zero,207(sp)
   10744:	fff00d93          	li	s11,-1
   10748:	02013023          	sd	zero,32(sp)
   1074c:	00000413          	li	s0,0
   10750:	05a00d13          	li	s10,90
   10754:	00a00c13          	li	s8,10
   10758:	0007cb03          	lbu	s6,0(a5)
   1075c:	00178713          	addi	a4,a5,1
   10760:	00e13823          	sd	a4,16(sp)
   10764:	00900693          	li	a3,9
   10768:	02a00613          	li	a2,42
   1076c:	fe0b079b          	addiw	a5,s6,-32
   10770:	0007871b          	sext.w	a4,a5
   10774:	00ed7463          	bgeu	s10,a4,1077c <_vfprintf_r+0x260>
   10778:	7e90006f          	j	11760 <_vfprintf_r+0x1244>
   1077c:	09813703          	ld	a4,152(sp)
   10780:	02079793          	slli	a5,a5,0x20
   10784:	01e7d793          	srli	a5,a5,0x1e
   10788:	00e787b3          	add	a5,a5,a4
   1078c:	0007a783          	lw	a5,0(a5)
   10790:	00078067          	jr	a5
   10794:	00140413          	addi	s0,s0,1
   10798:	f35ff06f          	j	106cc <_vfprintf_r+0x1b0>
   1079c:	0001e7b7          	lui	a5,0x1e
   107a0:	c2878793          	addi	a5,a5,-984 # 1dc28 <zeroes.4441+0x80>
   107a4:	06f13023          	sd	a5,96(sp)
   107a8:	008b8793          	addi	a5,s7,8
   107ac:	02f13823          	sd	a5,48(sp)
   107b0:	02047793          	andi	a5,s0,32
   107b4:	60078ce3          	beqz	a5,115cc <_vfprintf_r+0x10b0>
   107b8:	000bbb83          	ld	s7,0(s7)
   107bc:	00147793          	andi	a5,s0,1
   107c0:	00078e63          	beqz	a5,107dc <_vfprintf_r+0x2c0>
   107c4:	000b8c63          	beqz	s7,107dc <_vfprintf_r+0x2c0>
   107c8:	03000793          	li	a5,48
   107cc:	00246413          	ori	s0,s0,2
   107d0:	0cf10823          	sb	a5,208(sp)
   107d4:	0d6108a3          	sb	s6,209(sp)
   107d8:	0004041b          	sext.w	s0,s0
   107dc:	bff47413          	andi	s0,s0,-1025
   107e0:	0004041b          	sext.w	s0,s0
   107e4:	00200793          	li	a5,2
   107e8:	48d0006f          	j	11474 <_vfprintf_r+0xf58>
   107ec:	00098513          	mv	a0,s3
   107f0:	0b5040ef          	jal	ra,150a4 <_localeconv_r>
   107f4:	00853783          	ld	a5,8(a0)
   107f8:	00078513          	mv	a0,a5
   107fc:	04f13823          	sd	a5,80(sp)
   10800:	360060ef          	jal	ra,16b60 <strlen>
   10804:	04a13023          	sd	a0,64(sp)
   10808:	00098513          	mv	a0,s3
   1080c:	099040ef          	jal	ra,150a4 <_localeconv_r>
   10810:	01053783          	ld	a5,16(a0)
   10814:	00f13023          	sd	a5,0(sp)
   10818:	04013783          	ld	a5,64(sp)
   1081c:	02078863          	beqz	a5,1084c <_vfprintf_r+0x330>
   10820:	00013783          	ld	a5,0(sp)
   10824:	02078463          	beqz	a5,1084c <_vfprintf_r+0x330>
   10828:	0007c783          	lbu	a5,0(a5)
   1082c:	02078063          	beqz	a5,1084c <_vfprintf_r+0x330>
   10830:	40046413          	ori	s0,s0,1024
   10834:	0004041b          	sext.w	s0,s0
   10838:	0140006f          	j	1084c <_vfprintf_r+0x330>
   1083c:	0cf14783          	lbu	a5,207(sp)
   10840:	00079663          	bnez	a5,1084c <_vfprintf_r+0x330>
   10844:	02000793          	li	a5,32
   10848:	0cf107a3          	sb	a5,207(sp)
   1084c:	01013783          	ld	a5,16(sp)
   10850:	f09ff06f          	j	10758 <_vfprintf_r+0x23c>
   10854:	00146413          	ori	s0,s0,1
   10858:	fddff06f          	j	10834 <_vfprintf_r+0x318>
   1085c:	000ba783          	lw	a5,0(s7)
   10860:	008b8b93          	addi	s7,s7,8
   10864:	02f13023          	sd	a5,32(sp)
   10868:	fe07d2e3          	bgez	a5,1084c <_vfprintf_r+0x330>
   1086c:	02012783          	lw	a5,32(sp)
   10870:	40f007bb          	negw	a5,a5
   10874:	02f13023          	sd	a5,32(sp)
   10878:	00446413          	ori	s0,s0,4
   1087c:	fb9ff06f          	j	10834 <_vfprintf_r+0x318>
   10880:	02b00793          	li	a5,43
   10884:	fc5ff06f          	j	10848 <_vfprintf_r+0x32c>
   10888:	01013703          	ld	a4,16(sp)
   1088c:	01013783          	ld	a5,16(sp)
   10890:	00074b03          	lbu	s6,0(a4)
   10894:	00178793          	addi	a5,a5,1
   10898:	04cb1463          	bne	s6,a2,108e0 <_vfprintf_r+0x3c4>
   1089c:	000bae03          	lw	t3,0(s7)
   108a0:	008b8713          	addi	a4,s7,8
   108a4:	000e5463          	bgez	t3,108ac <_vfprintf_r+0x390>
   108a8:	fff00e13          	li	t3,-1
   108ac:	000e0d9b          	sext.w	s11,t3
   108b0:	00070b93          	mv	s7,a4
   108b4:	00f13823          	sd	a5,16(sp)
   108b8:	f95ff06f          	j	1084c <_vfprintf_r+0x330>
   108bc:	03bc0e3b          	mulw	t3,s8,s11
   108c0:	00178793          	addi	a5,a5,1
   108c4:	fff7cb03          	lbu	s6,-1(a5)
   108c8:	00ee0dbb          	addw	s11,t3,a4
   108cc:	fd0b059b          	addiw	a1,s6,-48
   108d0:	00058713          	mv	a4,a1
   108d4:	feb6f4e3          	bgeu	a3,a1,108bc <_vfprintf_r+0x3a0>
   108d8:	00f13823          	sd	a5,16(sp)
   108dc:	e91ff06f          	j	1076c <_vfprintf_r+0x250>
   108e0:	00000d93          	li	s11,0
   108e4:	fe9ff06f          	j	108cc <_vfprintf_r+0x3b0>
   108e8:	08046413          	ori	s0,s0,128
   108ec:	f49ff06f          	j	10834 <_vfprintf_r+0x318>
   108f0:	01013783          	ld	a5,16(sp)
   108f4:	02013023          	sd	zero,32(sp)
   108f8:	02012703          	lw	a4,32(sp)
   108fc:	fd0b0b1b          	addiw	s6,s6,-48
   10900:	00178793          	addi	a5,a5,1
   10904:	02ec073b          	mulw	a4,s8,a4
   10908:	00eb073b          	addw	a4,s6,a4
   1090c:	fff7cb03          	lbu	s6,-1(a5)
   10910:	02e13023          	sd	a4,32(sp)
   10914:	fd0b071b          	addiw	a4,s6,-48
   10918:	fee6f0e3          	bgeu	a3,a4,108f8 <_vfprintf_r+0x3dc>
   1091c:	fbdff06f          	j	108d8 <_vfprintf_r+0x3bc>
   10920:	00846413          	ori	s0,s0,8
   10924:	f11ff06f          	j	10834 <_vfprintf_r+0x318>
   10928:	01013783          	ld	a5,16(sp)
   1092c:	0007c703          	lbu	a4,0(a5)
   10930:	06800793          	li	a5,104
   10934:	00f71c63          	bne	a4,a5,1094c <_vfprintf_r+0x430>
   10938:	01013783          	ld	a5,16(sp)
   1093c:	20046413          	ori	s0,s0,512
   10940:	00178793          	addi	a5,a5,1
   10944:	00f13823          	sd	a5,16(sp)
   10948:	eedff06f          	j	10834 <_vfprintf_r+0x318>
   1094c:	04046413          	ori	s0,s0,64
   10950:	ee5ff06f          	j	10834 <_vfprintf_r+0x318>
   10954:	01013783          	ld	a5,16(sp)
   10958:	0007c703          	lbu	a4,0(a5)
   1095c:	06c00793          	li	a5,108
   10960:	00f71c63          	bne	a4,a5,10978 <_vfprintf_r+0x45c>
   10964:	01013783          	ld	a5,16(sp)
   10968:	00178793          	addi	a5,a5,1
   1096c:	00f13823          	sd	a5,16(sp)
   10970:	02046413          	ori	s0,s0,32
   10974:	ec1ff06f          	j	10834 <_vfprintf_r+0x318>
   10978:	01046413          	ori	s0,s0,16
   1097c:	eb9ff06f          	j	10834 <_vfprintf_r+0x318>
   10980:	008b8793          	addi	a5,s7,8
   10984:	02f13823          	sd	a5,48(sp)
   10988:	000ba783          	lw	a5,0(s7)
   1098c:	0c0107a3          	sb	zero,207(sp)
   10990:	10f10c23          	sb	a5,280(sp)
   10994:	00000b93          	li	s7,0
   10998:	00100d93          	li	s11,1
   1099c:	00000713          	li	a4,0
   109a0:	00013423          	sd	zero,8(sp)
   109a4:	00000c13          	li	s8,0
   109a8:	00000d13          	li	s10,0
   109ac:	11810493          	addi	s1,sp,280
   109b0:	00070693          	mv	a3,a4
   109b4:	01b75463          	bge	a4,s11,109bc <_vfprintf_r+0x4a0>
   109b8:	000d8693          	mv	a3,s11
   109bc:	0cf14603          	lbu	a2,207(sp)
   109c0:	0006879b          	sext.w	a5,a3
   109c4:	02f13c23          	sd	a5,56(sp)
   109c8:	00060663          	beqz	a2,109d4 <_vfprintf_r+0x4b8>
   109cc:	0016879b          	addiw	a5,a3,1
   109d0:	02f13c23          	sd	a5,56(sp)
   109d4:	00247693          	andi	a3,s0,2
   109d8:	0006879b          	sext.w	a5,a3
   109dc:	06f13423          	sd	a5,104(sp)
   109e0:	00078863          	beqz	a5,109f0 <_vfprintf_r+0x4d4>
   109e4:	03812783          	lw	a5,56(sp)
   109e8:	0027879b          	addiw	a5,a5,2
   109ec:	02f13c23          	sd	a5,56(sp)
   109f0:	08447793          	andi	a5,s0,132
   109f4:	06f13823          	sd	a5,112(sp)
   109f8:	08079063          	bnez	a5,10a78 <_vfprintf_r+0x55c>
   109fc:	02012783          	lw	a5,32(sp)
   10a00:	03812683          	lw	a3,56(sp)
   10a04:	40d786bb          	subw	a3,a5,a3
   10a08:	06d05863          	blez	a3,10a78 <_vfprintf_r+0x55c>
   10a0c:	0001e837          	lui	a6,0x1e
   10a10:	01000893          	li	a7,16
   10a14:	b9880813          	addi	a6,a6,-1128 # 1db98 <blanks.4440>
   10a18:	00700e93          	li	t4,7
   10a1c:	10812583          	lw	a1,264(sp)
   10a20:	010cb023          	sd	a6,0(s9)
   10a24:	11013603          	ld	a2,272(sp)
   10a28:	0015851b          	addiw	a0,a1,1
   10a2c:	00050593          	mv	a1,a0
   10a30:	010c8f13          	addi	t5,s9,16
   10a34:	54d8c0e3          	blt	a7,a3,11774 <_vfprintf_r+0x1258>
   10a38:	00dcb423          	sd	a3,8(s9)
   10a3c:	00c686b3          	add	a3,a3,a2
   10a40:	10d13823          	sd	a3,272(sp)
   10a44:	10a12423          	sw	a0,264(sp)
   10a48:	00700693          	li	a3,7
   10a4c:	000f0c93          	mv	s9,t5
   10a50:	02a6d463          	bge	a3,a0,10a78 <_vfprintf_r+0x55c>
   10a54:	10010613          	addi	a2,sp,256
   10a58:	00090593          	mv	a1,s2
   10a5c:	00098513          	mv	a0,s3
   10a60:	06e13c23          	sd	a4,120(sp)
   10a64:	6d5070ef          	jal	ra,18938 <__sprint_r>
   10a68:	00050463          	beqz	a0,10a70 <_vfprintf_r+0x554>
   10a6c:	0010106f          	j	1226c <_vfprintf_r+0x1d50>
   10a70:	07813703          	ld	a4,120(sp)
   10a74:	000a8c93          	mv	s9,s5
   10a78:	0cf14683          	lbu	a3,207(sp)
   10a7c:	04068e63          	beqz	a3,10ad8 <_vfprintf_r+0x5bc>
   10a80:	0cf10693          	addi	a3,sp,207
   10a84:	00dcb023          	sd	a3,0(s9)
   10a88:	00100693          	li	a3,1
   10a8c:	00dcb423          	sd	a3,8(s9)
   10a90:	11013683          	ld	a3,272(sp)
   10a94:	010c8c93          	addi	s9,s9,16
   10a98:	00168693          	addi	a3,a3,1 # 2001 <_start-0xe0af>
   10a9c:	10d13823          	sd	a3,272(sp)
   10aa0:	10812683          	lw	a3,264(sp)
   10aa4:	0016861b          	addiw	a2,a3,1
   10aa8:	10c12423          	sw	a2,264(sp)
   10aac:	00700693          	li	a3,7
   10ab0:	02c6d463          	bge	a3,a2,10ad8 <_vfprintf_r+0x5bc>
   10ab4:	10010613          	addi	a2,sp,256
   10ab8:	00090593          	mv	a1,s2
   10abc:	00098513          	mv	a0,s3
   10ac0:	06e13c23          	sd	a4,120(sp)
   10ac4:	675070ef          	jal	ra,18938 <__sprint_r>
   10ac8:	00050463          	beqz	a0,10ad0 <_vfprintf_r+0x5b4>
   10acc:	7a00106f          	j	1226c <_vfprintf_r+0x1d50>
   10ad0:	07813703          	ld	a4,120(sp)
   10ad4:	000a8c93          	mv	s9,s5
   10ad8:	06813783          	ld	a5,104(sp)
   10adc:	04078e63          	beqz	a5,10b38 <_vfprintf_r+0x61c>
   10ae0:	0d010693          	addi	a3,sp,208
   10ae4:	00dcb023          	sd	a3,0(s9)
   10ae8:	00200693          	li	a3,2
   10aec:	00dcb423          	sd	a3,8(s9)
   10af0:	11013683          	ld	a3,272(sp)
   10af4:	010c8c93          	addi	s9,s9,16
   10af8:	00268693          	addi	a3,a3,2
   10afc:	10d13823          	sd	a3,272(sp)
   10b00:	10812683          	lw	a3,264(sp)
   10b04:	0016861b          	addiw	a2,a3,1
   10b08:	10c12423          	sw	a2,264(sp)
   10b0c:	00700693          	li	a3,7
   10b10:	02c6d463          	bge	a3,a2,10b38 <_vfprintf_r+0x61c>
   10b14:	10010613          	addi	a2,sp,256
   10b18:	00090593          	mv	a1,s2
   10b1c:	00098513          	mv	a0,s3
   10b20:	06e13423          	sd	a4,104(sp)
   10b24:	615070ef          	jal	ra,18938 <__sprint_r>
   10b28:	00050463          	beqz	a0,10b30 <_vfprintf_r+0x614>
   10b2c:	7400106f          	j	1226c <_vfprintf_r+0x1d50>
   10b30:	06813703          	ld	a4,104(sp)
   10b34:	000a8c93          	mv	s9,s5
   10b38:	07013783          	ld	a5,112(sp)
   10b3c:	08000693          	li	a3,128
   10b40:	08d79063          	bne	a5,a3,10bc0 <_vfprintf_r+0x6a4>
   10b44:	02012783          	lw	a5,32(sp)
   10b48:	03812683          	lw	a3,56(sp)
   10b4c:	40d786bb          	subw	a3,a5,a3
   10b50:	06d05863          	blez	a3,10bc0 <_vfprintf_r+0x6a4>
   10b54:	0001e837          	lui	a6,0x1e
   10b58:	01000893          	li	a7,16
   10b5c:	ba880813          	addi	a6,a6,-1112 # 1dba8 <zeroes.4441>
   10b60:	00700e93          	li	t4,7
   10b64:	10812583          	lw	a1,264(sp)
   10b68:	010cb023          	sd	a6,0(s9)
   10b6c:	11013603          	ld	a2,272(sp)
   10b70:	0015851b          	addiw	a0,a1,1
   10b74:	00050593          	mv	a1,a0
   10b78:	010c8f13          	addi	t5,s9,16
   10b7c:	44d8cce3          	blt	a7,a3,117d4 <_vfprintf_r+0x12b8>
   10b80:	00dcb423          	sd	a3,8(s9)
   10b84:	00c686b3          	add	a3,a3,a2
   10b88:	10d13823          	sd	a3,272(sp)
   10b8c:	10a12423          	sw	a0,264(sp)
   10b90:	00700693          	li	a3,7
   10b94:	000f0c93          	mv	s9,t5
   10b98:	02a6d463          	bge	a3,a0,10bc0 <_vfprintf_r+0x6a4>
   10b9c:	10010613          	addi	a2,sp,256
   10ba0:	00090593          	mv	a1,s2
   10ba4:	00098513          	mv	a0,s3
   10ba8:	06e13423          	sd	a4,104(sp)
   10bac:	58d070ef          	jal	ra,18938 <__sprint_r>
   10bb0:	00050463          	beqz	a0,10bb8 <_vfprintf_r+0x69c>
   10bb4:	6b80106f          	j	1226c <_vfprintf_r+0x1d50>
   10bb8:	06813703          	ld	a4,104(sp)
   10bbc:	000a8c93          	mv	s9,s5
   10bc0:	41b7073b          	subw	a4,a4,s11
   10bc4:	06e05463          	blez	a4,10c2c <_vfprintf_r+0x710>
   10bc8:	0001e837          	lui	a6,0x1e
   10bcc:	01000893          	li	a7,16
   10bd0:	ba880813          	addi	a6,a6,-1112 # 1dba8 <zeroes.4441>
   10bd4:	00700e93          	li	t4,7
   10bd8:	10812603          	lw	a2,264(sp)
   10bdc:	010cb023          	sd	a6,0(s9)
   10be0:	11013683          	ld	a3,272(sp)
   10be4:	0016059b          	addiw	a1,a2,1
   10be8:	00058613          	mv	a2,a1
   10bec:	010c8513          	addi	a0,s9,16
   10bf0:	44e8c2e3          	blt	a7,a4,11834 <_vfprintf_r+0x1318>
   10bf4:	00ecb423          	sd	a4,8(s9)
   10bf8:	00d70733          	add	a4,a4,a3
   10bfc:	10e13823          	sd	a4,272(sp)
   10c00:	10b12423          	sw	a1,264(sp)
   10c04:	00700713          	li	a4,7
   10c08:	00050c93          	mv	s9,a0
   10c0c:	02b75063          	bge	a4,a1,10c2c <_vfprintf_r+0x710>
   10c10:	10010613          	addi	a2,sp,256
   10c14:	00090593          	mv	a1,s2
   10c18:	00098513          	mv	a0,s3
   10c1c:	51d070ef          	jal	ra,18938 <__sprint_r>
   10c20:	00050463          	beqz	a0,10c28 <_vfprintf_r+0x70c>
   10c24:	6480106f          	j	1226c <_vfprintf_r+0x1d50>
   10c28:	000a8c93          	mv	s9,s5
   10c2c:	10047693          	andi	a3,s0,256
   10c30:	11013703          	ld	a4,272(sp)
   10c34:	44069ce3          	bnez	a3,1188c <_vfprintf_r+0x1370>
   10c38:	10812783          	lw	a5,264(sp)
   10c3c:	00ed8e33          	add	t3,s11,a4
   10c40:	009cb023          	sd	s1,0(s9)
   10c44:	0017871b          	addiw	a4,a5,1
   10c48:	01bcb423          	sd	s11,8(s9)
   10c4c:	11c13823          	sd	t3,272(sp)
   10c50:	10e12423          	sw	a4,264(sp)
   10c54:	00700793          	li	a5,7
   10c58:	010c8c93          	addi	s9,s9,16
   10c5c:	54e7dae3          	bge	a5,a4,119b0 <_vfprintf_r+0x1494>
   10c60:	10010613          	addi	a2,sp,256
   10c64:	00090593          	mv	a1,s2
   10c68:	00098513          	mv	a0,s3
   10c6c:	4cd070ef          	jal	ra,18938 <__sprint_r>
   10c70:	00050463          	beqz	a0,10c78 <_vfprintf_r+0x75c>
   10c74:	5f80106f          	j	1226c <_vfprintf_r+0x1d50>
   10c78:	000a8c93          	mv	s9,s5
   10c7c:	5350006f          	j	119b0 <_vfprintf_r+0x1494>
   10c80:	01046413          	ori	s0,s0,16
   10c84:	0004041b          	sext.w	s0,s0
   10c88:	008b8793          	addi	a5,s7,8
   10c8c:	02f13823          	sd	a5,48(sp)
   10c90:	02047793          	andi	a5,s0,32
   10c94:	02078c63          	beqz	a5,10ccc <_vfprintf_r+0x7b0>
   10c98:	000bbb83          	ld	s7,0(s7)
   10c9c:	000bd863          	bgez	s7,10cac <_vfprintf_r+0x790>
   10ca0:	02d00793          	li	a5,45
   10ca4:	41700bb3          	neg	s7,s7
   10ca8:	0cf107a3          	sb	a5,207(sp)
   10cac:	fff00793          	li	a5,-1
   10cb0:	14fd9ce3          	bne	s11,a5,11608 <_vfprintf_r+0x10ec>
   10cb4:	00900793          	li	a5,9
   10cb8:	1d77e4e3          	bltu	a5,s7,11680 <_vfprintf_r+0x1164>
   10cbc:	030b8b9b          	addiw	s7,s7,48
   10cc0:	17710da3          	sb	s7,379(sp)
   10cc4:	17b10493          	addi	s1,sp,379
   10cc8:	1910006f          	j	11658 <_vfprintf_r+0x113c>
   10ccc:	01047793          	andi	a5,s0,16
   10cd0:	fc0794e3          	bnez	a5,10c98 <_vfprintf_r+0x77c>
   10cd4:	04047793          	andi	a5,s0,64
   10cd8:	00078663          	beqz	a5,10ce4 <_vfprintf_r+0x7c8>
   10cdc:	000b9b83          	lh	s7,0(s7)
   10ce0:	fbdff06f          	j	10c9c <_vfprintf_r+0x780>
   10ce4:	20047793          	andi	a5,s0,512
   10ce8:	00078663          	beqz	a5,10cf4 <_vfprintf_r+0x7d8>
   10cec:	000b8b83          	lb	s7,0(s7)
   10cf0:	fadff06f          	j	10c9c <_vfprintf_r+0x780>
   10cf4:	000bab83          	lw	s7,0(s7)
   10cf8:	fa5ff06f          	j	10c9c <_vfprintf_r+0x780>
   10cfc:	00847793          	andi	a5,s0,8
   10d00:	08078063          	beqz	a5,10d80 <_vfprintf_r+0x864>
   10d04:	00fb8b93          	addi	s7,s7,15
   10d08:	ff0bfb93          	andi	s7,s7,-16
   10d0c:	010b8793          	addi	a5,s7,16
   10d10:	02f13823          	sd	a5,48(sp)
   10d14:	000bb783          	ld	a5,0(s7)
   10d18:	0ef13823          	sd	a5,240(sp)
   10d1c:	008bb783          	ld	a5,8(s7)
   10d20:	0ef13c23          	sd	a5,248(sp)
   10d24:	0f010513          	addi	a0,sp,240
   10d28:	320040ef          	jal	ra,15048 <_ldcheck>
   10d2c:	0ca12c23          	sw	a0,216(sp)
   10d30:	00200793          	li	a5,2
   10d34:	06f51a63          	bne	a0,a5,10da8 <_vfprintf_r+0x88c>
   10d38:	0f013503          	ld	a0,240(sp)
   10d3c:	0f813583          	ld	a1,248(sp)
   10d40:	00000613          	li	a2,0
   10d44:	00000693          	li	a3,0
   10d48:	2280b0ef          	jal	ra,1bf70 <__letf2>
   10d4c:	00055663          	bgez	a0,10d58 <_vfprintf_r+0x83c>
   10d50:	02d00793          	li	a5,45
   10d54:	0cf107a3          	sb	a5,207(sp)
   10d58:	04700793          	li	a5,71
   10d5c:	0567c063          	blt	a5,s6,10d9c <_vfprintf_r+0x880>
   10d60:	0001e4b7          	lui	s1,0x1e
   10d64:	bf048493          	addi	s1,s1,-1040 # 1dbf0 <zeroes.4441+0x48>
   10d68:	f7f47413          	andi	s0,s0,-129
   10d6c:	0004041b          	sext.w	s0,s0
   10d70:	00000b93          	li	s7,0
   10d74:	00300d93          	li	s11,3
   10d78:	00000713          	li	a4,0
   10d7c:	0ed0006f          	j	11668 <_vfprintf_r+0x114c>
   10d80:	000bb507          	fld	fa0,0(s7)
   10d84:	008b8793          	addi	a5,s7,8
   10d88:	02f13823          	sd	a5,48(sp)
   10d8c:	7d40c0ef          	jal	ra,1d560 <__extenddftf2>
   10d90:	0ea13823          	sd	a0,240(sp)
   10d94:	0eb13c23          	sd	a1,248(sp)
   10d98:	f8dff06f          	j	10d24 <_vfprintf_r+0x808>
   10d9c:	0001e4b7          	lui	s1,0x1e
   10da0:	bf848493          	addi	s1,s1,-1032 # 1dbf8 <zeroes.4441+0x50>
   10da4:	fc5ff06f          	j	10d68 <_vfprintf_r+0x84c>
   10da8:	00100793          	li	a5,1
   10dac:	02f51a63          	bne	a0,a5,10de0 <_vfprintf_r+0x8c4>
   10db0:	0f813783          	ld	a5,248(sp)
   10db4:	0007d663          	bgez	a5,10dc0 <_vfprintf_r+0x8a4>
   10db8:	02d00793          	li	a5,45
   10dbc:	0cf107a3          	sb	a5,207(sp)
   10dc0:	04700793          	li	a5,71
   10dc4:	0167c863          	blt	a5,s6,10dd4 <_vfprintf_r+0x8b8>
   10dc8:	0001e4b7          	lui	s1,0x1e
   10dcc:	c0048493          	addi	s1,s1,-1024 # 1dc00 <zeroes.4441+0x58>
   10dd0:	f99ff06f          	j	10d68 <_vfprintf_r+0x84c>
   10dd4:	0001e4b7          	lui	s1,0x1e
   10dd8:	c0848493          	addi	s1,s1,-1016 # 1dc08 <zeroes.4441+0x60>
   10ddc:	f8dff06f          	j	10d68 <_vfprintf_r+0x84c>
   10de0:	fdfb7c13          	andi	s8,s6,-33
   10de4:	04100793          	li	a5,65
   10de8:	06fc1063          	bne	s8,a5,10e48 <_vfprintf_r+0x92c>
   10dec:	03000793          	li	a5,48
   10df0:	0cf10823          	sb	a5,208(sp)
   10df4:	06100713          	li	a4,97
   10df8:	05800793          	li	a5,88
   10dfc:	00eb1463          	bne	s6,a4,10e04 <_vfprintf_r+0x8e8>
   10e00:	07800793          	li	a5,120
   10e04:	0cf108a3          	sb	a5,209(sp)
   10e08:	00246413          	ori	s0,s0,2
   10e0c:	06300793          	li	a5,99
   10e10:	0004041b          	sext.w	s0,s0
   10e14:	1fb7d663          	bge	a5,s11,11000 <_vfprintf_r+0xae4>
   10e18:	001d859b          	addiw	a1,s11,1
   10e1c:	00098513          	mv	a0,s3
   10e20:	448040ef          	jal	ra,15268 <_malloc_r>
   10e24:	00050493          	mv	s1,a0
   10e28:	1e051263          	bnez	a0,1100c <_vfprintf_r+0xaf0>
   10e2c:	01095783          	lhu	a5,16(s2)
   10e30:	0407e793          	ori	a5,a5,64
   10e34:	00f91823          	sh	a5,16(s2)
   10e38:	01095783          	lhu	a5,16(s2)
   10e3c:	0407f793          	andi	a5,a5,64
   10e40:	fc078463          	beqz	a5,10608 <_vfprintf_r+0xec>
   10e44:	815ff06f          	j	10658 <_vfprintf_r+0x13c>
   10e48:	fff00793          	li	a5,-1
   10e4c:	1cfd8463          	beq	s11,a5,11014 <_vfprintf_r+0xaf8>
   10e50:	04700793          	li	a5,71
   10e54:	00000b93          	li	s7,0
   10e58:	00fc1463          	bne	s8,a5,10e60 <_vfprintf_r+0x944>
   10e5c:	1c0d8263          	beqz	s11,11020 <_vfprintf_r+0xb04>
   10e60:	10046793          	ori	a5,s0,256
   10e64:	0f813a03          	ld	s4,248(sp)
   10e68:	0007879b          	sext.w	a5,a5
   10e6c:	02f13c23          	sd	a5,56(sp)
   10e70:	06013c23          	sd	zero,120(sp)
   10e74:	0f013e83          	ld	t4,240(sp)
   10e78:	000a5c63          	bgez	s4,10e90 <_vfprintf_r+0x974>
   10e7c:	fff00793          	li	a5,-1
   10e80:	03f79793          	slli	a5,a5,0x3f
   10e84:	00fa4a33          	xor	s4,s4,a5
   10e88:	02d00793          	li	a5,45
   10e8c:	06f13c23          	sd	a5,120(sp)
   10e90:	04100793          	li	a5,65
   10e94:	30fc1663          	bne	s8,a5,111a0 <_vfprintf_r+0xc84>
   10e98:	000e8513          	mv	a0,t4
   10e9c:	000a0593          	mv	a1,s4
   10ea0:	01d0c0ef          	jal	ra,1d6bc <__trunctfdf2>
   10ea4:	0d810513          	addi	a0,sp,216
   10ea8:	1ad050ef          	jal	ra,16854 <frexp>
   10eac:	6b40c0ef          	jal	ra,1d560 <__extenddftf2>
   10eb0:	0a013683          	ld	a3,160(sp)
   10eb4:	00000613          	li	a2,0
   10eb8:	1c00b0ef          	jal	ra,1c078 <__multf3>
   10ebc:	00000613          	li	a2,0
   10ec0:	00000693          	li	a3,0
   10ec4:	08a13023          	sd	a0,128(sp)
   10ec8:	08b13423          	sd	a1,136(sp)
   10ecc:	6b90a0ef          	jal	ra,1bd84 <__eqtf2>
   10ed0:	00051663          	bnez	a0,10edc <_vfprintf_r+0x9c0>
   10ed4:	00100793          	li	a5,1
   10ed8:	0cf12c23          	sw	a5,216(sp)
   10edc:	06100793          	li	a5,97
   10ee0:	14fb1663          	bne	s6,a5,1102c <_vfprintf_r+0xb10>
   10ee4:	0001e7b7          	lui	a5,0x1e
   10ee8:	c1078793          	addi	a5,a5,-1008 # 1dc10 <zeroes.4441+0x68>
   10eec:	00f13423          	sd	a5,8(sp)
   10ef0:	fffd871b          	addiw	a4,s11,-1
   10ef4:	00048a13          	mv	s4,s1
   10ef8:	0a813683          	ld	a3,168(sp)
   10efc:	08013503          	ld	a0,128(sp)
   10f00:	08813583          	ld	a1,136(sp)
   10f04:	00000613          	li	a2,0
   10f08:	0ae13823          	sd	a4,176(sp)
   10f0c:	16c0b0ef          	jal	ra,1c078 <__multf3>
   10f10:	00050d13          	mv	s10,a0
   10f14:	06b13423          	sd	a1,104(sp)
   10f18:	4ac0c0ef          	jal	ra,1d3c4 <__fixtfsi>
   10f1c:	0005079b          	sext.w	a5,a0
   10f20:	06f13823          	sd	a5,112(sp)
   10f24:	5780c0ef          	jal	ra,1d49c <__floatsitf>
   10f28:	06813783          	ld	a5,104(sp)
   10f2c:	00058693          	mv	a3,a1
   10f30:	00050613          	mv	a2,a0
   10f34:	00078593          	mv	a1,a5
   10f38:	000d0513          	mv	a0,s10
   10f3c:	1dd0b0ef          	jal	ra,1c918 <__subtf3>
   10f40:	00813783          	ld	a5,8(sp)
   10f44:	07013703          	ld	a4,112(sp)
   10f48:	001a0a13          	addi	s4,s4,1
   10f4c:	08a13023          	sd	a0,128(sp)
   10f50:	00e786b3          	add	a3,a5,a4
   10f54:	0b013703          	ld	a4,176(sp)
   10f58:	0006c683          	lbu	a3,0(a3)
   10f5c:	08b13423          	sd	a1,136(sp)
   10f60:	0007079b          	sext.w	a5,a4
   10f64:	06f13423          	sd	a5,104(sp)
   10f68:	feda0fa3          	sb	a3,-1(s4)
   10f6c:	fff00793          	li	a5,-1
   10f70:	00050893          	mv	a7,a0
   10f74:	00058d13          	mv	s10,a1
   10f78:	0cf70063          	beq	a4,a5,11038 <_vfprintf_r+0xb1c>
   10f7c:	fff7071b          	addiw	a4,a4,-1
   10f80:	00000613          	li	a2,0
   10f84:	00000693          	li	a3,0
   10f88:	0ae13823          	sd	a4,176(sp)
   10f8c:	0aa13c23          	sd	a0,184(sp)
   10f90:	5f50a0ef          	jal	ra,1bd84 <__eqtf2>
   10f94:	0b013703          	ld	a4,176(sp)
   10f98:	0b813883          	ld	a7,184(sp)
   10f9c:	f4051ee3          	bnez	a0,10ef8 <_vfprintf_r+0x9dc>
   10fa0:	09013683          	ld	a3,144(sp)
   10fa4:	00000613          	li	a2,0
   10fa8:	00088513          	mv	a0,a7
   10fac:	000d0593          	mv	a1,s10
   10fb0:	09113023          	sd	a7,128(sp)
   10fb4:	6b50a0ef          	jal	ra,1be68 <__getf2>
   10fb8:	08a04663          	bgtz	a0,11044 <_vfprintf_r+0xb28>
   10fbc:	08013883          	ld	a7,128(sp)
   10fc0:	09013683          	ld	a3,144(sp)
   10fc4:	00000613          	li	a2,0
   10fc8:	00088513          	mv	a0,a7
   10fcc:	000d0593          	mv	a1,s10
   10fd0:	5b50a0ef          	jal	ra,1bd84 <__eqtf2>
   10fd4:	00051863          	bnez	a0,10fe4 <_vfprintf_r+0xac8>
   10fd8:	07013783          	ld	a5,112(sp)
   10fdc:	0017f713          	andi	a4,a5,1
   10fe0:	06071263          	bnez	a4,11044 <_vfprintf_r+0xb28>
   10fe4:	06812703          	lw	a4,104(sp)
   10fe8:	03000693          	li	a3,48
   10fec:	08074863          	bltz	a4,1107c <_vfprintf_r+0xb60>
   10ff0:	001a0a13          	addi	s4,s4,1
   10ff4:	feda0fa3          	sb	a3,-1(s4)
   10ff8:	fff7071b          	addiw	a4,a4,-1
   10ffc:	ff1ff06f          	j	10fec <_vfprintf_r+0xad0>
   11000:	00000b93          	li	s7,0
   11004:	11810493          	addi	s1,sp,280
   11008:	e59ff06f          	j	10e60 <_vfprintf_r+0x944>
   1100c:	00050b93          	mv	s7,a0
   11010:	e51ff06f          	j	10e60 <_vfprintf_r+0x944>
   11014:	00000b93          	li	s7,0
   11018:	00600d93          	li	s11,6
   1101c:	e45ff06f          	j	10e60 <_vfprintf_r+0x944>
   11020:	000d8b93          	mv	s7,s11
   11024:	00100d93          	li	s11,1
   11028:	e39ff06f          	j	10e60 <_vfprintf_r+0x944>
   1102c:	0001e7b7          	lui	a5,0x1e
   11030:	c2878793          	addi	a5,a5,-984 # 1dc28 <zeroes.4441+0x80>
   11034:	eb9ff06f          	j	10eec <_vfprintf_r+0x9d0>
   11038:	fff00793          	li	a5,-1
   1103c:	06f13423          	sd	a5,104(sp)
   11040:	f61ff06f          	j	10fa0 <_vfprintf_r+0xa84>
   11044:	00813783          	ld	a5,8(sp)
   11048:	0f413423          	sd	s4,232(sp)
   1104c:	03000593          	li	a1,48
   11050:	00f7c603          	lbu	a2,15(a5)
   11054:	0e813683          	ld	a3,232(sp)
   11058:	fff68713          	addi	a4,a3,-1
   1105c:	0ee13423          	sd	a4,232(sp)
   11060:	fff6c703          	lbu	a4,-1(a3)
   11064:	12c70463          	beq	a4,a2,1118c <_vfprintf_r+0xc70>
   11068:	03900613          	li	a2,57
   1106c:	12c71463          	bne	a4,a2,11194 <_vfprintf_r+0xc78>
   11070:	00813783          	ld	a5,8(sp)
   11074:	00a7c703          	lbu	a4,10(a5)
   11078:	fee68fa3          	sb	a4,-1(a3)
   1107c:	04700713          	li	a4,71
   11080:	409a0a3b          	subw	s4,s4,s1
   11084:	0d812d03          	lw	s10,216(sp)
   11088:	20ec1c63          	bne	s8,a4,112a0 <_vfprintf_r+0xd84>
   1108c:	ffd00713          	li	a4,-3
   11090:	00ed4463          	blt	s10,a4,11098 <_vfprintf_r+0xb7c>
   11094:	29add863          	bge	s11,s10,11324 <_vfprintf_r+0xe08>
   11098:	ffeb0b1b          	addiw	s6,s6,-2
   1109c:	fffd069b          	addiw	a3,s10,-1
   110a0:	0cd12c23          	sw	a3,216(sp)
   110a4:	fdfb7613          	andi	a2,s6,-33
   110a8:	04100513          	li	a0,65
   110ac:	0ffb7713          	zext.b	a4,s6
   110b0:	00000593          	li	a1,0
   110b4:	00a61863          	bne	a2,a0,110c4 <_vfprintf_r+0xba8>
   110b8:	00f7071b          	addiw	a4,a4,15
   110bc:	0ff77713          	zext.b	a4,a4
   110c0:	00100593          	li	a1,1
   110c4:	0ee10023          	sb	a4,224(sp)
   110c8:	02b00793          	li	a5,43
   110cc:	0006d863          	bgez	a3,110dc <_vfprintf_r+0xbc0>
   110d0:	00100693          	li	a3,1
   110d4:	41a686bb          	subw	a3,a3,s10
   110d8:	02d00793          	li	a5,45
   110dc:	0ef100a3          	sb	a5,225(sp)
   110e0:	00900793          	li	a5,9
   110e4:	20d7d263          	bge	a5,a3,112e8 <_vfprintf_r+0xdcc>
   110e8:	0ef10713          	addi	a4,sp,239
   110ec:	00070513          	mv	a0,a4
   110f0:	00a00593          	li	a1,10
   110f4:	00900813          	li	a6,9
   110f8:	02b6e7bb          	remw	a5,a3,a1
   110fc:	fff70613          	addi	a2,a4,-1
   11100:	02b6c6bb          	divw	a3,a3,a1
   11104:	0307879b          	addiw	a5,a5,48
   11108:	fef70fa3          	sb	a5,-1(a4)
   1110c:	1cd84063          	blt	a6,a3,112cc <_vfprintf_r+0xdb0>
   11110:	0306879b          	addiw	a5,a3,48
   11114:	fef60fa3          	sb	a5,-1(a2)
   11118:	ffe70713          	addi	a4,a4,-2
   1111c:	0e210613          	addi	a2,sp,226
   11120:	1aa76a63          	bltu	a4,a0,112d4 <_vfprintf_r+0xdb8>
   11124:	0e010793          	addi	a5,sp,224
   11128:	40f607bb          	subw	a5,a2,a5
   1112c:	04f13c23          	sd	a5,88(sp)
   11130:	05812783          	lw	a5,88(sp)
   11134:	00100713          	li	a4,1
   11138:	01478dbb          	addw	s11,a5,s4
   1113c:	000d8793          	mv	a5,s11
   11140:	01474663          	blt	a4,s4,1114c <_vfprintf_r+0xc30>
   11144:	00147713          	andi	a4,s0,1
   11148:	00070663          	beqz	a4,11154 <_vfprintf_r+0xc38>
   1114c:	01812703          	lw	a4,24(sp)
   11150:	00e78dbb          	addw	s11,a5,a4
   11154:	bff47413          	andi	s0,s0,-1025
   11158:	0004041b          	sext.w	s0,s0
   1115c:	10046793          	ori	a5,s0,256
   11160:	02f13c23          	sd	a5,56(sp)
   11164:	00013423          	sd	zero,8(sp)
   11168:	00000c13          	li	s8,0
   1116c:	00000d13          	li	s10,0
   11170:	07813783          	ld	a5,120(sp)
   11174:	00078663          	beqz	a5,11180 <_vfprintf_r+0xc64>
   11178:	02d00713          	li	a4,45
   1117c:	0ce107a3          	sb	a4,207(sp)
   11180:	03813403          	ld	s0,56(sp)
   11184:	00000713          	li	a4,0
   11188:	829ff06f          	j	109b0 <_vfprintf_r+0x494>
   1118c:	feb68fa3          	sb	a1,-1(a3)
   11190:	ec5ff06f          	j	11054 <_vfprintf_r+0xb38>
   11194:	0017071b          	addiw	a4,a4,1
   11198:	0ff77713          	zext.b	a4,a4
   1119c:	eddff06f          	j	11078 <_vfprintf_r+0xb5c>
   111a0:	04600793          	li	a5,70
   111a4:	00fc0e63          	beq	s8,a5,111c0 <_vfprintf_r+0xca4>
   111a8:	04500793          	li	a5,69
   111ac:	000d8d13          	mv	s10,s11
   111b0:	00fc1463          	bne	s8,a5,111b8 <_vfprintf_r+0xc9c>
   111b4:	001d8d1b          	addiw	s10,s11,1
   111b8:	00200693          	li	a3,2
   111bc:	00c0006f          	j	111c8 <_vfprintf_r+0xcac>
   111c0:	000d8d13          	mv	s10,s11
   111c4:	00300693          	li	a3,3
   111c8:	0d810793          	addi	a5,sp,216
   111cc:	000e8593          	mv	a1,t4
   111d0:	0e810893          	addi	a7,sp,232
   111d4:	0dc10813          	addi	a6,sp,220
   111d8:	000d0713          	mv	a4,s10
   111dc:	000a0613          	mv	a2,s4
   111e0:	00098513          	mv	a0,s3
   111e4:	01d13423          	sd	t4,8(sp)
   111e8:	21c030ef          	jal	ra,14404 <_ldtoa_r>
   111ec:	04700793          	li	a5,71
   111f0:	00050493          	mv	s1,a0
   111f4:	00813e83          	ld	t4,8(sp)
   111f8:	00fc1663          	bne	s8,a5,11204 <_vfprintf_r+0xce8>
   111fc:	00147793          	andi	a5,s0,1
   11200:	08078063          	beqz	a5,11280 <_vfprintf_r+0xd64>
   11204:	04600713          	li	a4,70
   11208:	01a487b3          	add	a5,s1,s10
   1120c:	04ec1663          	bne	s8,a4,11258 <_vfprintf_r+0xd3c>
   11210:	0004c683          	lbu	a3,0(s1)
   11214:	03000713          	li	a4,48
   11218:	02e69c63          	bne	a3,a4,11250 <_vfprintf_r+0xd34>
   1121c:	000e8513          	mv	a0,t4
   11220:	00000613          	li	a2,0
   11224:	00000693          	li	a3,0
   11228:	000a0593          	mv	a1,s4
   1122c:	06f13423          	sd	a5,104(sp)
   11230:	01d13423          	sd	t4,8(sp)
   11234:	3510a0ef          	jal	ra,1bd84 <__eqtf2>
   11238:	00813e83          	ld	t4,8(sp)
   1123c:	06813783          	ld	a5,104(sp)
   11240:	00050863          	beqz	a0,11250 <_vfprintf_r+0xd34>
   11244:	00100713          	li	a4,1
   11248:	41a70d3b          	subw	s10,a4,s10
   1124c:	0da12c23          	sw	s10,216(sp)
   11250:	0d812703          	lw	a4,216(sp)
   11254:	00e787b3          	add	a5,a5,a4
   11258:	00000693          	li	a3,0
   1125c:	00000613          	li	a2,0
   11260:	000e8513          	mv	a0,t4
   11264:	000a0593          	mv	a1,s4
   11268:	00f13423          	sd	a5,8(sp)
   1126c:	3190a0ef          	jal	ra,1bd84 <__eqtf2>
   11270:	00813783          	ld	a5,8(sp)
   11274:	03000693          	li	a3,48
   11278:	00051e63          	bnez	a0,11294 <_vfprintf_r+0xd78>
   1127c:	0ef13423          	sd	a5,232(sp)
   11280:	0e813a03          	ld	s4,232(sp)
   11284:	df9ff06f          	j	1107c <_vfprintf_r+0xb60>
   11288:	00170613          	addi	a2,a4,1
   1128c:	0ec13423          	sd	a2,232(sp)
   11290:	00d70023          	sb	a3,0(a4)
   11294:	0e813703          	ld	a4,232(sp)
   11298:	fef768e3          	bltu	a4,a5,11288 <_vfprintf_r+0xd6c>
   1129c:	fe5ff06f          	j	11280 <_vfprintf_r+0xd64>
   112a0:	04600713          	li	a4,70
   112a4:	deec1ce3          	bne	s8,a4,1109c <_vfprintf_r+0xb80>
   112a8:	07a05263          	blez	s10,1130c <_vfprintf_r+0xdf0>
   112ac:	000d9663          	bnez	s11,112b8 <_vfprintf_r+0xd9c>
   112b0:	00147713          	andi	a4,s0,1
   112b4:	0c070463          	beqz	a4,1137c <_vfprintf_r+0xe60>
   112b8:	01812783          	lw	a5,24(sp)
   112bc:	01a7873b          	addw	a4,a5,s10
   112c0:	01b70dbb          	addw	s11,a4,s11
   112c4:	06600b13          	li	s6,102
   112c8:	0940006f          	j	1135c <_vfprintf_r+0xe40>
   112cc:	00060713          	mv	a4,a2
   112d0:	e29ff06f          	j	110f8 <_vfprintf_r+0xbdc>
   112d4:	00170713          	addi	a4,a4,1
   112d8:	fff74783          	lbu	a5,-1(a4)
   112dc:	00160613          	addi	a2,a2,1
   112e0:	fef60fa3          	sb	a5,-1(a2)
   112e4:	e3dff06f          	j	11120 <_vfprintf_r+0xc04>
   112e8:	0e210713          	addi	a4,sp,226
   112ec:	00059863          	bnez	a1,112fc <_vfprintf_r+0xde0>
   112f0:	03000793          	li	a5,48
   112f4:	0ef10123          	sb	a5,226(sp)
   112f8:	0e310713          	addi	a4,sp,227
   112fc:	0306879b          	addiw	a5,a3,48
   11300:	00170613          	addi	a2,a4,1
   11304:	00f70023          	sb	a5,0(a4)
   11308:	e1dff06f          	j	11124 <_vfprintf_r+0xc08>
   1130c:	000d9663          	bnez	s11,11318 <_vfprintf_r+0xdfc>
   11310:	00147713          	andi	a4,s0,1
   11314:	06070863          	beqz	a4,11384 <_vfprintf_r+0xe68>
   11318:	01812783          	lw	a5,24(sp)
   1131c:	0017871b          	addiw	a4,a5,1
   11320:	fa1ff06f          	j	112c0 <_vfprintf_r+0xda4>
   11324:	034d4063          	blt	s10,s4,11344 <_vfprintf_r+0xe28>
   11328:	00147713          	andi	a4,s0,1
   1132c:	000d0d93          	mv	s11,s10
   11330:	00070663          	beqz	a4,1133c <_vfprintf_r+0xe20>
   11334:	01812783          	lw	a5,24(sp)
   11338:	01a78dbb          	addw	s11,a5,s10
   1133c:	06700b13          	li	s6,103
   11340:	01c0006f          	j	1135c <_vfprintf_r+0xe40>
   11344:	01812783          	lw	a5,24(sp)
   11348:	06700b13          	li	s6,103
   1134c:	01478dbb          	addw	s11,a5,s4
   11350:	01a04663          	bgtz	s10,1135c <_vfprintf_r+0xe40>
   11354:	41ad8e3b          	subw	t3,s11,s10
   11358:	001e0d9b          	addiw	s11,t3,1
   1135c:	40047413          	andi	s0,s0,1024
   11360:	00040c1b          	sext.w	s8,s0
   11364:	00013423          	sd	zero,8(sp)
   11368:	e00c04e3          	beqz	s8,11170 <_vfprintf_r+0xc54>
   1136c:	00000c13          	li	s8,0
   11370:	e1a050e3          	blez	s10,11170 <_vfprintf_r+0xc54>
   11374:	0ff00693          	li	a3,255
   11378:	03c0006f          	j	113b4 <_vfprintf_r+0xe98>
   1137c:	000d0d93          	mv	s11,s10
   11380:	f45ff06f          	j	112c4 <_vfprintf_r+0xda8>
   11384:	06600b13          	li	s6,102
   11388:	00100d93          	li	s11,1
   1138c:	fd1ff06f          	j	1135c <_vfprintf_r+0xe40>
   11390:	0007071b          	sext.w	a4,a4
   11394:	03a75663          	bge	a4,s10,113c0 <_vfprintf_r+0xea4>
   11398:	00013783          	ld	a5,0(sp)
   1139c:	40ed0d3b          	subw	s10,s10,a4
   113a0:	0017c703          	lbu	a4,1(a5)
   113a4:	02070a63          	beqz	a4,113d8 <_vfprintf_r+0xebc>
   113a8:	00178793          	addi	a5,a5,1
   113ac:	001c0c1b          	addiw	s8,s8,1
   113b0:	00f13023          	sd	a5,0(sp)
   113b4:	00013783          	ld	a5,0(sp)
   113b8:	0007c703          	lbu	a4,0(a5)
   113bc:	fcd71ae3          	bne	a4,a3,11390 <_vfprintf_r+0xe74>
   113c0:	00812783          	lw	a5,8(sp)
   113c4:	00fc073b          	addw	a4,s8,a5
   113c8:	04012783          	lw	a5,64(sp)
   113cc:	02f7073b          	mulw	a4,a4,a5
   113d0:	01b70dbb          	addw	s11,a4,s11
   113d4:	d9dff06f          	j	11170 <_vfprintf_r+0xc54>
   113d8:	00812783          	lw	a5,8(sp)
   113dc:	0017879b          	addiw	a5,a5,1
   113e0:	00f13423          	sd	a5,8(sp)
   113e4:	fd1ff06f          	j	113b4 <_vfprintf_r+0xe98>
   113e8:	008b8713          	addi	a4,s7,8
   113ec:	02e13823          	sd	a4,48(sp)
   113f0:	02047713          	andi	a4,s0,32
   113f4:	000bb783          	ld	a5,0(s7)
   113f8:	00070c63          	beqz	a4,11410 <_vfprintf_r+0xef4>
   113fc:	02813703          	ld	a4,40(sp)
   11400:	00e7b023          	sd	a4,0(a5)
   11404:	03013b83          	ld	s7,48(sp)
   11408:	01013483          	ld	s1,16(sp)
   1140c:	ab8ff06f          	j	106c4 <_vfprintf_r+0x1a8>
   11410:	01047713          	andi	a4,s0,16
   11414:	fe0714e3          	bnez	a4,113fc <_vfprintf_r+0xee0>
   11418:	04047713          	andi	a4,s0,64
   1141c:	00070863          	beqz	a4,1142c <_vfprintf_r+0xf10>
   11420:	02815703          	lhu	a4,40(sp)
   11424:	00e79023          	sh	a4,0(a5)
   11428:	fddff06f          	j	11404 <_vfprintf_r+0xee8>
   1142c:	20047413          	andi	s0,s0,512
   11430:	00040863          	beqz	s0,11440 <_vfprintf_r+0xf24>
   11434:	02814703          	lbu	a4,40(sp)
   11438:	00e78023          	sb	a4,0(a5)
   1143c:	fc9ff06f          	j	11404 <_vfprintf_r+0xee8>
   11440:	02812703          	lw	a4,40(sp)
   11444:	00e7a023          	sw	a4,0(a5)
   11448:	fbdff06f          	j	11404 <_vfprintf_r+0xee8>
   1144c:	01046413          	ori	s0,s0,16
   11450:	0004041b          	sext.w	s0,s0
   11454:	008b8793          	addi	a5,s7,8
   11458:	02f13823          	sd	a5,48(sp)
   1145c:	02047793          	andi	a5,s0,32
   11460:	04078063          	beqz	a5,114a0 <_vfprintf_r+0xf84>
   11464:	000bbb83          	ld	s7,0(s7)
   11468:	bff47413          	andi	s0,s0,-1025
   1146c:	0004041b          	sext.w	s0,s0
   11470:	00000793          	li	a5,0
   11474:	0c0107a3          	sb	zero,207(sp)
   11478:	fff00713          	li	a4,-1
   1147c:	18ed8c63          	beq	s11,a4,11614 <_vfprintf_r+0x10f8>
   11480:	00040713          	mv	a4,s0
   11484:	f7f47413          	andi	s0,s0,-129
   11488:	0004041b          	sext.w	s0,s0
   1148c:	180b9463          	bnez	s7,11614 <_vfprintf_r+0x10f8>
   11490:	2a0d8a63          	beqz	s11,11744 <_vfprintf_r+0x1228>
   11494:	00100713          	li	a4,1
   11498:	18e79263          	bne	a5,a4,1161c <_vfprintf_r+0x1100>
   1149c:	821ff06f          	j	10cbc <_vfprintf_r+0x7a0>
   114a0:	01047793          	andi	a5,s0,16
   114a4:	fc0790e3          	bnez	a5,11464 <_vfprintf_r+0xf48>
   114a8:	04047793          	andi	a5,s0,64
   114ac:	000bab83          	lw	s7,0(s7)
   114b0:	00078863          	beqz	a5,114c0 <_vfprintf_r+0xfa4>
   114b4:	030b9b93          	slli	s7,s7,0x30
   114b8:	030bdb93          	srli	s7,s7,0x30
   114bc:	fadff06f          	j	11468 <_vfprintf_r+0xf4c>
   114c0:	20047793          	andi	a5,s0,512
   114c4:	00078663          	beqz	a5,114d0 <_vfprintf_r+0xfb4>
   114c8:	0ffbfb93          	zext.b	s7,s7
   114cc:	f9dff06f          	j	11468 <_vfprintf_r+0xf4c>
   114d0:	020b9b93          	slli	s7,s7,0x20
   114d4:	020bdb93          	srli	s7,s7,0x20
   114d8:	f91ff06f          	j	11468 <_vfprintf_r+0xf4c>
   114dc:	008b8793          	addi	a5,s7,8
   114e0:	02f13823          	sd	a5,48(sp)
   114e4:	ffff87b7          	lui	a5,0xffff8
   114e8:	8307c793          	xori	a5,a5,-2000
   114ec:	0cf11823          	sh	a5,208(sp)
   114f0:	0001e7b7          	lui	a5,0x1e
   114f4:	c1078793          	addi	a5,a5,-1008 # 1dc10 <zeroes.4441+0x68>
   114f8:	00246413          	ori	s0,s0,2
   114fc:	06f13023          	sd	a5,96(sp)
   11500:	000bbb83          	ld	s7,0(s7)
   11504:	0004041b          	sext.w	s0,s0
   11508:	00200793          	li	a5,2
   1150c:	07800b13          	li	s6,120
   11510:	f65ff06f          	j	11474 <_vfprintf_r+0xf58>
   11514:	008b8793          	addi	a5,s7,8
   11518:	02f13823          	sd	a5,48(sp)
   1151c:	0c0107a3          	sb	zero,207(sp)
   11520:	fff00793          	li	a5,-1
   11524:	000bb483          	ld	s1,0(s7)
   11528:	02fd8463          	beq	s11,a5,11550 <_vfprintf_r+0x1034>
   1152c:	000d8613          	mv	a2,s11
   11530:	00000593          	li	a1,0
   11534:	00048513          	mv	a0,s1
   11538:	3d4040ef          	jal	ra,1590c <memchr>
   1153c:	00050b93          	mv	s7,a0
   11540:	82050ce3          	beqz	a0,10d78 <_vfprintf_r+0x85c>
   11544:	40950dbb          	subw	s11,a0,s1
   11548:	00000b93          	li	s7,0
   1154c:	82dff06f          	j	10d78 <_vfprintf_r+0x85c>
   11550:	00048513          	mv	a0,s1
   11554:	60c050ef          	jal	ra,16b60 <strlen>
   11558:	00050d9b          	sext.w	s11,a0
   1155c:	fedff06f          	j	11548 <_vfprintf_r+0x102c>
   11560:	01046413          	ori	s0,s0,16
   11564:	0004041b          	sext.w	s0,s0
   11568:	008b8793          	addi	a5,s7,8
   1156c:	02f13823          	sd	a5,48(sp)
   11570:	02047793          	andi	a5,s0,32
   11574:	00078863          	beqz	a5,11584 <_vfprintf_r+0x1068>
   11578:	000bbb83          	ld	s7,0(s7)
   1157c:	00100793          	li	a5,1
   11580:	ef5ff06f          	j	11474 <_vfprintf_r+0xf58>
   11584:	01047793          	andi	a5,s0,16
   11588:	fe0798e3          	bnez	a5,11578 <_vfprintf_r+0x105c>
   1158c:	04047793          	andi	a5,s0,64
   11590:	000bab83          	lw	s7,0(s7)
   11594:	00078863          	beqz	a5,115a4 <_vfprintf_r+0x1088>
   11598:	030b9b93          	slli	s7,s7,0x30
   1159c:	030bdb93          	srli	s7,s7,0x30
   115a0:	fddff06f          	j	1157c <_vfprintf_r+0x1060>
   115a4:	20047793          	andi	a5,s0,512
   115a8:	00078663          	beqz	a5,115b4 <_vfprintf_r+0x1098>
   115ac:	0ffbfb93          	zext.b	s7,s7
   115b0:	fcdff06f          	j	1157c <_vfprintf_r+0x1060>
   115b4:	020b9b93          	slli	s7,s7,0x20
   115b8:	020bdb93          	srli	s7,s7,0x20
   115bc:	fc1ff06f          	j	1157c <_vfprintf_r+0x1060>
   115c0:	0001e7b7          	lui	a5,0x1e
   115c4:	c1078793          	addi	a5,a5,-1008 # 1dc10 <zeroes.4441+0x68>
   115c8:	9dcff06f          	j	107a4 <_vfprintf_r+0x288>
   115cc:	01047793          	andi	a5,s0,16
   115d0:	9e079463          	bnez	a5,107b8 <_vfprintf_r+0x29c>
   115d4:	04047793          	andi	a5,s0,64
   115d8:	000bab83          	lw	s7,0(s7)
   115dc:	00078863          	beqz	a5,115ec <_vfprintf_r+0x10d0>
   115e0:	030b9b93          	slli	s7,s7,0x30
   115e4:	030bdb93          	srli	s7,s7,0x30
   115e8:	9d4ff06f          	j	107bc <_vfprintf_r+0x2a0>
   115ec:	20047793          	andi	a5,s0,512
   115f0:	00078663          	beqz	a5,115fc <_vfprintf_r+0x10e0>
   115f4:	0ffbfb93          	zext.b	s7,s7
   115f8:	9c4ff06f          	j	107bc <_vfprintf_r+0x2a0>
   115fc:	020b9b93          	slli	s7,s7,0x20
   11600:	020bdb93          	srli	s7,s7,0x20
   11604:	9b8ff06f          	j	107bc <_vfprintf_r+0x2a0>
   11608:	00040713          	mv	a4,s0
   1160c:	00100793          	li	a5,1
   11610:	e75ff06f          	j	11484 <_vfprintf_r+0xf68>
   11614:	00100713          	li	a4,1
   11618:	e8e78e63          	beq	a5,a4,10cb4 <_vfprintf_r+0x798>
   1161c:	00200713          	li	a4,2
   11620:	0ee78e63          	beq	a5,a4,1171c <_vfprintf_r+0x1200>
   11624:	17c10793          	addi	a5,sp,380
   11628:	007bf713          	andi	a4,s7,7
   1162c:	03070713          	addi	a4,a4,48
   11630:	fee78fa3          	sb	a4,-1(a5)
   11634:	003bdb93          	srli	s7,s7,0x3
   11638:	fff78493          	addi	s1,a5,-1
   1163c:	020b9e63          	bnez	s7,11678 <_vfprintf_r+0x115c>
   11640:	00147693          	andi	a3,s0,1
   11644:	00068a63          	beqz	a3,11658 <_vfprintf_r+0x113c>
   11648:	03000693          	li	a3,48
   1164c:	00d70663          	beq	a4,a3,11658 <_vfprintf_r+0x113c>
   11650:	fed48fa3          	sb	a3,-1(s1)
   11654:	ffe78493          	addi	s1,a5,-2
   11658:	17c10e13          	addi	t3,sp,380
   1165c:	000d8713          	mv	a4,s11
   11660:	00000b93          	li	s7,0
   11664:	409e0dbb          	subw	s11,t3,s1
   11668:	00013423          	sd	zero,8(sp)
   1166c:	00000c13          	li	s8,0
   11670:	00000d13          	li	s10,0
   11674:	b3cff06f          	j	109b0 <_vfprintf_r+0x494>
   11678:	00048793          	mv	a5,s1
   1167c:	fadff06f          	j	11628 <_vfprintf_r+0x110c>
   11680:	40047c13          	andi	s8,s0,1024
   11684:	00000a13          	li	s4,0
   11688:	17c10793          	addi	a5,sp,380
   1168c:	00a00d13          	li	s10,10
   11690:	000c0c1b          	sext.w	s8,s8
   11694:	0ff00693          	li	a3,255
   11698:	00900813          	li	a6,9
   1169c:	03abf733          	remu	a4,s7,s10
   116a0:	fff78493          	addi	s1,a5,-1
   116a4:	001a0a1b          	addiw	s4,s4,1
   116a8:	0307071b          	addiw	a4,a4,48
   116ac:	fee78fa3          	sb	a4,-1(a5)
   116b0:	040c0e63          	beqz	s8,1170c <_vfprintf_r+0x11f0>
   116b4:	00013783          	ld	a5,0(sp)
   116b8:	0007c783          	lbu	a5,0(a5)
   116bc:	04fa1863          	bne	s4,a5,1170c <_vfprintf_r+0x11f0>
   116c0:	04d78663          	beq	a5,a3,1170c <_vfprintf_r+0x11f0>
   116c4:	05787463          	bgeu	a6,s7,1170c <_vfprintf_r+0x11f0>
   116c8:	04013783          	ld	a5,64(sp)
   116cc:	05013583          	ld	a1,80(sp)
   116d0:	03013c23          	sd	a6,56(sp)
   116d4:	40f484b3          	sub	s1,s1,a5
   116d8:	00078613          	mv	a2,a5
   116dc:	00048513          	mv	a0,s1
   116e0:	00d13423          	sd	a3,8(sp)
   116e4:	498050ef          	jal	ra,16b7c <strncpy>
   116e8:	00013783          	ld	a5,0(sp)
   116ec:	00000a13          	li	s4,0
   116f0:	00813683          	ld	a3,8(sp)
   116f4:	0017c783          	lbu	a5,1(a5)
   116f8:	03813803          	ld	a6,56(sp)
   116fc:	00078863          	beqz	a5,1170c <_vfprintf_r+0x11f0>
   11700:	00013783          	ld	a5,0(sp)
   11704:	00178793          	addi	a5,a5,1
   11708:	00f13023          	sd	a5,0(sp)
   1170c:	03abdbb3          	divu	s7,s7,s10
   11710:	f40b84e3          	beqz	s7,11658 <_vfprintf_r+0x113c>
   11714:	00048793          	mv	a5,s1
   11718:	f85ff06f          	j	1169c <_vfprintf_r+0x1180>
   1171c:	17c10493          	addi	s1,sp,380
   11720:	06013703          	ld	a4,96(sp)
   11724:	00fbf793          	andi	a5,s7,15
   11728:	fff48493          	addi	s1,s1,-1
   1172c:	00f707b3          	add	a5,a4,a5
   11730:	0007c783          	lbu	a5,0(a5)
   11734:	004bdb93          	srli	s7,s7,0x4
   11738:	00f48023          	sb	a5,0(s1)
   1173c:	fe0b92e3          	bnez	s7,11720 <_vfprintf_r+0x1204>
   11740:	f19ff06f          	j	11658 <_vfprintf_r+0x113c>
   11744:	17c10493          	addi	s1,sp,380
   11748:	f00798e3          	bnez	a5,11658 <_vfprintf_r+0x113c>
   1174c:	00177713          	andi	a4,a4,1
   11750:	f00704e3          	beqz	a4,11658 <_vfprintf_r+0x113c>
   11754:	03000793          	li	a5,48
   11758:	16f10da3          	sb	a5,379(sp)
   1175c:	d68ff06f          	j	10cc4 <_vfprintf_r+0x7a8>
   11760:	360b06e3          	beqz	s6,122cc <_vfprintf_r+0x1db0>
   11764:	11610c23          	sb	s6,280(sp)
   11768:	0c0107a3          	sb	zero,207(sp)
   1176c:	03713823          	sd	s7,48(sp)
   11770:	a24ff06f          	j	10994 <_vfprintf_r+0x478>
   11774:	01060613          	addi	a2,a2,16
   11778:	011cb423          	sd	a7,8(s9)
   1177c:	10c13823          	sd	a2,272(sp)
   11780:	10b12423          	sw	a1,264(sp)
   11784:	04aed263          	bge	t4,a0,117c8 <_vfprintf_r+0x12ac>
   11788:	10010613          	addi	a2,sp,256
   1178c:	00090593          	mv	a1,s2
   11790:	00098513          	mv	a0,s3
   11794:	0bd13c23          	sd	t4,184(sp)
   11798:	0b013823          	sd	a6,176(sp)
   1179c:	09113423          	sd	a7,136(sp)
   117a0:	08e13023          	sd	a4,128(sp)
   117a4:	06d13c23          	sd	a3,120(sp)
   117a8:	190070ef          	jal	ra,18938 <__sprint_r>
   117ac:	2c0510e3          	bnez	a0,1226c <_vfprintf_r+0x1d50>
   117b0:	0b813e83          	ld	t4,184(sp)
   117b4:	0b013803          	ld	a6,176(sp)
   117b8:	08813883          	ld	a7,136(sp)
   117bc:	08013703          	ld	a4,128(sp)
   117c0:	07813683          	ld	a3,120(sp)
   117c4:	000a8f13          	mv	t5,s5
   117c8:	ff06869b          	addiw	a3,a3,-16
   117cc:	000f0c93          	mv	s9,t5
   117d0:	a4cff06f          	j	10a1c <_vfprintf_r+0x500>
   117d4:	01060613          	addi	a2,a2,16
   117d8:	011cb423          	sd	a7,8(s9)
   117dc:	10c13823          	sd	a2,272(sp)
   117e0:	10b12423          	sw	a1,264(sp)
   117e4:	04aed263          	bge	t4,a0,11828 <_vfprintf_r+0x130c>
   117e8:	10010613          	addi	a2,sp,256
   117ec:	00090593          	mv	a1,s2
   117f0:	00098513          	mv	a0,s3
   117f4:	09d13423          	sd	t4,136(sp)
   117f8:	09013023          	sd	a6,128(sp)
   117fc:	07113c23          	sd	a7,120(sp)
   11800:	06e13823          	sd	a4,112(sp)
   11804:	06d13423          	sd	a3,104(sp)
   11808:	130070ef          	jal	ra,18938 <__sprint_r>
   1180c:	260510e3          	bnez	a0,1226c <_vfprintf_r+0x1d50>
   11810:	08813e83          	ld	t4,136(sp)
   11814:	08013803          	ld	a6,128(sp)
   11818:	07813883          	ld	a7,120(sp)
   1181c:	07013703          	ld	a4,112(sp)
   11820:	06813683          	ld	a3,104(sp)
   11824:	000a8f13          	mv	t5,s5
   11828:	ff06869b          	addiw	a3,a3,-16
   1182c:	000f0c93          	mv	s9,t5
   11830:	b34ff06f          	j	10b64 <_vfprintf_r+0x648>
   11834:	01068693          	addi	a3,a3,16
   11838:	011cb423          	sd	a7,8(s9)
   1183c:	10d13823          	sd	a3,272(sp)
   11840:	10c12423          	sw	a2,264(sp)
   11844:	02bede63          	bge	t4,a1,11880 <_vfprintf_r+0x1364>
   11848:	10010613          	addi	a2,sp,256
   1184c:	00090593          	mv	a1,s2
   11850:	00098513          	mv	a0,s3
   11854:	09d13023          	sd	t4,128(sp)
   11858:	07013c23          	sd	a6,120(sp)
   1185c:	07113823          	sd	a7,112(sp)
   11860:	06e13423          	sd	a4,104(sp)
   11864:	0d4070ef          	jal	ra,18938 <__sprint_r>
   11868:	200512e3          	bnez	a0,1226c <_vfprintf_r+0x1d50>
   1186c:	08013e83          	ld	t4,128(sp)
   11870:	07813803          	ld	a6,120(sp)
   11874:	07013883          	ld	a7,112(sp)
   11878:	06813703          	ld	a4,104(sp)
   1187c:	000a8513          	mv	a0,s5
   11880:	ff07071b          	addiw	a4,a4,-16
   11884:	00050c93          	mv	s9,a0
   11888:	b50ff06f          	j	10bd8 <_vfprintf_r+0x6bc>
   1188c:	06500693          	li	a3,101
   11890:	7966dc63          	bge	a3,s6,12028 <_vfprintf_r+0x1b0c>
   11894:	0f013503          	ld	a0,240(sp)
   11898:	0f813583          	ld	a1,248(sp)
   1189c:	00000613          	li	a2,0
   118a0:	00000693          	li	a3,0
   118a4:	06e13423          	sd	a4,104(sp)
   118a8:	4dc0a0ef          	jal	ra,1bd84 <__eqtf2>
   118ac:	06813703          	ld	a4,104(sp)
   118b0:	18051663          	bnez	a0,11a3c <_vfprintf_r+0x1520>
   118b4:	0001e7b7          	lui	a5,0x1e
   118b8:	c4078793          	addi	a5,a5,-960 # 1dc40 <zeroes.4441+0x98>
   118bc:	00fcb023          	sd	a5,0(s9)
   118c0:	00100793          	li	a5,1
   118c4:	00fcb423          	sd	a5,8(s9)
   118c8:	10812783          	lw	a5,264(sp)
   118cc:	00170713          	addi	a4,a4,1
   118d0:	10e13823          	sd	a4,272(sp)
   118d4:	0017871b          	addiw	a4,a5,1
   118d8:	10e12423          	sw	a4,264(sp)
   118dc:	00700793          	li	a5,7
   118e0:	010c8c93          	addi	s9,s9,16
   118e4:	00e7de63          	bge	a5,a4,11900 <_vfprintf_r+0x13e4>
   118e8:	10010613          	addi	a2,sp,256
   118ec:	00090593          	mv	a1,s2
   118f0:	00098513          	mv	a0,s3
   118f4:	044070ef          	jal	ra,18938 <__sprint_r>
   118f8:	16051ae3          	bnez	a0,1226c <_vfprintf_r+0x1d50>
   118fc:	000a8c93          	mv	s9,s5
   11900:	0d812783          	lw	a5,216(sp)
   11904:	0147c663          	blt	a5,s4,11910 <_vfprintf_r+0x13f4>
   11908:	00147793          	andi	a5,s0,1
   1190c:	0a078263          	beqz	a5,119b0 <_vfprintf_r+0x1494>
   11910:	04813783          	ld	a5,72(sp)
   11914:	01813703          	ld	a4,24(sp)
   11918:	010c8c93          	addi	s9,s9,16
   1191c:	fefcb823          	sd	a5,-16(s9)
   11920:	01813783          	ld	a5,24(sp)
   11924:	fefcbc23          	sd	a5,-8(s9)
   11928:	11013783          	ld	a5,272(sp)
   1192c:	00e787b3          	add	a5,a5,a4
   11930:	10f13823          	sd	a5,272(sp)
   11934:	10812783          	lw	a5,264(sp)
   11938:	0017871b          	addiw	a4,a5,1
   1193c:	10e12423          	sw	a4,264(sp)
   11940:	00700793          	li	a5,7
   11944:	00e7de63          	bge	a5,a4,11960 <_vfprintf_r+0x1444>
   11948:	10010613          	addi	a2,sp,256
   1194c:	00090593          	mv	a1,s2
   11950:	00098513          	mv	a0,s3
   11954:	7e5060ef          	jal	ra,18938 <__sprint_r>
   11958:	10051ae3          	bnez	a0,1226c <_vfprintf_r+0x1d50>
   1195c:	000a8c93          	mv	s9,s5
   11960:	fffa049b          	addiw	s1,s4,-1
   11964:	04905663          	blez	s1,119b0 <_vfprintf_r+0x1494>
   11968:	0001eb37          	lui	s6,0x1e
   1196c:	01000c13          	li	s8,16
   11970:	ba8b0b13          	addi	s6,s6,-1112 # 1dba8 <zeroes.4441>
   11974:	00700d13          	li	s10,7
   11978:	10812703          	lw	a4,264(sp)
   1197c:	016cb023          	sd	s6,0(s9)
   11980:	11013783          	ld	a5,272(sp)
   11984:	0017069b          	addiw	a3,a4,1
   11988:	00068713          	mv	a4,a3
   1198c:	010c8613          	addi	a2,s9,16
   11990:	069c4a63          	blt	s8,s1,11a04 <_vfprintf_r+0x14e8>
   11994:	009cb423          	sd	s1,8(s9)
   11998:	00f484b3          	add	s1,s1,a5
   1199c:	10913823          	sd	s1,272(sp)
   119a0:	10d12423          	sw	a3,264(sp)
   119a4:	00700793          	li	a5,7
   119a8:	00060c93          	mv	s9,a2
   119ac:	aad7ca63          	blt	a5,a3,10c60 <_vfprintf_r+0x744>
   119b0:	00447413          	andi	s0,s0,4
   119b4:	04041ae3          	bnez	s0,12208 <_vfprintf_r+0x1cec>
   119b8:	02013703          	ld	a4,32(sp)
   119bc:	03813683          	ld	a3,56(sp)
   119c0:	02012783          	lw	a5,32(sp)
   119c4:	00d75463          	bge	a4,a3,119cc <_vfprintf_r+0x14b0>
   119c8:	03812783          	lw	a5,56(sp)
   119cc:	02812703          	lw	a4,40(sp)
   119d0:	00e787bb          	addw	a5,a5,a4
   119d4:	02f13423          	sd	a5,40(sp)
   119d8:	11013783          	ld	a5,272(sp)
   119dc:	00078c63          	beqz	a5,119f4 <_vfprintf_r+0x14d8>
   119e0:	10010613          	addi	a2,sp,256
   119e4:	00090593          	mv	a1,s2
   119e8:	00098513          	mv	a0,s3
   119ec:	74d060ef          	jal	ra,18938 <__sprint_r>
   119f0:	06051ee3          	bnez	a0,1226c <_vfprintf_r+0x1d50>
   119f4:	10012423          	sw	zero,264(sp)
   119f8:	0c0b92e3          	bnez	s7,122bc <_vfprintf_r+0x1da0>
   119fc:	000a8c93          	mv	s9,s5
   11a00:	a05ff06f          	j	11404 <_vfprintf_r+0xee8>
   11a04:	01078793          	addi	a5,a5,16
   11a08:	018cb423          	sd	s8,8(s9)
   11a0c:	10f13823          	sd	a5,272(sp)
   11a10:	10e12423          	sw	a4,264(sp)
   11a14:	00dd5e63          	bge	s10,a3,11a30 <_vfprintf_r+0x1514>
   11a18:	10010613          	addi	a2,sp,256
   11a1c:	00090593          	mv	a1,s2
   11a20:	00098513          	mv	a0,s3
   11a24:	715060ef          	jal	ra,18938 <__sprint_r>
   11a28:	040512e3          	bnez	a0,1226c <_vfprintf_r+0x1d50>
   11a2c:	000a8613          	mv	a2,s5
   11a30:	ff04849b          	addiw	s1,s1,-16
   11a34:	00060c93          	mv	s9,a2
   11a38:	f41ff06f          	j	11978 <_vfprintf_r+0x145c>
   11a3c:	0d812683          	lw	a3,216(sp)
   11a40:	18d04463          	bgtz	a3,11bc8 <_vfprintf_r+0x16ac>
   11a44:	0001e7b7          	lui	a5,0x1e
   11a48:	c4078793          	addi	a5,a5,-960 # 1dc40 <zeroes.4441+0x98>
   11a4c:	00fcb023          	sd	a5,0(s9)
   11a50:	00100793          	li	a5,1
   11a54:	00fcb423          	sd	a5,8(s9)
   11a58:	10812783          	lw	a5,264(sp)
   11a5c:	00170713          	addi	a4,a4,1
   11a60:	10e13823          	sd	a4,272(sp)
   11a64:	0017871b          	addiw	a4,a5,1
   11a68:	10e12423          	sw	a4,264(sp)
   11a6c:	00700793          	li	a5,7
   11a70:	010c8c93          	addi	s9,s9,16
   11a74:	00e7de63          	bge	a5,a4,11a90 <_vfprintf_r+0x1574>
   11a78:	10010613          	addi	a2,sp,256
   11a7c:	00090593          	mv	a1,s2
   11a80:	00098513          	mv	a0,s3
   11a84:	6b5060ef          	jal	ra,18938 <__sprint_r>
   11a88:	7e051263          	bnez	a0,1226c <_vfprintf_r+0x1d50>
   11a8c:	000a8c93          	mv	s9,s5
   11a90:	0d812783          	lw	a5,216(sp)
   11a94:	00079863          	bnez	a5,11aa4 <_vfprintf_r+0x1588>
   11a98:	000a1663          	bnez	s4,11aa4 <_vfprintf_r+0x1588>
   11a9c:	00147793          	andi	a5,s0,1
   11aa0:	f00788e3          	beqz	a5,119b0 <_vfprintf_r+0x1494>
   11aa4:	04813783          	ld	a5,72(sp)
   11aa8:	01813703          	ld	a4,24(sp)
   11aac:	010c8313          	addi	t1,s9,16
   11ab0:	00fcb023          	sd	a5,0(s9)
   11ab4:	01813783          	ld	a5,24(sp)
   11ab8:	00fcb423          	sd	a5,8(s9)
   11abc:	11013783          	ld	a5,272(sp)
   11ac0:	00e787b3          	add	a5,a5,a4
   11ac4:	10f13823          	sd	a5,272(sp)
   11ac8:	10812783          	lw	a5,264(sp)
   11acc:	0017871b          	addiw	a4,a5,1
   11ad0:	10e12423          	sw	a4,264(sp)
   11ad4:	00700793          	li	a5,7
   11ad8:	00e7de63          	bge	a5,a4,11af4 <_vfprintf_r+0x15d8>
   11adc:	10010613          	addi	a2,sp,256
   11ae0:	00090593          	mv	a1,s2
   11ae4:	00098513          	mv	a0,s3
   11ae8:	651060ef          	jal	ra,18938 <__sprint_r>
   11aec:	78051063          	bnez	a0,1226c <_vfprintf_r+0x1d50>
   11af0:	000a8313          	mv	t1,s5
   11af4:	0d812b03          	lw	s6,216(sp)
   11af8:	060b5463          	bgez	s6,11b60 <_vfprintf_r+0x1644>
   11afc:	0001ec37          	lui	s8,0x1e
   11b00:	41600b3b          	negw	s6,s6
   11b04:	00030793          	mv	a5,t1
   11b08:	01000d13          	li	s10,16
   11b0c:	ba8c0c13          	addi	s8,s8,-1112 # 1dba8 <zeroes.4441>
   11b10:	00700c93          	li	s9,7
   11b14:	10812683          	lw	a3,264(sp)
   11b18:	0187b023          	sd	s8,0(a5)
   11b1c:	11013703          	ld	a4,272(sp)
   11b20:	0016861b          	addiw	a2,a3,1
   11b24:	00060693          	mv	a3,a2
   11b28:	01030313          	addi	t1,t1,16
   11b2c:	076d4263          	blt	s10,s6,11b90 <_vfprintf_r+0x1674>
   11b30:	0167b423          	sd	s6,8(a5)
   11b34:	00eb0b33          	add	s6,s6,a4
   11b38:	11613823          	sd	s6,272(sp)
   11b3c:	10c12423          	sw	a2,264(sp)
   11b40:	00700793          	li	a5,7
   11b44:	00c7de63          	bge	a5,a2,11b60 <_vfprintf_r+0x1644>
   11b48:	10010613          	addi	a2,sp,256
   11b4c:	00090593          	mv	a1,s2
   11b50:	00098513          	mv	a0,s3
   11b54:	5e5060ef          	jal	ra,18938 <__sprint_r>
   11b58:	70051a63          	bnez	a0,1226c <_vfprintf_r+0x1d50>
   11b5c:	000a8313          	mv	t1,s5
   11b60:	11013783          	ld	a5,272(sp)
   11b64:	00933023          	sd	s1,0(t1)
   11b68:	01433423          	sd	s4,8(t1)
   11b6c:	014787b3          	add	a5,a5,s4
   11b70:	10f13823          	sd	a5,272(sp)
   11b74:	10812783          	lw	a5,264(sp)
   11b78:	01030c93          	addi	s9,t1,16
   11b7c:	0017871b          	addiw	a4,a5,1
   11b80:	10e12423          	sw	a4,264(sp)
   11b84:	00700793          	li	a5,7
   11b88:	e2e7d4e3          	bge	a5,a4,119b0 <_vfprintf_r+0x1494>
   11b8c:	8d4ff06f          	j	10c60 <_vfprintf_r+0x744>
   11b90:	01070713          	addi	a4,a4,16
   11b94:	01a7b423          	sd	s10,8(a5)
   11b98:	10e13823          	sd	a4,272(sp)
   11b9c:	10d12423          	sw	a3,264(sp)
   11ba0:	00ccde63          	bge	s9,a2,11bbc <_vfprintf_r+0x16a0>
   11ba4:	10010613          	addi	a2,sp,256
   11ba8:	00090593          	mv	a1,s2
   11bac:	00098513          	mv	a0,s3
   11bb0:	589060ef          	jal	ra,18938 <__sprint_r>
   11bb4:	6a051c63          	bnez	a0,1226c <_vfprintf_r+0x1d50>
   11bb8:	000a8313          	mv	t1,s5
   11bbc:	ff0b0b1b          	addiw	s6,s6,-16
   11bc0:	00030793          	mv	a5,t1
   11bc4:	f51ff06f          	j	11b14 <_vfprintf_r+0x15f8>
   11bc8:	000d0b1b          	sext.w	s6,s10
   11bcc:	01aa5463          	bge	s4,s10,11bd4 <_vfprintf_r+0x16b8>
   11bd0:	000a0b1b          	sext.w	s6,s4
   11bd4:	05605263          	blez	s6,11c18 <_vfprintf_r+0x16fc>
   11bd8:	00eb0733          	add	a4,s6,a4
   11bdc:	10e13823          	sd	a4,272(sp)
   11be0:	10812703          	lw	a4,264(sp)
   11be4:	009cb023          	sd	s1,0(s9)
   11be8:	016cb423          	sd	s6,8(s9)
   11bec:	0017069b          	addiw	a3,a4,1
   11bf0:	10d12423          	sw	a3,264(sp)
   11bf4:	00700713          	li	a4,7
   11bf8:	010c8c93          	addi	s9,s9,16
   11bfc:	00d75e63          	bge	a4,a3,11c18 <_vfprintf_r+0x16fc>
   11c00:	10010613          	addi	a2,sp,256
   11c04:	00090593          	mv	a1,s2
   11c08:	00098513          	mv	a0,s3
   11c0c:	52d060ef          	jal	ra,18938 <__sprint_r>
   11c10:	64051e63          	bnez	a0,1226c <_vfprintf_r+0x1d50>
   11c14:	000a8c93          	mv	s9,s5
   11c18:	000b0713          	mv	a4,s6
   11c1c:	000b5463          	bgez	s6,11c24 <_vfprintf_r+0x1708>
   11c20:	00000713          	li	a4,0
   11c24:	40ed0b3b          	subw	s6,s10,a4
   11c28:	07605263          	blez	s6,11c8c <_vfprintf_r+0x1770>
   11c2c:	0001e6b7          	lui	a3,0x1e
   11c30:	01000813          	li	a6,16
   11c34:	ba868d93          	addi	s11,a3,-1112 # 1dba8 <zeroes.4441>
   11c38:	00700893          	li	a7,7
   11c3c:	10812603          	lw	a2,264(sp)
   11c40:	01bcb023          	sd	s11,0(s9)
   11c44:	11013703          	ld	a4,272(sp)
   11c48:	0016059b          	addiw	a1,a2,1
   11c4c:	00058613          	mv	a2,a1
   11c50:	010c8513          	addi	a0,s9,16
   11c54:	1b684c63          	blt	a6,s6,11e0c <_vfprintf_r+0x18f0>
   11c58:	016cb423          	sd	s6,8(s9)
   11c5c:	00eb0b33          	add	s6,s6,a4
   11c60:	11613823          	sd	s6,272(sp)
   11c64:	10b12423          	sw	a1,264(sp)
   11c68:	00700713          	li	a4,7
   11c6c:	00050c93          	mv	s9,a0
   11c70:	00b75e63          	bge	a4,a1,11c8c <_vfprintf_r+0x1770>
   11c74:	10010613          	addi	a2,sp,256
   11c78:	00090593          	mv	a1,s2
   11c7c:	00098513          	mv	a0,s3
   11c80:	4b9060ef          	jal	ra,18938 <__sprint_r>
   11c84:	5e051463          	bnez	a0,1226c <_vfprintf_r+0x1d50>
   11c88:	000a8c93          	mv	s9,s5
   11c8c:	40047793          	andi	a5,s0,1024
   11c90:	01a48b33          	add	s6,s1,s10
   11c94:	02078a63          	beqz	a5,11cc8 <_vfprintf_r+0x17ac>
   11c98:	014487b3          	add	a5,s1,s4
   11c9c:	06f13423          	sd	a5,104(sp)
   11ca0:	0001e7b7          	lui	a5,0x1e
   11ca4:	ba878793          	addi	a5,a5,-1112 # 1dba8 <zeroes.4441>
   11ca8:	00700d93          	li	s11,7
   11cac:	00078d13          	mv	s10,a5
   11cb0:	00813783          	ld	a5,8(sp)
   11cb4:	1a0c1063          	bnez	s8,11e54 <_vfprintf_r+0x1938>
   11cb8:	1a079063          	bnez	a5,11e58 <_vfprintf_r+0x193c>
   11cbc:	014487b3          	add	a5,s1,s4
   11cc0:	0167f463          	bgeu	a5,s6,11cc8 <_vfprintf_r+0x17ac>
   11cc4:	00078b13          	mv	s6,a5
   11cc8:	0d812783          	lw	a5,216(sp)
   11ccc:	0147c663          	blt	a5,s4,11cd8 <_vfprintf_r+0x17bc>
   11cd0:	00147793          	andi	a5,s0,1
   11cd4:	04078a63          	beqz	a5,11d28 <_vfprintf_r+0x180c>
   11cd8:	04813783          	ld	a5,72(sp)
   11cdc:	01813703          	ld	a4,24(sp)
   11ce0:	010c8c93          	addi	s9,s9,16
   11ce4:	fefcb823          	sd	a5,-16(s9)
   11ce8:	01813783          	ld	a5,24(sp)
   11cec:	fefcbc23          	sd	a5,-8(s9)
   11cf0:	11013783          	ld	a5,272(sp)
   11cf4:	00e787b3          	add	a5,a5,a4
   11cf8:	10f13823          	sd	a5,272(sp)
   11cfc:	10812783          	lw	a5,264(sp)
   11d00:	0017871b          	addiw	a4,a5,1
   11d04:	10e12423          	sw	a4,264(sp)
   11d08:	00700793          	li	a5,7
   11d0c:	00e7de63          	bge	a5,a4,11d28 <_vfprintf_r+0x180c>
   11d10:	10010613          	addi	a2,sp,256
   11d14:	00090593          	mv	a1,s2
   11d18:	00098513          	mv	a0,s3
   11d1c:	41d060ef          	jal	ra,18938 <__sprint_r>
   11d20:	54051663          	bnez	a0,1226c <_vfprintf_r+0x1d50>
   11d24:	000a8c93          	mv	s9,s5
   11d28:	0d812c03          	lw	s8,216(sp)
   11d2c:	014484b3          	add	s1,s1,s4
   11d30:	416484bb          	subw	s1,s1,s6
   11d34:	418a07bb          	subw	a5,s4,s8
   11d38:	00078c13          	mv	s8,a5
   11d3c:	00f4d463          	bge	s1,a5,11d44 <_vfprintf_r+0x1828>
   11d40:	00048c1b          	sext.w	s8,s1
   11d44:	05805463          	blez	s8,11d8c <_vfprintf_r+0x1870>
   11d48:	11013783          	ld	a5,272(sp)
   11d4c:	016cb023          	sd	s6,0(s9)
   11d50:	018cb423          	sd	s8,8(s9)
   11d54:	00fc07b3          	add	a5,s8,a5
   11d58:	10f13823          	sd	a5,272(sp)
   11d5c:	10812783          	lw	a5,264(sp)
   11d60:	010c8c93          	addi	s9,s9,16
   11d64:	0017871b          	addiw	a4,a5,1
   11d68:	10e12423          	sw	a4,264(sp)
   11d6c:	00700793          	li	a5,7
   11d70:	00e7de63          	bge	a5,a4,11d8c <_vfprintf_r+0x1870>
   11d74:	10010613          	addi	a2,sp,256
   11d78:	00090593          	mv	a1,s2
   11d7c:	00098513          	mv	a0,s3
   11d80:	3b9060ef          	jal	ra,18938 <__sprint_r>
   11d84:	4e051463          	bnez	a0,1226c <_vfprintf_r+0x1d50>
   11d88:	000a8c93          	mv	s9,s5
   11d8c:	000c0793          	mv	a5,s8
   11d90:	000c5463          	bgez	s8,11d98 <_vfprintf_r+0x187c>
   11d94:	00000793          	li	a5,0
   11d98:	0d812483          	lw	s1,216(sp)
   11d9c:	409a04bb          	subw	s1,s4,s1
   11da0:	40f484bb          	subw	s1,s1,a5
   11da4:	c09056e3          	blez	s1,119b0 <_vfprintf_r+0x1494>
   11da8:	0001eb37          	lui	s6,0x1e
   11dac:	01000c13          	li	s8,16
   11db0:	ba8b0b13          	addi	s6,s6,-1112 # 1dba8 <zeroes.4441>
   11db4:	00700d13          	li	s10,7
   11db8:	10812703          	lw	a4,264(sp)
   11dbc:	016cb023          	sd	s6,0(s9)
   11dc0:	11013783          	ld	a5,272(sp)
   11dc4:	0017069b          	addiw	a3,a4,1
   11dc8:	00068713          	mv	a4,a3
   11dcc:	010c8613          	addi	a2,s9,16
   11dd0:	229c4063          	blt	s8,s1,11ff0 <_vfprintf_r+0x1ad4>
   11dd4:	009cb423          	sd	s1,8(s9)
   11dd8:	00f484b3          	add	s1,s1,a5
   11ddc:	10913823          	sd	s1,272(sp)
   11de0:	10d12423          	sw	a3,264(sp)
   11de4:	00700793          	li	a5,7
   11de8:	00060c93          	mv	s9,a2
   11dec:	bcd7d2e3          	bge	a5,a3,119b0 <_vfprintf_r+0x1494>
   11df0:	10010613          	addi	a2,sp,256
   11df4:	00090593          	mv	a1,s2
   11df8:	00098513          	mv	a0,s3
   11dfc:	33d060ef          	jal	ra,18938 <__sprint_r>
   11e00:	46051663          	bnez	a0,1226c <_vfprintf_r+0x1d50>
   11e04:	18010c93          	addi	s9,sp,384
   11e08:	ba9ff06f          	j	119b0 <_vfprintf_r+0x1494>
   11e0c:	01070713          	addi	a4,a4,16
   11e10:	010cb423          	sd	a6,8(s9)
   11e14:	10e13823          	sd	a4,272(sp)
   11e18:	10c12423          	sw	a2,264(sp)
   11e1c:	02b8d663          	bge	a7,a1,11e48 <_vfprintf_r+0x192c>
   11e20:	10010613          	addi	a2,sp,256
   11e24:	00090593          	mv	a1,s2
   11e28:	00098513          	mv	a0,s3
   11e2c:	07113823          	sd	a7,112(sp)
   11e30:	07013423          	sd	a6,104(sp)
   11e34:	305060ef          	jal	ra,18938 <__sprint_r>
   11e38:	42051a63          	bnez	a0,1226c <_vfprintf_r+0x1d50>
   11e3c:	07013883          	ld	a7,112(sp)
   11e40:	06813803          	ld	a6,104(sp)
   11e44:	000a8513          	mv	a0,s5
   11e48:	ff0b0b1b          	addiw	s6,s6,-16
   11e4c:	00050c93          	mv	s9,a0
   11e50:	dedff06f          	j	11c3c <_vfprintf_r+0x1720>
   11e54:	0e078863          	beqz	a5,11f44 <_vfprintf_r+0x1a28>
   11e58:	00812783          	lw	a5,8(sp)
   11e5c:	fff7879b          	addiw	a5,a5,-1
   11e60:	00f13423          	sd	a5,8(sp)
   11e64:	05013783          	ld	a5,80(sp)
   11e68:	04013703          	ld	a4,64(sp)
   11e6c:	010c8c93          	addi	s9,s9,16
   11e70:	fefcb823          	sd	a5,-16(s9)
   11e74:	04013783          	ld	a5,64(sp)
   11e78:	fefcbc23          	sd	a5,-8(s9)
   11e7c:	11013783          	ld	a5,272(sp)
   11e80:	00e787b3          	add	a5,a5,a4
   11e84:	10f13823          	sd	a5,272(sp)
   11e88:	10812783          	lw	a5,264(sp)
   11e8c:	0017871b          	addiw	a4,a5,1
   11e90:	10e12423          	sw	a4,264(sp)
   11e94:	00edde63          	bge	s11,a4,11eb0 <_vfprintf_r+0x1994>
   11e98:	10010613          	addi	a2,sp,256
   11e9c:	00090593          	mv	a1,s2
   11ea0:	00098513          	mv	a0,s3
   11ea4:	295060ef          	jal	ra,18938 <__sprint_r>
   11ea8:	3c051263          	bnez	a0,1226c <_vfprintf_r+0x1d50>
   11eac:	000a8c93          	mv	s9,s5
   11eb0:	00013703          	ld	a4,0(sp)
   11eb4:	06812783          	lw	a5,104(sp)
   11eb8:	00074703          	lbu	a4,0(a4)
   11ebc:	416787bb          	subw	a5,a5,s6
   11ec0:	00e7d463          	bge	a5,a4,11ec8 <_vfprintf_r+0x19ac>
   11ec4:	0007871b          	sext.w	a4,a5
   11ec8:	04e05663          	blez	a4,11f14 <_vfprintf_r+0x19f8>
   11ecc:	11013783          	ld	a5,272(sp)
   11ed0:	016cb023          	sd	s6,0(s9)
   11ed4:	00ecb423          	sd	a4,8(s9)
   11ed8:	00f707b3          	add	a5,a4,a5
   11edc:	10f13823          	sd	a5,272(sp)
   11ee0:	10812783          	lw	a5,264(sp)
   11ee4:	010c8c93          	addi	s9,s9,16
   11ee8:	0017869b          	addiw	a3,a5,1
   11eec:	10d12423          	sw	a3,264(sp)
   11ef0:	02ddd263          	bge	s11,a3,11f14 <_vfprintf_r+0x19f8>
   11ef4:	10010613          	addi	a2,sp,256
   11ef8:	00090593          	mv	a1,s2
   11efc:	00098513          	mv	a0,s3
   11f00:	06e13823          	sd	a4,112(sp)
   11f04:	235060ef          	jal	ra,18938 <__sprint_r>
   11f08:	36051263          	bnez	a0,1226c <_vfprintf_r+0x1d50>
   11f0c:	07013703          	ld	a4,112(sp)
   11f10:	18010c93          	addi	s9,sp,384
   11f14:	00070693          	mv	a3,a4
   11f18:	00075463          	bgez	a4,11f20 <_vfprintf_r+0x1a04>
   11f1c:	00000693          	li	a3,0
   11f20:	00013783          	ld	a5,0(sp)
   11f24:	01000813          	li	a6,16
   11f28:	0007c783          	lbu	a5,0(a5)
   11f2c:	40d787bb          	subw	a5,a5,a3
   11f30:	06f04863          	bgtz	a5,11fa0 <_vfprintf_r+0x1a84>
   11f34:	00013783          	ld	a5,0(sp)
   11f38:	0007c783          	lbu	a5,0(a5)
   11f3c:	00fb0b33          	add	s6,s6,a5
   11f40:	d71ff06f          	j	11cb0 <_vfprintf_r+0x1794>
   11f44:	00013783          	ld	a5,0(sp)
   11f48:	fffc0c1b          	addiw	s8,s8,-1
   11f4c:	fff78793          	addi	a5,a5,-1
   11f50:	00f13023          	sd	a5,0(sp)
   11f54:	f11ff06f          	j	11e64 <_vfprintf_r+0x1948>
   11f58:	01070713          	addi	a4,a4,16
   11f5c:	01acb023          	sd	s10,0(s9)
   11f60:	010cb423          	sd	a6,8(s9)
   11f64:	10e13823          	sd	a4,272(sp)
   11f68:	10d12423          	sw	a3,264(sp)
   11f6c:	02cdd663          	bge	s11,a2,11f98 <_vfprintf_r+0x1a7c>
   11f70:	10010613          	addi	a2,sp,256
   11f74:	00090593          	mv	a1,s2
   11f78:	00098513          	mv	a0,s3
   11f7c:	07013c23          	sd	a6,120(sp)
   11f80:	06f13823          	sd	a5,112(sp)
   11f84:	1b5060ef          	jal	ra,18938 <__sprint_r>
   11f88:	2e051263          	bnez	a0,1226c <_vfprintf_r+0x1d50>
   11f8c:	07813803          	ld	a6,120(sp)
   11f90:	07013783          	ld	a5,112(sp)
   11f94:	18010593          	addi	a1,sp,384
   11f98:	ff07879b          	addiw	a5,a5,-16
   11f9c:	00058c93          	mv	s9,a1
   11fa0:	10812683          	lw	a3,264(sp)
   11fa4:	11013703          	ld	a4,272(sp)
   11fa8:	010c8593          	addi	a1,s9,16
   11fac:	0016861b          	addiw	a2,a3,1
   11fb0:	00060693          	mv	a3,a2
   11fb4:	faf842e3          	blt	a6,a5,11f58 <_vfprintf_r+0x1a3c>
   11fb8:	00fcb423          	sd	a5,8(s9)
   11fbc:	00e787b3          	add	a5,a5,a4
   11fc0:	01acb023          	sd	s10,0(s9)
   11fc4:	10f13823          	sd	a5,272(sp)
   11fc8:	10c12423          	sw	a2,264(sp)
   11fcc:	00058c93          	mv	s9,a1
   11fd0:	f6cdd2e3          	bge	s11,a2,11f34 <_vfprintf_r+0x1a18>
   11fd4:	10010613          	addi	a2,sp,256
   11fd8:	00090593          	mv	a1,s2
   11fdc:	00098513          	mv	a0,s3
   11fe0:	159060ef          	jal	ra,18938 <__sprint_r>
   11fe4:	28051463          	bnez	a0,1226c <_vfprintf_r+0x1d50>
   11fe8:	18010c93          	addi	s9,sp,384
   11fec:	f49ff06f          	j	11f34 <_vfprintf_r+0x1a18>
   11ff0:	01078793          	addi	a5,a5,16
   11ff4:	018cb423          	sd	s8,8(s9)
   11ff8:	10f13823          	sd	a5,272(sp)
   11ffc:	10e12423          	sw	a4,264(sp)
   12000:	00dd5e63          	bge	s10,a3,1201c <_vfprintf_r+0x1b00>
   12004:	10010613          	addi	a2,sp,256
   12008:	00090593          	mv	a1,s2
   1200c:	00098513          	mv	a0,s3
   12010:	129060ef          	jal	ra,18938 <__sprint_r>
   12014:	24051c63          	bnez	a0,1226c <_vfprintf_r+0x1d50>
   12018:	18010613          	addi	a2,sp,384
   1201c:	ff04849b          	addiw	s1,s1,-16
   12020:	00060c93          	mv	s9,a2
   12024:	d95ff06f          	j	11db8 <_vfprintf_r+0x189c>
   12028:	10812783          	lw	a5,264(sp)
   1202c:	00100613          	li	a2,1
   12030:	009cb023          	sd	s1,0(s9)
   12034:	0017869b          	addiw	a3,a5,1
   12038:	00170713          	addi	a4,a4,1
   1203c:	00068793          	mv	a5,a3
   12040:	010c8c13          	addi	s8,s9,16
   12044:	01464663          	blt	a2,s4,12050 <_vfprintf_r+0x1b34>
   12048:	00147593          	andi	a1,s0,1
   1204c:	1a058463          	beqz	a1,121f4 <_vfprintf_r+0x1cd8>
   12050:	00100613          	li	a2,1
   12054:	10f12423          	sw	a5,264(sp)
   12058:	00ccb423          	sd	a2,8(s9)
   1205c:	10e13823          	sd	a4,272(sp)
   12060:	00700793          	li	a5,7
   12064:	00d7de63          	bge	a5,a3,12080 <_vfprintf_r+0x1b64>
   12068:	10010613          	addi	a2,sp,256
   1206c:	00090593          	mv	a1,s2
   12070:	00098513          	mv	a0,s3
   12074:	0c5060ef          	jal	ra,18938 <__sprint_r>
   12078:	1e051a63          	bnez	a0,1226c <_vfprintf_r+0x1d50>
   1207c:	000a8c13          	mv	s8,s5
   12080:	04813783          	ld	a5,72(sp)
   12084:	01813703          	ld	a4,24(sp)
   12088:	010c0c13          	addi	s8,s8,16
   1208c:	fefc3823          	sd	a5,-16(s8)
   12090:	01813783          	ld	a5,24(sp)
   12094:	fefc3c23          	sd	a5,-8(s8)
   12098:	11013783          	ld	a5,272(sp)
   1209c:	00e787b3          	add	a5,a5,a4
   120a0:	10f13823          	sd	a5,272(sp)
   120a4:	10812783          	lw	a5,264(sp)
   120a8:	0017871b          	addiw	a4,a5,1
   120ac:	10e12423          	sw	a4,264(sp)
   120b0:	00700793          	li	a5,7
   120b4:	00e7de63          	bge	a5,a4,120d0 <_vfprintf_r+0x1bb4>
   120b8:	10010613          	addi	a2,sp,256
   120bc:	00090593          	mv	a1,s2
   120c0:	00098513          	mv	a0,s3
   120c4:	075060ef          	jal	ra,18938 <__sprint_r>
   120c8:	1a051263          	bnez	a0,1226c <_vfprintf_r+0x1d50>
   120cc:	000a8c13          	mv	s8,s5
   120d0:	0f013503          	ld	a0,240(sp)
   120d4:	0f813583          	ld	a1,248(sp)
   120d8:	00000613          	li	a2,0
   120dc:	00000693          	li	a3,0
   120e0:	fffa0b1b          	addiw	s6,s4,-1
   120e4:	4a1090ef          	jal	ra,1bd84 <__eqtf2>
   120e8:	08050463          	beqz	a0,12170 <_vfprintf_r+0x1c54>
   120ec:	10812703          	lw	a4,264(sp)
   120f0:	11013783          	ld	a5,272(sp)
   120f4:	00148493          	addi	s1,s1,1
   120f8:	0017069b          	addiw	a3,a4,1
   120fc:	00fb07b3          	add	a5,s6,a5
   12100:	009c3023          	sd	s1,0(s8)
   12104:	016c3423          	sd	s6,8(s8)
   12108:	10f13823          	sd	a5,272(sp)
   1210c:	10d12423          	sw	a3,264(sp)
   12110:	00700793          	li	a5,7
   12114:	010c0c13          	addi	s8,s8,16
   12118:	00d7de63          	bge	a5,a3,12134 <_vfprintf_r+0x1c18>
   1211c:	10010613          	addi	a2,sp,256
   12120:	00090593          	mv	a1,s2
   12124:	00098513          	mv	a0,s3
   12128:	011060ef          	jal	ra,18938 <__sprint_r>
   1212c:	14051063          	bnez	a0,1226c <_vfprintf_r+0x1d50>
   12130:	000a8c13          	mv	s8,s5
   12134:	0e010793          	addi	a5,sp,224
   12138:	00fc3023          	sd	a5,0(s8)
   1213c:	05813783          	ld	a5,88(sp)
   12140:	05813703          	ld	a4,88(sp)
   12144:	010c0c93          	addi	s9,s8,16
   12148:	00fc3423          	sd	a5,8(s8)
   1214c:	11013783          	ld	a5,272(sp)
   12150:	00e787b3          	add	a5,a5,a4
   12154:	10f13823          	sd	a5,272(sp)
   12158:	10812783          	lw	a5,264(sp)
   1215c:	0017871b          	addiw	a4,a5,1
   12160:	10e12423          	sw	a4,264(sp)
   12164:	00700793          	li	a5,7
   12168:	84e7d4e3          	bge	a5,a4,119b0 <_vfprintf_r+0x1494>
   1216c:	af5fe06f          	j	10c60 <_vfprintf_r+0x744>
   12170:	fd6052e3          	blez	s6,12134 <_vfprintf_r+0x1c18>
   12174:	0001e4b7          	lui	s1,0x1e
   12178:	01000d13          	li	s10,16
   1217c:	ba848493          	addi	s1,s1,-1112 # 1dba8 <zeroes.4441>
   12180:	00700c93          	li	s9,7
   12184:	10812703          	lw	a4,264(sp)
   12188:	009c3023          	sd	s1,0(s8)
   1218c:	11013783          	ld	a5,272(sp)
   12190:	0017069b          	addiw	a3,a4,1
   12194:	00068713          	mv	a4,a3
   12198:	010c0613          	addi	a2,s8,16
   1219c:	036d4063          	blt	s10,s6,121bc <_vfprintf_r+0x1ca0>
   121a0:	00fb07b3          	add	a5,s6,a5
   121a4:	016c3423          	sd	s6,8(s8)
   121a8:	10f13823          	sd	a5,272(sp)
   121ac:	10d12423          	sw	a3,264(sp)
   121b0:	00700793          	li	a5,7
   121b4:	00060c13          	mv	s8,a2
   121b8:	f61ff06f          	j	12118 <_vfprintf_r+0x1bfc>
   121bc:	01078793          	addi	a5,a5,16
   121c0:	01ac3423          	sd	s10,8(s8)
   121c4:	10f13823          	sd	a5,272(sp)
   121c8:	10e12423          	sw	a4,264(sp)
   121cc:	00dcde63          	bge	s9,a3,121e8 <_vfprintf_r+0x1ccc>
   121d0:	10010613          	addi	a2,sp,256
   121d4:	00090593          	mv	a1,s2
   121d8:	00098513          	mv	a0,s3
   121dc:	75c060ef          	jal	ra,18938 <__sprint_r>
   121e0:	08051663          	bnez	a0,1226c <_vfprintf_r+0x1d50>
   121e4:	000a8613          	mv	a2,s5
   121e8:	ff0b0b1b          	addiw	s6,s6,-16
   121ec:	00060c13          	mv	s8,a2
   121f0:	f95ff06f          	j	12184 <_vfprintf_r+0x1c68>
   121f4:	00ccb423          	sd	a2,8(s9)
   121f8:	10e13823          	sd	a4,272(sp)
   121fc:	10d12423          	sw	a3,264(sp)
   12200:	00700793          	li	a5,7
   12204:	f15ff06f          	j	12118 <_vfprintf_r+0x1bfc>
   12208:	02012783          	lw	a5,32(sp)
   1220c:	03812703          	lw	a4,56(sp)
   12210:	40e7843b          	subw	s0,a5,a4
   12214:	fa805263          	blez	s0,119b8 <_vfprintf_r+0x149c>
   12218:	0001e4b7          	lui	s1,0x1e
   1221c:	01000b13          	li	s6,16
   12220:	b9848493          	addi	s1,s1,-1128 # 1db98 <blanks.4440>
   12224:	00700c13          	li	s8,7
   12228:	10812703          	lw	a4,264(sp)
   1222c:	009cb023          	sd	s1,0(s9)
   12230:	11013783          	ld	a5,272(sp)
   12234:	0017069b          	addiw	a3,a4,1
   12238:	00068713          	mv	a4,a3
   1223c:	048b4463          	blt	s6,s0,12284 <_vfprintf_r+0x1d68>
   12240:	008cb423          	sd	s0,8(s9)
   12244:	00f40433          	add	s0,s0,a5
   12248:	10813823          	sd	s0,272(sp)
   1224c:	10d12423          	sw	a3,264(sp)
   12250:	00700793          	li	a5,7
   12254:	f6d7d263          	bge	a5,a3,119b8 <_vfprintf_r+0x149c>
   12258:	10010613          	addi	a2,sp,256
   1225c:	00090593          	mv	a1,s2
   12260:	00098513          	mv	a0,s3
   12264:	6d4060ef          	jal	ra,18938 <__sprint_r>
   12268:	f4050863          	beqz	a0,119b8 <_vfprintf_r+0x149c>
   1226c:	000b9463          	bnez	s7,12274 <_vfprintf_r+0x1d58>
   12270:	bc9fe06f          	j	10e38 <_vfprintf_r+0x91c>
   12274:	000b8593          	mv	a1,s7
   12278:	00098513          	mv	a0,s3
   1227c:	249000ef          	jal	ra,12cc4 <_free_r>
   12280:	bb9fe06f          	j	10e38 <_vfprintf_r+0x91c>
   12284:	01078793          	addi	a5,a5,16
   12288:	016cb423          	sd	s6,8(s9)
   1228c:	10f13823          	sd	a5,272(sp)
   12290:	10e12423          	sw	a4,264(sp)
   12294:	010c8c93          	addi	s9,s9,16
   12298:	00dc5e63          	bge	s8,a3,122b4 <_vfprintf_r+0x1d98>
   1229c:	10010613          	addi	a2,sp,256
   122a0:	00090593          	mv	a1,s2
   122a4:	00098513          	mv	a0,s3
   122a8:	690060ef          	jal	ra,18938 <__sprint_r>
   122ac:	fc0510e3          	bnez	a0,1226c <_vfprintf_r+0x1d50>
   122b0:	000a8c93          	mv	s9,s5
   122b4:	ff04041b          	addiw	s0,s0,-16
   122b8:	f71ff06f          	j	12228 <_vfprintf_r+0x1d0c>
   122bc:	000b8593          	mv	a1,s7
   122c0:	00098513          	mv	a0,s3
   122c4:	201000ef          	jal	ra,12cc4 <_free_r>
   122c8:	f34ff06f          	j	119fc <_vfprintf_r+0x14e0>
   122cc:	11013783          	ld	a5,272(sp)
   122d0:	00079463          	bnez	a5,122d8 <_vfprintf_r+0x1dbc>
   122d4:	b65fe06f          	j	10e38 <_vfprintf_r+0x91c>
   122d8:	10010613          	addi	a2,sp,256
   122dc:	00090593          	mv	a1,s2
   122e0:	00098513          	mv	a0,s3
   122e4:	654060ef          	jal	ra,18938 <__sprint_r>
   122e8:	b51fe06f          	j	10e38 <_vfprintf_r+0x91c>

00000000000122ec <vfprintf>:
   122ec:	00060693          	mv	a3,a2
   122f0:	00058613          	mv	a2,a1
   122f4:	00050593          	mv	a1,a0
   122f8:	8301b503          	ld	a0,-2000(gp) # 20860 <_impure_ptr>
   122fc:	a20fe06f          	j	1051c <_vfprintf_r>

0000000000012300 <__sbprintf>:
   12300:	0105d783          	lhu	a5,16(a1)
   12304:	b3010113          	addi	sp,sp,-1232
   12308:	4c813023          	sd	s0,1216(sp)
   1230c:	ffd7f793          	andi	a5,a5,-3
   12310:	00f11823          	sh	a5,16(sp)
   12314:	0ac5a783          	lw	a5,172(a1)
   12318:	00058413          	mv	s0,a1
   1231c:	4a913c23          	sd	s1,1208(sp)
   12320:	0af12623          	sw	a5,172(sp)
   12324:	0125d783          	lhu	a5,18(a1)
   12328:	4b213823          	sd	s2,1200(sp)
   1232c:	4c113423          	sd	ra,1224(sp)
   12330:	00f11923          	sh	a5,18(sp)
   12334:	0305b783          	ld	a5,48(a1)
   12338:	00050913          	mv	s2,a0
   1233c:	02012423          	sw	zero,40(sp)
   12340:	02f13823          	sd	a5,48(sp)
   12344:	0405b783          	ld	a5,64(a1)
   12348:	00010593          	mv	a1,sp
   1234c:	04f13023          	sd	a5,64(sp)
   12350:	0b010793          	addi	a5,sp,176
   12354:	00f13023          	sd	a5,0(sp)
   12358:	00f13c23          	sd	a5,24(sp)
   1235c:	40000793          	li	a5,1024
   12360:	00f12623          	sw	a5,12(sp)
   12364:	02f12023          	sw	a5,32(sp)
   12368:	9b4fe0ef          	jal	ra,1051c <_vfprintf_r>
   1236c:	00050493          	mv	s1,a0
   12370:	00054c63          	bltz	a0,12388 <__sbprintf+0x88>
   12374:	00010593          	mv	a1,sp
   12378:	00090513          	mv	a0,s2
   1237c:	514000ef          	jal	ra,12890 <_fflush_r>
   12380:	00050463          	beqz	a0,12388 <__sbprintf+0x88>
   12384:	fff00493          	li	s1,-1
   12388:	01015783          	lhu	a5,16(sp)
   1238c:	0407f793          	andi	a5,a5,64
   12390:	00078863          	beqz	a5,123a0 <__sbprintf+0xa0>
   12394:	01045783          	lhu	a5,16(s0)
   12398:	0407e793          	ori	a5,a5,64
   1239c:	00f41823          	sh	a5,16(s0)
   123a0:	4c813083          	ld	ra,1224(sp)
   123a4:	4c013403          	ld	s0,1216(sp)
   123a8:	00048513          	mv	a0,s1
   123ac:	4b013903          	ld	s2,1200(sp)
   123b0:	4b813483          	ld	s1,1208(sp)
   123b4:	4d010113          	addi	sp,sp,1232
   123b8:	00008067          	ret

00000000000123bc <__swsetup_r>:
   123bc:	fe010113          	addi	sp,sp,-32
   123c0:	00913423          	sd	s1,8(sp)
   123c4:	00050493          	mv	s1,a0
   123c8:	8301b503          	ld	a0,-2000(gp) # 20860 <_impure_ptr>
   123cc:	00813823          	sd	s0,16(sp)
   123d0:	00113c23          	sd	ra,24(sp)
   123d4:	00058413          	mv	s0,a1
   123d8:	00050863          	beqz	a0,123e8 <__swsetup_r+0x2c>
   123dc:	05052783          	lw	a5,80(a0)
   123e0:	00079463          	bnez	a5,123e8 <__swsetup_r+0x2c>
   123e4:	638000ef          	jal	ra,12a1c <__sinit>
   123e8:	01041703          	lh	a4,16(s0)
   123ec:	03071793          	slli	a5,a4,0x30
   123f0:	0307d793          	srli	a5,a5,0x30
   123f4:	0087f693          	andi	a3,a5,8
   123f8:	06069e63          	bnez	a3,12474 <__swsetup_r+0xb8>
   123fc:	0107f693          	andi	a3,a5,16
   12400:	02069663          	bnez	a3,1242c <__swsetup_r+0x70>
   12404:	00900793          	li	a5,9
   12408:	00f4a023          	sw	a5,0(s1)
   1240c:	04076713          	ori	a4,a4,64
   12410:	00e41823          	sh	a4,16(s0)
   12414:	fff00513          	li	a0,-1
   12418:	01813083          	ld	ra,24(sp)
   1241c:	01013403          	ld	s0,16(sp)
   12420:	00813483          	ld	s1,8(sp)
   12424:	02010113          	addi	sp,sp,32
   12428:	00008067          	ret
   1242c:	0047f793          	andi	a5,a5,4
   12430:	02078c63          	beqz	a5,12468 <__swsetup_r+0xac>
   12434:	05843583          	ld	a1,88(s0)
   12438:	00058c63          	beqz	a1,12450 <__swsetup_r+0x94>
   1243c:	07440793          	addi	a5,s0,116
   12440:	00f58663          	beq	a1,a5,1244c <__swsetup_r+0x90>
   12444:	00048513          	mv	a0,s1
   12448:	07d000ef          	jal	ra,12cc4 <_free_r>
   1244c:	04043c23          	sd	zero,88(s0)
   12450:	01045783          	lhu	a5,16(s0)
   12454:	00042423          	sw	zero,8(s0)
   12458:	fdb7f793          	andi	a5,a5,-37
   1245c:	00f41823          	sh	a5,16(s0)
   12460:	01843783          	ld	a5,24(s0)
   12464:	00f43023          	sd	a5,0(s0)
   12468:	01045783          	lhu	a5,16(s0)
   1246c:	0087e793          	ori	a5,a5,8
   12470:	00f41823          	sh	a5,16(s0)
   12474:	01843783          	ld	a5,24(s0)
   12478:	02079063          	bnez	a5,12498 <__swsetup_r+0xdc>
   1247c:	01045783          	lhu	a5,16(s0)
   12480:	20000713          	li	a4,512
   12484:	2807f793          	andi	a5,a5,640
   12488:	00e78863          	beq	a5,a4,12498 <__swsetup_r+0xdc>
   1248c:	00040593          	mv	a1,s0
   12490:	00048513          	mv	a0,s1
   12494:	4e5020ef          	jal	ra,15178 <__smakebuf_r>
   12498:	01045783          	lhu	a5,16(s0)
   1249c:	0017f713          	andi	a4,a5,1
   124a0:	02070c63          	beqz	a4,124d8 <__swsetup_r+0x11c>
   124a4:	02042783          	lw	a5,32(s0)
   124a8:	00042623          	sw	zero,12(s0)
   124ac:	40f007bb          	negw	a5,a5
   124b0:	02f42423          	sw	a5,40(s0)
   124b4:	01843783          	ld	a5,24(s0)
   124b8:	00000513          	li	a0,0
   124bc:	f4079ee3          	bnez	a5,12418 <__swsetup_r+0x5c>
   124c0:	01041783          	lh	a5,16(s0)
   124c4:	0807f713          	andi	a4,a5,128
   124c8:	f40708e3          	beqz	a4,12418 <__swsetup_r+0x5c>
   124cc:	0407e793          	ori	a5,a5,64
   124d0:	00f41823          	sh	a5,16(s0)
   124d4:	f41ff06f          	j	12414 <__swsetup_r+0x58>
   124d8:	0027f793          	andi	a5,a5,2
   124dc:	00000713          	li	a4,0
   124e0:	00079463          	bnez	a5,124e8 <__swsetup_r+0x12c>
   124e4:	02042703          	lw	a4,32(s0)
   124e8:	00e42623          	sw	a4,12(s0)
   124ec:	fc9ff06f          	j	124b4 <__swsetup_r+0xf8>

00000000000124f0 <__register_exitproc>:
   124f0:	8281b703          	ld	a4,-2008(gp) # 20858 <_global_impure_ptr>
   124f4:	00050313          	mv	t1,a0
   124f8:	1f873783          	ld	a5,504(a4)
   124fc:	00079663          	bnez	a5,12508 <__register_exitproc+0x18>
   12500:	20070793          	addi	a5,a4,512
   12504:	1ef73c23          	sd	a5,504(a4)
   12508:	0087a703          	lw	a4,8(a5)
   1250c:	01f00813          	li	a6,31
   12510:	fff00513          	li	a0,-1
   12514:	04e84e63          	blt	a6,a4,12570 <__register_exitproc+0x80>
   12518:	02030e63          	beqz	t1,12554 <__register_exitproc+0x64>
   1251c:	00371813          	slli	a6,a4,0x3
   12520:	01078833          	add	a6,a5,a6
   12524:	10c83823          	sd	a2,272(a6)
   12528:	3107a883          	lw	a7,784(a5)
   1252c:	00100613          	li	a2,1
   12530:	00e6163b          	sllw	a2,a2,a4
   12534:	00c8e8b3          	or	a7,a7,a2
   12538:	3117a823          	sw	a7,784(a5)
   1253c:	20d83823          	sd	a3,528(a6)
   12540:	00200693          	li	a3,2
   12544:	00d31863          	bne	t1,a3,12554 <__register_exitproc+0x64>
   12548:	3147a683          	lw	a3,788(a5)
   1254c:	00c6e633          	or	a2,a3,a2
   12550:	30c7aa23          	sw	a2,788(a5)
   12554:	0017069b          	addiw	a3,a4,1
   12558:	00270713          	addi	a4,a4,2
   1255c:	00371713          	slli	a4,a4,0x3
   12560:	00d7a423          	sw	a3,8(a5)
   12564:	00e787b3          	add	a5,a5,a4
   12568:	00b7b023          	sd	a1,0(a5)
   1256c:	00000513          	li	a0,0
   12570:	00008067          	ret

0000000000012574 <__call_exitprocs>:
   12574:	fb010113          	addi	sp,sp,-80
   12578:	03313423          	sd	s3,40(sp)
   1257c:	8281b983          	ld	s3,-2008(gp) # 20858 <_global_impure_ptr>
   12580:	03413023          	sd	s4,32(sp)
   12584:	01513c23          	sd	s5,24(sp)
   12588:	01613823          	sd	s6,16(sp)
   1258c:	04113423          	sd	ra,72(sp)
   12590:	04813023          	sd	s0,64(sp)
   12594:	02913c23          	sd	s1,56(sp)
   12598:	03213823          	sd	s2,48(sp)
   1259c:	01713423          	sd	s7,8(sp)
   125a0:	00050a93          	mv	s5,a0
   125a4:	00058a13          	mv	s4,a1
   125a8:	00100b13          	li	s6,1
   125ac:	1f89b403          	ld	s0,504(s3)
   125b0:	00040c63          	beqz	s0,125c8 <__call_exitprocs+0x54>
   125b4:	00842483          	lw	s1,8(s0)
   125b8:	fff4849b          	addiw	s1,s1,-1
   125bc:	00349913          	slli	s2,s1,0x3
   125c0:	01240933          	add	s2,s0,s2
   125c4:	0204d863          	bgez	s1,125f4 <__call_exitprocs+0x80>
   125c8:	04813083          	ld	ra,72(sp)
   125cc:	04013403          	ld	s0,64(sp)
   125d0:	03813483          	ld	s1,56(sp)
   125d4:	03013903          	ld	s2,48(sp)
   125d8:	02813983          	ld	s3,40(sp)
   125dc:	02013a03          	ld	s4,32(sp)
   125e0:	01813a83          	ld	s5,24(sp)
   125e4:	01013b03          	ld	s6,16(sp)
   125e8:	00813b83          	ld	s7,8(sp)
   125ec:	05010113          	addi	sp,sp,80
   125f0:	00008067          	ret
   125f4:	000a0c63          	beqz	s4,1260c <__call_exitprocs+0x98>
   125f8:	21093783          	ld	a5,528(s2)
   125fc:	01478863          	beq	a5,s4,1260c <__call_exitprocs+0x98>
   12600:	fff4849b          	addiw	s1,s1,-1
   12604:	ff890913          	addi	s2,s2,-8
   12608:	fbdff06f          	j	125c4 <__call_exitprocs+0x50>
   1260c:	00842783          	lw	a5,8(s0)
   12610:	01093683          	ld	a3,16(s2)
   12614:	fff7879b          	addiw	a5,a5,-1
   12618:	02979e63          	bne	a5,s1,12654 <__call_exitprocs+0xe0>
   1261c:	00942423          	sw	s1,8(s0)
   12620:	fe0680e3          	beqz	a3,12600 <__call_exitprocs+0x8c>
   12624:	31042703          	lw	a4,784(s0)
   12628:	009b163b          	sllw	a2,s6,s1
   1262c:	00842b83          	lw	s7,8(s0)
   12630:	00c77733          	and	a4,a4,a2
   12634:	0007071b          	sext.w	a4,a4
   12638:	02071263          	bnez	a4,1265c <__call_exitprocs+0xe8>
   1263c:	000680e7          	jalr	a3
   12640:	00842703          	lw	a4,8(s0)
   12644:	1f89b783          	ld	a5,504(s3)
   12648:	f77712e3          	bne	a4,s7,125ac <__call_exitprocs+0x38>
   1264c:	faf40ae3          	beq	s0,a5,12600 <__call_exitprocs+0x8c>
   12650:	f5dff06f          	j	125ac <__call_exitprocs+0x38>
   12654:	00093823          	sd	zero,16(s2)
   12658:	fc9ff06f          	j	12620 <__call_exitprocs+0xac>
   1265c:	31442783          	lw	a5,788(s0)
   12660:	11093583          	ld	a1,272(s2)
   12664:	00c7f7b3          	and	a5,a5,a2
   12668:	0007879b          	sext.w	a5,a5
   1266c:	00079863          	bnez	a5,1267c <__call_exitprocs+0x108>
   12670:	000a8513          	mv	a0,s5
   12674:	000680e7          	jalr	a3
   12678:	fc9ff06f          	j	12640 <__call_exitprocs+0xcc>
   1267c:	00058513          	mv	a0,a1
   12680:	000680e7          	jalr	a3
   12684:	fbdff06f          	j	12640 <__call_exitprocs+0xcc>

0000000000012688 <__sflush_r>:
   12688:	01059783          	lh	a5,16(a1)
   1268c:	fd010113          	addi	sp,sp,-48
   12690:	02813023          	sd	s0,32(sp)
   12694:	03079713          	slli	a4,a5,0x30
   12698:	03075713          	srli	a4,a4,0x30
   1269c:	00913c23          	sd	s1,24(sp)
   126a0:	02113423          	sd	ra,40(sp)
   126a4:	01213823          	sd	s2,16(sp)
   126a8:	01313423          	sd	s3,8(sp)
   126ac:	00877693          	andi	a3,a4,8
   126b0:	00050493          	mv	s1,a0
   126b4:	00058413          	mv	s0,a1
   126b8:	16069c63          	bnez	a3,12830 <__sflush_r+0x1a8>
   126bc:	00001737          	lui	a4,0x1
   126c0:	80070713          	addi	a4,a4,-2048 # 800 <_start-0xf8b0>
   126c4:	00e7e7b3          	or	a5,a5,a4
   126c8:	0085a703          	lw	a4,8(a1)
   126cc:	00f59823          	sh	a5,16(a1)
   126d0:	02e04663          	bgtz	a4,126fc <__sflush_r+0x74>
   126d4:	0705a703          	lw	a4,112(a1)
   126d8:	02e04263          	bgtz	a4,126fc <__sflush_r+0x74>
   126dc:	00000513          	li	a0,0
   126e0:	02813083          	ld	ra,40(sp)
   126e4:	02013403          	ld	s0,32(sp)
   126e8:	01813483          	ld	s1,24(sp)
   126ec:	01013903          	ld	s2,16(sp)
   126f0:	00813983          	ld	s3,8(sp)
   126f4:	03010113          	addi	sp,sp,48
   126f8:	00008067          	ret
   126fc:	04843703          	ld	a4,72(s0)
   12700:	fc070ee3          	beqz	a4,126dc <__sflush_r+0x54>
   12704:	0004a903          	lw	s2,0(s1)
   12708:	03379693          	slli	a3,a5,0x33
   1270c:	0004a023          	sw	zero,0(s1)
   12710:	03043583          	ld	a1,48(s0)
   12714:	0c06d863          	bgez	a3,127e4 <__sflush_r+0x15c>
   12718:	09043603          	ld	a2,144(s0)
   1271c:	01045783          	lhu	a5,16(s0)
   12720:	0047f793          	andi	a5,a5,4
   12724:	00078e63          	beqz	a5,12740 <__sflush_r+0xb8>
   12728:	00842783          	lw	a5,8(s0)
   1272c:	40f60633          	sub	a2,a2,a5
   12730:	05843783          	ld	a5,88(s0)
   12734:	00078663          	beqz	a5,12740 <__sflush_r+0xb8>
   12738:	07042783          	lw	a5,112(s0)
   1273c:	40f60633          	sub	a2,a2,a5
   12740:	04843783          	ld	a5,72(s0)
   12744:	03043583          	ld	a1,48(s0)
   12748:	00000693          	li	a3,0
   1274c:	00048513          	mv	a0,s1
   12750:	000780e7          	jalr	a5
   12754:	fff00793          	li	a5,-1
   12758:	01045683          	lhu	a3,16(s0)
   1275c:	02f51263          	bne	a0,a5,12780 <__sflush_r+0xf8>
   12760:	0004a783          	lw	a5,0(s1)
   12764:	01d00713          	li	a4,29
   12768:	0af76c63          	bltu	a4,a5,12820 <__sflush_r+0x198>
   1276c:	20400737          	lui	a4,0x20400
   12770:	00170713          	addi	a4,a4,1 # 20400001 <__global_pointer$+0x203defd1>
   12774:	00f75733          	srl	a4,a4,a5
   12778:	00177713          	andi	a4,a4,1
   1277c:	0a070263          	beqz	a4,12820 <__sflush_r+0x198>
   12780:	fffff7b7          	lui	a5,0xfffff
   12784:	7ff78793          	addi	a5,a5,2047 # fffffffffffff7ff <__global_pointer$+0xfffffffffffde7cf>
   12788:	01843703          	ld	a4,24(s0)
   1278c:	00d7f7b3          	and	a5,a5,a3
   12790:	0107979b          	slliw	a5,a5,0x10
   12794:	4107d79b          	sraiw	a5,a5,0x10
   12798:	00e43023          	sd	a4,0(s0)
   1279c:	00f41823          	sh	a5,16(s0)
   127a0:	00042423          	sw	zero,8(s0)
   127a4:	03379713          	slli	a4,a5,0x33
   127a8:	00075c63          	bgez	a4,127c0 <__sflush_r+0x138>
   127ac:	fff00793          	li	a5,-1
   127b0:	00f51663          	bne	a0,a5,127bc <__sflush_r+0x134>
   127b4:	0004a783          	lw	a5,0(s1)
   127b8:	00079463          	bnez	a5,127c0 <__sflush_r+0x138>
   127bc:	08a43823          	sd	a0,144(s0)
   127c0:	05843583          	ld	a1,88(s0)
   127c4:	0124a023          	sw	s2,0(s1)
   127c8:	f0058ae3          	beqz	a1,126dc <__sflush_r+0x54>
   127cc:	07440793          	addi	a5,s0,116
   127d0:	00f58663          	beq	a1,a5,127dc <__sflush_r+0x154>
   127d4:	00048513          	mv	a0,s1
   127d8:	4ec000ef          	jal	ra,12cc4 <_free_r>
   127dc:	04043c23          	sd	zero,88(s0)
   127e0:	efdff06f          	j	126dc <__sflush_r+0x54>
   127e4:	00000613          	li	a2,0
   127e8:	00100693          	li	a3,1
   127ec:	00048513          	mv	a0,s1
   127f0:	000700e7          	jalr	a4
   127f4:	fff00793          	li	a5,-1
   127f8:	00050613          	mv	a2,a0
   127fc:	f2f510e3          	bne	a0,a5,1271c <__sflush_r+0x94>
   12800:	0004a783          	lw	a5,0(s1)
   12804:	f0078ce3          	beqz	a5,1271c <__sflush_r+0x94>
   12808:	01d00713          	li	a4,29
   1280c:	00e78663          	beq	a5,a4,12818 <__sflush_r+0x190>
   12810:	01600713          	li	a4,22
   12814:	06e79263          	bne	a5,a4,12878 <__sflush_r+0x1f0>
   12818:	0124a023          	sw	s2,0(s1)
   1281c:	ec1ff06f          	j	126dc <__sflush_r+0x54>
   12820:	0406e793          	ori	a5,a3,64
   12824:	00f41823          	sh	a5,16(s0)
   12828:	fff00513          	li	a0,-1
   1282c:	eb5ff06f          	j	126e0 <__sflush_r+0x58>
   12830:	0185b983          	ld	s3,24(a1)
   12834:	ea0984e3          	beqz	s3,126dc <__sflush_r+0x54>
   12838:	0005b903          	ld	s2,0(a1)
   1283c:	00377713          	andi	a4,a4,3
   12840:	0135b023          	sd	s3,0(a1)
   12844:	4139093b          	subw	s2,s2,s3
   12848:	00000793          	li	a5,0
   1284c:	00071463          	bnez	a4,12854 <__sflush_r+0x1cc>
   12850:	0205a783          	lw	a5,32(a1)
   12854:	00f42623          	sw	a5,12(s0)
   12858:	e92052e3          	blez	s2,126dc <__sflush_r+0x54>
   1285c:	04043783          	ld	a5,64(s0)
   12860:	03043583          	ld	a1,48(s0)
   12864:	00090693          	mv	a3,s2
   12868:	00098613          	mv	a2,s3
   1286c:	00048513          	mv	a0,s1
   12870:	000780e7          	jalr	a5
   12874:	00a04863          	bgtz	a0,12884 <__sflush_r+0x1fc>
   12878:	01045783          	lhu	a5,16(s0)
   1287c:	0407e793          	ori	a5,a5,64
   12880:	fa5ff06f          	j	12824 <__sflush_r+0x19c>
   12884:	00a989b3          	add	s3,s3,a0
   12888:	40a9093b          	subw	s2,s2,a0
   1288c:	fcdff06f          	j	12858 <__sflush_r+0x1d0>

0000000000012890 <_fflush_r>:
   12890:	fe010113          	addi	sp,sp,-32
   12894:	00813823          	sd	s0,16(sp)
   12898:	00113c23          	sd	ra,24(sp)
   1289c:	00050413          	mv	s0,a0
   128a0:	00050c63          	beqz	a0,128b8 <_fflush_r+0x28>
   128a4:	05052783          	lw	a5,80(a0)
   128a8:	00079863          	bnez	a5,128b8 <_fflush_r+0x28>
   128ac:	00b13423          	sd	a1,8(sp)
   128b0:	16c000ef          	jal	ra,12a1c <__sinit>
   128b4:	00813583          	ld	a1,8(sp)
   128b8:	01059783          	lh	a5,16(a1)
   128bc:	00078c63          	beqz	a5,128d4 <_fflush_r+0x44>
   128c0:	00040513          	mv	a0,s0
   128c4:	01013403          	ld	s0,16(sp)
   128c8:	01813083          	ld	ra,24(sp)
   128cc:	02010113          	addi	sp,sp,32
   128d0:	db9ff06f          	j	12688 <__sflush_r>
   128d4:	01813083          	ld	ra,24(sp)
   128d8:	01013403          	ld	s0,16(sp)
   128dc:	00000513          	li	a0,0
   128e0:	02010113          	addi	sp,sp,32
   128e4:	00008067          	ret

00000000000128e8 <fflush>:
   128e8:	00050593          	mv	a1,a0
   128ec:	00051a63          	bnez	a0,12900 <fflush+0x18>
   128f0:	8281b503          	ld	a0,-2008(gp) # 20858 <_global_impure_ptr>
   128f4:	000135b7          	lui	a1,0x13
   128f8:	89058593          	addi	a1,a1,-1904 # 12890 <_fflush_r>
   128fc:	6d40006f          	j	12fd0 <_fwalk_reent>
   12900:	8301b503          	ld	a0,-2000(gp) # 20860 <_impure_ptr>
   12904:	f8dff06f          	j	12890 <_fflush_r>

0000000000012908 <__fp_lock>:
   12908:	00000513          	li	a0,0
   1290c:	00008067          	ret

0000000000012910 <_cleanup_r>:
   12910:	0001a5b7          	lui	a1,0x1a
   12914:	82c58593          	addi	a1,a1,-2004 # 1982c <_fclose_r>
   12918:	6b80006f          	j	12fd0 <_fwalk_reent>

000000000001291c <std.isra.0>:
   1291c:	ff010113          	addi	sp,sp,-16
   12920:	00813023          	sd	s0,0(sp)
   12924:	00113423          	sd	ra,8(sp)
   12928:	00050413          	mv	s0,a0
   1292c:	00b51823          	sh	a1,16(a0)
   12930:	00c51923          	sh	a2,18(a0)
   12934:	00053023          	sd	zero,0(a0)
   12938:	00053423          	sd	zero,8(a0)
   1293c:	0a052623          	sw	zero,172(a0)
   12940:	00053c23          	sd	zero,24(a0)
   12944:	02052023          	sw	zero,32(a0)
   12948:	02052423          	sw	zero,40(a0)
   1294c:	00800613          	li	a2,8
   12950:	00000593          	li	a1,0
   12954:	0a450513          	addi	a0,a0,164
   12958:	a5dfd0ef          	jal	ra,103b4 <memset>
   1295c:	000177b7          	lui	a5,0x17
   12960:	a0878793          	addi	a5,a5,-1528 # 16a08 <__sread>
   12964:	02f43c23          	sd	a5,56(s0)
   12968:	000177b7          	lui	a5,0x17
   1296c:	a6078793          	addi	a5,a5,-1440 # 16a60 <__swrite>
   12970:	04f43023          	sd	a5,64(s0)
   12974:	000177b7          	lui	a5,0x17
   12978:	ae478793          	addi	a5,a5,-1308 # 16ae4 <__sseek>
   1297c:	04f43423          	sd	a5,72(s0)
   12980:	000177b7          	lui	a5,0x17
   12984:	b3c78793          	addi	a5,a5,-1220 # 16b3c <__sclose>
   12988:	02843823          	sd	s0,48(s0)
   1298c:	04f43823          	sd	a5,80(s0)
   12990:	00813083          	ld	ra,8(sp)
   12994:	00013403          	ld	s0,0(sp)
   12998:	01010113          	addi	sp,sp,16
   1299c:	00008067          	ret

00000000000129a0 <__fp_unlock>:
   129a0:	00000513          	li	a0,0
   129a4:	00008067          	ret

00000000000129a8 <__sfmoreglue>:
   129a8:	fe010113          	addi	sp,sp,-32
   129ac:	00913423          	sd	s1,8(sp)
   129b0:	0b000613          	li	a2,176
   129b4:	fff5849b          	addiw	s1,a1,-1
   129b8:	02c484b3          	mul	s1,s1,a2
   129bc:	01213023          	sd	s2,0(sp)
   129c0:	00058913          	mv	s2,a1
   129c4:	00813823          	sd	s0,16(sp)
   129c8:	00113c23          	sd	ra,24(sp)
   129cc:	0c848593          	addi	a1,s1,200
   129d0:	099020ef          	jal	ra,15268 <_malloc_r>
   129d4:	00050413          	mv	s0,a0
   129d8:	02050063          	beqz	a0,129f8 <__sfmoreglue+0x50>
   129dc:	00053023          	sd	zero,0(a0)
   129e0:	01252423          	sw	s2,8(a0)
   129e4:	01850513          	addi	a0,a0,24
   129e8:	00a43823          	sd	a0,16(s0)
   129ec:	0b048613          	addi	a2,s1,176
   129f0:	00000593          	li	a1,0
   129f4:	9c1fd0ef          	jal	ra,103b4 <memset>
   129f8:	00040513          	mv	a0,s0
   129fc:	01813083          	ld	ra,24(sp)
   12a00:	01013403          	ld	s0,16(sp)
   12a04:	00813483          	ld	s1,8(sp)
   12a08:	00013903          	ld	s2,0(sp)
   12a0c:	02010113          	addi	sp,sp,32
   12a10:	00008067          	ret

0000000000012a14 <_cleanup>:
   12a14:	8281b503          	ld	a0,-2008(gp) # 20858 <_global_impure_ptr>
   12a18:	ef9ff06f          	j	12910 <_cleanup_r>

0000000000012a1c <__sinit>:
   12a1c:	05052783          	lw	a5,80(a0)
   12a20:	06079e63          	bnez	a5,12a9c <__sinit+0x80>
   12a24:	ff010113          	addi	sp,sp,-16
   12a28:	000137b7          	lui	a5,0x13
   12a2c:	00113423          	sd	ra,8(sp)
   12a30:	00813023          	sd	s0,0(sp)
   12a34:	91078793          	addi	a5,a5,-1776 # 12910 <_cleanup_r>
   12a38:	04f53c23          	sd	a5,88(a0)
   12a3c:	00300793          	li	a5,3
   12a40:	52f52423          	sw	a5,1320(a0)
   12a44:	53850793          	addi	a5,a0,1336
   12a48:	00050413          	mv	s0,a0
   12a4c:	52f53823          	sd	a5,1328(a0)
   12a50:	52053023          	sd	zero,1312(a0)
   12a54:	00853503          	ld	a0,8(a0)
   12a58:	00000613          	li	a2,0
   12a5c:	00400593          	li	a1,4
   12a60:	ebdff0ef          	jal	ra,1291c <std.isra.0>
   12a64:	01043503          	ld	a0,16(s0)
   12a68:	00100613          	li	a2,1
   12a6c:	00900593          	li	a1,9
   12a70:	eadff0ef          	jal	ra,1291c <std.isra.0>
   12a74:	01843503          	ld	a0,24(s0)
   12a78:	00200613          	li	a2,2
   12a7c:	01200593          	li	a1,18
   12a80:	e9dff0ef          	jal	ra,1291c <std.isra.0>
   12a84:	00100793          	li	a5,1
   12a88:	04f42823          	sw	a5,80(s0)
   12a8c:	00813083          	ld	ra,8(sp)
   12a90:	00013403          	ld	s0,0(sp)
   12a94:	01010113          	addi	sp,sp,16
   12a98:	00008067          	ret
   12a9c:	00008067          	ret

0000000000012aa0 <__sfp>:
   12aa0:	fe010113          	addi	sp,sp,-32
   12aa4:	00913423          	sd	s1,8(sp)
   12aa8:	8281b483          	ld	s1,-2008(gp) # 20858 <_global_impure_ptr>
   12aac:	01213023          	sd	s2,0(sp)
   12ab0:	00113c23          	sd	ra,24(sp)
   12ab4:	0504a783          	lw	a5,80(s1)
   12ab8:	00813823          	sd	s0,16(sp)
   12abc:	00050913          	mv	s2,a0
   12ac0:	00079663          	bnez	a5,12acc <__sfp+0x2c>
   12ac4:	00048513          	mv	a0,s1
   12ac8:	f55ff0ef          	jal	ra,12a1c <__sinit>
   12acc:	52048493          	addi	s1,s1,1312
   12ad0:	0104b403          	ld	s0,16(s1)
   12ad4:	0084a783          	lw	a5,8(s1)
   12ad8:	fff7879b          	addiw	a5,a5,-1
   12adc:	0007da63          	bgez	a5,12af0 <__sfp+0x50>
   12ae0:	0004b783          	ld	a5,0(s1)
   12ae4:	00078e63          	beqz	a5,12b00 <__sfp+0x60>
   12ae8:	0004b483          	ld	s1,0(s1)
   12aec:	fe5ff06f          	j	12ad0 <__sfp+0x30>
   12af0:	01041703          	lh	a4,16(s0)
   12af4:	04070463          	beqz	a4,12b3c <__sfp+0x9c>
   12af8:	0b040413          	addi	s0,s0,176
   12afc:	fddff06f          	j	12ad8 <__sfp+0x38>
   12b00:	00400593          	li	a1,4
   12b04:	00090513          	mv	a0,s2
   12b08:	ea1ff0ef          	jal	ra,129a8 <__sfmoreglue>
   12b0c:	00a4b023          	sd	a0,0(s1)
   12b10:	fc051ce3          	bnez	a0,12ae8 <__sfp+0x48>
   12b14:	00c00793          	li	a5,12
   12b18:	00f92023          	sw	a5,0(s2)
   12b1c:	00000413          	li	s0,0
   12b20:	00040513          	mv	a0,s0
   12b24:	01813083          	ld	ra,24(sp)
   12b28:	01013403          	ld	s0,16(sp)
   12b2c:	00813483          	ld	s1,8(sp)
   12b30:	00013903          	ld	s2,0(sp)
   12b34:	02010113          	addi	sp,sp,32
   12b38:	00008067          	ret
   12b3c:	ffff07b7          	lui	a5,0xffff0
   12b40:	0017879b          	addiw	a5,a5,1
   12b44:	0a042623          	sw	zero,172(s0)
   12b48:	00043023          	sd	zero,0(s0)
   12b4c:	00043423          	sd	zero,8(s0)
   12b50:	00f42823          	sw	a5,16(s0)
   12b54:	00043c23          	sd	zero,24(s0)
   12b58:	02042023          	sw	zero,32(s0)
   12b5c:	02042423          	sw	zero,40(s0)
   12b60:	00800613          	li	a2,8
   12b64:	00000593          	li	a1,0
   12b68:	0a440513          	addi	a0,s0,164
   12b6c:	849fd0ef          	jal	ra,103b4 <memset>
   12b70:	04043c23          	sd	zero,88(s0)
   12b74:	06042023          	sw	zero,96(s0)
   12b78:	06043c23          	sd	zero,120(s0)
   12b7c:	08042023          	sw	zero,128(s0)
   12b80:	fa1ff06f          	j	12b20 <__sfp+0x80>

0000000000012b84 <__sfp_lock_acquire>:
   12b84:	00008067          	ret

0000000000012b88 <__sfp_lock_release>:
   12b88:	00008067          	ret

0000000000012b8c <__sinit_lock_acquire>:
   12b8c:	00008067          	ret

0000000000012b90 <__sinit_lock_release>:
   12b90:	00008067          	ret

0000000000012b94 <__fp_lock_all>:
   12b94:	8301b503          	ld	a0,-2000(gp) # 20860 <_impure_ptr>
   12b98:	000135b7          	lui	a1,0x13
   12b9c:	90858593          	addi	a1,a1,-1784 # 12908 <__fp_lock>
   12ba0:	38c0006f          	j	12f2c <_fwalk>

0000000000012ba4 <__fp_unlock_all>:
   12ba4:	8301b503          	ld	a0,-2000(gp) # 20860 <_impure_ptr>
   12ba8:	000135b7          	lui	a1,0x13
   12bac:	9a058593          	addi	a1,a1,-1632 # 129a0 <__fp_unlock>
   12bb0:	37c0006f          	j	12f2c <_fwalk>

0000000000012bb4 <_malloc_trim_r>:
   12bb4:	fc010113          	addi	sp,sp,-64
   12bb8:	03213023          	sd	s2,32(sp)
   12bbc:	00020937          	lui	s2,0x20
   12bc0:	02813823          	sd	s0,48(sp)
   12bc4:	02913423          	sd	s1,40(sp)
   12bc8:	01313c23          	sd	s3,24(sp)
   12bcc:	00b13423          	sd	a1,8(sp)
   12bd0:	02113c23          	sd	ra,56(sp)
   12bd4:	00050993          	mv	s3,a0
   12bd8:	e7890913          	addi	s2,s2,-392 # 1fe78 <__malloc_av_>
   12bdc:	555020ef          	jal	ra,15930 <__malloc_lock>
   12be0:	01093783          	ld	a5,16(s2)
   12be4:	00813583          	ld	a1,8(sp)
   12be8:	0087b483          	ld	s1,8(a5) # ffffffffffff0008 <__global_pointer$+0xfffffffffffcefd8>
   12bec:	000017b7          	lui	a5,0x1
   12bf0:	fdf78413          	addi	s0,a5,-33 # fdf <_start-0xf0d1>
   12bf4:	ffc4f493          	andi	s1,s1,-4
   12bf8:	40b40433          	sub	s0,s0,a1
   12bfc:	00940433          	add	s0,s0,s1
   12c00:	00c45413          	srli	s0,s0,0xc
   12c04:	fff40413          	addi	s0,s0,-1
   12c08:	00c41413          	slli	s0,s0,0xc
   12c0c:	02f45663          	bge	s0,a5,12c38 <_malloc_trim_r+0x84>
   12c10:	00098513          	mv	a0,s3
   12c14:	521020ef          	jal	ra,15934 <__malloc_unlock>
   12c18:	00000513          	li	a0,0
   12c1c:	03813083          	ld	ra,56(sp)
   12c20:	03013403          	ld	s0,48(sp)
   12c24:	02813483          	ld	s1,40(sp)
   12c28:	02013903          	ld	s2,32(sp)
   12c2c:	01813983          	ld	s3,24(sp)
   12c30:	04010113          	addi	sp,sp,64
   12c34:	00008067          	ret
   12c38:	00000593          	li	a1,0
   12c3c:	00098513          	mv	a0,s3
   12c40:	4ad030ef          	jal	ra,168ec <_sbrk_r>
   12c44:	01093783          	ld	a5,16(s2)
   12c48:	009787b3          	add	a5,a5,s1
   12c4c:	fcf512e3          	bne	a0,a5,12c10 <_malloc_trim_r+0x5c>
   12c50:	408005b3          	neg	a1,s0
   12c54:	00098513          	mv	a0,s3
   12c58:	495030ef          	jal	ra,168ec <_sbrk_r>
   12c5c:	fff00793          	li	a5,-1
   12c60:	02f51c63          	bne	a0,a5,12c98 <_malloc_trim_r+0xe4>
   12c64:	00000593          	li	a1,0
   12c68:	00098513          	mv	a0,s3
   12c6c:	481030ef          	jal	ra,168ec <_sbrk_r>
   12c70:	01093703          	ld	a4,16(s2)
   12c74:	01f00693          	li	a3,31
   12c78:	40e507b3          	sub	a5,a0,a4
   12c7c:	f8f6dae3          	bge	a3,a5,12c10 <_malloc_trim_r+0x5c>
   12c80:	8381b683          	ld	a3,-1992(gp) # 20868 <__malloc_sbrk_base>
   12c84:	0017e793          	ori	a5,a5,1
   12c88:	00f73423          	sd	a5,8(a4)
   12c8c:	40d50533          	sub	a0,a0,a3
   12c90:	8aa1a423          	sw	a0,-1880(gp) # 208d8 <__malloc_current_mallinfo>
   12c94:	f7dff06f          	j	12c10 <_malloc_trim_r+0x5c>
   12c98:	01093783          	ld	a5,16(s2)
   12c9c:	408484b3          	sub	s1,s1,s0
   12ca0:	0014e493          	ori	s1,s1,1
   12ca4:	0097b423          	sd	s1,8(a5)
   12ca8:	8a81a783          	lw	a5,-1880(gp) # 208d8 <__malloc_current_mallinfo>
   12cac:	00098513          	mv	a0,s3
   12cb0:	4087843b          	subw	s0,a5,s0
   12cb4:	8a81a423          	sw	s0,-1880(gp) # 208d8 <__malloc_current_mallinfo>
   12cb8:	47d020ef          	jal	ra,15934 <__malloc_unlock>
   12cbc:	00100513          	li	a0,1
   12cc0:	f5dff06f          	j	12c1c <_malloc_trim_r+0x68>

0000000000012cc4 <_free_r>:
   12cc4:	26058263          	beqz	a1,12f28 <_free_r+0x264>
   12cc8:	fe010113          	addi	sp,sp,-32
   12ccc:	00813823          	sd	s0,16(sp)
   12cd0:	00913423          	sd	s1,8(sp)
   12cd4:	00050413          	mv	s0,a0
   12cd8:	00058493          	mv	s1,a1
   12cdc:	00113c23          	sd	ra,24(sp)
   12ce0:	451020ef          	jal	ra,15930 <__malloc_lock>
   12ce4:	ff84b503          	ld	a0,-8(s1)
   12ce8:	00020637          	lui	a2,0x20
   12cec:	ff048693          	addi	a3,s1,-16
   12cf0:	ffe57793          	andi	a5,a0,-2
   12cf4:	e7860813          	addi	a6,a2,-392 # 1fe78 <__malloc_av_>
   12cf8:	00f685b3          	add	a1,a3,a5
   12cfc:	0085b703          	ld	a4,8(a1)
   12d00:	01083803          	ld	a6,16(a6)
   12d04:	e7860613          	addi	a2,a2,-392
   12d08:	ffc77713          	andi	a4,a4,-4
   12d0c:	00157513          	andi	a0,a0,1
   12d10:	06b81063          	bne	a6,a1,12d70 <_free_r+0xac>
   12d14:	00e787b3          	add	a5,a5,a4
   12d18:	02051063          	bnez	a0,12d38 <_free_r+0x74>
   12d1c:	ff04b703          	ld	a4,-16(s1)
   12d20:	40e686b3          	sub	a3,a3,a4
   12d24:	0106b583          	ld	a1,16(a3)
   12d28:	00e787b3          	add	a5,a5,a4
   12d2c:	0186b703          	ld	a4,24(a3)
   12d30:	00e5bc23          	sd	a4,24(a1)
   12d34:	00b73823          	sd	a1,16(a4)
   12d38:	0017e713          	ori	a4,a5,1
   12d3c:	00e6b423          	sd	a4,8(a3)
   12d40:	8401b703          	ld	a4,-1984(gp) # 20870 <__malloc_trim_threshold>
   12d44:	00d63823          	sd	a3,16(a2)
   12d48:	00e7e863          	bltu	a5,a4,12d58 <_free_r+0x94>
   12d4c:	8581b583          	ld	a1,-1960(gp) # 20888 <__malloc_top_pad>
   12d50:	00040513          	mv	a0,s0
   12d54:	e61ff0ef          	jal	ra,12bb4 <_malloc_trim_r>
   12d58:	00040513          	mv	a0,s0
   12d5c:	01013403          	ld	s0,16(sp)
   12d60:	01813083          	ld	ra,24(sp)
   12d64:	00813483          	ld	s1,8(sp)
   12d68:	02010113          	addi	sp,sp,32
   12d6c:	3c90206f          	j	15934 <__malloc_unlock>
   12d70:	00e5b423          	sd	a4,8(a1)
   12d74:	00000813          	li	a6,0
   12d78:	02051663          	bnez	a0,12da4 <_free_r+0xe0>
   12d7c:	ff04b503          	ld	a0,-16(s1)
   12d80:	000208b7          	lui	a7,0x20
   12d84:	e8888893          	addi	a7,a7,-376 # 1fe88 <__malloc_av_+0x10>
   12d88:	40a686b3          	sub	a3,a3,a0
   12d8c:	00a787b3          	add	a5,a5,a0
   12d90:	0106b503          	ld	a0,16(a3)
   12d94:	0b150a63          	beq	a0,a7,12e48 <_free_r+0x184>
   12d98:	0186b883          	ld	a7,24(a3)
   12d9c:	01153c23          	sd	a7,24(a0)
   12da0:	00a8b823          	sd	a0,16(a7)
   12da4:	00e58533          	add	a0,a1,a4
   12da8:	00853503          	ld	a0,8(a0)
   12dac:	00157513          	andi	a0,a0,1
   12db0:	02051863          	bnez	a0,12de0 <_free_r+0x11c>
   12db4:	00e787b3          	add	a5,a5,a4
   12db8:	0105b703          	ld	a4,16(a1)
   12dbc:	08081a63          	bnez	a6,12e50 <_free_r+0x18c>
   12dc0:	00020537          	lui	a0,0x20
   12dc4:	e8850513          	addi	a0,a0,-376 # 1fe88 <__malloc_av_+0x10>
   12dc8:	08a71463          	bne	a4,a0,12e50 <_free_r+0x18c>
   12dcc:	02d63423          	sd	a3,40(a2)
   12dd0:	02d63023          	sd	a3,32(a2)
   12dd4:	00e6bc23          	sd	a4,24(a3)
   12dd8:	00e6b823          	sd	a4,16(a3)
   12ddc:	00100813          	li	a6,1
   12de0:	0017e713          	ori	a4,a5,1
   12de4:	00e6b423          	sd	a4,8(a3)
   12de8:	00f68733          	add	a4,a3,a5
   12dec:	00f73023          	sd	a5,0(a4)
   12df0:	f60814e3          	bnez	a6,12d58 <_free_r+0x94>
   12df4:	1ff00713          	li	a4,511
   12df8:	06f76463          	bltu	a4,a5,12e60 <_free_r+0x19c>
   12dfc:	0037d793          	srli	a5,a5,0x3
   12e00:	0007879b          	sext.w	a5,a5
   12e04:	4027d59b          	sraiw	a1,a5,0x2
   12e08:	00100713          	li	a4,1
   12e0c:	00b71733          	sll	a4,a4,a1
   12e10:	0017879b          	addiw	a5,a5,1
   12e14:	00863583          	ld	a1,8(a2)
   12e18:	0017979b          	slliw	a5,a5,0x1
   12e1c:	00379793          	slli	a5,a5,0x3
   12e20:	00f607b3          	add	a5,a2,a5
   12e24:	00b76733          	or	a4,a4,a1
   12e28:	00e63423          	sd	a4,8(a2)
   12e2c:	0007b703          	ld	a4,0(a5)
   12e30:	ff078613          	addi	a2,a5,-16
   12e34:	00c6bc23          	sd	a2,24(a3)
   12e38:	00e6b823          	sd	a4,16(a3)
   12e3c:	00d7b023          	sd	a3,0(a5)
   12e40:	00d73c23          	sd	a3,24(a4)
   12e44:	f15ff06f          	j	12d58 <_free_r+0x94>
   12e48:	00100813          	li	a6,1
   12e4c:	f59ff06f          	j	12da4 <_free_r+0xe0>
   12e50:	0185b583          	ld	a1,24(a1)
   12e54:	00b73c23          	sd	a1,24(a4)
   12e58:	00e5b823          	sd	a4,16(a1)
   12e5c:	f85ff06f          	j	12de0 <_free_r+0x11c>
   12e60:	0097d593          	srli	a1,a5,0x9
   12e64:	00400713          	li	a4,4
   12e68:	04b76a63          	bltu	a4,a1,12ebc <_free_r+0x1f8>
   12e6c:	0067d713          	srli	a4,a5,0x6
   12e70:	0387071b          	addiw	a4,a4,56
   12e74:	0017059b          	addiw	a1,a4,1
   12e78:	0015959b          	slliw	a1,a1,0x1
   12e7c:	00359593          	slli	a1,a1,0x3
   12e80:	00b605b3          	add	a1,a2,a1
   12e84:	ff058513          	addi	a0,a1,-16
   12e88:	0005b583          	ld	a1,0(a1)
   12e8c:	08b51463          	bne	a0,a1,12f14 <_free_r+0x250>
   12e90:	00100793          	li	a5,1
   12e94:	4027571b          	sraiw	a4,a4,0x2
   12e98:	00e79733          	sll	a4,a5,a4
   12e9c:	00863783          	ld	a5,8(a2)
   12ea0:	00f76733          	or	a4,a4,a5
   12ea4:	00e63423          	sd	a4,8(a2)
   12ea8:	00a6bc23          	sd	a0,24(a3)
   12eac:	00b6b823          	sd	a1,16(a3)
   12eb0:	00d53823          	sd	a3,16(a0)
   12eb4:	00d5bc23          	sd	a3,24(a1)
   12eb8:	ea1ff06f          	j	12d58 <_free_r+0x94>
   12ebc:	01400713          	li	a4,20
   12ec0:	00b76663          	bltu	a4,a1,12ecc <_free_r+0x208>
   12ec4:	05b5871b          	addiw	a4,a1,91
   12ec8:	fadff06f          	j	12e74 <_free_r+0x1b0>
   12ecc:	05400713          	li	a4,84
   12ed0:	00b76863          	bltu	a4,a1,12ee0 <_free_r+0x21c>
   12ed4:	00c7d713          	srli	a4,a5,0xc
   12ed8:	06e7071b          	addiw	a4,a4,110
   12edc:	f99ff06f          	j	12e74 <_free_r+0x1b0>
   12ee0:	15400713          	li	a4,340
   12ee4:	00b76863          	bltu	a4,a1,12ef4 <_free_r+0x230>
   12ee8:	00f7d713          	srli	a4,a5,0xf
   12eec:	0777071b          	addiw	a4,a4,119
   12ef0:	f85ff06f          	j	12e74 <_free_r+0x1b0>
   12ef4:	55400513          	li	a0,1364
   12ef8:	07e00713          	li	a4,126
   12efc:	f6b56ce3          	bltu	a0,a1,12e74 <_free_r+0x1b0>
   12f00:	0127d713          	srli	a4,a5,0x12
   12f04:	07c7071b          	addiw	a4,a4,124
   12f08:	f6dff06f          	j	12e74 <_free_r+0x1b0>
   12f0c:	0105b583          	ld	a1,16(a1)
   12f10:	00b50863          	beq	a0,a1,12f20 <_free_r+0x25c>
   12f14:	0085b703          	ld	a4,8(a1)
   12f18:	ffc77713          	andi	a4,a4,-4
   12f1c:	fee7e8e3          	bltu	a5,a4,12f0c <_free_r+0x248>
   12f20:	0185b503          	ld	a0,24(a1)
   12f24:	f85ff06f          	j	12ea8 <_free_r+0x1e4>
   12f28:	00008067          	ret

0000000000012f2c <_fwalk>:
   12f2c:	fb010113          	addi	sp,sp,-80
   12f30:	04813023          	sd	s0,64(sp)
   12f34:	02913c23          	sd	s1,56(sp)
   12f38:	03413023          	sd	s4,32(sp)
   12f3c:	01513c23          	sd	s5,24(sp)
   12f40:	04113423          	sd	ra,72(sp)
   12f44:	03213823          	sd	s2,48(sp)
   12f48:	03313423          	sd	s3,40(sp)
   12f4c:	52050493          	addi	s1,a0,1312
   12f50:	00000413          	li	s0,0
   12f54:	00100a13          	li	s4,1
   12f58:	fff00a93          	li	s5,-1
   12f5c:	02049663          	bnez	s1,12f88 <_fwalk+0x5c>
   12f60:	00040513          	mv	a0,s0
   12f64:	04813083          	ld	ra,72(sp)
   12f68:	04013403          	ld	s0,64(sp)
   12f6c:	03813483          	ld	s1,56(sp)
   12f70:	03013903          	ld	s2,48(sp)
   12f74:	02813983          	ld	s3,40(sp)
   12f78:	02013a03          	ld	s4,32(sp)
   12f7c:	01813a83          	ld	s5,24(sp)
   12f80:	05010113          	addi	sp,sp,80
   12f84:	00008067          	ret
   12f88:	0104b903          	ld	s2,16(s1)
   12f8c:	0084a983          	lw	s3,8(s1)
   12f90:	fff9899b          	addiw	s3,s3,-1
   12f94:	0009d663          	bgez	s3,12fa0 <_fwalk+0x74>
   12f98:	0004b483          	ld	s1,0(s1)
   12f9c:	fc1ff06f          	j	12f5c <_fwalk+0x30>
   12fa0:	01095783          	lhu	a5,16(s2)
   12fa4:	02fa7263          	bgeu	s4,a5,12fc8 <_fwalk+0x9c>
   12fa8:	01291783          	lh	a5,18(s2)
   12fac:	01578e63          	beq	a5,s5,12fc8 <_fwalk+0x9c>
   12fb0:	00090513          	mv	a0,s2
   12fb4:	00b13423          	sd	a1,8(sp)
   12fb8:	000580e7          	jalr	a1
   12fbc:	00813583          	ld	a1,8(sp)
   12fc0:	00a46433          	or	s0,s0,a0
   12fc4:	0004041b          	sext.w	s0,s0
   12fc8:	0b090913          	addi	s2,s2,176
   12fcc:	fc5ff06f          	j	12f90 <_fwalk+0x64>

0000000000012fd0 <_fwalk_reent>:
   12fd0:	fb010113          	addi	sp,sp,-80
   12fd4:	04813023          	sd	s0,64(sp)
   12fd8:	02913c23          	sd	s1,56(sp)
   12fdc:	03413023          	sd	s4,32(sp)
   12fe0:	01513c23          	sd	s5,24(sp)
   12fe4:	01613823          	sd	s6,16(sp)
   12fe8:	01713423          	sd	s7,8(sp)
   12fec:	04113423          	sd	ra,72(sp)
   12ff0:	03213823          	sd	s2,48(sp)
   12ff4:	03313423          	sd	s3,40(sp)
   12ff8:	00050a13          	mv	s4,a0
   12ffc:	00058a93          	mv	s5,a1
   13000:	52050493          	addi	s1,a0,1312
   13004:	00000413          	li	s0,0
   13008:	00100b13          	li	s6,1
   1300c:	fff00b93          	li	s7,-1
   13010:	02049a63          	bnez	s1,13044 <_fwalk_reent+0x74>
   13014:	00040513          	mv	a0,s0
   13018:	04813083          	ld	ra,72(sp)
   1301c:	04013403          	ld	s0,64(sp)
   13020:	03813483          	ld	s1,56(sp)
   13024:	03013903          	ld	s2,48(sp)
   13028:	02813983          	ld	s3,40(sp)
   1302c:	02013a03          	ld	s4,32(sp)
   13030:	01813a83          	ld	s5,24(sp)
   13034:	01013b03          	ld	s6,16(sp)
   13038:	00813b83          	ld	s7,8(sp)
   1303c:	05010113          	addi	sp,sp,80
   13040:	00008067          	ret
   13044:	0104b903          	ld	s2,16(s1)
   13048:	0084a983          	lw	s3,8(s1)
   1304c:	fff9899b          	addiw	s3,s3,-1
   13050:	0009d663          	bgez	s3,1305c <_fwalk_reent+0x8c>
   13054:	0004b483          	ld	s1,0(s1)
   13058:	fb9ff06f          	j	13010 <_fwalk_reent+0x40>
   1305c:	01095783          	lhu	a5,16(s2)
   13060:	02fb7063          	bgeu	s6,a5,13080 <_fwalk_reent+0xb0>
   13064:	01291783          	lh	a5,18(s2)
   13068:	01778c63          	beq	a5,s7,13080 <_fwalk_reent+0xb0>
   1306c:	00090593          	mv	a1,s2
   13070:	000a0513          	mv	a0,s4
   13074:	000a80e7          	jalr	s5
   13078:	00a46433          	or	s0,s0,a0
   1307c:	0004041b          	sext.w	s0,s0
   13080:	0b090913          	addi	s2,s2,176
   13084:	fc9ff06f          	j	1304c <_fwalk_reent+0x7c>

0000000000013088 <eclear>:
   13088:	01450793          	addi	a5,a0,20
   1308c:	00250513          	addi	a0,a0,2
   13090:	fe051f23          	sh	zero,-2(a0)
   13094:	fef51ce3          	bne	a0,a5,1308c <eclear+0x4>
   13098:	00008067          	ret

000000000001309c <emov>:
   1309c:	01450793          	addi	a5,a0,20
   130a0:	00250513          	addi	a0,a0,2
   130a4:	ffe55703          	lhu	a4,-2(a0)
   130a8:	00258593          	addi	a1,a1,2
   130ac:	fee59f23          	sh	a4,-2(a1)
   130b0:	fea798e3          	bne	a5,a0,130a0 <emov+0x4>
   130b4:	00008067          	ret

00000000000130b8 <ecleaz>:
   130b8:	01a50793          	addi	a5,a0,26
   130bc:	00250513          	addi	a0,a0,2
   130c0:	fe051f23          	sh	zero,-2(a0)
   130c4:	fef51ce3          	bne	a0,a5,130bc <ecleaz+0x4>
   130c8:	00008067          	ret

00000000000130cc <emovz>:
   130cc:	01850713          	addi	a4,a0,24
   130d0:	00058793          	mv	a5,a1
   130d4:	00250513          	addi	a0,a0,2
   130d8:	ffe55683          	lhu	a3,-2(a0)
   130dc:	00278793          	addi	a5,a5,2
   130e0:	fed79f23          	sh	a3,-2(a5)
   130e4:	fea718e3          	bne	a4,a0,130d4 <emovz+0x8>
   130e8:	00059c23          	sh	zero,24(a1)
   130ec:	00008067          	ret

00000000000130f0 <ecmpm>:
   130f0:	00450793          	addi	a5,a0,4
   130f4:	00458593          	addi	a1,a1,4
   130f8:	01a50513          	addi	a0,a0,26
   130fc:	00278793          	addi	a5,a5,2
   13100:	00258593          	addi	a1,a1,2
   13104:	ffe7d683          	lhu	a3,-2(a5)
   13108:	ffe5d703          	lhu	a4,-2(a1)
   1310c:	00e69863          	bne	a3,a4,1311c <ecmpm+0x2c>
   13110:	fef516e3          	bne	a0,a5,130fc <ecmpm+0xc>
   13114:	00000513          	li	a0,0
   13118:	00008067          	ret
   1311c:	00100513          	li	a0,1
   13120:	00d76463          	bltu	a4,a3,13128 <ecmpm+0x38>
   13124:	fff00513          	li	a0,-1
   13128:	00008067          	ret

000000000001312c <eshdn1>:
   1312c:	00450693          	addi	a3,a0,4
   13130:	00000793          	li	a5,0
   13134:	01a50513          	addi	a0,a0,26
   13138:	ffff8637          	lui	a2,0xffff8
   1313c:	0006d703          	lhu	a4,0(a3)
   13140:	00177593          	andi	a1,a4,1
   13144:	00058463          	beqz	a1,1314c <eshdn1+0x20>
   13148:	0017e793          	ori	a5,a5,1
   1314c:	0027f593          	andi	a1,a5,2
   13150:	00175713          	srli	a4,a4,0x1
   13154:	02059063          	bnez	a1,13174 <eshdn1+0x48>
   13158:	0017979b          	slliw	a5,a5,0x1
   1315c:	00e69023          	sh	a4,0(a3)
   13160:	03079793          	slli	a5,a5,0x30
   13164:	00268693          	addi	a3,a3,2
   13168:	0307d793          	srli	a5,a5,0x30
   1316c:	fcd518e3          	bne	a0,a3,1313c <eshdn1+0x10>
   13170:	00008067          	ret
   13174:	00c76733          	or	a4,a4,a2
   13178:	fe1ff06f          	j	13158 <eshdn1+0x2c>

000000000001317c <eshup1>:
   1317c:	01650693          	addi	a3,a0,22
   13180:	00000713          	li	a4,0
   13184:	0026d783          	lhu	a5,2(a3)
   13188:	0107961b          	slliw	a2,a5,0x10
   1318c:	4106561b          	sraiw	a2,a2,0x10
   13190:	00065463          	bgez	a2,13198 <eshup1+0x1c>
   13194:	00176713          	ori	a4,a4,1
   13198:	0017979b          	slliw	a5,a5,0x1
   1319c:	03079793          	slli	a5,a5,0x30
   131a0:	00277613          	andi	a2,a4,2
   131a4:	0307d793          	srli	a5,a5,0x30
   131a8:	02061063          	bnez	a2,131c8 <eshup1+0x4c>
   131ac:	0017171b          	slliw	a4,a4,0x1
   131b0:	00f69123          	sh	a5,2(a3)
   131b4:	03071713          	slli	a4,a4,0x30
   131b8:	ffe68693          	addi	a3,a3,-2
   131bc:	03075713          	srli	a4,a4,0x30
   131c0:	fcd512e3          	bne	a0,a3,13184 <eshup1+0x8>
   131c4:	00008067          	ret
   131c8:	0017e793          	ori	a5,a5,1
   131cc:	fe1ff06f          	j	131ac <eshup1+0x30>

00000000000131d0 <eshdn8>:
   131d0:	00450793          	addi	a5,a0,4
   131d4:	00000713          	li	a4,0
   131d8:	01a50513          	addi	a0,a0,26
   131dc:	0007d683          	lhu	a3,0(a5)
   131e0:	00278793          	addi	a5,a5,2
   131e4:	0086d61b          	srliw	a2,a3,0x8
   131e8:	00c76733          	or	a4,a4,a2
   131ec:	fee79f23          	sh	a4,-2(a5)
   131f0:	0086971b          	slliw	a4,a3,0x8
   131f4:	03071713          	slli	a4,a4,0x30
   131f8:	03075713          	srli	a4,a4,0x30
   131fc:	fef510e3          	bne	a0,a5,131dc <eshdn8+0xc>
   13200:	00008067          	ret

0000000000013204 <eshup8>:
   13204:	01650793          	addi	a5,a0,22
   13208:	00000713          	li	a4,0
   1320c:	0027d683          	lhu	a3,2(a5)
   13210:	ffe78793          	addi	a5,a5,-2
   13214:	00869613          	slli	a2,a3,0x8
   13218:	00c76733          	or	a4,a4,a2
   1321c:	00e79223          	sh	a4,4(a5)
   13220:	0086d713          	srli	a4,a3,0x8
   13224:	fef514e3          	bne	a0,a5,1320c <eshup8+0x8>
   13228:	00008067          	ret

000000000001322c <eshup6>:
   1322c:	00450793          	addi	a5,a0,4
   13230:	01850713          	addi	a4,a0,24
   13234:	00278793          	addi	a5,a5,2
   13238:	0007d683          	lhu	a3,0(a5)
   1323c:	fed79f23          	sh	a3,-2(a5)
   13240:	fef71ae3          	bne	a4,a5,13234 <eshup6+0x8>
   13244:	00051c23          	sh	zero,24(a0)
   13248:	00008067          	ret

000000000001324c <eshdn6>:
   1324c:	01850793          	addi	a5,a0,24
   13250:	01a50713          	addi	a4,a0,26
   13254:	00450693          	addi	a3,a0,4
   13258:	ffe78793          	addi	a5,a5,-2
   1325c:	0007d603          	lhu	a2,0(a5)
   13260:	ffe70713          	addi	a4,a4,-2
   13264:	00c71023          	sh	a2,0(a4)
   13268:	fef698e3          	bne	a3,a5,13258 <eshdn6+0xc>
   1326c:	00051223          	sh	zero,4(a0)
   13270:	00008067          	ret

0000000000013274 <eaddm>:
   13274:	01858593          	addi	a1,a1,24
   13278:	01650713          	addi	a4,a0,22
   1327c:	00000693          	li	a3,0
   13280:	0005d783          	lhu	a5,0(a1)
   13284:	ffe70713          	addi	a4,a4,-2
   13288:	ffe58593          	addi	a1,a1,-2
   1328c:	00d787b3          	add	a5,a5,a3
   13290:	00475683          	lhu	a3,4(a4)
   13294:	00d787b3          	add	a5,a5,a3
   13298:	00f59123          	sh	a5,2(a1)
   1329c:	0107d793          	srli	a5,a5,0x10
   132a0:	0017f693          	andi	a3,a5,1
   132a4:	fce51ee3          	bne	a0,a4,13280 <eaddm+0xc>
   132a8:	00008067          	ret

00000000000132ac <esubm>:
   132ac:	01858593          	addi	a1,a1,24
   132b0:	01650713          	addi	a4,a0,22
   132b4:	00000693          	li	a3,0
   132b8:	0005d783          	lhu	a5,0(a1)
   132bc:	00275603          	lhu	a2,2(a4)
   132c0:	ffe70713          	addi	a4,a4,-2
   132c4:	ffe58593          	addi	a1,a1,-2
   132c8:	40c787b3          	sub	a5,a5,a2
   132cc:	40d787b3          	sub	a5,a5,a3
   132d0:	00f59123          	sh	a5,2(a1)
   132d4:	0107d793          	srli	a5,a5,0x10
   132d8:	0017f693          	andi	a3,a5,1
   132dc:	fce51ee3          	bne	a0,a4,132b8 <esubm+0xc>
   132e0:	00008067          	ret

00000000000132e4 <m16m>:
   132e4:	fe010113          	addi	sp,sp,-32
   132e8:	00010337          	lui	t1,0x10
   132ec:	01858893          	addi	a7,a1,24
   132f0:	00011b23          	sh	zero,22(sp)
   132f4:	00011c23          	sh	zero,24(sp)
   132f8:	00458593          	addi	a1,a1,4
   132fc:	01810693          	addi	a3,sp,24
   13300:	fff30313          	addi	t1,t1,-1 # ffff <_start-0xb1>
   13304:	0008d703          	lhu	a4,0(a7)
   13308:	ffe68693          	addi	a3,a3,-2
   1330c:	ffe88893          	addi	a7,a7,-2
   13310:	02071a63          	bnez	a4,13344 <m16m+0x60>
   13314:	fe069f23          	sh	zero,-2(a3)
   13318:	ff1596e3          	bne	a1,a7,13304 <m16m+0x20>
   1331c:	00400793          	li	a5,4
   13320:	01a00713          	li	a4,26
   13324:	00f105b3          	add	a1,sp,a5
   13328:	0005d583          	lhu	a1,0(a1)
   1332c:	00f606b3          	add	a3,a2,a5
   13330:	00278793          	addi	a5,a5,2
   13334:	00b69023          	sh	a1,0(a3)
   13338:	fee796e3          	bne	a5,a4,13324 <m16m+0x40>
   1333c:	02010113          	addi	sp,sp,32
   13340:	00008067          	ret
   13344:	02a70733          	mul	a4,a4,a0
   13348:	0026d803          	lhu	a6,2(a3)
   1334c:	006777b3          	and	a5,a4,t1
   13350:	010787b3          	add	a5,a5,a6
   13354:	0107d813          	srli	a6,a5,0x10
   13358:	00f69123          	sh	a5,2(a3)
   1335c:	01075793          	srli	a5,a4,0x10
   13360:	0006d703          	lhu	a4,0(a3)
   13364:	00e787b3          	add	a5,a5,a4
   13368:	010787b3          	add	a5,a5,a6
   1336c:	00f69023          	sh	a5,0(a3)
   13370:	0107d793          	srli	a5,a5,0x10
   13374:	fef69f23          	sh	a5,-2(a3)
   13378:	fa1ff06f          	j	13318 <m16m+0x34>

000000000001337c <eisnan>:
   1337c:	01255783          	lhu	a5,18(a0)
   13380:	fff7c793          	not	a5,a5
   13384:	03179713          	slli	a4,a5,0x31
   13388:	00071c63          	bnez	a4,133a0 <eisnan+0x24>
   1338c:	01250793          	addi	a5,a0,18
   13390:	00250513          	addi	a0,a0,2
   13394:	ffe55703          	lhu	a4,-2(a0)
   13398:	00071863          	bnez	a4,133a8 <eisnan+0x2c>
   1339c:	fea79ae3          	bne	a5,a0,13390 <eisnan+0x14>
   133a0:	00000513          	li	a0,0
   133a4:	00008067          	ret
   133a8:	00100513          	li	a0,1
   133ac:	00008067          	ret

00000000000133b0 <eisneg>:
   133b0:	ff010113          	addi	sp,sp,-16
   133b4:	00813023          	sd	s0,0(sp)
   133b8:	00113423          	sd	ra,8(sp)
   133bc:	00050413          	mv	s0,a0
   133c0:	fbdff0ef          	jal	ra,1337c <eisnan>
   133c4:	00051e63          	bnez	a0,133e0 <eisneg+0x30>
   133c8:	01344503          	lbu	a0,19(s0)
   133cc:	00755513          	srli	a0,a0,0x7
   133d0:	00813083          	ld	ra,8(sp)
   133d4:	00013403          	ld	s0,0(sp)
   133d8:	01010113          	addi	sp,sp,16
   133dc:	00008067          	ret
   133e0:	00000513          	li	a0,0
   133e4:	fedff06f          	j	133d0 <eisneg+0x20>

00000000000133e8 <emovi>:
   133e8:	01251783          	lh	a5,18(a0)
   133ec:	fe010113          	addi	sp,sp,-32
   133f0:	00113c23          	sd	ra,24(sp)
   133f4:	00813823          	sd	s0,16(sp)
   133f8:	00913423          	sd	s1,8(sp)
   133fc:	01213023          	sd	s2,0(sp)
   13400:	0607d863          	bgez	a5,13470 <emovi+0x88>
   13404:	fff00793          	li	a5,-1
   13408:	00f59023          	sh	a5,0(a1)
   1340c:	01255703          	lhu	a4,18(a0)
   13410:	000087b7          	lui	a5,0x8
   13414:	fff78793          	addi	a5,a5,-1 # 7fff <_start-0x80b1>
   13418:	00e7f733          	and	a4,a5,a4
   1341c:	00e59123          	sh	a4,2(a1)
   13420:	01050913          	addi	s2,a0,16
   13424:	06f71663          	bne	a4,a5,13490 <emovi+0xa8>
   13428:	00058413          	mv	s0,a1
   1342c:	00050493          	mv	s1,a0
   13430:	f4dff0ef          	jal	ra,1337c <eisnan>
   13434:	04050263          	beqz	a0,13478 <emovi+0x90>
   13438:	00640793          	addi	a5,s0,6
   1343c:	00041223          	sh	zero,4(s0)
   13440:	ffc48513          	addi	a0,s1,-4
   13444:	ffe90913          	addi	s2,s2,-2
   13448:	00295703          	lhu	a4,2(s2)
   1344c:	00278793          	addi	a5,a5,2
   13450:	fee79f23          	sh	a4,-2(a5)
   13454:	fea918e3          	bne	s2,a0,13444 <emovi+0x5c>
   13458:	01813083          	ld	ra,24(sp)
   1345c:	01013403          	ld	s0,16(sp)
   13460:	00813483          	ld	s1,8(sp)
   13464:	00013903          	ld	s2,0(sp)
   13468:	02010113          	addi	sp,sp,32
   1346c:	00008067          	ret
   13470:	00059023          	sh	zero,0(a1)
   13474:	f99ff06f          	j	1340c <emovi+0x24>
   13478:	00440793          	addi	a5,s0,4
   1347c:	01a40593          	addi	a1,s0,26
   13480:	00278793          	addi	a5,a5,2
   13484:	fe079f23          	sh	zero,-2(a5)
   13488:	feb79ce3          	bne	a5,a1,13480 <emovi+0x98>
   1348c:	fcdff06f          	j	13458 <emovi+0x70>
   13490:	00658793          	addi	a5,a1,6
   13494:	00059223          	sh	zero,4(a1)
   13498:	ffe50513          	addi	a0,a0,-2
   1349c:	ffe90913          	addi	s2,s2,-2
   134a0:	00295703          	lhu	a4,2(s2)
   134a4:	00278793          	addi	a5,a5,2
   134a8:	fee79f23          	sh	a4,-2(a5)
   134ac:	fea918e3          	bne	s2,a0,1349c <emovi+0xb4>
   134b0:	00059c23          	sh	zero,24(a1)
   134b4:	fa5ff06f          	j	13458 <emovi+0x70>

00000000000134b8 <ecmp>:
   134b8:	fa010113          	addi	sp,sp,-96
   134bc:	04913423          	sd	s1,72(sp)
   134c0:	05213023          	sd	s2,64(sp)
   134c4:	04113c23          	sd	ra,88(sp)
   134c8:	04813823          	sd	s0,80(sp)
   134cc:	00050913          	mv	s2,a0
   134d0:	00058493          	mv	s1,a1
   134d4:	ea9ff0ef          	jal	ra,1337c <eisnan>
   134d8:	0c051c63          	bnez	a0,135b0 <ecmp+0xf8>
   134dc:	00048513          	mv	a0,s1
   134e0:	e9dff0ef          	jal	ra,1337c <eisnan>
   134e4:	00050413          	mv	s0,a0
   134e8:	0c051463          	bnez	a0,135b0 <ecmp+0xf8>
   134ec:	00010593          	mv	a1,sp
   134f0:	00090513          	mv	a0,s2
   134f4:	ef5ff0ef          	jal	ra,133e8 <emovi>
   134f8:	02010593          	addi	a1,sp,32
   134fc:	00048513          	mv	a0,s1
   13500:	ee9ff0ef          	jal	ra,133e8 <emovi>
   13504:	00015703          	lhu	a4,0(sp)
   13508:	02015783          	lhu	a5,32(sp)
   1350c:	04e78e63          	beq	a5,a4,13568 <ecmp+0xb0>
   13510:	00200793          	li	a5,2
   13514:	01800693          	li	a3,24
   13518:	00f10633          	add	a2,sp,a5
   1351c:	00065603          	lhu	a2,0(a2) # ffffffffffff8000 <__global_pointer$+0xfffffffffffd6fd0>
   13520:	02061c63          	bnez	a2,13558 <ecmp+0xa0>
   13524:	02010613          	addi	a2,sp,32
   13528:	00f60633          	add	a2,a2,a5
   1352c:	00065603          	lhu	a2,0(a2)
   13530:	02061463          	bnez	a2,13558 <ecmp+0xa0>
   13534:	00278793          	addi	a5,a5,2
   13538:	fed790e3          	bne	a5,a3,13518 <ecmp+0x60>
   1353c:	00040513          	mv	a0,s0
   13540:	05813083          	ld	ra,88(sp)
   13544:	05013403          	ld	s0,80(sp)
   13548:	04813483          	ld	s1,72(sp)
   1354c:	04013903          	ld	s2,64(sp)
   13550:	06010113          	addi	sp,sp,96
   13554:	00008067          	ret
   13558:	00100413          	li	s0,1
   1355c:	fe0700e3          	beqz	a4,1353c <ecmp+0x84>
   13560:	fff00413          	li	s0,-1
   13564:	fd9ff06f          	j	1353c <ecmp+0x84>
   13568:	00100613          	li	a2,1
   1356c:	00070463          	beqz	a4,13574 <ecmp+0xbc>
   13570:	fff00613          	li	a2,-1
   13574:	00000793          	li	a5,0
   13578:	01800593          	li	a1,24
   1357c:	00f10733          	add	a4,sp,a5
   13580:	00075683          	lhu	a3,0(a4)
   13584:	02010713          	addi	a4,sp,32
   13588:	00f70733          	add	a4,a4,a5
   1358c:	00075703          	lhu	a4,0(a4)
   13590:	00e69863          	bne	a3,a4,135a0 <ecmp+0xe8>
   13594:	00278793          	addi	a5,a5,2
   13598:	feb792e3          	bne	a5,a1,1357c <ecmp+0xc4>
   1359c:	fa1ff06f          	j	1353c <ecmp+0x84>
   135a0:	00060413          	mv	s0,a2
   135a4:	f8d76ce3          	bltu	a4,a3,1353c <ecmp+0x84>
   135a8:	40c0043b          	negw	s0,a2
   135ac:	f91ff06f          	j	1353c <ecmp+0x84>
   135b0:	ffe00413          	li	s0,-2
   135b4:	f89ff06f          	j	1353c <ecmp+0x84>

00000000000135b8 <eisinf>:
   135b8:	01255783          	lhu	a5,18(a0)
   135bc:	fff7c793          	not	a5,a5
   135c0:	03179713          	slli	a4,a5,0x31
   135c4:	02071063          	bnez	a4,135e4 <eisinf+0x2c>
   135c8:	ff010113          	addi	sp,sp,-16
   135cc:	00113423          	sd	ra,8(sp)
   135d0:	dadff0ef          	jal	ra,1337c <eisnan>
   135d4:	00813083          	ld	ra,8(sp)
   135d8:	00153513          	seqz	a0,a0
   135dc:	01010113          	addi	sp,sp,16
   135e0:	00008067          	ret
   135e4:	00000513          	li	a0,0
   135e8:	00008067          	ret

00000000000135ec <einfin.isra.2>:
   135ec:	01250793          	addi	a5,a0,18
   135f0:	00250513          	addi	a0,a0,2
   135f4:	fe051f23          	sh	zero,-2(a0)
   135f8:	fef51ce3          	bne	a0,a5,135f0 <einfin.isra.2+0x4>
   135fc:	00055783          	lhu	a5,0(a0)
   13600:	00008737          	lui	a4,0x8
   13604:	fff70713          	addi	a4,a4,-1 # 7fff <_start-0x80b1>
   13608:	00e7e7b3          	or	a5,a5,a4
   1360c:	00f51023          	sh	a5,0(a0)
   13610:	00008067          	ret

0000000000013614 <eshift.part.3>:
   13614:	fc010113          	addi	sp,sp,-64
   13618:	02813823          	sd	s0,48(sp)
   1361c:	01313c23          	sd	s3,24(sp)
   13620:	02113c23          	sd	ra,56(sp)
   13624:	02913423          	sd	s1,40(sp)
   13628:	03213023          	sd	s2,32(sp)
   1362c:	01413823          	sd	s4,16(sp)
   13630:	01513423          	sd	s5,8(sp)
   13634:	00050993          	mv	s3,a0
   13638:	00058413          	mv	s0,a1
   1363c:	1005d263          	bgez	a1,13740 <eshift.part.3+0x12c>
   13640:	40b00a3b          	negw	s4,a1
   13644:	000a0913          	mv	s2,s4
   13648:	00000493          	li	s1,0
   1364c:	00f00a93          	li	s5,15
   13650:	034ace63          	blt	s5,s4,1368c <eshift.part.3+0x78>
   13654:	0049591b          	srliw	s2,s2,0x4
   13658:	ff000593          	li	a1,-16
   1365c:	02b905bb          	mulw	a1,s2,a1
   13660:	00700a13          	li	s4,7
   13664:	4085893b          	subw	s2,a1,s0
   13668:	00090413          	mv	s0,s2
   1366c:	032a4c63          	blt	s4,s2,136a4 <eshift.part.3+0x90>
   13670:	0034559b          	srliw	a1,s0,0x3
   13674:	ff800793          	li	a5,-8
   13678:	02f585bb          	mulw	a1,a1,a5
   1367c:	0085843b          	addw	s0,a1,s0
   13680:	02041e63          	bnez	s0,136bc <eshift.part.3+0xa8>
   13684:	00903533          	snez	a0,s1
   13688:	0940006f          	j	1371c <eshift.part.3+0x108>
   1368c:	0189d783          	lhu	a5,24(s3)
   13690:	00098513          	mv	a0,s3
   13694:	ff0a0a1b          	addiw	s4,s4,-16
   13698:	00f4e4b3          	or	s1,s1,a5
   1369c:	bb1ff0ef          	jal	ra,1324c <eshdn6>
   136a0:	fb1ff06f          	j	13650 <eshift.part.3+0x3c>
   136a4:	0189c783          	lbu	a5,24(s3)
   136a8:	00098513          	mv	a0,s3
   136ac:	ff89091b          	addiw	s2,s2,-8
   136b0:	0097e4b3          	or	s1,a5,s1
   136b4:	b1dff0ef          	jal	ra,131d0 <eshdn8>
   136b8:	fb5ff06f          	j	1366c <eshift.part.3+0x58>
   136bc:	0189d783          	lhu	a5,24(s3)
   136c0:	00098513          	mv	a0,s3
   136c4:	fff4041b          	addiw	s0,s0,-1
   136c8:	0017f793          	andi	a5,a5,1
   136cc:	0097e4b3          	or	s1,a5,s1
   136d0:	a5dff0ef          	jal	ra,1312c <eshdn1>
   136d4:	fadff06f          	j	13680 <eshift.part.3+0x6c>
   136d8:	00098513          	mv	a0,s3
   136dc:	b51ff0ef          	jal	ra,1322c <eshup6>
   136e0:	ff04849b          	addiw	s1,s1,-16
   136e4:	fe994ae3          	blt	s2,s1,136d8 <eshift.part.3+0xc4>
   136e8:	0044559b          	srliw	a1,s0,0x4
   136ec:	ff000793          	li	a5,-16
   136f0:	02f585bb          	mulw	a1,a1,a5
   136f4:	00700913          	li	s2,7
   136f8:	00b404bb          	addw	s1,s0,a1
   136fc:	00048413          	mv	s0,s1
   13700:	04994663          	blt	s2,s1,1374c <eshift.part.3+0x138>
   13704:	0034559b          	srliw	a1,s0,0x3
   13708:	ff800793          	li	a5,-8
   1370c:	02f585bb          	mulw	a1,a1,a5
   13710:	00b4043b          	addw	s0,s0,a1
   13714:	04041463          	bnez	s0,1375c <eshift.part.3+0x148>
   13718:	00000513          	li	a0,0
   1371c:	03813083          	ld	ra,56(sp)
   13720:	03013403          	ld	s0,48(sp)
   13724:	02813483          	ld	s1,40(sp)
   13728:	02013903          	ld	s2,32(sp)
   1372c:	01813983          	ld	s3,24(sp)
   13730:	01013a03          	ld	s4,16(sp)
   13734:	00813a83          	ld	s5,8(sp)
   13738:	04010113          	addi	sp,sp,64
   1373c:	00008067          	ret
   13740:	00058493          	mv	s1,a1
   13744:	00f00913          	li	s2,15
   13748:	f9dff06f          	j	136e4 <eshift.part.3+0xd0>
   1374c:	00098513          	mv	a0,s3
   13750:	ab5ff0ef          	jal	ra,13204 <eshup8>
   13754:	ff84849b          	addiw	s1,s1,-8
   13758:	fa9ff06f          	j	13700 <eshift.part.3+0xec>
   1375c:	00098513          	mv	a0,s3
   13760:	a1dff0ef          	jal	ra,1317c <eshup1>
   13764:	fff4041b          	addiw	s0,s0,-1
   13768:	fadff06f          	j	13714 <eshift.part.3+0x100>

000000000001376c <enormlz>:
   1376c:	00455783          	lhu	a5,4(a0)
   13770:	fe010113          	addi	sp,sp,-32
   13774:	00913423          	sd	s1,8(sp)
   13778:	00113c23          	sd	ra,24(sp)
   1377c:	00813823          	sd	s0,16(sp)
   13780:	01213023          	sd	s2,0(sp)
   13784:	00050493          	mv	s1,a0
   13788:	08079263          	bnez	a5,1380c <enormlz+0xa0>
   1378c:	00651783          	lh	a5,6(a0)
   13790:	00000413          	li	s0,0
   13794:	0a000913          	li	s2,160
   13798:	0207d863          	bgez	a5,137c8 <enormlz+0x5c>
   1379c:	00040513          	mv	a0,s0
   137a0:	01813083          	ld	ra,24(sp)
   137a4:	01013403          	ld	s0,16(sp)
   137a8:	00813483          	ld	s1,8(sp)
   137ac:	00013903          	ld	s2,0(sp)
   137b0:	02010113          	addi	sp,sp,32
   137b4:	00008067          	ret
   137b8:	00048513          	mv	a0,s1
   137bc:	0104041b          	addiw	s0,s0,16
   137c0:	a6dff0ef          	jal	ra,1322c <eshup6>
   137c4:	fd240ce3          	beq	s0,s2,1379c <enormlz+0x30>
   137c8:	0064d783          	lhu	a5,6(s1)
   137cc:	fe0786e3          	beqz	a5,137b8 <enormlz+0x4c>
   137d0:	0064d783          	lhu	a5,6(s1)
   137d4:	f007f793          	andi	a5,a5,-256
   137d8:	02078263          	beqz	a5,137fc <enormlz+0x90>
   137dc:	0a000913          	li	s2,160
   137e0:	00649783          	lh	a5,6(s1)
   137e4:	fa07cce3          	bltz	a5,1379c <enormlz+0x30>
   137e8:	00048513          	mv	a0,s1
   137ec:	0014041b          	addiw	s0,s0,1
   137f0:	98dff0ef          	jal	ra,1317c <eshup1>
   137f4:	fe8956e3          	bge	s2,s0,137e0 <enormlz+0x74>
   137f8:	fa5ff06f          	j	1379c <enormlz+0x30>
   137fc:	00048513          	mv	a0,s1
   13800:	a05ff0ef          	jal	ra,13204 <eshup8>
   13804:	0084041b          	addiw	s0,s0,8
   13808:	fc9ff06f          	j	137d0 <enormlz+0x64>
   1380c:	f007f793          	andi	a5,a5,-256
   13810:	00000413          	li	s0,0
   13814:	00078663          	beqz	a5,13820 <enormlz+0xb4>
   13818:	9b9ff0ef          	jal	ra,131d0 <eshdn8>
   1381c:	ff800413          	li	s0,-8
   13820:	f7000913          	li	s2,-144
   13824:	0140006f          	j	13838 <enormlz+0xcc>
   13828:	00048513          	mv	a0,s1
   1382c:	fff4041b          	addiw	s0,s0,-1
   13830:	8fdff0ef          	jal	ra,1312c <eshdn1>
   13834:	f72444e3          	blt	s0,s2,1379c <enormlz+0x30>
   13838:	0044d783          	lhu	a5,4(s1)
   1383c:	fe0796e3          	bnez	a5,13828 <enormlz+0xbc>
   13840:	f5dff06f          	j	1379c <enormlz+0x30>

0000000000013844 <enan.constprop.12>:
   13844:	01050793          	addi	a5,a0,16
   13848:	00250513          	addi	a0,a0,2
   1384c:	fe051f23          	sh	zero,-2(a0)
   13850:	fef51ce3          	bne	a0,a5,13848 <enan.constprop.12+0x4>
   13854:	ffffc7b7          	lui	a5,0xffffc
   13858:	00f51023          	sh	a5,0(a0)
   1385c:	ffff87b7          	lui	a5,0xffff8
   13860:	fff7c793          	not	a5,a5
   13864:	00f51123          	sh	a5,2(a0)
   13868:	00008067          	ret

000000000001386c <emovo.isra.6>:
   1386c:	00050713          	mv	a4,a0
   13870:	00075683          	lhu	a3,0(a4)
   13874:	00058513          	mv	a0,a1
   13878:	00275783          	lhu	a5,2(a4)
   1387c:	00068663          	beqz	a3,13888 <emovo.isra.6+0x1c>
   13880:	ffff86b7          	lui	a3,0xffff8
   13884:	00d7e7b3          	or	a5,a5,a3
   13888:	00f51923          	sh	a5,18(a0)
   1388c:	00275603          	lhu	a2,2(a4)
   13890:	000086b7          	lui	a3,0x8
   13894:	fff68693          	addi	a3,a3,-1 # 7fff <_start-0x80b1>
   13898:	00670793          	addi	a5,a4,6
   1389c:	00d61e63          	bne	a2,a3,138b8 <emovo.isra.6+0x4c>
   138a0:	01a70713          	addi	a4,a4,26
   138a4:	0007d683          	lhu	a3,0(a5) # ffffffffffff8000 <__global_pointer$+0xfffffffffffd6fd0>
   138a8:	02069863          	bnez	a3,138d8 <emovo.isra.6+0x6c>
   138ac:	00278793          	addi	a5,a5,2
   138b0:	fee79ae3          	bne	a5,a4,138a4 <emovo.isra.6+0x38>
   138b4:	d39ff06f          	j	135ec <einfin.isra.2>
   138b8:	01050513          	addi	a0,a0,16
   138bc:	01870713          	addi	a4,a4,24
   138c0:	00278793          	addi	a5,a5,2
   138c4:	ffe7d683          	lhu	a3,-2(a5)
   138c8:	ffe50513          	addi	a0,a0,-2
   138cc:	00d51123          	sh	a3,2(a0)
   138d0:	fee798e3          	bne	a5,a4,138c0 <emovo.isra.6+0x54>
   138d4:	00008067          	ret
   138d8:	f6dff06f          	j	13844 <enan.constprop.12>

00000000000138dc <e113toe.isra.8>:
   138dc:	fc010113          	addi	sp,sp,-64
   138e0:	02913423          	sd	s1,40(sp)
   138e4:	00050493          	mv	s1,a0
   138e8:	00010513          	mv	a0,sp
   138ec:	02813823          	sd	s0,48(sp)
   138f0:	02113c23          	sd	ra,56(sp)
   138f4:	00058413          	mv	s0,a1
   138f8:	fc0ff0ef          	jal	ra,130b8 <ecleaz>
   138fc:	00e4d703          	lhu	a4,14(s1)
   13900:	0107179b          	slliw	a5,a4,0x10
   13904:	4107d79b          	sraiw	a5,a5,0x10
   13908:	0407c263          	bltz	a5,1394c <e113toe.isra.8+0x70>
   1390c:	00011023          	sh	zero,0(sp)
   13910:	000086b7          	lui	a3,0x8
   13914:	fff68693          	addi	a3,a3,-1 # 7fff <_start-0x80b1>
   13918:	00d77733          	and	a4,a4,a3
   1391c:	00e48793          	addi	a5,s1,14
   13920:	06d71c63          	bne	a4,a3,13998 <e113toe.isra.8+0xbc>
   13924:	00048713          	mv	a4,s1
   13928:	00075683          	lhu	a3,0(a4)
   1392c:	02068663          	beqz	a3,13958 <e113toe.isra.8+0x7c>
   13930:	00040513          	mv	a0,s0
   13934:	f11ff0ef          	jal	ra,13844 <enan.constprop.12>
   13938:	03813083          	ld	ra,56(sp)
   1393c:	03013403          	ld	s0,48(sp)
   13940:	02813483          	ld	s1,40(sp)
   13944:	04010113          	addi	sp,sp,64
   13948:	00008067          	ret
   1394c:	fff00793          	li	a5,-1
   13950:	00f11023          	sh	a5,0(sp)
   13954:	fbdff06f          	j	13910 <e113toe.isra.8+0x34>
   13958:	00270713          	addi	a4,a4,2
   1395c:	fce796e3          	bne	a5,a4,13928 <e113toe.isra.8+0x4c>
   13960:	00040513          	mv	a0,s0
   13964:	f24ff0ef          	jal	ra,13088 <eclear>
   13968:	00040513          	mv	a0,s0
   1396c:	c81ff0ef          	jal	ra,135ec <einfin.isra.2>
   13970:	00e49783          	lh	a5,14(s1)
   13974:	fc07d2e3          	bgez	a5,13938 <e113toe.isra.8+0x5c>
   13978:	00040513          	mv	a0,s0
   1397c:	a01ff0ef          	jal	ra,1337c <eisnan>
   13980:	fa051ce3          	bnez	a0,13938 <e113toe.isra.8+0x5c>
   13984:	01245783          	lhu	a5,18(s0)
   13988:	ffff8737          	lui	a4,0xffff8
   1398c:	00e7c7b3          	xor	a5,a5,a4
   13990:	00f41923          	sh	a5,18(s0)
   13994:	fa5ff06f          	j	13938 <e113toe.isra.8+0x5c>
   13998:	00e11123          	sh	a4,2(sp)
   1399c:	00010693          	mv	a3,sp
   139a0:	ffe78793          	addi	a5,a5,-2
   139a4:	0007d603          	lhu	a2,0(a5)
   139a8:	00268693          	addi	a3,a3,2
   139ac:	00c69223          	sh	a2,4(a3)
   139b0:	fef498e3          	bne	s1,a5,139a0 <e113toe.isra.8+0xc4>
   139b4:	00071c63          	bnez	a4,139cc <e113toe.isra.8+0xf0>
   139b8:	00011223          	sh	zero,4(sp)
   139bc:	00040593          	mv	a1,s0
   139c0:	00010513          	mv	a0,sp
   139c4:	ea9ff0ef          	jal	ra,1386c <emovo.isra.6>
   139c8:	f71ff06f          	j	13938 <e113toe.isra.8+0x5c>
   139cc:	00100793          	li	a5,1
   139d0:	fff00593          	li	a1,-1
   139d4:	00010513          	mv	a0,sp
   139d8:	00f11223          	sh	a5,4(sp)
   139dc:	c39ff0ef          	jal	ra,13614 <eshift.part.3>
   139e0:	fddff06f          	j	139bc <e113toe.isra.8+0xe0>

00000000000139e4 <emdnorm>:
   139e4:	fc010113          	addi	sp,sp,-64
   139e8:	02813823          	sd	s0,48(sp)
   139ec:	02913423          	sd	s1,40(sp)
   139f0:	03213023          	sd	s2,32(sp)
   139f4:	01313c23          	sd	s3,24(sp)
   139f8:	01413823          	sd	s4,16(sp)
   139fc:	01513423          	sd	s5,8(sp)
   13a00:	00068913          	mv	s2,a3
   13a04:	00078413          	mv	s0,a5
   13a08:	02113c23          	sd	ra,56(sp)
   13a0c:	00050493          	mv	s1,a0
   13a10:	00058993          	mv	s3,a1
   13a14:	00060a13          	mv	s4,a2
   13a18:	00070a93          	mv	s5,a4
   13a1c:	d51ff0ef          	jal	ra,1376c <enormlz>
   13a20:	09000793          	li	a5,144
   13a24:	40a90933          	sub	s2,s2,a0
   13a28:	04a7d463          	bge	a5,a0,13a70 <emdnorm+0x8c>
   13a2c:	000087b7          	lui	a5,0x8
   13a30:	ffe78793          	addi	a5,a5,-2 # 7ffe <_start-0x80b2>
   13a34:	2f27c663          	blt	a5,s2,13d20 <emdnorm+0x33c>
   13a38:	00248793          	addi	a5,s1,2
   13a3c:	01a48493          	addi	s1,s1,26
   13a40:	00278793          	addi	a5,a5,2
   13a44:	fe079f23          	sh	zero,-2(a5)
   13a48:	fe979ce3          	bne	a5,s1,13a40 <emdnorm+0x5c>
   13a4c:	03813083          	ld	ra,56(sp)
   13a50:	03013403          	ld	s0,48(sp)
   13a54:	02813483          	ld	s1,40(sp)
   13a58:	02013903          	ld	s2,32(sp)
   13a5c:	01813983          	ld	s3,24(sp)
   13a60:	01013a03          	ld	s4,16(sp)
   13a64:	00813a83          	ld	s5,8(sp)
   13a68:	04010113          	addi	sp,sp,64
   13a6c:	00008067          	ret
   13a70:	00095e63          	bgez	s2,13a8c <emdnorm+0xa8>
   13a74:	f7000793          	li	a5,-144
   13a78:	12f94e63          	blt	s2,a5,13bb4 <emdnorm+0x1d0>
   13a7c:	0009059b          	sext.w	a1,s2
   13a80:	00048513          	mv	a0,s1
   13a84:	b91ff0ef          	jal	ra,13614 <eshift.part.3>
   13a88:	14051263          	bnez	a0,13bcc <emdnorm+0x1e8>
   13a8c:	240a8663          	beqz	s5,13cd8 <emdnorm+0x2f4>
   13a90:	00442703          	lw	a4,4(s0)
   13a94:	00042783          	lw	a5,0(s0)
   13a98:	06f70663          	beq	a4,a5,13b04 <emdnorm+0x120>
   13a9c:	01a40513          	addi	a0,s0,26
   13aa0:	e18ff0ef          	jal	ra,130b8 <ecleaz>
   13aa4:	00442783          	lw	a5,4(s0)
   13aa8:	03800713          	li	a4,56
   13aac:	18e78063          	beq	a5,a4,13c2c <emdnorm+0x248>
   13ab0:	12f74263          	blt	a4,a5,13bd4 <emdnorm+0x1f0>
   13ab4:	01800713          	li	a4,24
   13ab8:	1ae78863          	beq	a5,a4,13c68 <emdnorm+0x284>
   13abc:	03500713          	li	a4,53
   13ac0:	18e78863          	beq	a5,a4,13c50 <emdnorm+0x26c>
   13ac4:	80010737          	lui	a4,0x80010
   13ac8:	fff7071b          	addiw	a4,a4,-1
   13acc:	00e42a23          	sw	a4,20(s0)
   13ad0:	00100713          	li	a4,1
   13ad4:	00e41c23          	sh	a4,24(s0)
   13ad8:	00b00713          	li	a4,11
   13adc:	02071713          	slli	a4,a4,0x20
   13ae0:	00c70713          	addi	a4,a4,12 # ffffffff8001000c <__global_pointer$+0xffffffff7ffeefdc>
   13ae4:	00e43423          	sd	a4,8(s0)
   13ae8:	00c42703          	lw	a4,12(s0)
   13aec:	01845683          	lhu	a3,24(s0)
   13af0:	00870713          	addi	a4,a4,8
   13af4:	00171713          	slli	a4,a4,0x1
   13af8:	00e40733          	add	a4,s0,a4
   13afc:	00d71523          	sh	a3,10(a4)
   13b00:	00f42023          	sw	a5,0(s0)
   13b04:	03204263          	bgtz	s2,13b28 <emdnorm+0x144>
   13b08:	00442703          	lw	a4,4(s0)
   13b0c:	09000793          	li	a5,144
   13b10:	00f70c63          	beq	a4,a5,13b28 <emdnorm+0x144>
   13b14:	0184d783          	lhu	a5,24(s1)
   13b18:	00048513          	mv	a0,s1
   13b1c:	0017f793          	andi	a5,a5,1
   13b20:	00f9e9b3          	or	s3,s3,a5
   13b24:	e08ff0ef          	jal	ra,1312c <eshdn1>
   13b28:	00842683          	lw	a3,8(s0)
   13b2c:	01445583          	lhu	a1,20(s0)
   13b30:	00442503          	lw	a0,4(s0)
   13b34:	00169793          	slli	a5,a3,0x1
   13b38:	00f48633          	add	a2,s1,a5
   13b3c:	00065703          	lhu	a4,0(a2)
   13b40:	00b77733          	and	a4,a4,a1
   13b44:	08f00593          	li	a1,143
   13b48:	00a5cc63          	blt	a1,a0,13b60 <emdnorm+0x17c>
   13b4c:	00278793          	addi	a5,a5,2
   13b50:	0016869b          	addiw	a3,a3,1
   13b54:	00f487b3          	add	a5,s1,a5
   13b58:	00c00593          	li	a1,12
   13b5c:	12d5d863          	bge	a1,a3,13c8c <emdnorm+0x2a8>
   13b60:	01445783          	lhu	a5,20(s0)
   13b64:	00065683          	lhu	a3,0(a2)
   13b68:	fff7c793          	not	a5,a5
   13b6c:	00d7f7b3          	and	a5,a5,a3
   13b70:	00f61023          	sh	a5,0(a2)
   13b74:	01645783          	lhu	a5,22(s0)
   13b78:	00e7f6b3          	and	a3,a5,a4
   13b7c:	12068863          	beqz	a3,13cac <emdnorm+0x2c8>
   13b80:	02e79263          	bne	a5,a4,13ba4 <emdnorm+0x1c0>
   13b84:	12099263          	bnez	s3,13ca8 <emdnorm+0x2c4>
   13b88:	00c42783          	lw	a5,12(s0)
   13b8c:	01845703          	lhu	a4,24(s0)
   13b90:	00179793          	slli	a5,a5,0x1
   13b94:	00f487b3          	add	a5,s1,a5
   13b98:	0007d783          	lhu	a5,0(a5)
   13b9c:	00e7f7b3          	and	a5,a5,a4
   13ba0:	10078663          	beqz	a5,13cac <emdnorm+0x2c8>
   13ba4:	00048593          	mv	a1,s1
   13ba8:	01a40513          	addi	a0,s0,26
   13bac:	ec8ff0ef          	jal	ra,13274 <eaddm>
   13bb0:	0fc0006f          	j	13cac <emdnorm+0x2c8>
   13bb4:	00248793          	addi	a5,s1,2
   13bb8:	01a48493          	addi	s1,s1,26
   13bbc:	00278793          	addi	a5,a5,2
   13bc0:	fe079f23          	sh	zero,-2(a5)
   13bc4:	fe979ce3          	bne	a5,s1,13bbc <emdnorm+0x1d8>
   13bc8:	e85ff06f          	j	13a4c <emdnorm+0x68>
   13bcc:	00100993          	li	s3,1
   13bd0:	ebdff06f          	j	13a8c <emdnorm+0xa8>
   13bd4:	04000713          	li	a4,64
   13bd8:	02e78863          	beq	a5,a4,13c08 <emdnorm+0x224>
   13bdc:	07100713          	li	a4,113
   13be0:	eee792e3          	bne	a5,a4,13ac4 <emdnorm+0xe0>
   13be4:	40008737          	lui	a4,0x40008
   13be8:	fff7071b          	addiw	a4,a4,-1
   13bec:	00e42a23          	sw	a4,20(s0)
   13bf0:	ffff8737          	lui	a4,0xffff8
   13bf4:	00e41c23          	sh	a4,24(s0)
   13bf8:	00a00713          	li	a4,10
   13bfc:	02071713          	slli	a4,a4,0x20
   13c00:	00a70713          	addi	a4,a4,10 # ffffffffffff800a <__global_pointer$+0xfffffffffffd6fda>
   13c04:	ee1ff06f          	j	13ae4 <emdnorm+0x100>
   13c08:	80010737          	lui	a4,0x80010
   13c0c:	fff7071b          	addiw	a4,a4,-1
   13c10:	00e42a23          	sw	a4,20(s0)
   13c14:	00100713          	li	a4,1
   13c18:	00e41c23          	sh	a4,24(s0)
   13c1c:	00300713          	li	a4,3
   13c20:	02171713          	slli	a4,a4,0x21
   13c24:	00770713          	addi	a4,a4,7 # ffffffff80010007 <__global_pointer$+0xffffffff7ffeefd7>
   13c28:	ebdff06f          	j	13ae4 <emdnorm+0x100>
   13c2c:	00800737          	lui	a4,0x800
   13c30:	0ff7071b          	addiw	a4,a4,255
   13c34:	00e42a23          	sw	a4,20(s0)
   13c38:	10000713          	li	a4,256
   13c3c:	00e41c23          	sh	a4,24(s0)
   13c40:	00600713          	li	a4,6
   13c44:	02071713          	slli	a4,a4,0x20
   13c48:	00670713          	addi	a4,a4,6 # 800006 <__global_pointer$+0x7defd6>
   13c4c:	e99ff06f          	j	13ae4 <emdnorm+0x100>
   13c50:	04000737          	lui	a4,0x4000
   13c54:	7ff7071b          	addiw	a4,a4,2047
   13c58:	00e42a23          	sw	a4,20(s0)
   13c5c:	00001737          	lui	a4,0x1
   13c60:	8007071b          	addiw	a4,a4,-2048
   13c64:	fd9ff06f          	j	13c3c <emdnorm+0x258>
   13c68:	00800737          	lui	a4,0x800
   13c6c:	0ff7071b          	addiw	a4,a4,255
   13c70:	00e42a23          	sw	a4,20(s0)
   13c74:	10000713          	li	a4,256
   13c78:	00e41c23          	sh	a4,24(s0)
   13c7c:	00400713          	li	a4,4
   13c80:	02071713          	slli	a4,a4,0x20
   13c84:	00470713          	addi	a4,a4,4 # 800004 <__global_pointer$+0x7defd4>
   13c88:	e5dff06f          	j	13ae4 <emdnorm+0x100>
   13c8c:	0007d503          	lhu	a0,0(a5)
   13c90:	00050463          	beqz	a0,13c98 <emdnorm+0x2b4>
   13c94:	00176713          	ori	a4,a4,1
   13c98:	00079023          	sh	zero,0(a5)
   13c9c:	0016869b          	addiw	a3,a3,1
   13ca0:	00278793          	addi	a5,a5,2
   13ca4:	eb9ff06f          	j	13b5c <emdnorm+0x178>
   13ca8:	ee0a0ee3          	beqz	s4,13ba4 <emdnorm+0x1c0>
   13cac:	01204c63          	bgtz	s2,13cc4 <emdnorm+0x2e0>
   13cb0:	00442703          	lw	a4,4(s0)
   13cb4:	09000793          	li	a5,144
   13cb8:	00f70663          	beq	a4,a5,13cc4 <emdnorm+0x2e0>
   13cbc:	00048513          	mv	a0,s1
   13cc0:	cbcff0ef          	jal	ra,1317c <eshup1>
   13cc4:	0044d783          	lhu	a5,4(s1)
   13cc8:	00078863          	beqz	a5,13cd8 <emdnorm+0x2f4>
   13ccc:	00048513          	mv	a0,s1
   13cd0:	c5cff0ef          	jal	ra,1312c <eshdn1>
   13cd4:	00190913          	addi	s2,s2,1
   13cd8:	000087b7          	lui	a5,0x8
   13cdc:	00049c23          	sh	zero,24(s1)
   13ce0:	ffe78793          	addi	a5,a5,-2 # 7ffe <_start-0x80b2>
   13ce4:	0327d463          	bge	a5,s2,13d0c <emdnorm+0x328>
   13ce8:	ffff87b7          	lui	a5,0xffff8
   13cec:	fff7c793          	not	a5,a5
   13cf0:	00f49123          	sh	a5,2(s1)
   13cf4:	00448793          	addi	a5,s1,4
   13cf8:	01848493          	addi	s1,s1,24
   13cfc:	00079023          	sh	zero,0(a5) # ffffffffffff8000 <__global_pointer$+0xfffffffffffd6fd0>
   13d00:	00278793          	addi	a5,a5,2
   13d04:	fef49ce3          	bne	s1,a5,13cfc <emdnorm+0x318>
   13d08:	d45ff06f          	j	13a4c <emdnorm+0x68>
   13d0c:	00095663          	bgez	s2,13d18 <emdnorm+0x334>
   13d10:	00049123          	sh	zero,2(s1)
   13d14:	d39ff06f          	j	13a4c <emdnorm+0x68>
   13d18:	01249123          	sh	s2,2(s1)
   13d1c:	d31ff06f          	j	13a4c <emdnorm+0x68>
   13d20:	d60a98e3          	bnez	s5,13a90 <emdnorm+0xac>
   13d24:	00049c23          	sh	zero,24(s1)
   13d28:	fc1ff06f          	j	13ce8 <emdnorm+0x304>

0000000000013d2c <eiremain>:
   13d2c:	fc010113          	addi	sp,sp,-64
   13d30:	01413823          	sd	s4,16(sp)
   13d34:	00255a03          	lhu	s4,2(a0)
   13d38:	02813823          	sd	s0,48(sp)
   13d3c:	00058413          	mv	s0,a1
   13d40:	02113c23          	sd	ra,56(sp)
   13d44:	02913423          	sd	s1,40(sp)
   13d48:	03213023          	sd	s2,32(sp)
   13d4c:	01513423          	sd	s5,8(sp)
   13d50:	01613023          	sd	s6,0(sp)
   13d54:	00060913          	mv	s2,a2
   13d58:	03460b13          	addi	s6,a2,52
   13d5c:	01313c23          	sd	s3,24(sp)
   13d60:	00050a93          	mv	s5,a0
   13d64:	a09ff0ef          	jal	ra,1376c <enormlz>
   13d68:	00245483          	lhu	s1,2(s0)
   13d6c:	40aa0a33          	sub	s4,s4,a0
   13d70:	00040513          	mv	a0,s0
   13d74:	9f9ff0ef          	jal	ra,1376c <enormlz>
   13d78:	40a484b3          	sub	s1,s1,a0
   13d7c:	000b0513          	mv	a0,s6
   13d80:	b38ff0ef          	jal	ra,130b8 <ecleaz>
   13d84:	0544d263          	bge	s1,s4,13dc8 <eiremain+0x9c>
   13d88:	00040513          	mv	a0,s0
   13d8c:	03013403          	ld	s0,48(sp)
   13d90:	03813083          	ld	ra,56(sp)
   13d94:	01813983          	ld	s3,24(sp)
   13d98:	01013a03          	ld	s4,16(sp)
   13d9c:	00813a83          	ld	s5,8(sp)
   13da0:	00013b03          	ld	s6,0(sp)
   13da4:	00090793          	mv	a5,s2
   13da8:	00048693          	mv	a3,s1
   13dac:	02013903          	ld	s2,32(sp)
   13db0:	02813483          	ld	s1,40(sp)
   13db4:	00000713          	li	a4,0
   13db8:	00000613          	li	a2,0
   13dbc:	00000593          	li	a1,0
   13dc0:	04010113          	addi	sp,sp,64
   13dc4:	c21ff06f          	j	139e4 <emdnorm>
   13dc8:	00040593          	mv	a1,s0
   13dcc:	000a8513          	mv	a0,s5
   13dd0:	b20ff0ef          	jal	ra,130f0 <ecmpm>
   13dd4:	00000993          	li	s3,0
   13dd8:	00a04a63          	bgtz	a0,13dec <eiremain+0xc0>
   13ddc:	00040593          	mv	a1,s0
   13de0:	000a8513          	mv	a0,s5
   13de4:	cc8ff0ef          	jal	ra,132ac <esubm>
   13de8:	00100993          	li	s3,1
   13dec:	000b0513          	mv	a0,s6
   13df0:	b8cff0ef          	jal	ra,1317c <eshup1>
   13df4:	04c95783          	lhu	a5,76(s2)
   13df8:	00040513          	mv	a0,s0
   13dfc:	fff48493          	addi	s1,s1,-1
   13e00:	00f9e9b3          	or	s3,s3,a5
   13e04:	05391623          	sh	s3,76(s2)
   13e08:	b74ff0ef          	jal	ra,1317c <eshup1>
   13e0c:	f79ff06f          	j	13d84 <eiremain+0x58>

0000000000013e10 <emul>:
   13e10:	f4010113          	addi	sp,sp,-192
   13e14:	0a813823          	sd	s0,176(sp)
   13e18:	0a913423          	sd	s1,168(sp)
   13e1c:	0b213023          	sd	s2,160(sp)
   13e20:	09313c23          	sd	s3,152(sp)
   13e24:	0a113c23          	sd	ra,184(sp)
   13e28:	09413823          	sd	s4,144(sp)
   13e2c:	09513423          	sd	s5,136(sp)
   13e30:	09613023          	sd	s6,128(sp)
   13e34:	07713c23          	sd	s7,120(sp)
   13e38:	07813823          	sd	s8,112(sp)
   13e3c:	07913423          	sd	s9,104(sp)
   13e40:	00050493          	mv	s1,a0
   13e44:	00058413          	mv	s0,a1
   13e48:	00060913          	mv	s2,a2
   13e4c:	00068993          	mv	s3,a3
   13e50:	d2cff0ef          	jal	ra,1337c <eisnan>
   13e54:	04050263          	beqz	a0,13e98 <emul+0x88>
   13e58:	00090593          	mv	a1,s2
   13e5c:	00048513          	mv	a0,s1
   13e60:	a3cff0ef          	jal	ra,1309c <emov>
   13e64:	0b813083          	ld	ra,184(sp)
   13e68:	0b013403          	ld	s0,176(sp)
   13e6c:	0a813483          	ld	s1,168(sp)
   13e70:	0a013903          	ld	s2,160(sp)
   13e74:	09813983          	ld	s3,152(sp)
   13e78:	09013a03          	ld	s4,144(sp)
   13e7c:	08813a83          	ld	s5,136(sp)
   13e80:	08013b03          	ld	s6,128(sp)
   13e84:	07813b83          	ld	s7,120(sp)
   13e88:	07013c03          	ld	s8,112(sp)
   13e8c:	06813c83          	ld	s9,104(sp)
   13e90:	0c010113          	addi	sp,sp,192
   13e94:	00008067          	ret
   13e98:	00040513          	mv	a0,s0
   13e9c:	ce0ff0ef          	jal	ra,1337c <eisnan>
   13ea0:	00050863          	beqz	a0,13eb0 <emul+0xa0>
   13ea4:	00090593          	mv	a1,s2
   13ea8:	00040513          	mv	a0,s0
   13eac:	fb5ff06f          	j	13e60 <emul+0x50>
   13eb0:	00048513          	mv	a0,s1
   13eb4:	f04ff0ef          	jal	ra,135b8 <eisinf>
   13eb8:	06051463          	bnez	a0,13f20 <emul+0x110>
   13ebc:	00040513          	mv	a0,s0
   13ec0:	ef8ff0ef          	jal	ra,135b8 <eisinf>
   13ec4:	00050c63          	beqz	a0,13edc <emul+0xcc>
   13ec8:	0001e5b7          	lui	a1,0x1e
   13ecc:	c4858593          	addi	a1,a1,-952 # 1dc48 <ezero>
   13ed0:	00048513          	mv	a0,s1
   13ed4:	de4ff0ef          	jal	ra,134b8 <ecmp>
   13ed8:	04050e63          	beqz	a0,13f34 <emul+0x124>
   13edc:	00048513          	mv	a0,s1
   13ee0:	ed8ff0ef          	jal	ra,135b8 <eisinf>
   13ee4:	00051863          	bnez	a0,13ef4 <emul+0xe4>
   13ee8:	00040513          	mv	a0,s0
   13eec:	eccff0ef          	jal	ra,135b8 <eisinf>
   13ef0:	04050c63          	beqz	a0,13f48 <emul+0x138>
   13ef4:	00048513          	mv	a0,s1
   13ef8:	cb8ff0ef          	jal	ra,133b0 <eisneg>
   13efc:	00050493          	mv	s1,a0
   13f00:	00040513          	mv	a0,s0
   13f04:	cacff0ef          	jal	ra,133b0 <eisneg>
   13f08:	02a48c63          	beq	s1,a0,13f40 <emul+0x130>
   13f0c:	ffff87b7          	lui	a5,0xffff8
   13f10:	00f91923          	sh	a5,18(s2)
   13f14:	00090513          	mv	a0,s2
   13f18:	ed4ff0ef          	jal	ra,135ec <einfin.isra.2>
   13f1c:	f49ff06f          	j	13e64 <emul+0x54>
   13f20:	0001e5b7          	lui	a1,0x1e
   13f24:	c4858593          	addi	a1,a1,-952 # 1dc48 <ezero>
   13f28:	00040513          	mv	a0,s0
   13f2c:	d8cff0ef          	jal	ra,134b8 <ecmp>
   13f30:	f80516e3          	bnez	a0,13ebc <emul+0xac>
   13f34:	00090513          	mv	a0,s2
   13f38:	90dff0ef          	jal	ra,13844 <enan.constprop.12>
   13f3c:	f29ff06f          	j	13e64 <emul+0x54>
   13f40:	00091923          	sh	zero,18(s2)
   13f44:	fd1ff06f          	j	13f14 <emul+0x104>
   13f48:	00048513          	mv	a0,s1
   13f4c:	00010593          	mv	a1,sp
   13f50:	c98ff0ef          	jal	ra,133e8 <emovi>
   13f54:	00040513          	mv	a0,s0
   13f58:	02010593          	addi	a1,sp,32
   13f5c:	c8cff0ef          	jal	ra,133e8 <emovi>
   13f60:	00215403          	lhu	s0,2(sp)
   13f64:	02215483          	lhu	s1,34(sp)
   13f68:	02041263          	bnez	s0,13f8c <emul+0x17c>
   13f6c:	00000793          	li	a5,0
   13f70:	01600713          	li	a4,22
   13f74:	00f106b3          	add	a3,sp,a5
   13f78:	0026d683          	lhu	a3,2(a3)
   13f7c:	10068863          	beqz	a3,1408c <emul+0x27c>
   13f80:	00010513          	mv	a0,sp
   13f84:	fe8ff0ef          	jal	ra,1376c <enormlz>
   13f88:	40a00433          	neg	s0,a0
   13f8c:	02215783          	lhu	a5,34(sp)
   13f90:	00048c13          	mv	s8,s1
   13f94:	02079263          	bnez	a5,13fb8 <emul+0x1a8>
   13f98:	01600713          	li	a4,22
   13f9c:	02010693          	addi	a3,sp,32
   13fa0:	00f686b3          	add	a3,a3,a5
   13fa4:	0026d683          	lhu	a3,2(a3)
   13fa8:	0e068c63          	beqz	a3,140a0 <emul+0x290>
   13fac:	02010513          	addi	a0,sp,32
   13fb0:	fbcff0ef          	jal	ra,1376c <enormlz>
   13fb4:	40a48c33          	sub	s8,s1,a0
   13fb8:	02015783          	lhu	a5,32(sp)
   13fbc:	03498b93          	addi	s7,s3,52
   13fc0:	03898493          	addi	s1,s3,56
   13fc4:	02f99a23          	sh	a5,52(s3)
   13fc8:	02215783          	lhu	a5,34(sp)
   13fcc:	000b8a13          	mv	s4,s7
   13fd0:	02f99b23          	sh	a5,54(s3)
   13fd4:	04e98793          	addi	a5,s3,78
   13fd8:	00049023          	sh	zero,0(s1)
   13fdc:	00248493          	addi	s1,s1,2
   13fe0:	fe979ce3          	bne	a5,s1,13fd8 <emul+0x1c8>
   13fe4:	00000a93          	li	s5,0
   13fe8:	00000b13          	li	s6,0
   13fec:	fec00c93          	li	s9,-20
   13ff0:	015107b3          	add	a5,sp,s5
   13ff4:	0187d503          	lhu	a0,24(a5) # ffffffffffff8018 <__global_pointer$+0xfffffffffffd6fe8>
   13ff8:	00050e63          	beqz	a0,14014 <emul+0x204>
   13ffc:	02010593          	addi	a1,sp,32
   14000:	04010613          	addi	a2,sp,64
   14004:	ae0ff0ef          	jal	ra,132e4 <m16m>
   14008:	000b8593          	mv	a1,s7
   1400c:	04010513          	addi	a0,sp,64
   14010:	a64ff0ef          	jal	ra,13274 <eaddm>
   14014:	04c9d783          	lhu	a5,76(s3)
   14018:	000b8513          	mv	a0,s7
   1401c:	ffea8a93          	addi	s5,s5,-2
   14020:	00fb6b33          	or	s6,s6,a5
   14024:	a28ff0ef          	jal	ra,1324c <eshdn6>
   14028:	fd9a94e3          	bne	s5,s9,13ff0 <emul+0x1e0>
   1402c:	02010793          	addi	a5,sp,32
   14030:	000a5703          	lhu	a4,0(s4)
   14034:	002a0a13          	addi	s4,s4,2
   14038:	00278793          	addi	a5,a5,2
   1403c:	fee79f23          	sh	a4,-2(a5)
   14040:	fe9a18e3          	bne	s4,s1,14030 <emul+0x220>
   14044:	ffffc6b7          	lui	a3,0xffffc
   14048:	01840433          	add	s0,s0,s8
   1404c:	00268693          	addi	a3,a3,2 # ffffffffffffc002 <__global_pointer$+0xfffffffffffdafd2>
   14050:	00098793          	mv	a5,s3
   14054:	04000713          	li	a4,64
   14058:	00d406b3          	add	a3,s0,a3
   1405c:	00000613          	li	a2,0
   14060:	000b0593          	mv	a1,s6
   14064:	02010513          	addi	a0,sp,32
   14068:	97dff0ef          	jal	ra,139e4 <emdnorm>
   1406c:	00015703          	lhu	a4,0(sp)
   14070:	02015783          	lhu	a5,32(sp)
   14074:	02f71c63          	bne	a4,a5,140ac <emul+0x29c>
   14078:	02011023          	sh	zero,32(sp)
   1407c:	00090593          	mv	a1,s2
   14080:	02010513          	addi	a0,sp,32
   14084:	fe8ff0ef          	jal	ra,1386c <emovo.isra.6>
   14088:	dddff06f          	j	13e64 <emul+0x54>
   1408c:	00278793          	addi	a5,a5,2
   14090:	eee792e3          	bne	a5,a4,13f74 <emul+0x164>
   14094:	00090513          	mv	a0,s2
   14098:	ff1fe0ef          	jal	ra,13088 <eclear>
   1409c:	dc9ff06f          	j	13e64 <emul+0x54>
   140a0:	00278793          	addi	a5,a5,2
   140a4:	eee79ce3          	bne	a5,a4,13f9c <emul+0x18c>
   140a8:	fedff06f          	j	14094 <emul+0x284>
   140ac:	fff00793          	li	a5,-1
   140b0:	02f11023          	sh	a5,32(sp)
   140b4:	fc9ff06f          	j	1407c <emul+0x26c>

00000000000140b8 <ediv>:
   140b8:	f4010113          	addi	sp,sp,-192
   140bc:	0a813823          	sd	s0,176(sp)
   140c0:	0a913423          	sd	s1,168(sp)
   140c4:	0b213023          	sd	s2,160(sp)
   140c8:	09513423          	sd	s5,136(sp)
   140cc:	0a113c23          	sd	ra,184(sp)
   140d0:	09313c23          	sd	s3,152(sp)
   140d4:	09413823          	sd	s4,144(sp)
   140d8:	09613023          	sd	s6,128(sp)
   140dc:	07713c23          	sd	s7,120(sp)
   140e0:	07813823          	sd	s8,112(sp)
   140e4:	07913423          	sd	s9,104(sp)
   140e8:	07a13023          	sd	s10,96(sp)
   140ec:	00050493          	mv	s1,a0
   140f0:	00058413          	mv	s0,a1
   140f4:	00060913          	mv	s2,a2
   140f8:	00068a93          	mv	s5,a3
   140fc:	a80ff0ef          	jal	ra,1337c <eisnan>
   14100:	04050463          	beqz	a0,14148 <ediv+0x90>
   14104:	00090593          	mv	a1,s2
   14108:	00048513          	mv	a0,s1
   1410c:	f91fe0ef          	jal	ra,1309c <emov>
   14110:	0b813083          	ld	ra,184(sp)
   14114:	0b013403          	ld	s0,176(sp)
   14118:	0a813483          	ld	s1,168(sp)
   1411c:	0a013903          	ld	s2,160(sp)
   14120:	09813983          	ld	s3,152(sp)
   14124:	09013a03          	ld	s4,144(sp)
   14128:	08813a83          	ld	s5,136(sp)
   1412c:	08013b03          	ld	s6,128(sp)
   14130:	07813b83          	ld	s7,120(sp)
   14134:	07013c03          	ld	s8,112(sp)
   14138:	06813c83          	ld	s9,104(sp)
   1413c:	06013d03          	ld	s10,96(sp)
   14140:	0c010113          	addi	sp,sp,192
   14144:	00008067          	ret
   14148:	00040513          	mv	a0,s0
   1414c:	a30ff0ef          	jal	ra,1337c <eisnan>
   14150:	00050863          	beqz	a0,14160 <ediv+0xa8>
   14154:	00090593          	mv	a1,s2
   14158:	00040513          	mv	a0,s0
   1415c:	fb1ff06f          	j	1410c <ediv+0x54>
   14160:	0001e9b7          	lui	s3,0x1e
   14164:	c4898593          	addi	a1,s3,-952 # 1dc48 <ezero>
   14168:	00048513          	mv	a0,s1
   1416c:	b4cff0ef          	jal	ra,134b8 <ecmp>
   14170:	1e050663          	beqz	a0,1435c <ediv+0x2a4>
   14174:	00048513          	mv	a0,s1
   14178:	c40ff0ef          	jal	ra,135b8 <eisinf>
   1417c:	00050993          	mv	s3,a0
   14180:	00040513          	mv	a0,s0
   14184:	c34ff0ef          	jal	ra,135b8 <eisinf>
   14188:	1e099863          	bnez	s3,14378 <ediv+0x2c0>
   1418c:	1e051e63          	bnez	a0,14388 <ediv+0x2d0>
   14190:	00048513          	mv	a0,s1
   14194:	00010593          	mv	a1,sp
   14198:	a50ff0ef          	jal	ra,133e8 <emovi>
   1419c:	00040513          	mv	a0,s0
   141a0:	02010593          	addi	a1,sp,32
   141a4:	a44ff0ef          	jal	ra,133e8 <emovi>
   141a8:	02215483          	lhu	s1,34(sp)
   141ac:	00215403          	lhu	s0,2(sp)
   141b0:	02049463          	bnez	s1,141d8 <ediv+0x120>
   141b4:	00000793          	li	a5,0
   141b8:	01600713          	li	a4,22
   141bc:	02010693          	addi	a3,sp,32
   141c0:	00f686b3          	add	a3,a3,a5
   141c4:	0026d683          	lhu	a3,2(a3)
   141c8:	1e068663          	beqz	a3,143b4 <ediv+0x2fc>
   141cc:	02010513          	addi	a0,sp,32
   141d0:	d9cff0ef          	jal	ra,1376c <enormlz>
   141d4:	40a004b3          	neg	s1,a0
   141d8:	00215783          	lhu	a5,2(sp)
   141dc:	00040b93          	mv	s7,s0
   141e0:	02079063          	bnez	a5,14200 <ediv+0x148>
   141e4:	01600713          	li	a4,22
   141e8:	00f106b3          	add	a3,sp,a5
   141ec:	0026d683          	lhu	a3,2(a3)
   141f0:	1c068863          	beqz	a3,143c0 <ediv+0x308>
   141f4:	00010513          	mv	a0,sp
   141f8:	d74ff0ef          	jal	ra,1376c <enormlz>
   141fc:	40a40bb3          	sub	s7,s0,a0
   14200:	02015783          	lhu	a5,32(sp)
   14204:	02215703          	lhu	a4,34(sp)
   14208:	034a8993          	addi	s3,s5,52
   1420c:	02fa9a23          	sh	a5,52(s5)
   14210:	038a8793          	addi	a5,s5,56
   14214:	02ea9b23          	sh	a4,54(s5)
   14218:	00078a13          	mv	s4,a5
   1421c:	04ea8713          	addi	a4,s5,78
   14220:	00278793          	addi	a5,a5,2
   14224:	fe079f23          	sh	zero,-2(a5)
   14228:	fee79ce3          	bne	a5,a4,14220 <ediv+0x168>
   1422c:	02010513          	addi	a0,sp,32
   14230:	efdfe0ef          	jal	ra,1312c <eshdn1>
   14234:	00615c03          	lhu	s8,6(sp)
   14238:	00010b37          	lui	s6,0x10
   1423c:	fffb0b13          	addi	s6,s6,-1 # ffff <_start-0xb1>
   14240:	036c0d33          	mul	s10,s8,s6
   14244:	01a98c93          	addi	s9,s3,26
   14248:	02415783          	lhu	a5,36(sp)
   1424c:	02615403          	lhu	s0,38(sp)
   14250:	01079793          	slli	a5,a5,0x10
   14254:	008787b3          	add	a5,a5,s0
   14258:	000b0413          	mv	s0,s6
   1425c:	00fd6863          	bltu	s10,a5,1426c <ediv+0x1b4>
   14260:	0387d433          	divu	s0,a5,s8
   14264:	03041413          	slli	s0,s0,0x30
   14268:	03045413          	srli	s0,s0,0x30
   1426c:	00010593          	mv	a1,sp
   14270:	00040513          	mv	a0,s0
   14274:	04010613          	addi	a2,sp,64
   14278:	86cff0ef          	jal	ra,132e4 <m16m>
   1427c:	02010593          	addi	a1,sp,32
   14280:	04010513          	addi	a0,sp,64
   14284:	e6dfe0ef          	jal	ra,130f0 <ecmpm>
   14288:	02a05663          	blez	a0,142b4 <ediv+0x1fc>
   1428c:	04010593          	addi	a1,sp,64
   14290:	00010513          	mv	a0,sp
   14294:	818ff0ef          	jal	ra,132ac <esubm>
   14298:	02010593          	addi	a1,sp,32
   1429c:	04010513          	addi	a0,sp,64
   142a0:	e51fe0ef          	jal	ra,130f0 <ecmpm>
   142a4:	12a04c63          	bgtz	a0,143dc <ediv+0x324>
   142a8:	fff4041b          	addiw	s0,s0,-1
   142ac:	03041413          	slli	s0,s0,0x30
   142b0:	03045413          	srli	s0,s0,0x30
   142b4:	02010593          	addi	a1,sp,32
   142b8:	04010513          	addi	a0,sp,64
   142bc:	ff1fe0ef          	jal	ra,132ac <esubm>
   142c0:	02010513          	addi	a0,sp,32
   142c4:	008a1023          	sh	s0,0(s4)
   142c8:	002a0a13          	addi	s4,s4,2
   142cc:	f61fe0ef          	jal	ra,1322c <eshup6>
   142d0:	f79a1ce3          	bne	s4,s9,14248 <ediv+0x190>
   142d4:	00000793          	li	a5,0
   142d8:	00000593          	li	a1,0
   142dc:	01600713          	li	a4,22
   142e0:	02010693          	addi	a3,sp,32
   142e4:	00f686b3          	add	a3,a3,a5
   142e8:	0046d683          	lhu	a3,4(a3)
   142ec:	00278793          	addi	a5,a5,2
   142f0:	00d5e5b3          	or	a1,a1,a3
   142f4:	fee796e3          	bne	a5,a4,142e0 <ediv+0x228>
   142f8:	0005859b          	sext.w	a1,a1
   142fc:	00b035b3          	snez	a1,a1
   14300:	02010793          	addi	a5,sp,32
   14304:	0009d703          	lhu	a4,0(s3)
   14308:	00298993          	addi	s3,s3,2
   1430c:	00278793          	addi	a5,a5,2
   14310:	fee79f23          	sh	a4,-2(a5)
   14314:	ff3a18e3          	bne	s4,s3,14304 <ediv+0x24c>
   14318:	000046b7          	lui	a3,0x4
   1431c:	417484b3          	sub	s1,s1,s7
   14320:	fff68693          	addi	a3,a3,-1 # 3fff <_start-0xc0b1>
   14324:	000a8793          	mv	a5,s5
   14328:	04000713          	li	a4,64
   1432c:	00d486b3          	add	a3,s1,a3
   14330:	00000613          	li	a2,0
   14334:	02010513          	addi	a0,sp,32
   14338:	eacff0ef          	jal	ra,139e4 <emdnorm>
   1433c:	00015703          	lhu	a4,0(sp)
   14340:	02015783          	lhu	a5,32(sp)
   14344:	0af71a63          	bne	a4,a5,143f8 <ediv+0x340>
   14348:	02011023          	sh	zero,32(sp)
   1434c:	00090593          	mv	a1,s2
   14350:	02010513          	addi	a0,sp,32
   14354:	d18ff0ef          	jal	ra,1386c <emovo.isra.6>
   14358:	db9ff06f          	j	14110 <ediv+0x58>
   1435c:	c4898593          	addi	a1,s3,-952
   14360:	00040513          	mv	a0,s0
   14364:	954ff0ef          	jal	ra,134b8 <ecmp>
   14368:	e00516e3          	bnez	a0,14174 <ediv+0xbc>
   1436c:	00090513          	mv	a0,s2
   14370:	cd4ff0ef          	jal	ra,13844 <enan.constprop.12>
   14374:	d9dff06f          	j	14110 <ediv+0x58>
   14378:	fe051ae3          	bnez	a0,1436c <ediv+0x2b4>
   1437c:	00090513          	mv	a0,s2
   14380:	d09fe0ef          	jal	ra,13088 <eclear>
   14384:	d8dff06f          	j	14110 <ediv+0x58>
   14388:	00048513          	mv	a0,s1
   1438c:	824ff0ef          	jal	ra,133b0 <eisneg>
   14390:	00050493          	mv	s1,a0
   14394:	00040513          	mv	a0,s0
   14398:	818ff0ef          	jal	ra,133b0 <eisneg>
   1439c:	02a48c63          	beq	s1,a0,143d4 <ediv+0x31c>
   143a0:	ffff87b7          	lui	a5,0xffff8
   143a4:	00f91923          	sh	a5,18(s2)
   143a8:	00090513          	mv	a0,s2
   143ac:	a40ff0ef          	jal	ra,135ec <einfin.isra.2>
   143b0:	d61ff06f          	j	14110 <ediv+0x58>
   143b4:	00278793          	addi	a5,a5,2 # ffffffffffff8002 <__global_pointer$+0xfffffffffffd6fd2>
   143b8:	e0e792e3          	bne	a5,a4,141bc <ediv+0x104>
   143bc:	fc1ff06f          	j	1437c <ediv+0x2c4>
   143c0:	00278793          	addi	a5,a5,2
   143c4:	e2e792e3          	bne	a5,a4,141e8 <ediv+0x130>
   143c8:	00015703          	lhu	a4,0(sp)
   143cc:	02015783          	lhu	a5,32(sp)
   143d0:	fcf718e3          	bne	a4,a5,143a0 <ediv+0x2e8>
   143d4:	00091923          	sh	zero,18(s2)
   143d8:	fd1ff06f          	j	143a8 <ediv+0x2f0>
   143dc:	ffe4041b          	addiw	s0,s0,-2
   143e0:	03041413          	slli	s0,s0,0x30
   143e4:	04010593          	addi	a1,sp,64
   143e8:	00010513          	mv	a0,sp
   143ec:	03045413          	srli	s0,s0,0x30
   143f0:	ebdfe0ef          	jal	ra,132ac <esubm>
   143f4:	ec1ff06f          	j	142b4 <ediv+0x1fc>
   143f8:	fff00793          	li	a5,-1
   143fc:	02f11023          	sh	a5,32(sp)
   14400:	f4dff06f          	j	1434c <ediv+0x294>

0000000000014404 <_ldtoa_r>:
   14404:	db010113          	addi	sp,sp,-592
   14408:	1f913c23          	sd	s9,504(sp)
   1440c:	00078c93          	mv	s9,a5
   14410:	09100793          	li	a5,145
   14414:	04b13023          	sd	a1,64(sp)
   14418:	02079793          	slli	a5,a5,0x20
   1441c:	06053583          	ld	a1,96(a0)
   14420:	fff78793          	addi	a5,a5,-1
   14424:	24813023          	sd	s0,576(sp)
   14428:	23413023          	sd	s4,544(sp)
   1442c:	21513c23          	sd	s5,536(sp)
   14430:	21713423          	sd	s7,520(sp)
   14434:	24113423          	sd	ra,584(sp)
   14438:	22913c23          	sd	s1,568(sp)
   1443c:	23213823          	sd	s2,560(sp)
   14440:	23313423          	sd	s3,552(sp)
   14444:	21613823          	sd	s6,528(sp)
   14448:	21813023          	sd	s8,512(sp)
   1444c:	1fa13823          	sd	s10,496(sp)
   14450:	1fb13423          	sd	s11,488(sp)
   14454:	01113c23          	sd	a7,24(sp)
   14458:	04c13423          	sd	a2,72(sp)
   1445c:	18f13823          	sd	a5,400(sp)
   14460:	00050a13          	mv	s4,a0
   14464:	00068b93          	mv	s7,a3
   14468:	00070a93          	mv	s5,a4
   1446c:	00080413          	mv	s0,a6
   14470:	02058063          	beqz	a1,14490 <_ldtoa_r+0x8c>
   14474:	06852703          	lw	a4,104(a0)
   14478:	00100793          	li	a5,1
   1447c:	00e797bb          	sllw	a5,a5,a4
   14480:	00e5a423          	sw	a4,8(a1)
   14484:	00f5a623          	sw	a5,12(a1)
   14488:	558010ef          	jal	ra,159e0 <_Bfree>
   1448c:	060a3023          	sd	zero,96(s4)
   14490:	04010513          	addi	a0,sp,64
   14494:	07010593          	addi	a1,sp,112
   14498:	c44ff0ef          	jal	ra,138dc <e113toe.isra.8>
   1449c:	07010513          	addi	a0,sp,112
   144a0:	f11fe0ef          	jal	ra,133b0 <eisneg>
   144a4:	0e050463          	beqz	a0,1458c <_ldtoa_r+0x188>
   144a8:	00100793          	li	a5,1
   144ac:	00f42023          	sw	a5,0(s0)
   144b0:	00300793          	li	a5,3
   144b4:	0efb8063          	beq	s7,a5,14594 <_ldtoa_r+0x190>
   144b8:	01400913          	li	s2,20
   144bc:	000b8c63          	beqz	s7,144d4 <_ldtoa_r+0xd0>
   144c0:	fffa879b          	addiw	a5,s5,-1
   144c4:	02a00713          	li	a4,42
   144c8:	0007891b          	sext.w	s2,a5
   144cc:	00f75463          	bge	a4,a5,144d4 <_ldtoa_r+0xd0>
   144d0:	02a00913          	li	s2,42
   144d4:	19412783          	lw	a5,404(sp)
   144d8:	07010513          	addi	a0,sp,112
   144dc:	02f13023          	sd	a5,32(sp)
   144e0:	e9dfe0ef          	jal	ra,1337c <eisnan>
   144e4:	00050413          	mv	s0,a0
   144e8:	0a050a63          	beqz	a0,1459c <_ldtoa_r+0x198>
   144ec:	0001e5b7          	lui	a1,0x1e
   144f0:	eb058593          	addi	a1,a1,-336 # 1deb0 <emtens+0x108>
   144f4:	15010513          	addi	a0,sp,336
   144f8:	00002437          	lui	s0,0x2
   144fc:	49c020ef          	jal	ra,16998 <sprintf>
   14500:	70f40413          	addi	s0,s0,1807 # 270f <_start-0xd9a1>
   14504:	02012783          	lw	a5,32(sp)
   14508:	07010513          	addi	a0,sp,112
   1450c:	1a812023          	sw	s0,416(sp)
   14510:	18f12a23          	sw	a5,404(sp)
   14514:	8a4ff0ef          	jal	ra,135b8 <eisinf>
   14518:	15010993          	addi	s3,sp,336
   1451c:	00051863          	bnez	a0,1452c <_ldtoa_r+0x128>
   14520:	07010513          	addi	a0,sp,112
   14524:	e59fe0ef          	jal	ra,1337c <eisnan>
   14528:	18050ae3          	beqz	a0,14ebc <_ldtoa_r+0xab8>
   1452c:	000027b7          	lui	a5,0x2
   14530:	70f7879b          	addiw	a5,a5,1807
   14534:	00fca023          	sw	a5,0(s9)
   14538:	00098793          	mv	a5,s3
   1453c:	02000613          	li	a2,32
   14540:	02d00693          	li	a3,45
   14544:	0007c703          	lbu	a4,0(a5) # 2000 <_start-0xe0b0>
   14548:	1cc708e3          	beq	a4,a2,14f18 <_ldtoa_r+0xb14>
   1454c:	1cd706e3          	beq	a4,a3,14f18 <_ldtoa_r+0xb14>
   14550:	00098413          	mv	s0,s3
   14554:	00178793          	addi	a5,a5,1
   14558:	fff7c703          	lbu	a4,-1(a5)
   1455c:	00140693          	addi	a3,s0,1
   14560:	fee68fa3          	sb	a4,-1(a3)
   14564:	1a071ee3          	bnez	a4,14f20 <_ldtoa_r+0xb1c>
   14568:	00200713          	li	a4,2
   1456c:	00100793          	li	a5,1
   14570:	00eb8a63          	beq	s7,a4,14584 <_ldtoa_r+0x180>
   14574:	1a012783          	lw	a5,416(sp)
   14578:	0127d463          	bge	a5,s2,14580 <_ldtoa_r+0x17c>
   1457c:	00090793          	mv	a5,s2
   14580:	0007879b          	sext.w	a5,a5
   14584:	03000693          	li	a3,48
   14588:	1a90006f          	j	14f30 <_ldtoa_r+0xb2c>
   1458c:	00042023          	sw	zero,0(s0)
   14590:	f21ff06f          	j	144b0 <_ldtoa_r+0xac>
   14594:	000a8793          	mv	a5,s5
   14598:	f2dff06f          	j	144c4 <_ldtoa_r+0xc0>
   1459c:	09000793          	li	a5,144
   145a0:	09010593          	addi	a1,sp,144
   145a4:	07010513          	addi	a0,sp,112
   145a8:	18f12a23          	sw	a5,404(sp)
   145ac:	af1fe0ef          	jal	ra,1309c <emov>
   145b0:	0a215783          	lhu	a5,162(sp)
   145b4:	00013423          	sd	zero,8(sp)
   145b8:	0107971b          	slliw	a4,a5,0x10
   145bc:	4107571b          	sraiw	a4,a4,0x10
   145c0:	02075063          	bgez	a4,145e0 <_ldtoa_r+0x1dc>
   145c4:	00008737          	lui	a4,0x8
   145c8:	fff70713          	addi	a4,a4,-1 # 7fff <_start-0x80b1>
   145cc:	00e7f7b3          	and	a5,a5,a4
   145d0:	0af11123          	sh	a5,162(sp)
   145d4:	000107b7          	lui	a5,0x10
   145d8:	fff78793          	addi	a5,a5,-1 # ffff <_start-0xb1>
   145dc:	00f13423          	sd	a5,8(sp)
   145e0:	0001eb37          	lui	s6,0x1e
   145e4:	c48b0513          	addi	a0,s6,-952 # 1dc48 <ezero>
   145e8:	0b010593          	addi	a1,sp,176
   145ec:	01850513          	addi	a0,a0,24
   145f0:	aadfe0ef          	jal	ra,1309c <emov>
   145f4:	0a215703          	lhu	a4,162(sp)
   145f8:	0001e4b7          	lui	s1,0x1e
   145fc:	c48b0993          	addi	s3,s6,-952
   14600:	c6048493          	addi	s1,s1,-928 # 1dc60 <eone>
   14604:	1e071ce3          	bnez	a4,14ffc <_ldtoa_r+0xbf8>
   14608:	09010793          	addi	a5,sp,144
   1460c:	0a210713          	addi	a4,sp,162
   14610:	0007d683          	lhu	a3,0(a5)
   14614:	0e069e63          	bnez	a3,14710 <_ldtoa_r+0x30c>
   14618:	00278793          	addi	a5,a5,2
   1461c:	fef71ae3          	bne	a4,a5,14610 <_ldtoa_r+0x20c>
   14620:	0f010593          	addi	a1,sp,240
   14624:	0b010513          	addi	a0,sp,176
   14628:	dc1fe0ef          	jal	ra,133e8 <emovi>
   1462c:	0b010593          	addi	a1,sp,176
   14630:	0f010513          	addi	a0,sp,240
   14634:	a99fe0ef          	jal	ra,130cc <emovz>
   14638:	0f010593          	addi	a1,sp,240
   1463c:	09010513          	addi	a0,sp,144
   14640:	da9fe0ef          	jal	ra,133e8 <emovi>
   14644:	09010593          	addi	a1,sp,144
   14648:	0f010513          	addi	a0,sp,240
   1464c:	a81fe0ef          	jal	ra,130cc <emovz>
   14650:	19010613          	addi	a2,sp,400
   14654:	09010593          	addi	a1,sp,144
   14658:	0b010513          	addi	a0,sp,176
   1465c:	ed0ff0ef          	jal	ra,13d2c <eiremain>
   14660:	1dc15483          	lhu	s1,476(sp)
   14664:	00049a63          	bnez	s1,14678 <_ldtoa_r+0x274>
   14668:	c48b0593          	addi	a1,s6,-952
   1466c:	09010513          	addi	a0,sp,144
   14670:	e49fe0ef          	jal	ra,134b8 <ecmp>
   14674:	6a051a63          	bnez	a0,14d28 <_ldtoa_r+0x924>
   14678:	00813783          	ld	a5,8(sp)
   1467c:	6e078c63          	beqz	a5,14d74 <_ldtoa_r+0x970>
   14680:	02d00793          	li	a5,45
   14684:	14f10823          	sb	a5,336(sp)
   14688:	00300793          	li	a5,3
   1468c:	00090993          	mv	s3,s2
   14690:	00fb9863          	bne	s7,a5,146a0 <_ldtoa_r+0x29c>
   14694:	008909bb          	addw	s3,s2,s0
   14698:	02a00793          	li	a5,42
   1469c:	1937c0e3          	blt	a5,s3,1501c <_ldtoa_r+0xc18>
   146a0:	00a00793          	li	a5,10
   146a4:	6cf49c63          	bne	s1,a5,14d7c <_ldtoa_r+0x978>
   146a8:	03100793          	li	a5,49
   146ac:	14f108a3          	sb	a5,337(sp)
   146b0:	02e00793          	li	a5,46
   146b4:	14f10923          	sb	a5,338(sp)
   146b8:	15310c13          	addi	s8,sp,339
   146bc:	01305a63          	blez	s3,146d0 <_ldtoa_r+0x2cc>
   146c0:	03000793          	li	a5,48
   146c4:	14f109a3          	sb	a5,339(sp)
   146c8:	fff9899b          	addiw	s3,s3,-1
   146cc:	15410c13          	addi	s8,sp,340
   146d0:	0014041b          	addiw	s0,s0,1
   146d4:	6a09de63          	bgez	s3,14d90 <_ldtoa_r+0x98c>
   146d8:	0001e5b7          	lui	a1,0x1e
   146dc:	00040613          	mv	a2,s0
   146e0:	ee058593          	addi	a1,a1,-288 # 1dee0 <emtens+0x138>
   146e4:	000c0513          	mv	a0,s8
   146e8:	2b0020ef          	jal	ra,16998 <sprintf>
   146ec:	e19ff06f          	j	14504 <_ldtoa_r+0x100>
   146f0:	0001e5b7          	lui	a1,0x1e
   146f4:	ec858593          	addi	a1,a1,-312 # 1dec8 <emtens+0x120>
   146f8:	dfdff06f          	j	144f4 <_ldtoa_r+0xf0>
   146fc:	0a011783          	lh	a5,160(sp)
   14700:	0007c863          	bltz	a5,14710 <_ldtoa_r+0x30c>
   14704:	0001e5b7          	lui	a1,0x1e
   14708:	ed858593          	addi	a1,a1,-296 # 1ded8 <emtens+0x130>
   1470c:	de9ff06f          	j	144f4 <_ldtoa_r+0xf0>
   14710:	09010593          	addi	a1,sp,144
   14714:	00048513          	mv	a0,s1
   14718:	da1fe0ef          	jal	ra,134b8 <ecmp>
   1471c:	f00502e3          	beqz	a0,14620 <_ldtoa_r+0x21c>
   14720:	46055c63          	bgez	a0,14b98 <_ldtoa_r+0x794>
   14724:	0d010593          	addi	a1,sp,208
   14728:	09010513          	addi	a0,sp,144
   1472c:	971fe0ef          	jal	ra,1309c <emov>
   14730:	000047b7          	lui	a5,0x4
   14734:	08e7879b          	addiw	a5,a5,142
   14738:	0ef11123          	sh	a5,226(sp)
   1473c:	01000793          	li	a5,16
   14740:	00f13823          	sd	a5,16(sp)
   14744:	000087b7          	lui	a5,0x8
   14748:	fff78793          	addi	a5,a5,-1 # 7fff <_start-0x80b1>
   1474c:	02f13423          	sd	a5,40(sp)
   14750:	ffffc7b7          	lui	a5,0xffffc
   14754:	0027879b          	addiw	a5,a5,2
   14758:	00000d13          	li	s10,0
   1475c:	02f12a23          	sw	a5,52(sp)
   14760:	0001e7b7          	lui	a5,0x1e
   14764:	d1878793          	addi	a5,a5,-744 # 1dd18 <etens+0xa0>
   14768:	01a78533          	add	a0,a5,s10
   1476c:	19010693          	addi	a3,sp,400
   14770:	0b010613          	addi	a2,sp,176
   14774:	0d010593          	addi	a1,sp,208
   14778:	941ff0ef          	jal	ra,140b8 <ediv>
   1477c:	05810593          	addi	a1,sp,88
   14780:	0b010513          	addi	a0,sp,176
   14784:	919fe0ef          	jal	ra,1309c <emov>
   14788:	02813783          	ld	a5,40(sp)
   1478c:	06a15c03          	lhu	s8,106(sp)
   14790:	00fc76b3          	and	a3,s8,a5
   14794:	03412783          	lw	a5,52(sp)
   14798:	00f686bb          	addw	a3,a3,a5
   1479c:	04d04a63          	bgtz	a3,147f0 <_ldtoa_r+0x3ec>
   147a0:	0f010513          	addi	a0,sp,240
   147a4:	8e5fe0ef          	jal	ra,13088 <eclear>
   147a8:	010c1c1b          	slliw	s8,s8,0x10
   147ac:	410c5c1b          	sraiw	s8,s8,0x10
   147b0:	100c5a63          	bgez	s8,148c4 <_ldtoa_r+0x4c0>
   147b4:	00000793          	li	a5,0
   147b8:	05810713          	addi	a4,sp,88
   147bc:	00f70733          	add	a4,a4,a5
   147c0:	00075683          	lhu	a3,0(a4)
   147c4:	0f010713          	addi	a4,sp,240
   147c8:	00f70733          	add	a4,a4,a5
   147cc:	00075703          	lhu	a4,0(a4)
   147d0:	3ae68c63          	beq	a3,a4,14b88 <_ldtoa_r+0x784>
   147d4:	00048513          	mv	a0,s1
   147d8:	ba5fe0ef          	jal	ra,1337c <eisnan>
   147dc:	08050863          	beqz	a0,1486c <_ldtoa_r+0x468>
   147e0:	0f010593          	addi	a1,sp,240
   147e4:	00048513          	mv	a0,s1
   147e8:	8b5fe0ef          	jal	ra,1309c <emov>
   147ec:	0d80006f          	j	148c4 <_ldtoa_r+0x4c0>
   147f0:	09000793          	li	a5,144
   147f4:	40d7873b          	subw	a4,a5,a3
   147f8:	0f010593          	addi	a1,sp,240
   147fc:	05810513          	addi	a0,sp,88
   14800:	00070d93          	mv	s11,a4
   14804:	02e13c23          	sd	a4,56(sp)
   14808:	895fe0ef          	jal	ra,1309c <emov>
   1480c:	03813703          	ld	a4,56(sp)
   14810:	0ae05a63          	blez	a4,148c4 <_ldtoa_r+0x4c0>
   14814:	0f010793          	addi	a5,sp,240
   14818:	00f00613          	li	a2,15
   1481c:	04e64063          	blt	a2,a4,1485c <_ldtoa_r+0x458>
   14820:	004dd61b          	srliw	a2,s11,0x4
   14824:	02061713          	slli	a4,a2,0x20
   14828:	0f010793          	addi	a5,sp,240
   1482c:	01f75713          	srli	a4,a4,0x1f
   14830:	00e78733          	add	a4,a5,a4
   14834:	ff000793          	li	a5,-16
   14838:	02c787bb          	mulw	a5,a5,a2
   1483c:	00075683          	lhu	a3,0(a4)
   14840:	01b787bb          	addw	a5,a5,s11
   14844:	00179793          	slli	a5,a5,0x1
   14848:	00f987b3          	add	a5,s3,a5
   1484c:	1387d783          	lhu	a5,312(a5)
   14850:	00d7f7b3          	and	a5,a5,a3
   14854:	00f71023          	sh	a5,0(a4)
   14858:	f51ff06f          	j	147a8 <_ldtoa_r+0x3a4>
   1485c:	00079023          	sh	zero,0(a5)
   14860:	ff07071b          	addiw	a4,a4,-16
   14864:	00278793          	addi	a5,a5,2
   14868:	fb5ff06f          	j	1481c <_ldtoa_r+0x418>
   1486c:	0f010513          	addi	a0,sp,240
   14870:	b0dfe0ef          	jal	ra,1337c <eisnan>
   14874:	00050863          	beqz	a0,14884 <_ldtoa_r+0x480>
   14878:	0f010593          	addi	a1,sp,240
   1487c:	00058513          	mv	a0,a1
   14880:	f69ff06f          	j	147e8 <_ldtoa_r+0x3e4>
   14884:	00048513          	mv	a0,s1
   14888:	d31fe0ef          	jal	ra,135b8 <eisinf>
   1488c:	00050d93          	mv	s11,a0
   14890:	0f010513          	addi	a0,sp,240
   14894:	d25fe0ef          	jal	ra,135b8 <eisinf>
   14898:	00050c13          	mv	s8,a0
   1489c:	140d8c63          	beqz	s11,149f4 <_ldtoa_r+0x5f0>
   148a0:	12050463          	beqz	a0,149c8 <_ldtoa_r+0x5c4>
   148a4:	00048513          	mv	a0,s1
   148a8:	b09fe0ef          	jal	ra,133b0 <eisneg>
   148ac:	00050c13          	mv	s8,a0
   148b0:	0f010513          	addi	a0,sp,240
   148b4:	afdfe0ef          	jal	ra,133b0 <eisneg>
   148b8:	10ac1863          	bne	s8,a0,149c8 <_ldtoa_r+0x5c4>
   148bc:	0f010513          	addi	a0,sp,240
   148c0:	f85fe0ef          	jal	ra,13844 <enan.constprop.12>
   148c4:	00000793          	li	a5,0
   148c8:	0b010713          	addi	a4,sp,176
   148cc:	00f70733          	add	a4,a4,a5
   148d0:	00075683          	lhu	a3,0(a4)
   148d4:	0f010713          	addi	a4,sp,240
   148d8:	00f70733          	add	a4,a4,a5
   148dc:	00075703          	lhu	a4,0(a4)
   148e0:	02e69263          	bne	a3,a4,14904 <_ldtoa_r+0x500>
   148e4:	00278793          	addi	a5,a5,2
   148e8:	01200713          	li	a4,18
   148ec:	fce79ee3          	bne	a5,a4,148c8 <_ldtoa_r+0x4c4>
   148f0:	0d010593          	addi	a1,sp,208
   148f4:	0b010513          	addi	a0,sp,176
   148f8:	fa4fe0ef          	jal	ra,1309c <emov>
   148fc:	01012783          	lw	a5,16(sp)
   14900:	0087843b          	addw	s0,a5,s0
   14904:	01013783          	ld	a5,16(sp)
   14908:	014d0d13          	addi	s10,s10,20
   1490c:	0017d793          	srli	a5,a5,0x1
   14910:	00f13823          	sd	a5,16(sp)
   14914:	06400793          	li	a5,100
   14918:	e4fd14e3          	bne	s10,a5,14760 <_ldtoa_r+0x35c>
   1491c:	0e215783          	lhu	a5,226(sp)
   14920:	0a215703          	lhu	a4,162(sp)
   14924:	09010593          	addi	a1,sp,144
   14928:	0d010513          	addi	a0,sp,208
   1492c:	00e787bb          	addw	a5,a5,a4
   14930:	ffffc737          	lui	a4,0xffffc
   14934:	f727071b          	addiw	a4,a4,-142
   14938:	00e787bb          	addw	a5,a5,a4
   1493c:	0ef11123          	sh	a5,226(sp)
   14940:	f5cfe0ef          	jal	ra,1309c <emov>
   14944:	00048513          	mv	a0,s1
   14948:	0b010593          	addi	a1,sp,176
   1494c:	f50fe0ef          	jal	ra,1309c <emov>
   14950:	00000493          	li	s1,0
   14954:	00001d37          	lui	s10,0x1
   14958:	12098993          	addi	s3,s3,288
   1495c:	10400d93          	li	s11,260
   14960:	0001e7b7          	lui	a5,0x1e
   14964:	c7878793          	addi	a5,a5,-904 # 1dc78 <etens>
   14968:	0d010593          	addi	a1,sp,208
   1496c:	00098513          	mv	a0,s3
   14970:	00f48c33          	add	s8,s1,a5
   14974:	b45fe0ef          	jal	ra,134b8 <ecmp>
   14978:	caa044e3          	bgtz	a0,14620 <_ldtoa_r+0x21c>
   1497c:	0d010593          	addi	a1,sp,208
   14980:	000c0513          	mv	a0,s8
   14984:	b35fe0ef          	jal	ra,134b8 <ecmp>
   14988:	02a04863          	bgtz	a0,149b8 <_ldtoa_r+0x5b4>
   1498c:	0d010613          	addi	a2,sp,208
   14990:	00060593          	mv	a1,a2
   14994:	19010693          	addi	a3,sp,400
   14998:	000c0513          	mv	a0,s8
   1499c:	f1cff0ef          	jal	ra,140b8 <ediv>
   149a0:	0b010613          	addi	a2,sp,176
   149a4:	19010693          	addi	a3,sp,400
   149a8:	00060593          	mv	a1,a2
   149ac:	000c0513          	mv	a0,s8
   149b0:	c60ff0ef          	jal	ra,13e10 <emul>
   149b4:	008d043b          	addw	s0,s10,s0
   149b8:	01448493          	addi	s1,s1,20
   149bc:	001d5d13          	srli	s10,s10,0x1
   149c0:	fbb490e3          	bne	s1,s11,14960 <_ldtoa_r+0x55c>
   149c4:	c5dff06f          	j	14620 <_ldtoa_r+0x21c>
   149c8:	00048513          	mv	a0,s1
   149cc:	0f010593          	addi	a1,sp,240
   149d0:	eccfe0ef          	jal	ra,1309c <emov>
   149d4:	0f010513          	addi	a0,sp,240
   149d8:	9a5fe0ef          	jal	ra,1337c <eisnan>
   149dc:	ee0514e3          	bnez	a0,148c4 <_ldtoa_r+0x4c0>
   149e0:	10215783          	lhu	a5,258(sp)
   149e4:	ffff8737          	lui	a4,0xffff8
   149e8:	00e7c7b3          	xor	a5,a5,a4
   149ec:	10f11123          	sh	a5,258(sp)
   149f0:	ed5ff06f          	j	148c4 <_ldtoa_r+0x4c0>
   149f4:	e80512e3          	bnez	a0,14878 <_ldtoa_r+0x474>
   149f8:	11010593          	addi	a1,sp,272
   149fc:	00048513          	mv	a0,s1
   14a00:	9e9fe0ef          	jal	ra,133e8 <emovi>
   14a04:	13010593          	addi	a1,sp,304
   14a08:	0f010513          	addi	a0,sp,240
   14a0c:	9ddfe0ef          	jal	ra,133e8 <emovi>
   14a10:	11015703          	lhu	a4,272(sp)
   14a14:	13215d83          	lhu	s11,306(sp)
   14a18:	11215783          	lhu	a5,274(sp)
   14a1c:	fff74713          	not	a4,a4
   14a20:	03071713          	slli	a4,a4,0x30
   14a24:	03075713          	srli	a4,a4,0x30
   14a28:	10e11823          	sh	a4,272(sp)
   14a2c:	41b787b3          	sub	a5,a5,s11
   14a30:	08f05863          	blez	a5,14ac0 <_ldtoa_r+0x6bc>
   14a34:	15010593          	addi	a1,sp,336
   14a38:	13010513          	addi	a0,sp,304
   14a3c:	02f13c23          	sd	a5,56(sp)
   14a40:	e8cfe0ef          	jal	ra,130cc <emovz>
   14a44:	13010593          	addi	a1,sp,304
   14a48:	11010513          	addi	a0,sp,272
   14a4c:	e80fe0ef          	jal	ra,130cc <emovz>
   14a50:	11010593          	addi	a1,sp,272
   14a54:	15010513          	addi	a0,sp,336
   14a58:	e74fe0ef          	jal	ra,130cc <emovz>
   14a5c:	03813783          	ld	a5,56(sp)
   14a60:	13215d83          	lhu	s11,306(sp)
   14a64:	40f007b3          	neg	a5,a5
   14a68:	f6f00713          	li	a4,-145
   14a6c:	08e7ce63          	blt	a5,a4,14b08 <_ldtoa_r+0x704>
   14a70:	00078593          	mv	a1,a5
   14a74:	11010513          	addi	a0,sp,272
   14a78:	b9dfe0ef          	jal	ra,13614 <eshift.part.3>
   14a7c:	00050813          	mv	a6,a0
   14a80:	11015703          	lhu	a4,272(sp)
   14a84:	13015783          	lhu	a5,304(sp)
   14a88:	03013c23          	sd	a6,56(sp)
   14a8c:	13010593          	addi	a1,sp,304
   14a90:	11010513          	addi	a0,sp,272
   14a94:	0ef71463          	bne	a4,a5,14b7c <_ldtoa_r+0x778>
   14a98:	fdcfe0ef          	jal	ra,13274 <eaddm>
   14a9c:	03813803          	ld	a6,56(sp)
   14aa0:	19010793          	addi	a5,sp,400
   14aa4:	04000713          	li	a4,64
   14aa8:	000d8693          	mv	a3,s11
   14aac:	000c0613          	mv	a2,s8
   14ab0:	00080593          	mv	a1,a6
   14ab4:	13010513          	addi	a0,sp,304
   14ab8:	f2dfe0ef          	jal	ra,139e4 <emdnorm>
   14abc:	04c0006f          	j	14b08 <_ldtoa_r+0x704>
   14ac0:	fa0794e3          	bnez	a5,14a68 <_ldtoa_r+0x664>
   14ac4:	13010593          	addi	a1,sp,304
   14ac8:	11010513          	addi	a0,sp,272
   14acc:	02e13c23          	sd	a4,56(sp)
   14ad0:	e20fe0ef          	jal	ra,130f0 <ecmpm>
   14ad4:	06051a63          	bnez	a0,14b48 <_ldtoa_r+0x744>
   14ad8:	13015783          	lhu	a5,304(sp)
   14adc:	03813703          	ld	a4,56(sp)
   14ae0:	00e78863          	beq	a5,a4,14af0 <_ldtoa_r+0x6ec>
   14ae4:	0f010513          	addi	a0,sp,240
   14ae8:	da0fe0ef          	jal	ra,13088 <eclear>
   14aec:	dd9ff06f          	j	148c4 <_ldtoa_r+0x4c0>
   14af0:	020d9463          	bnez	s11,14b18 <_ldtoa_r+0x714>
   14af4:	13611703          	lh	a4,310(sp)
   14af8:	00000793          	li	a5,0
   14afc:	02074063          	bltz	a4,14b1c <_ldtoa_r+0x718>
   14b00:	13010513          	addi	a0,sp,304
   14b04:	e78fe0ef          	jal	ra,1317c <eshup1>
   14b08:	0f010593          	addi	a1,sp,240
   14b0c:	13010513          	addi	a0,sp,304
   14b10:	d5dfe0ef          	jal	ra,1386c <emovo.isra.6>
   14b14:	db1ff06f          	j	148c4 <_ldtoa_r+0x4c0>
   14b18:	00000793          	li	a5,0
   14b1c:	01600713          	li	a4,22
   14b20:	13010693          	addi	a3,sp,304
   14b24:	00f68633          	add	a2,a3,a5
   14b28:	00265603          	lhu	a2,2(a2)
   14b2c:	00060863          	beqz	a2,14b3c <_ldtoa_r+0x738>
   14b30:	001d8d93          	addi	s11,s11,1
   14b34:	13b11923          	sh	s11,306(sp)
   14b38:	fd1ff06f          	j	14b08 <_ldtoa_r+0x704>
   14b3c:	00278793          	addi	a5,a5,2
   14b40:	fee790e3          	bne	a5,a4,14b20 <_ldtoa_r+0x71c>
   14b44:	ff1ff06f          	j	14b34 <_ldtoa_r+0x730>
   14b48:	00000813          	li	a6,0
   14b4c:	f2a05ae3          	blez	a0,14a80 <_ldtoa_r+0x67c>
   14b50:	15010593          	addi	a1,sp,336
   14b54:	13010513          	addi	a0,sp,304
   14b58:	d74fe0ef          	jal	ra,130cc <emovz>
   14b5c:	13010593          	addi	a1,sp,304
   14b60:	11010513          	addi	a0,sp,272
   14b64:	d68fe0ef          	jal	ra,130cc <emovz>
   14b68:	11010593          	addi	a1,sp,272
   14b6c:	15010513          	addi	a0,sp,336
   14b70:	d5cfe0ef          	jal	ra,130cc <emovz>
   14b74:	000c0813          	mv	a6,s8
   14b78:	f09ff06f          	j	14a80 <_ldtoa_r+0x67c>
   14b7c:	f30fe0ef          	jal	ra,132ac <esubm>
   14b80:	00100c13          	li	s8,1
   14b84:	f19ff06f          	j	14a9c <_ldtoa_r+0x698>
   14b88:	00278793          	addi	a5,a5,2
   14b8c:	01200713          	li	a4,18
   14b90:	c2e794e3          	bne	a5,a4,147b8 <_ldtoa_r+0x3b4>
   14b94:	d31ff06f          	j	148c4 <_ldtoa_r+0x4c0>
   14b98:	0a215783          	lhu	a5,162(sp)
   14b9c:	12098c13          	addi	s8,s3,288
   14ba0:	0a078863          	beqz	a5,14c50 <_ldtoa_r+0x84c>
   14ba4:	0f010593          	addi	a1,sp,240
   14ba8:	09010513          	addi	a0,sp,144
   14bac:	00004c37          	lui	s8,0x4
   14bb0:	839fe0ef          	jal	ra,133e8 <emovi>
   14bb4:	ffec0c13          	addi	s8,s8,-2 # 3ffe <_start-0xc0b2>
   14bb8:	fd500d13          	li	s10,-43
   14bbc:	10815783          	lhu	a5,264(sp)
   14bc0:	0077f793          	andi	a5,a5,7
   14bc4:	06079263          	bnez	a5,14c28 <_ldtoa_r+0x824>
   14bc8:	0d010593          	addi	a1,sp,208
   14bcc:	0f010513          	addi	a0,sp,240
   14bd0:	cfcfe0ef          	jal	ra,130cc <emovz>
   14bd4:	0d010513          	addi	a0,sp,208
   14bd8:	d54fe0ef          	jal	ra,1312c <eshdn1>
   14bdc:	0d010513          	addi	a0,sp,208
   14be0:	d4cfe0ef          	jal	ra,1312c <eshdn1>
   14be4:	0d010593          	addi	a1,sp,208
   14be8:	0f010513          	addi	a0,sp,240
   14bec:	e88fe0ef          	jal	ra,13274 <eaddm>
   14bf0:	0d215783          	lhu	a5,210(sp)
   14bf4:	0037879b          	addiw	a5,a5,3
   14bf8:	0cf11923          	sh	a5,210(sp)
   14bfc:	0d415783          	lhu	a5,212(sp)
   14c00:	10079a63          	bnez	a5,14d14 <_ldtoa_r+0x910>
   14c04:	0e815783          	lhu	a5,232(sp)
   14c08:	02079063          	bnez	a5,14c28 <_ldtoa_r+0x824>
   14c0c:	0d215783          	lhu	a5,210(sp)
   14c10:	00fc6c63          	bltu	s8,a5,14c28 <_ldtoa_r+0x824>
   14c14:	0f010593          	addi	a1,sp,240
   14c18:	0d010513          	addi	a0,sp,208
   14c1c:	fff4041b          	addiw	s0,s0,-1
   14c20:	cacfe0ef          	jal	ra,130cc <emovz>
   14c24:	f9a41ce3          	bne	s0,s10,14bbc <_ldtoa_r+0x7b8>
   14c28:	09010593          	addi	a1,sp,144
   14c2c:	0f010513          	addi	a0,sp,240
   14c30:	c3dfe0ef          	jal	ra,1386c <emovo.isra.6>
   14c34:	0240006f          	j	14c58 <_ldtoa_r+0x854>
   14c38:	09010613          	addi	a2,sp,144
   14c3c:	19010693          	addi	a3,sp,400
   14c40:	00060593          	mv	a1,a2
   14c44:	000c0513          	mv	a0,s8
   14c48:	9c8ff0ef          	jal	ra,13e10 <emul>
   14c4c:	fff4041b          	addiw	s0,s0,-1
   14c50:	0a011783          	lh	a5,160(sp)
   14c54:	fe07d2e3          	bgez	a5,14c38 <_ldtoa_r+0x834>
   14c58:	0f010593          	addi	a1,sp,240
   14c5c:	09010513          	addi	a0,sp,144
   14c60:	c3cfe0ef          	jal	ra,1309c <emov>
   14c64:	0b010593          	addi	a1,sp,176
   14c68:	00048513          	mv	a0,s1
   14c6c:	c30fe0ef          	jal	ra,1309c <emov>
   14c70:	16098793          	addi	a5,s3,352
   14c74:	00000d13          	li	s10,0
   14c78:	fffffc37          	lui	s8,0xfffff
   14c7c:	00f13823          	sd	a5,16(sp)
   14c80:	00200d93          	li	s11,2
   14c84:	0001e7b7          	lui	a5,0x1e
   14c88:	c7878793          	addi	a5,a5,-904 # 1dc78 <etens>
   14c8c:	01a789b3          	add	s3,a5,s10
   14c90:	01013783          	ld	a5,16(sp)
   14c94:	0f010593          	addi	a1,sp,240
   14c98:	00048513          	mv	a0,s1
   14c9c:	01a78733          	add	a4,a5,s10
   14ca0:	02e13423          	sd	a4,40(sp)
   14ca4:	815fe0ef          	jal	ra,134b8 <ecmp>
   14ca8:	02813703          	ld	a4,40(sp)
   14cac:	04a05863          	blez	a0,14cfc <_ldtoa_r+0x8f8>
   14cb0:	0f010593          	addi	a1,sp,240
   14cb4:	00070513          	mv	a0,a4
   14cb8:	801fe0ef          	jal	ra,134b8 <ecmp>
   14cbc:	02054863          	bltz	a0,14cec <_ldtoa_r+0x8e8>
   14cc0:	0f010613          	addi	a2,sp,240
   14cc4:	00060593          	mv	a1,a2
   14cc8:	19010693          	addi	a3,sp,400
   14ccc:	00098513          	mv	a0,s3
   14cd0:	940ff0ef          	jal	ra,13e10 <emul>
   14cd4:	0b010613          	addi	a2,sp,176
   14cd8:	19010693          	addi	a3,sp,400
   14cdc:	00060593          	mv	a1,a2
   14ce0:	00098513          	mv	a0,s3
   14ce4:	92cff0ef          	jal	ra,13e10 <emul>
   14ce8:	008c043b          	addw	s0,s8,s0
   14cec:	014d0d13          	addi	s10,s10,20 # 1014 <_start-0xf09c>
   14cf0:	10400793          	li	a5,260
   14cf4:	03bc4c3b          	divw	s8,s8,s11
   14cf8:	f8fd16e3          	bne	s10,a5,14c84 <_ldtoa_r+0x880>
   14cfc:	0b010613          	addi	a2,sp,176
   14d00:	19010693          	addi	a3,sp,400
   14d04:	00048593          	mv	a1,s1
   14d08:	00060513          	mv	a0,a2
   14d0c:	bacff0ef          	jal	ra,140b8 <ediv>
   14d10:	911ff06f          	j	14620 <_ldtoa_r+0x21c>
   14d14:	0d010513          	addi	a0,sp,208
   14d18:	c14fe0ef          	jal	ra,1312c <eshdn1>
   14d1c:	0d215783          	lhu	a5,210(sp)
   14d20:	0017879b          	addiw	a5,a5,1
   14d24:	ed5ff06f          	j	14bf8 <_ldtoa_r+0x7f4>
   14d28:	09010513          	addi	a0,sp,144
   14d2c:	c50fe0ef          	jal	ra,1317c <eshup1>
   14d30:	0d010593          	addi	a1,sp,208
   14d34:	09010513          	addi	a0,sp,144
   14d38:	b94fe0ef          	jal	ra,130cc <emovz>
   14d3c:	0d010513          	addi	a0,sp,208
   14d40:	c3cfe0ef          	jal	ra,1317c <eshup1>
   14d44:	0d010513          	addi	a0,sp,208
   14d48:	c34fe0ef          	jal	ra,1317c <eshup1>
   14d4c:	09010593          	addi	a1,sp,144
   14d50:	0d010513          	addi	a0,sp,208
   14d54:	d20fe0ef          	jal	ra,13274 <eaddm>
   14d58:	19010613          	addi	a2,sp,400
   14d5c:	09010593          	addi	a1,sp,144
   14d60:	0b010513          	addi	a0,sp,176
   14d64:	fc9fe0ef          	jal	ra,13d2c <eiremain>
   14d68:	fff4041b          	addiw	s0,s0,-1
   14d6c:	1dc15483          	lhu	s1,476(sp)
   14d70:	8f5ff06f          	j	14664 <_ldtoa_r+0x260>
   14d74:	02000793          	li	a5,32
   14d78:	90dff06f          	j	14684 <_ldtoa_r+0x280>
   14d7c:	0304849b          	addiw	s1,s1,48
   14d80:	02e00793          	li	a5,46
   14d84:	149108a3          	sb	s1,337(sp)
   14d88:	14f10923          	sb	a5,338(sp)
   14d8c:	15310c13          	addi	s8,sp,339
   14d90:	000c0493          	mv	s1,s8
   14d94:	418487bb          	subw	a5,s1,s8
   14d98:	04f9d663          	bge	s3,a5,14de4 <_ldtoa_r+0x9e0>
   14d9c:	1dc15783          	lhu	a5,476(sp)
   14da0:	00400713          	li	a4,4
   14da4:	fff48c13          	addi	s8,s1,-1
   14da8:	92f758e3          	bge	a4,a5,146d8 <_ldtoa_r+0x2d4>
   14dac:	00500713          	li	a4,5
   14db0:	08e78463          	beq	a5,a4,14e38 <_ldtoa_r+0xa34>
   14db4:	000c0793          	mv	a5,s8
   14db8:	02e00613          	li	a2,46
   14dbc:	03800593          	li	a1,56
   14dc0:	03000693          	li	a3,48
   14dc4:	fff78793          	addi	a5,a5,-1
   14dc8:	0007c703          	lbu	a4,0(a5)
   14dcc:	07f77713          	andi	a4,a4,127
   14dd0:	0a09d663          	bgez	s3,14e7c <_ldtoa_r+0xa78>
   14dd4:	03100713          	li	a4,49
   14dd8:	00e78023          	sb	a4,0(a5)
   14ddc:	0014041b          	addiw	s0,s0,1
   14de0:	8f9ff06f          	j	146d8 <_ldtoa_r+0x2d4>
   14de4:	09010513          	addi	a0,sp,144
   14de8:	b94fe0ef          	jal	ra,1317c <eshup1>
   14dec:	0d010593          	addi	a1,sp,208
   14df0:	09010513          	addi	a0,sp,144
   14df4:	ad8fe0ef          	jal	ra,130cc <emovz>
   14df8:	0d010513          	addi	a0,sp,208
   14dfc:	b80fe0ef          	jal	ra,1317c <eshup1>
   14e00:	0d010513          	addi	a0,sp,208
   14e04:	b78fe0ef          	jal	ra,1317c <eshup1>
   14e08:	09010593          	addi	a1,sp,144
   14e0c:	0d010513          	addi	a0,sp,208
   14e10:	c64fe0ef          	jal	ra,13274 <eaddm>
   14e14:	19010613          	addi	a2,sp,400
   14e18:	09010593          	addi	a1,sp,144
   14e1c:	0b010513          	addi	a0,sp,176
   14e20:	f0dfe0ef          	jal	ra,13d2c <eiremain>
   14e24:	1dc14783          	lbu	a5,476(sp)
   14e28:	00148493          	addi	s1,s1,1
   14e2c:	0307879b          	addiw	a5,a5,48
   14e30:	fef48fa3          	sb	a5,-1(s1)
   14e34:	f61ff06f          	j	14d94 <_ldtoa_r+0x990>
   14e38:	0b010593          	addi	a1,sp,176
   14e3c:	09010513          	addi	a0,sp,144
   14e40:	a2dfe0ef          	jal	ra,1386c <emovo.isra.6>
   14e44:	c48b0593          	addi	a1,s6,-952
   14e48:	0b010513          	addi	a0,sp,176
   14e4c:	e6cfe0ef          	jal	ra,134b8 <ecmp>
   14e50:	f60512e3          	bnez	a0,14db4 <_ldtoa_r+0x9b0>
   14e54:	8809c2e3          	bltz	s3,146d8 <_ldtoa_r+0x2d4>
   14e58:	ffe4c783          	lbu	a5,-2(s1)
   14e5c:	fd278793          	addi	a5,a5,-46
   14e60:	0017b793          	seqz	a5,a5
   14e64:	fff7c793          	not	a5,a5
   14e68:	00fc07b3          	add	a5,s8,a5
   14e6c:	0007c783          	lbu	a5,0(a5)
   14e70:	0017f793          	andi	a5,a5,1
   14e74:	860782e3          	beqz	a5,146d8 <_ldtoa_r+0x2d4>
   14e78:	f3dff06f          	j	14db4 <_ldtoa_r+0x9b0>
   14e7c:	02c71463          	bne	a4,a2,14ea4 <_ldtoa_r+0xaa0>
   14e80:	fff7c703          	lbu	a4,-1(a5)
   14e84:	03800693          	li	a3,56
   14e88:	00e6e863          	bltu	a3,a4,14e98 <_ldtoa_r+0xa94>
   14e8c:	0017071b          	addiw	a4,a4,1
   14e90:	fee78fa3          	sb	a4,-1(a5)
   14e94:	845ff06f          	j	146d8 <_ldtoa_r+0x2d4>
   14e98:	0014041b          	addiw	s0,s0,1
   14e9c:	03100713          	li	a4,49
   14ea0:	ff1ff06f          	j	14e90 <_ldtoa_r+0xa8c>
   14ea4:	00e5e863          	bltu	a1,a4,14eb4 <_ldtoa_r+0xab0>
   14ea8:	0017071b          	addiw	a4,a4,1
   14eac:	00e78023          	sb	a4,0(a5)
   14eb0:	829ff06f          	j	146d8 <_ldtoa_r+0x2d4>
   14eb4:	00d78023          	sb	a3,0(a5)
   14eb8:	f0dff06f          	j	14dc4 <_ldtoa_r+0x9c0>
   14ebc:	0014041b          	addiw	s0,s0,1
   14ec0:	008ca023          	sw	s0,0(s9)
   14ec4:	00098793          	mv	a5,s3
   14ec8:	02e00693          	li	a3,46
   14ecc:	0007c703          	lbu	a4,0(a5)
   14ed0:	00071663          	bnez	a4,14edc <_ldtoa_r+0xad8>
   14ed4:	04500713          	li	a4,69
   14ed8:	02c0006f          	j	14f04 <_ldtoa_r+0xb00>
   14edc:	00d70c63          	beq	a4,a3,14ef4 <_ldtoa_r+0xaf0>
   14ee0:	00178793          	addi	a5,a5,1
   14ee4:	fe9ff06f          	j	14ecc <_ldtoa_r+0xac8>
   14ee8:	0017c703          	lbu	a4,1(a5)
   14eec:	00178793          	addi	a5,a5,1
   14ef0:	fee78fa3          	sb	a4,-1(a5)
   14ef4:	0007c703          	lbu	a4,0(a5)
   14ef8:	fe0718e3          	bnez	a4,14ee8 <_ldtoa_r+0xae4>
   14efc:	fd9ff06f          	j	14ed4 <_ldtoa_r+0xad0>
   14f00:	fff78793          	addi	a5,a5,-1
   14f04:	0007c683          	lbu	a3,0(a5)
   14f08:	00e68463          	beq	a3,a4,14f10 <_ldtoa_r+0xb0c>
   14f0c:	fef9eae3          	bltu	s3,a5,14f00 <_ldtoa_r+0xafc>
   14f10:	00078023          	sb	zero,0(a5)
   14f14:	e24ff06f          	j	14538 <_ldtoa_r+0x134>
   14f18:	00178793          	addi	a5,a5,1
   14f1c:	e28ff06f          	j	14544 <_ldtoa_r+0x140>
   14f20:	00068413          	mv	s0,a3
   14f24:	e30ff06f          	j	14554 <_ldtoa_r+0x150>
   14f28:	fff40413          	addi	s0,s0,-1
   14f2c:	00040023          	sb	zero,0(s0)
   14f30:	fff44703          	lbu	a4,-1(s0)
   14f34:	00d71663          	bne	a4,a3,14f40 <_ldtoa_r+0xb3c>
   14f38:	41340733          	sub	a4,s0,s3
   14f3c:	fee7c6e3          	blt	a5,a4,14f28 <_ldtoa_r+0xb24>
   14f40:	00300793          	li	a5,3
   14f44:	0efb9e63          	bne	s7,a5,15040 <_ldtoa_r+0xc3c>
   14f48:	1a012783          	lw	a5,416(sp)
   14f4c:	0127893b          	addw	s2,a5,s2
   14f50:	00095863          	bgez	s2,14f60 <_ldtoa_r+0xb5c>
   14f54:	14010823          	sb	zero,336(sp)
   14f58:	000ca023          	sw	zero,0(s9)
   14f5c:	00098413          	mv	s0,s3
   14f60:	000ca783          	lw	a5,0(s9)
   14f64:	01578abb          	addw	s5,a5,s5
   14f68:	003a8a9b          	addiw	s5,s5,3
   14f6c:	060a2423          	sw	zero,104(s4)
   14f70:	00400793          	li	a5,4
   14f74:	01c78713          	addi	a4,a5,28
   14f78:	068a2583          	lw	a1,104(s4)
   14f7c:	06eaf863          	bgeu	s5,a4,14fec <_ldtoa_r+0xbe8>
   14f80:	000a0513          	mv	a0,s4
   14f84:	1b5000ef          	jal	ra,15938 <_Balloc>
   14f88:	06aa3023          	sd	a0,96(s4)
   14f8c:	00098593          	mv	a1,s3
   14f90:	00050493          	mv	s1,a0
   14f94:	3b1010ef          	jal	ra,16b44 <strcpy>
   14f98:	01813783          	ld	a5,24(sp)
   14f9c:	00078863          	beqz	a5,14fac <_ldtoa_r+0xba8>
   14fa0:	41340433          	sub	s0,s0,s3
   14fa4:	00848433          	add	s0,s1,s0
   14fa8:	0087b023          	sd	s0,0(a5)
   14fac:	24813083          	ld	ra,584(sp)
   14fb0:	24013403          	ld	s0,576(sp)
   14fb4:	00048513          	mv	a0,s1
   14fb8:	23013903          	ld	s2,560(sp)
   14fbc:	23813483          	ld	s1,568(sp)
   14fc0:	22813983          	ld	s3,552(sp)
   14fc4:	22013a03          	ld	s4,544(sp)
   14fc8:	21813a83          	ld	s5,536(sp)
   14fcc:	21013b03          	ld	s6,528(sp)
   14fd0:	20813b83          	ld	s7,520(sp)
   14fd4:	20013c03          	ld	s8,512(sp)
   14fd8:	1f813c83          	ld	s9,504(sp)
   14fdc:	1f013d03          	ld	s10,496(sp)
   14fe0:	1e813d83          	ld	s11,488(sp)
   14fe4:	25010113          	addi	sp,sp,592
   14fe8:	00008067          	ret
   14fec:	0015859b          	addiw	a1,a1,1
   14ff0:	06ba2423          	sw	a1,104(s4)
   14ff4:	0017979b          	slliw	a5,a5,0x1
   14ff8:	f7dff06f          	j	14f74 <_ldtoa_r+0xb70>
   14ffc:	000087b7          	lui	a5,0x8
   15000:	fff78793          	addi	a5,a5,-1 # 7fff <_start-0x80b1>
   15004:	eef71c63          	bne	a4,a5,146fc <_ldtoa_r+0x2f8>
   15008:	00813783          	ld	a5,8(sp)
   1500c:	ee078263          	beqz	a5,146f0 <_ldtoa_r+0x2ec>
   15010:	0001e5b7          	lui	a1,0x1e
   15014:	eb858593          	addi	a1,a1,-328 # 1deb8 <emtens+0x110>
   15018:	cdcff06f          	j	144f4 <_ldtoa_r+0xf0>
   1501c:	00a00793          	li	a5,10
   15020:	02a00993          	li	s3,42
   15024:	d4f49ce3          	bne	s1,a5,14d7c <_ldtoa_r+0x978>
   15028:	03100793          	li	a5,49
   1502c:	14f108a3          	sb	a5,337(sp)
   15030:	02e00793          	li	a5,46
   15034:	14f10923          	sb	a5,338(sp)
   15038:	02a00993          	li	s3,42
   1503c:	e84ff06f          	j	146c0 <_ldtoa_r+0x2bc>
   15040:	009a8a9b          	addiw	s5,s5,9
   15044:	f29ff06f          	j	14f6c <_ldtoa_r+0xb68>

0000000000015048 <_ldcheck>:
   15048:	00053783          	ld	a5,0(a0)
   1504c:	fc010113          	addi	sp,sp,-64
   15050:	01010593          	addi	a1,sp,16
   15054:	00f13023          	sd	a5,0(sp)
   15058:	00853783          	ld	a5,8(a0)
   1505c:	00010513          	mv	a0,sp
   15060:	02113c23          	sd	ra,56(sp)
   15064:	00f13423          	sd	a5,8(sp)
   15068:	875fe0ef          	jal	ra,138dc <e113toe.isra.8>
   1506c:	02215783          	lhu	a5,34(sp)
   15070:	00000513          	li	a0,0
   15074:	fff7c793          	not	a5,a5
   15078:	03179713          	slli	a4,a5,0x31
   1507c:	00071a63          	bnez	a4,15090 <_ldcheck+0x48>
   15080:	01010513          	addi	a0,sp,16
   15084:	af8fe0ef          	jal	ra,1337c <eisnan>
   15088:	00153513          	seqz	a0,a0
   1508c:	00150513          	addi	a0,a0,1
   15090:	03813083          	ld	ra,56(sp)
   15094:	04010113          	addi	sp,sp,64
   15098:	00008067          	ret

000000000001509c <__localeconv_l>:
   1509c:	10050513          	addi	a0,a0,256
   150a0:	00008067          	ret

00000000000150a4 <_localeconv_r>:
   150a4:	8301b783          	ld	a5,-2000(gp) # 20860 <_impure_ptr>
   150a8:	0487b503          	ld	a0,72(a5)
   150ac:	00051663          	bnez	a0,150b8 <_localeconv_r+0x14>
   150b0:	00020537          	lui	a0,0x20
   150b4:	68850513          	addi	a0,a0,1672 # 20688 <__global_locale>
   150b8:	10050513          	addi	a0,a0,256
   150bc:	00008067          	ret

00000000000150c0 <localeconv>:
   150c0:	8301b783          	ld	a5,-2000(gp) # 20860 <_impure_ptr>
   150c4:	0487b503          	ld	a0,72(a5)
   150c8:	00051663          	bnez	a0,150d4 <localeconv+0x14>
   150cc:	00020537          	lui	a0,0x20
   150d0:	68850513          	addi	a0,a0,1672 # 20688 <__global_locale>
   150d4:	10050513          	addi	a0,a0,256
   150d8:	00008067          	ret

00000000000150dc <__swhatbuf_r>:
   150dc:	f6010113          	addi	sp,sp,-160
   150e0:	08913423          	sd	s1,136(sp)
   150e4:	00058493          	mv	s1,a1
   150e8:	01259583          	lh	a1,18(a1)
   150ec:	08813823          	sd	s0,144(sp)
   150f0:	08113c23          	sd	ra,152(sp)
   150f4:	00060413          	mv	s0,a2
   150f8:	0005de63          	bgez	a1,15114 <__swhatbuf_r+0x38>
   150fc:	0104d783          	lhu	a5,16(s1)
   15100:	0006a023          	sw	zero,0(a3)
   15104:	0807f793          	andi	a5,a5,128
   15108:	04079863          	bnez	a5,15158 <__swhatbuf_r+0x7c>
   1510c:	40000793          	li	a5,1024
   15110:	04c0006f          	j	1515c <__swhatbuf_r+0x80>
   15114:	01810613          	addi	a2,sp,24
   15118:	00d13423          	sd	a3,8(sp)
   1511c:	18d040ef          	jal	ra,19aa8 <_fstat_r>
   15120:	00813683          	ld	a3,8(sp)
   15124:	fc054ce3          	bltz	a0,150fc <__swhatbuf_r+0x20>
   15128:	01c12783          	lw	a5,28(sp)
   1512c:	0000f737          	lui	a4,0xf
   15130:	00001537          	lui	a0,0x1
   15134:	00e7f7b3          	and	a5,a5,a4
   15138:	00002737          	lui	a4,0x2
   1513c:	40e787b3          	sub	a5,a5,a4
   15140:	0017b793          	seqz	a5,a5
   15144:	00f6a023          	sw	a5,0(a3)
   15148:	40000793          	li	a5,1024
   1514c:	00f43023          	sd	a5,0(s0)
   15150:	80050513          	addi	a0,a0,-2048 # 800 <_start-0xf8b0>
   15154:	0100006f          	j	15164 <__swhatbuf_r+0x88>
   15158:	04000793          	li	a5,64
   1515c:	00f43023          	sd	a5,0(s0)
   15160:	00000513          	li	a0,0
   15164:	09813083          	ld	ra,152(sp)
   15168:	09013403          	ld	s0,144(sp)
   1516c:	08813483          	ld	s1,136(sp)
   15170:	0a010113          	addi	sp,sp,160
   15174:	00008067          	ret

0000000000015178 <__smakebuf_r>:
   15178:	0105d783          	lhu	a5,16(a1)
   1517c:	fd010113          	addi	sp,sp,-48
   15180:	02813023          	sd	s0,32(sp)
   15184:	02113423          	sd	ra,40(sp)
   15188:	00913c23          	sd	s1,24(sp)
   1518c:	01213823          	sd	s2,16(sp)
   15190:	0027f793          	andi	a5,a5,2
   15194:	00058413          	mv	s0,a1
   15198:	02078863          	beqz	a5,151c8 <__smakebuf_r+0x50>
   1519c:	07740793          	addi	a5,s0,119
   151a0:	00f43023          	sd	a5,0(s0)
   151a4:	00f43c23          	sd	a5,24(s0)
   151a8:	00100793          	li	a5,1
   151ac:	02f42023          	sw	a5,32(s0)
   151b0:	02813083          	ld	ra,40(sp)
   151b4:	02013403          	ld	s0,32(sp)
   151b8:	01813483          	ld	s1,24(sp)
   151bc:	01013903          	ld	s2,16(sp)
   151c0:	03010113          	addi	sp,sp,48
   151c4:	00008067          	ret
   151c8:	00410693          	addi	a3,sp,4
   151cc:	00810613          	addi	a2,sp,8
   151d0:	00050493          	mv	s1,a0
   151d4:	f09ff0ef          	jal	ra,150dc <__swhatbuf_r>
   151d8:	00813583          	ld	a1,8(sp)
   151dc:	00050913          	mv	s2,a0
   151e0:	00048513          	mv	a0,s1
   151e4:	084000ef          	jal	ra,15268 <_malloc_r>
   151e8:	02051063          	bnez	a0,15208 <__smakebuf_r+0x90>
   151ec:	01041783          	lh	a5,16(s0)
   151f0:	2007f713          	andi	a4,a5,512
   151f4:	fa071ee3          	bnez	a4,151b0 <__smakebuf_r+0x38>
   151f8:	ffc7f793          	andi	a5,a5,-4
   151fc:	0027e793          	ori	a5,a5,2
   15200:	00f41823          	sh	a5,16(s0)
   15204:	f99ff06f          	j	1519c <__smakebuf_r+0x24>
   15208:	000137b7          	lui	a5,0x13
   1520c:	91078793          	addi	a5,a5,-1776 # 12910 <_cleanup_r>
   15210:	04f4bc23          	sd	a5,88(s1)
   15214:	01045783          	lhu	a5,16(s0)
   15218:	00a43023          	sd	a0,0(s0)
   1521c:	00a43c23          	sd	a0,24(s0)
   15220:	0807e793          	ori	a5,a5,128
   15224:	00f41823          	sh	a5,16(s0)
   15228:	00813783          	ld	a5,8(sp)
   1522c:	02f42023          	sw	a5,32(s0)
   15230:	00412783          	lw	a5,4(sp)
   15234:	02078263          	beqz	a5,15258 <__smakebuf_r+0xe0>
   15238:	01241583          	lh	a1,18(s0)
   1523c:	00048513          	mv	a0,s1
   15240:	521040ef          	jal	ra,19f60 <_isatty_r>
   15244:	00050a63          	beqz	a0,15258 <__smakebuf_r+0xe0>
   15248:	01045783          	lhu	a5,16(s0)
   1524c:	ffc7f793          	andi	a5,a5,-4
   15250:	0017e793          	ori	a5,a5,1
   15254:	00f41823          	sh	a5,16(s0)
   15258:	01045783          	lhu	a5,16(s0)
   1525c:	00f96933          	or	s2,s2,a5
   15260:	01241823          	sh	s2,16(s0)
   15264:	f4dff06f          	j	151b0 <__smakebuf_r+0x38>

0000000000015268 <_malloc_r>:
   15268:	fb010113          	addi	sp,sp,-80
   1526c:	02913c23          	sd	s1,56(sp)
   15270:	03213823          	sd	s2,48(sp)
   15274:	04113423          	sd	ra,72(sp)
   15278:	04813023          	sd	s0,64(sp)
   1527c:	03313423          	sd	s3,40(sp)
   15280:	03413023          	sd	s4,32(sp)
   15284:	01513c23          	sd	s5,24(sp)
   15288:	01613823          	sd	s6,16(sp)
   1528c:	01713423          	sd	s7,8(sp)
   15290:	01813023          	sd	s8,0(sp)
   15294:	01758493          	addi	s1,a1,23
   15298:	02e00793          	li	a5,46
   1529c:	00050913          	mv	s2,a0
   152a0:	6497fc63          	bgeu	a5,s1,158f8 <_malloc_r+0x690>
   152a4:	800007b7          	lui	a5,0x80000
   152a8:	ff04f493          	andi	s1,s1,-16
   152ac:	fff7c793          	not	a5,a5
   152b0:	0097e463          	bltu	a5,s1,152b8 <_malloc_r+0x50>
   152b4:	04b4f063          	bgeu	s1,a1,152f4 <_malloc_r+0x8c>
   152b8:	00c00793          	li	a5,12
   152bc:	00f92023          	sw	a5,0(s2)
   152c0:	00000513          	li	a0,0
   152c4:	04813083          	ld	ra,72(sp)
   152c8:	04013403          	ld	s0,64(sp)
   152cc:	03813483          	ld	s1,56(sp)
   152d0:	03013903          	ld	s2,48(sp)
   152d4:	02813983          	ld	s3,40(sp)
   152d8:	02013a03          	ld	s4,32(sp)
   152dc:	01813a83          	ld	s5,24(sp)
   152e0:	01013b03          	ld	s6,16(sp)
   152e4:	00813b83          	ld	s7,8(sp)
   152e8:	00013c03          	ld	s8,0(sp)
   152ec:	05010113          	addi	sp,sp,80
   152f0:	00008067          	ret
   152f4:	63c000ef          	jal	ra,15930 <__malloc_lock>
   152f8:	1f700793          	li	a5,503
   152fc:	0697ea63          	bltu	a5,s1,15370 <_malloc_r+0x108>
   15300:	0034d793          	srli	a5,s1,0x3
   15304:	0007879b          	sext.w	a5,a5
   15308:	0017871b          	addiw	a4,a5,1
   1530c:	0017171b          	slliw	a4,a4,0x1
   15310:	000206b7          	lui	a3,0x20
   15314:	e7868693          	addi	a3,a3,-392 # 1fe78 <__malloc_av_>
   15318:	00371713          	slli	a4,a4,0x3
   1531c:	00d70733          	add	a4,a4,a3
   15320:	00873403          	ld	s0,8(a4) # 2008 <_start-0xe0a8>
   15324:	ff070693          	addi	a3,a4,-16
   15328:	00d41863          	bne	s0,a3,15338 <_malloc_r+0xd0>
   1532c:	01873403          	ld	s0,24(a4)
   15330:	0027879b          	addiw	a5,a5,2
   15334:	08870c63          	beq	a4,s0,153cc <_malloc_r+0x164>
   15338:	00843783          	ld	a5,8(s0)
   1533c:	01843703          	ld	a4,24(s0)
   15340:	01043683          	ld	a3,16(s0)
   15344:	ffc7f793          	andi	a5,a5,-4
   15348:	00f407b3          	add	a5,s0,a5
   1534c:	00e6bc23          	sd	a4,24(a3)
   15350:	00d73823          	sd	a3,16(a4)
   15354:	0087b703          	ld	a4,8(a5) # ffffffff80000008 <__global_pointer$+0xffffffff7ffdefd8>
   15358:	00176713          	ori	a4,a4,1
   1535c:	00e7b423          	sd	a4,8(a5)
   15360:	00090513          	mv	a0,s2
   15364:	5d0000ef          	jal	ra,15934 <__malloc_unlock>
   15368:	01040513          	addi	a0,s0,16
   1536c:	f59ff06f          	j	152c4 <_malloc_r+0x5c>
   15370:	0094d713          	srli	a4,s1,0x9
   15374:	03f00793          	li	a5,63
   15378:	00070a63          	beqz	a4,1538c <_malloc_r+0x124>
   1537c:	00400793          	li	a5,4
   15380:	0ae7e863          	bltu	a5,a4,15430 <_malloc_r+0x1c8>
   15384:	0064d793          	srli	a5,s1,0x6
   15388:	0387879b          	addiw	a5,a5,56
   1538c:	0017871b          	addiw	a4,a5,1
   15390:	0017171b          	slliw	a4,a4,0x1
   15394:	000206b7          	lui	a3,0x20
   15398:	00371713          	slli	a4,a4,0x3
   1539c:	e7868693          	addi	a3,a3,-392 # 1fe78 <__malloc_av_>
   153a0:	00d70733          	add	a4,a4,a3
   153a4:	00873403          	ld	s0,8(a4)
   153a8:	ff070593          	addi	a1,a4,-16
   153ac:	01f00513          	li	a0,31
   153b0:	00b40c63          	beq	s0,a1,153c8 <_malloc_r+0x160>
   153b4:	00843703          	ld	a4,8(s0)
   153b8:	ffc77713          	andi	a4,a4,-4
   153bc:	40970633          	sub	a2,a4,s1
   153c0:	0cc55063          	bge	a0,a2,15480 <_malloc_r+0x218>
   153c4:	fff7879b          	addiw	a5,a5,-1
   153c8:	0017879b          	addiw	a5,a5,1
   153cc:	000209b7          	lui	s3,0x20
   153d0:	e7898693          	addi	a3,s3,-392 # 1fe78 <__malloc_av_>
   153d4:	0206b403          	ld	s0,32(a3)
   153d8:	000205b7          	lui	a1,0x20
   153dc:	e8858613          	addi	a2,a1,-376 # 1fe88 <__malloc_av_+0x10>
   153e0:	e7898993          	addi	s3,s3,-392
   153e4:	e8858593          	addi	a1,a1,-376
   153e8:	12c40663          	beq	s0,a2,15514 <_malloc_r+0x2ac>
   153ec:	00843703          	ld	a4,8(s0)
   153f0:	01f00813          	li	a6,31
   153f4:	ffc77713          	andi	a4,a4,-4
   153f8:	40970533          	sub	a0,a4,s1
   153fc:	0aa85463          	bge	a6,a0,154a4 <_malloc_r+0x23c>
   15400:	009407b3          	add	a5,s0,s1
   15404:	0014e493          	ori	s1,s1,1
   15408:	00943423          	sd	s1,8(s0)
   1540c:	02f6b423          	sd	a5,40(a3)
   15410:	02f6b023          	sd	a5,32(a3)
   15414:	00156693          	ori	a3,a0,1
   15418:	00c7bc23          	sd	a2,24(a5)
   1541c:	00c7b823          	sd	a2,16(a5)
   15420:	00d7b423          	sd	a3,8(a5)
   15424:	00e40733          	add	a4,s0,a4
   15428:	00a73023          	sd	a0,0(a4)
   1542c:	f35ff06f          	j	15360 <_malloc_r+0xf8>
   15430:	01400793          	li	a5,20
   15434:	00e7e663          	bltu	a5,a4,15440 <_malloc_r+0x1d8>
   15438:	05b7079b          	addiw	a5,a4,91
   1543c:	f51ff06f          	j	1538c <_malloc_r+0x124>
   15440:	05400793          	li	a5,84
   15444:	00e7e863          	bltu	a5,a4,15454 <_malloc_r+0x1ec>
   15448:	00c4d793          	srli	a5,s1,0xc
   1544c:	06e7879b          	addiw	a5,a5,110
   15450:	f3dff06f          	j	1538c <_malloc_r+0x124>
   15454:	15400793          	li	a5,340
   15458:	00e7e863          	bltu	a5,a4,15468 <_malloc_r+0x200>
   1545c:	00f4d793          	srli	a5,s1,0xf
   15460:	0777879b          	addiw	a5,a5,119
   15464:	f29ff06f          	j	1538c <_malloc_r+0x124>
   15468:	55400693          	li	a3,1364
   1546c:	07e00793          	li	a5,126
   15470:	f0e6eee3          	bltu	a3,a4,1538c <_malloc_r+0x124>
   15474:	0124d793          	srli	a5,s1,0x12
   15478:	07c7879b          	addiw	a5,a5,124
   1547c:	f11ff06f          	j	1538c <_malloc_r+0x124>
   15480:	01843683          	ld	a3,24(s0)
   15484:	00064c63          	bltz	a2,1549c <_malloc_r+0x234>
   15488:	01043783          	ld	a5,16(s0)
   1548c:	00d7bc23          	sd	a3,24(a5)
   15490:	00f6b823          	sd	a5,16(a3)
   15494:	00e407b3          	add	a5,s0,a4
   15498:	ebdff06f          	j	15354 <_malloc_r+0xec>
   1549c:	00068413          	mv	s0,a3
   154a0:	f11ff06f          	j	153b0 <_malloc_r+0x148>
   154a4:	02c6b423          	sd	a2,40(a3)
   154a8:	02c6b023          	sd	a2,32(a3)
   154ac:	00054c63          	bltz	a0,154c4 <_malloc_r+0x25c>
   154b0:	00e40733          	add	a4,s0,a4
   154b4:	00873783          	ld	a5,8(a4)
   154b8:	0017e793          	ori	a5,a5,1
   154bc:	00f73423          	sd	a5,8(a4)
   154c0:	ea1ff06f          	j	15360 <_malloc_r+0xf8>
