
supp/h264-dec.riscv:     file format elf64-littleriscv


Disassembly of section .text:

00000000000100b0 <_start>:
   100b0:	00006197          	auipc	gp,0x6
   100b4:	e5818193          	addi	gp,gp,-424 # 15f08 <__global_pointer$>
   100b8:	81818513          	addi	a0,gp,-2024 # 15720 <completed.5212>
   100bc:	0000a617          	auipc	a2,0xa
   100c0:	90c60613          	addi	a2,a2,-1780 # 199c8 <_end>
   100c4:	40a60633          	sub	a2,a2,a0
   100c8:	00000593          	li	a1,0
   100cc:	265020ef          	jal	ra,12b30 <memset>
   100d0:	00003517          	auipc	a0,0x3
   100d4:	94c50513          	addi	a0,a0,-1716 # 12a1c <__libc_fini_array>
   100d8:	0fd020ef          	jal	ra,129d4 <atexit>
   100dc:	1b5020ef          	jal	ra,12a90 <__libc_init_array>
   100e0:	00012503          	lw	a0,0(sp)
   100e4:	00810593          	addi	a1,sp,8
   100e8:	00000613          	li	a2,0
   100ec:	0b5020ef          	jal	ra,129a0 <main>
   100f0:	0f90206f          	j	129e8 <exit>

00000000000100f4 <_fini>:
   100f4:	00008067          	ret

00000000000100f8 <deregister_tm_clones>:
   100f8:	00015537          	lui	a0,0x15
   100fc:	000157b7          	lui	a5,0x15
   10100:	70850713          	addi	a4,a0,1800 # 15708 <__TMC_END__>
   10104:	70878793          	addi	a5,a5,1800 # 15708 <__TMC_END__>
   10108:	00e78c63          	beq	a5,a4,10120 <deregister_tm_clones+0x28>
   1010c:	00000337          	lui	t1,0x0
   10110:	00030313          	mv	t1,t1
   10114:	00030663          	beqz	t1,10120 <deregister_tm_clones+0x28>
   10118:	70850513          	addi	a0,a0,1800
   1011c:	00030067          	jr	t1 # 0 <_start-0x100b0>
   10120:	00008067          	ret

0000000000010124 <register_tm_clones>:
   10124:	000157b7          	lui	a5,0x15
   10128:	00015537          	lui	a0,0x15
   1012c:	70878593          	addi	a1,a5,1800 # 15708 <__TMC_END__>
   10130:	70850793          	addi	a5,a0,1800 # 15708 <__TMC_END__>
   10134:	40f585b3          	sub	a1,a1,a5
   10138:	4035d593          	srai	a1,a1,0x3
   1013c:	00200793          	li	a5,2
   10140:	02f5c5b3          	div	a1,a1,a5
   10144:	00058c63          	beqz	a1,1015c <register_tm_clones+0x38>
   10148:	00000337          	lui	t1,0x0
   1014c:	00030313          	mv	t1,t1
   10150:	00030663          	beqz	t1,1015c <register_tm_clones+0x38>
   10154:	70850513          	addi	a0,a0,1800
   10158:	00030067          	jr	t1 # 0 <_start-0x100b0>
   1015c:	00008067          	ret

0000000000010160 <__do_global_dtors_aux>:
   10160:	8181c703          	lbu	a4,-2024(gp) # 15720 <completed.5212>
   10164:	04071663          	bnez	a4,101b0 <__do_global_dtors_aux+0x50>
   10168:	ff010113          	addi	sp,sp,-16
   1016c:	00813023          	sd	s0,0(sp)
   10170:	00113423          	sd	ra,8(sp)
   10174:	00078413          	mv	s0,a5
   10178:	f81ff0ef          	jal	ra,100f8 <deregister_tm_clones>
   1017c:	000007b7          	lui	a5,0x0
   10180:	00078793          	mv	a5,a5
   10184:	00078a63          	beqz	a5,10198 <__do_global_dtors_aux+0x38>
   10188:	00013537          	lui	a0,0x13
   1018c:	00050513          	mv	a0,a0
   10190:	ffff0097          	auipc	ra,0xffff0
   10194:	e70080e7          	jalr	-400(ra) # 0 <_start-0x100b0>
   10198:	00100793          	li	a5,1
   1019c:	80f18c23          	sb	a5,-2024(gp) # 15720 <completed.5212>
   101a0:	00813083          	ld	ra,8(sp)
   101a4:	00013403          	ld	s0,0(sp)
   101a8:	01010113          	addi	sp,sp,16
   101ac:	00008067          	ret
   101b0:	00008067          	ret

00000000000101b4 <frame_dummy>:
   101b4:	000007b7          	lui	a5,0x0
   101b8:	00078793          	mv	a5,a5
   101bc:	02078663          	beqz	a5,101e8 <frame_dummy+0x34>
   101c0:	000155b7          	lui	a1,0x15
   101c4:	00013537          	lui	a0,0x13
   101c8:	ff010113          	addi	sp,sp,-16
   101cc:	72858593          	addi	a1,a1,1832 # 15728 <object.5217>
   101d0:	00050513          	mv	a0,a0
   101d4:	00113423          	sd	ra,8(sp)
   101d8:	ffff0097          	auipc	ra,0xffff0
   101dc:	e28080e7          	jalr	-472(ra) # 0 <_start-0x100b0>
   101e0:	00813083          	ld	ra,8(sp)
   101e4:	01010113          	addi	sp,sp,16
   101e8:	f3dff06f          	j	10124 <register_tm_clones>

00000000000101ec <h264_dec_return>:
   101ec:	ff010113          	addi	sp,sp,-16
   101f0:	00813423          	sd	s0,8(sp)
   101f4:	01010413          	addi	s0,sp,16
   101f8:	000197b7          	lui	a5,0x19
   101fc:	7607c783          	lbu	a5,1888(a5) # 19760 <h264_dec_img_mpr>
   10200:	0007871b          	sext.w	a4,a5
   10204:	000187b7          	lui	a5,0x18
   10208:	c607c783          	lbu	a5,-928(a5) # 17c60 <h264_dec_dec_picture_imgUV>
   1020c:	0007879b          	sext.w	a5,a5
   10210:	00f707bb          	addw	a5,a4,a5
   10214:	0007879b          	sext.w	a5,a5
   10218:	00078713          	mv	a4,a5
   1021c:	f8000793          	li	a5,-128
   10220:	40f707b3          	sub	a5,a4,a5
   10224:	00f037b3          	snez	a5,a5
   10228:	0ff7f793          	zext.b	a5,a5
   1022c:	0007879b          	sext.w	a5,a5
   10230:	00078513          	mv	a0,a5
   10234:	00813403          	ld	s0,8(sp)
   10238:	01010113          	addi	sp,sp,16
   1023c:	00008067          	ret

0000000000010240 <h264_dec_init>:
   10240:	fd010113          	addi	sp,sp,-48
   10244:	02813423          	sd	s0,40(sp)
   10248:	03010413          	addi	s0,sp,48
   1024c:	fc040fa3          	sb	zero,-33(s0)
   10250:	000157b7          	lui	a5,0x15
   10254:	75878793          	addi	a5,a5,1880 # 15758 <h264_dec_mv_array>
   10258:	fef43023          	sd	a5,-32(s0)
   1025c:	fe042623          	sw	zero,-20(s0)
   10260:	03c0006f          	j	1029c <h264_dec_init+0x5c>
   10264:	fdf44783          	lbu	a5,-33(s0)
   10268:	0ff7f713          	zext.b	a4,a5
   1026c:	fe043783          	ld	a5,-32(s0)
   10270:	0007c783          	lbu	a5,0(a5)
   10274:	00f747b3          	xor	a5,a4,a5
   10278:	0ff7f713          	zext.b	a4,a5
   1027c:	fe043783          	ld	a5,-32(s0)
   10280:	00e78023          	sb	a4,0(a5)
   10284:	fec42783          	lw	a5,-20(s0)
   10288:	0017879b          	addiw	a5,a5,1
   1028c:	fef42623          	sw	a5,-20(s0)
   10290:	fe043783          	ld	a5,-32(s0)
   10294:	00178793          	addi	a5,a5,1
   10298:	fef43023          	sd	a5,-32(s0)
   1029c:	fec42783          	lw	a5,-20(s0)
   102a0:	0007871b          	sext.w	a4,a5
   102a4:	000027b7          	lui	a5,0x2
   102a8:	10178793          	addi	a5,a5,257 # 2101 <_start-0xdfaf>
   102ac:	fae7fce3          	bgeu	a5,a4,10264 <h264_dec_init+0x24>
   102b0:	000137b7          	lui	a5,0x13
   102b4:	01878793          	addi	a5,a5,24 # 13018 <h264_dec_list_imgUV>
   102b8:	fef43023          	sd	a5,-32(s0)
   102bc:	fe042623          	sw	zero,-20(s0)
   102c0:	03c0006f          	j	102fc <h264_dec_init+0xbc>
   102c4:	fdf44783          	lbu	a5,-33(s0)
   102c8:	0ff7f713          	zext.b	a4,a5
   102cc:	fe043783          	ld	a5,-32(s0)
   102d0:	0007c783          	lbu	a5,0(a5)
   102d4:	00f747b3          	xor	a5,a4,a5
   102d8:	0ff7f713          	zext.b	a4,a5
   102dc:	fe043783          	ld	a5,-32(s0)
   102e0:	00e78023          	sb	a4,0(a5)
   102e4:	fec42783          	lw	a5,-20(s0)
   102e8:	0017879b          	addiw	a5,a5,1
   102ec:	fef42623          	sw	a5,-20(s0)
   102f0:	fe043783          	ld	a5,-32(s0)
   102f4:	00178793          	addi	a5,a5,1
   102f8:	fef43023          	sd	a5,-32(s0)
   102fc:	fec42783          	lw	a5,-20(s0)
   10300:	0007871b          	sext.w	a4,a5
   10304:	000027b7          	lui	a5,0x2
   10308:	fa378793          	addi	a5,a5,-93 # 1fa3 <_start-0xe10d>
   1030c:	fae7fce3          	bgeu	a5,a4,102c4 <h264_dec_init+0x84>
   10310:	000187b7          	lui	a5,0x18
   10314:	86078793          	addi	a5,a5,-1952 # 17860 <h264_dec_img_m7>
   10318:	fef43023          	sd	a5,-32(s0)
   1031c:	fe042623          	sw	zero,-20(s0)
   10320:	03c0006f          	j	1035c <h264_dec_init+0x11c>
   10324:	fdf44783          	lbu	a5,-33(s0)
   10328:	0ff7f713          	zext.b	a4,a5
   1032c:	fe043783          	ld	a5,-32(s0)
   10330:	0007c783          	lbu	a5,0(a5)
   10334:	00f747b3          	xor	a5,a4,a5
   10338:	0ff7f713          	zext.b	a4,a5
   1033c:	fe043783          	ld	a5,-32(s0)
   10340:	00e78023          	sb	a4,0(a5)
   10344:	fec42783          	lw	a5,-20(s0)
   10348:	0017879b          	addiw	a5,a5,1
   1034c:	fef42623          	sw	a5,-20(s0)
   10350:	fe043783          	ld	a5,-32(s0)
   10354:	00178793          	addi	a5,a5,1
   10358:	fef43023          	sd	a5,-32(s0)
   1035c:	fec42783          	lw	a5,-20(s0)
   10360:	0007871b          	sext.w	a4,a5
   10364:	3ff00793          	li	a5,1023
   10368:	fae7fee3          	bgeu	a5,a4,10324 <h264_dec_init+0xe4>
   1036c:	000197b7          	lui	a5,0x19
   10370:	79878793          	addi	a5,a5,1944 # 19798 <h264_dec_img>
   10374:	00800713          	li	a4,8
   10378:	22e7a223          	sw	a4,548(a5)
   1037c:	000197b7          	lui	a5,0x19
   10380:	79878793          	addi	a5,a5,1944 # 19798 <h264_dec_img>
   10384:	00800713          	li	a4,8
   10388:	22e7a423          	sw	a4,552(a5)
   1038c:	000197b7          	lui	a5,0x19
   10390:	79878793          	addi	a5,a5,1944 # 19798 <h264_dec_img>
   10394:	00200713          	li	a4,2
   10398:	22e7a023          	sw	a4,544(a5)
   1039c:	000197b7          	lui	a5,0x19
   103a0:	79878793          	addi	a5,a5,1944 # 19798 <h264_dec_img>
   103a4:	10000713          	li	a4,256
   103a8:	00e7a823          	sw	a4,16(a5)
   103ac:	000197b7          	lui	a5,0x19
   103b0:	79878793          	addi	a5,a5,1944 # 19798 <h264_dec_img>
   103b4:	10000713          	li	a4,256
   103b8:	00e7a623          	sw	a4,12(a5)
   103bc:	000197b7          	lui	a5,0x19
   103c0:	79878793          	addi	a5,a5,1944 # 19798 <h264_dec_img>
   103c4:	16000713          	li	a4,352
   103c8:	00e7a423          	sw	a4,8(a5)
   103cc:	000197b7          	lui	a5,0x19
   103d0:	79878793          	addi	a5,a5,1944 # 19798 <h264_dec_img>
   103d4:	2007ae23          	sw	zero,540(a5)
   103d8:	000197b7          	lui	a5,0x19
   103dc:	00100713          	li	a4,1
   103e0:	78e7ac23          	sw	a4,1944(a5) # 19798 <h264_dec_img>
   103e4:	000197b7          	lui	a5,0x19
   103e8:	79878793          	addi	a5,a5,1944 # 19798 <h264_dec_img>
   103ec:	00100713          	li	a4,1
   103f0:	00e7a223          	sw	a4,4(a5)
   103f4:	000197b7          	lui	a5,0x19
   103f8:	79878793          	addi	a5,a5,1944 # 19798 <h264_dec_img>
   103fc:	2007ac23          	sw	zero,536(a5)
   10400:	000197b7          	lui	a5,0x19
   10404:	79878793          	addi	a5,a5,1944 # 19798 <h264_dec_img>
   10408:	2007aa23          	sw	zero,532(a5)
   1040c:	00000013          	nop
   10410:	02813403          	ld	s0,40(sp)
   10414:	03010113          	addi	sp,sp,48
   10418:	00008067          	ret

000000000001041c <h264_dec_decode_one_macroblock>:
   1041c:	f2010113          	addi	sp,sp,-224
   10420:	0c813c23          	sd	s0,216(sp)
   10424:	0e010413          	addi	s0,sp,224
   10428:	f2a43423          	sd	a0,-216(s0)
   1042c:	fe042623          	sw	zero,-20(s0)
   10430:	fe042423          	sw	zero,-24(s0)
   10434:	fe042223          	sw	zero,-28(s0)
   10438:	fe042023          	sw	zero,-32(s0)
   1043c:	fa042c23          	sw	zero,-72(s0)
   10440:	fc042e23          	sw	zero,-36(s0)
   10444:	fa042a23          	sw	zero,-76(s0)
   10448:	fa042823          	sw	zero,-80(s0)
   1044c:	fc042a23          	sw	zero,-44(s0)
   10450:	fc042823          	sw	zero,-48(s0)
   10454:	fff00793          	li	a5,-1
   10458:	faf41723          	sh	a5,-82(s0)
   1045c:	fff00793          	li	a5,-1
   10460:	faf41623          	sh	a5,-84(s0)
   10464:	fff00793          	li	a5,-1
   10468:	fcf41723          	sh	a5,-50(s0)
   1046c:	fff00793          	li	a5,-1
   10470:	fcf41623          	sh	a5,-52(s0)
   10474:	fc042423          	sw	zero,-56(s0)
   10478:	fa041523          	sh	zero,-86(s0)
   1047c:	00100793          	li	a5,1
   10480:	faf41423          	sh	a5,-88(s0)
   10484:	fa041323          	sh	zero,-90(s0)
   10488:	fa041223          	sh	zero,-92(s0)
   1048c:	fa042023          	sw	zero,-96(s0)
   10490:	11f00793          	li	a5,287
   10494:	f8f42e23          	sw	a5,-100(s0)
   10498:	fff00793          	li	a5,-1
   1049c:	fcf42223          	sw	a5,-60(s0)
   104a0:	f8042c23          	sw	zero,-104(s0)
   104a4:	f8042a23          	sw	zero,-108(s0)
   104a8:	f2843783          	ld	a5,-216(s0)
   104ac:	2247a783          	lw	a5,548(a5)
   104b0:	04000713          	li	a4,64
   104b4:	02f747bb          	divw	a5,a4,a5
   104b8:	f8f42823          	sw	a5,-112(s0)
   104bc:	f9042783          	lw	a5,-112(s0)
   104c0:	fff7879b          	addiw	a5,a5,-1
   104c4:	f8f42623          	sw	a5,-116(s0)
   104c8:	f2843783          	ld	a5,-216(s0)
   104cc:	2287a783          	lw	a5,552(a5)
   104d0:	04000713          	li	a4,64
   104d4:	02f747bb          	divw	a5,a4,a5
   104d8:	f8f42423          	sw	a5,-120(s0)
   104dc:	f8842783          	lw	a5,-120(s0)
   104e0:	fff7879b          	addiw	a5,a5,-1
   104e4:	f8f42223          	sw	a5,-124(s0)
   104e8:	f9042703          	lw	a4,-112(s0)
   104ec:	f8842783          	lw	a5,-120(s0)
   104f0:	02f707bb          	mulw	a5,a4,a5
   104f4:	f8f42023          	sw	a5,-128(s0)
   104f8:	f8042783          	lw	a5,-128(s0)
   104fc:	4017d79b          	sraiw	a5,a5,0x1
   10500:	f6f42e23          	sw	a5,-132(s0)
   10504:	fc042c23          	sw	zero,-40(s0)
   10508:	4440206f          	j	1294c <h264_dec_decode_one_macroblock+0x2530>
   1050c:	f6042c23          	sw	zero,-136(s0)
   10510:	fc042023          	sw	zero,-64(s0)
   10514:	2780206f          	j	1278c <h264_dec_decode_one_macroblock+0x2370>
   10518:	fa042e23          	sw	zero,-68(s0)
   1051c:	2500206f          	j	1276c <h264_dec_decode_one_macroblock+0x2350>
   10520:	f6042a23          	sw	zero,-140(s0)
   10524:	f2843783          	ld	a5,-216(s0)
   10528:	00c7a783          	lw	a5,12(a5)
   1052c:	f7442703          	lw	a4,-140(s0)
   10530:	00f707bb          	addw	a5,a4,a5
   10534:	faf42a23          	sw	a5,-76(s0)
   10538:	f6042823          	sw	zero,-144(s0)
   1053c:	f2843783          	ld	a5,-216(s0)
   10540:	0107a783          	lw	a5,16(a5)
   10544:	f7042703          	lw	a4,-144(s0)
   10548:	00f707bb          	addw	a5,a4,a5
   1054c:	faf42823          	sw	a5,-80(s0)
   10550:	00100793          	li	a5,1
   10554:	f6f42623          	sw	a5,-148(s0)
   10558:	fff00793          	li	a5,-1
   1055c:	f6f42423          	sw	a5,-152(s0)
   10560:	f7842783          	lw	a5,-136(s0)
   10564:	0007879b          	sext.w	a5,a5
   10568:	00078463          	beqz	a5,10570 <h264_dec_decode_one_macroblock+0x154>
   1056c:	0f00206f          	j	1265c <h264_dec_decode_one_macroblock+0x2240>
   10570:	f6842783          	lw	a5,-152(s0)
   10574:	0007871b          	sext.w	a4,a5
   10578:	00200793          	li	a5,2
   1057c:	66f70c63          	beq	a4,a5,10bf4 <h264_dec_decode_one_macroblock+0x7d8>
   10580:	fe042023          	sw	zero,-32(s0)
   10584:	65c0006f          	j	10be0 <h264_dec_decode_one_macroblock+0x7c4>
   10588:	fb442703          	lw	a4,-76(s0)
   1058c:	fe042783          	lw	a5,-32(s0)
   10590:	00f707bb          	addw	a5,a4,a5
   10594:	0007871b          	sext.w	a4,a5
   10598:	f2843783          	ld	a5,-216(s0)
   1059c:	2287a783          	lw	a5,552(a5)
   105a0:	41f7d69b          	sraiw	a3,a5,0x1f
   105a4:	01e6d69b          	srliw	a3,a3,0x1e
   105a8:	00f687bb          	addw	a5,a3,a5
   105ac:	4027d79b          	sraiw	a5,a5,0x2
   105b0:	0007879b          	sext.w	a5,a5
   105b4:	02f747bb          	divw	a5,a4,a5
   105b8:	0007879b          	sext.w	a5,a5
   105bc:	00078713          	mv	a4,a5
   105c0:	41f7579b          	sraiw	a5,a4,0x1f
   105c4:	01a7d79b          	srliw	a5,a5,0x1a
   105c8:	00f7073b          	addw	a4,a4,a5
   105cc:	03f77713          	andi	a4,a4,63
   105d0:	40f707bb          	subw	a5,a4,a5
   105d4:	f6f42223          	sw	a5,-156(s0)
   105d8:	fe042223          	sw	zero,-28(s0)
   105dc:	5e80006f          	j	10bc4 <h264_dec_decode_one_macroblock+0x7a8>
   105e0:	fb042703          	lw	a4,-80(s0)
   105e4:	fe442783          	lw	a5,-28(s0)
   105e8:	00f707bb          	addw	a5,a4,a5
   105ec:	0007871b          	sext.w	a4,a5
   105f0:	f2843783          	ld	a5,-216(s0)
   105f4:	2247a783          	lw	a5,548(a5)
   105f8:	41f7d69b          	sraiw	a3,a5,0x1f
   105fc:	01e6d69b          	srliw	a3,a3,0x1e
   10600:	00f687bb          	addw	a5,a3,a5
   10604:	4027d79b          	sraiw	a5,a5,0x2
   10608:	0007879b          	sext.w	a5,a5
   1060c:	02f747bb          	divw	a5,a4,a5
   10610:	0007879b          	sext.w	a5,a5
   10614:	00078713          	mv	a4,a5
   10618:	41f7579b          	sraiw	a5,a4,0x1f
   1061c:	01a7d79b          	srliw	a5,a5,0x1a
   10620:	00f7073b          	addw	a4,a4,a5
   10624:	03f77713          	andi	a4,a4,63
   10628:	40f707bb          	subw	a5,a4,a5
   1062c:	f6f42023          	sw	a5,-160(s0)
   10630:	fb042703          	lw	a4,-80(s0)
   10634:	fe442783          	lw	a5,-28(s0)
   10638:	00f707bb          	addw	a5,a4,a5
   1063c:	0007879b          	sext.w	a5,a5
   10640:	f9042703          	lw	a4,-112(s0)
   10644:	02f707bb          	mulw	a5,a4,a5
   10648:	0007869b          	sext.w	a3,a5
   1064c:	00015637          	lui	a2,0x15
   10650:	f6042583          	lw	a1,-160(s0)
   10654:	f6442703          	lw	a4,-156(s0)
   10658:	00070793          	mv	a5,a4
   1065c:	00679793          	slli	a5,a5,0x6
   10660:	00e787b3          	add	a5,a5,a4
   10664:	00b787b3          	add	a5,a5,a1
   10668:	00179713          	slli	a4,a5,0x1
   1066c:	75860793          	addi	a5,a2,1880 # 15758 <h264_dec_mv_array>
   10670:	00f707b3          	add	a5,a4,a5
   10674:	00078783          	lb	a5,0(a5)
   10678:	0007879b          	sext.w	a5,a5
   1067c:	00f687bb          	addw	a5,a3,a5
   10680:	faf42c23          	sw	a5,-72(s0)
   10684:	f9842783          	lw	a5,-104(s0)
   10688:	0007879b          	sext.w	a5,a5
   1068c:	04079e63          	bnez	a5,106e8 <h264_dec_decode_one_macroblock+0x2cc>
   10690:	fb442703          	lw	a4,-76(s0)
   10694:	fe042783          	lw	a5,-32(s0)
   10698:	00f707bb          	addw	a5,a4,a5
   1069c:	0007879b          	sext.w	a5,a5
   106a0:	f8842703          	lw	a4,-120(s0)
   106a4:	02f707bb          	mulw	a5,a4,a5
   106a8:	0007869b          	sext.w	a3,a5
   106ac:	00015637          	lui	a2,0x15
   106b0:	f6042583          	lw	a1,-160(s0)
   106b4:	f6442703          	lw	a4,-156(s0)
   106b8:	00070793          	mv	a5,a4
   106bc:	00679793          	slli	a5,a5,0x6
   106c0:	00e787b3          	add	a5,a5,a4
   106c4:	00b787b3          	add	a5,a5,a1
   106c8:	00179713          	slli	a4,a5,0x1
   106cc:	75860793          	addi	a5,a2,1880 # 15758 <h264_dec_mv_array>
   106d0:	00f707b3          	add	a5,a4,a5
   106d4:	00178783          	lb	a5,1(a5)
   106d8:	0007879b          	sext.w	a5,a5
   106dc:	00f687bb          	addw	a5,a3,a5
   106e0:	fcf42e23          	sw	a5,-36(s0)
   106e4:	11c0006f          	j	10800 <h264_dec_decode_one_macroblock+0x3e4>
   106e8:	fc842783          	lw	a5,-56(s0)
   106ec:	0017f793          	andi	a5,a5,1
   106f0:	0007879b          	sext.w	a5,a5
   106f4:	06079e63          	bnez	a5,10770 <h264_dec_decode_one_macroblock+0x354>
   106f8:	f2843783          	ld	a5,-216(s0)
   106fc:	00c7a783          	lw	a5,12(a5)
   10700:	01f7d71b          	srliw	a4,a5,0x1f
   10704:	00f707bb          	addw	a5,a4,a5
   10708:	4017d79b          	sraiw	a5,a5,0x1
   1070c:	0007879b          	sext.w	a5,a5
   10710:	fe042703          	lw	a4,-32(s0)
   10714:	00f707bb          	addw	a5,a4,a5
   10718:	0007879b          	sext.w	a5,a5
   1071c:	f7442703          	lw	a4,-140(s0)
   10720:	00f707bb          	addw	a5,a4,a5
   10724:	0007879b          	sext.w	a5,a5
   10728:	f8842703          	lw	a4,-120(s0)
   1072c:	02f707bb          	mulw	a5,a4,a5
   10730:	0007869b          	sext.w	a3,a5
   10734:	00015637          	lui	a2,0x15
   10738:	f6042583          	lw	a1,-160(s0)
   1073c:	f6442703          	lw	a4,-156(s0)
   10740:	00070793          	mv	a5,a4
   10744:	00679793          	slli	a5,a5,0x6
   10748:	00e787b3          	add	a5,a5,a4
   1074c:	00b787b3          	add	a5,a5,a1
   10750:	00179713          	slli	a4,a5,0x1
   10754:	75860793          	addi	a5,a2,1880 # 15758 <h264_dec_mv_array>
   10758:	00f707b3          	add	a5,a4,a5
   1075c:	00178783          	lb	a5,1(a5)
   10760:	0007879b          	sext.w	a5,a5
   10764:	00f687bb          	addw	a5,a3,a5
   10768:	fcf42e23          	sw	a5,-36(s0)
   1076c:	0880006f          	j	107f4 <h264_dec_decode_one_macroblock+0x3d8>
   10770:	f2843783          	ld	a5,-216(s0)
   10774:	00c7a703          	lw	a4,12(a5)
   10778:	f2843783          	ld	a5,-216(s0)
   1077c:	2287a783          	lw	a5,552(a5)
   10780:	40f707bb          	subw	a5,a4,a5
   10784:	0007879b          	sext.w	a5,a5
   10788:	01f7d71b          	srliw	a4,a5,0x1f
   1078c:	00f707bb          	addw	a5,a4,a5
   10790:	4017d79b          	sraiw	a5,a5,0x1
   10794:	0007879b          	sext.w	a5,a5
   10798:	fe042703          	lw	a4,-32(s0)
   1079c:	00f707bb          	addw	a5,a4,a5
   107a0:	0007879b          	sext.w	a5,a5
   107a4:	f7442703          	lw	a4,-140(s0)
   107a8:	00f707bb          	addw	a5,a4,a5
   107ac:	0007879b          	sext.w	a5,a5
   107b0:	f8842703          	lw	a4,-120(s0)
   107b4:	02f707bb          	mulw	a5,a4,a5
   107b8:	0007869b          	sext.w	a3,a5
   107bc:	00015637          	lui	a2,0x15
   107c0:	f6042583          	lw	a1,-160(s0)
   107c4:	f6442703          	lw	a4,-156(s0)
   107c8:	00070793          	mv	a5,a4
   107cc:	00679793          	slli	a5,a5,0x6
   107d0:	00e787b3          	add	a5,a5,a4
   107d4:	00b787b3          	add	a5,a5,a1
   107d8:	00179713          	slli	a4,a5,0x1
   107dc:	75860793          	addi	a5,a2,1880 # 15758 <h264_dec_mv_array>
   107e0:	00f707b3          	add	a5,a4,a5
   107e4:	00178783          	lb	a5,1(a5)
   107e8:	0007879b          	sext.w	a5,a5
   107ec:	00f687bb          	addw	a5,a3,a5
   107f0:	fcf42e23          	sw	a5,-36(s0)
   107f4:	fc842783          	lw	a5,-56(s0)
   107f8:	0017879b          	addiw	a5,a5,1
   107fc:	fcf42423          	sw	a5,-56(s0)
   10800:	fb842703          	lw	a4,-72(s0)
   10804:	f9042783          	lw	a5,-112(s0)
   10808:	02f747bb          	divw	a5,a4,a5
   1080c:	0007871b          	sext.w	a4,a5
   10810:	f2843783          	ld	a5,-216(s0)
   10814:	0087a783          	lw	a5,8(a5)
   10818:	fff7879b          	addiw	a5,a5,-1
   1081c:	0007879b          	sext.w	a5,a5
   10820:	00078613          	mv	a2,a5
   10824:	00070693          	mv	a3,a4
   10828:	0006871b          	sext.w	a4,a3
   1082c:	0006079b          	sext.w	a5,a2
   10830:	00e7d463          	bge	a5,a4,10838 <h264_dec_decode_one_macroblock+0x41c>
   10834:	00060693          	mv	a3,a2
   10838:	0006879b          	sext.w	a5,a3
   1083c:	00078713          	mv	a4,a5
   10840:	0007079b          	sext.w	a5,a4
   10844:	0007d463          	bgez	a5,1084c <h264_dec_decode_one_macroblock+0x430>
   10848:	00000713          	li	a4,0
   1084c:	0007079b          	sext.w	a5,a4
   10850:	00078713          	mv	a4,a5
   10854:	02d00793          	li	a5,45
   10858:	02f767bb          	remw	a5,a4,a5
   1085c:	f4f42e23          	sw	a5,-164(s0)
   10860:	fdc42703          	lw	a4,-36(s0)
   10864:	f8842783          	lw	a5,-120(s0)
   10868:	02f747bb          	divw	a5,a4,a5
   1086c:	0007879b          	sext.w	a5,a5
   10870:	00078613          	mv	a2,a5
   10874:	f9c42783          	lw	a5,-100(s0)
   10878:	0007869b          	sext.w	a3,a5
   1087c:	0006071b          	sext.w	a4,a2
   10880:	00d75463          	bge	a4,a3,10888 <h264_dec_decode_one_macroblock+0x46c>
   10884:	00060793          	mv	a5,a2
   10888:	0007879b          	sext.w	a5,a5
   1088c:	00078713          	mv	a4,a5
   10890:	0007079b          	sext.w	a5,a4
   10894:	0007d463          	bgez	a5,1089c <h264_dec_decode_one_macroblock+0x480>
   10898:	00000713          	li	a4,0
   1089c:	0007079b          	sext.w	a5,a4
   108a0:	00078713          	mv	a4,a5
   108a4:	02d00793          	li	a5,45
   108a8:	02f767bb          	remw	a5,a4,a5
   108ac:	f4f42c23          	sw	a5,-168(s0)
   108b0:	fb842703          	lw	a4,-72(s0)
   108b4:	f8c42783          	lw	a5,-116(s0)
   108b8:	00f707bb          	addw	a5,a4,a5
   108bc:	0007871b          	sext.w	a4,a5
   108c0:	f9042783          	lw	a5,-112(s0)
   108c4:	02f747bb          	divw	a5,a4,a5
   108c8:	0007871b          	sext.w	a4,a5
   108cc:	f2843783          	ld	a5,-216(s0)
   108d0:	0087a783          	lw	a5,8(a5)
   108d4:	fff7879b          	addiw	a5,a5,-1
   108d8:	0007879b          	sext.w	a5,a5
   108dc:	00078613          	mv	a2,a5
   108e0:	00070693          	mv	a3,a4
   108e4:	0006871b          	sext.w	a4,a3
   108e8:	0006079b          	sext.w	a5,a2
   108ec:	00e7d463          	bge	a5,a4,108f4 <h264_dec_decode_one_macroblock+0x4d8>
   108f0:	00060693          	mv	a3,a2
   108f4:	0006879b          	sext.w	a5,a3
   108f8:	00078713          	mv	a4,a5
   108fc:	0007079b          	sext.w	a5,a4
   10900:	0007d463          	bgez	a5,10908 <h264_dec_decode_one_macroblock+0x4ec>
   10904:	00000713          	li	a4,0
   10908:	0007079b          	sext.w	a5,a4
   1090c:	00078713          	mv	a4,a5
   10910:	02d00793          	li	a5,45
   10914:	02f767bb          	remw	a5,a4,a5
   10918:	f4f42a23          	sw	a5,-172(s0)
   1091c:	fdc42703          	lw	a4,-36(s0)
   10920:	f8442783          	lw	a5,-124(s0)
   10924:	00f707bb          	addw	a5,a4,a5
   10928:	0007871b          	sext.w	a4,a5
   1092c:	f8842783          	lw	a5,-120(s0)
   10930:	02f747bb          	divw	a5,a4,a5
   10934:	0007879b          	sext.w	a5,a5
   10938:	00078613          	mv	a2,a5
   1093c:	f9c42783          	lw	a5,-100(s0)
   10940:	0007869b          	sext.w	a3,a5
   10944:	0006071b          	sext.w	a4,a2
   10948:	00d75463          	bge	a4,a3,10950 <h264_dec_decode_one_macroblock+0x534>
   1094c:	00060793          	mv	a5,a2
   10950:	0007879b          	sext.w	a5,a5
   10954:	00078713          	mv	a4,a5
   10958:	0007079b          	sext.w	a5,a4
   1095c:	0007d463          	bgez	a5,10964 <h264_dec_decode_one_macroblock+0x548>
   10960:	00000713          	li	a4,0
   10964:	0007079b          	sext.w	a5,a4
   10968:	00078713          	mv	a4,a5
   1096c:	02d00793          	li	a5,45
   10970:	02f767bb          	remw	a5,a4,a5
   10974:	f4f42823          	sw	a5,-176(s0)
   10978:	fb842703          	lw	a4,-72(s0)
   1097c:	f8c42783          	lw	a5,-116(s0)
   10980:	00f777b3          	and	a5,a4,a5
   10984:	f4f42623          	sw	a5,-180(s0)
   10988:	fdc42703          	lw	a4,-36(s0)
   1098c:	f8442783          	lw	a5,-124(s0)
   10990:	00f777b3          	and	a5,a4,a5
   10994:	f4f42423          	sw	a5,-184(s0)
   10998:	f9042703          	lw	a4,-112(s0)
   1099c:	f4c42783          	lw	a5,-180(s0)
   109a0:	40f707bb          	subw	a5,a4,a5
   109a4:	f4f42223          	sw	a5,-188(s0)
   109a8:	f8842703          	lw	a4,-120(s0)
   109ac:	f4842783          	lw	a5,-184(s0)
   109b0:	40f707bb          	subw	a5,a4,a5
   109b4:	f4f42023          	sw	a5,-192(s0)
   109b8:	f2843783          	ld	a5,-216(s0)
   109bc:	21c7a783          	lw	a5,540(a5)
   109c0:	1e079c63          	bnez	a5,10bb8 <h264_dec_decode_one_macroblock+0x79c>
   109c4:	f4442703          	lw	a4,-188(s0)
   109c8:	f4042783          	lw	a5,-192(s0)
   109cc:	02f707bb          	mulw	a5,a4,a5
   109d0:	0007869b          	sext.w	a3,a5
   109d4:	00013637          	lui	a2,0x13
   109d8:	f5c42583          	lw	a1,-164(s0)
   109dc:	fd842503          	lw	a0,-40(s0)
   109e0:	f5842703          	lw	a4,-168(s0)
   109e4:	7e900793          	li	a5,2025
   109e8:	02f50533          	mul	a0,a0,a5
   109ec:	00070793          	mv	a5,a4
   109f0:	00179793          	slli	a5,a5,0x1
   109f4:	00e787b3          	add	a5,a5,a4
   109f8:	00479713          	slli	a4,a5,0x4
   109fc:	40f70733          	sub	a4,a4,a5
   10a00:	00e507b3          	add	a5,a0,a4
   10a04:	00b787b3          	add	a5,a5,a1
   10a08:	00179713          	slli	a4,a5,0x1
   10a0c:	01860793          	addi	a5,a2,24 # 13018 <h264_dec_list_imgUV>
   10a10:	00f707b3          	add	a5,a4,a5
   10a14:	00079783          	lh	a5,0(a5)
   10a18:	0007879b          	sext.w	a5,a5
   10a1c:	02f687bb          	mulw	a5,a3,a5
   10a20:	0007869b          	sext.w	a3,a5
   10a24:	f4c42703          	lw	a4,-180(s0)
   10a28:	f4042783          	lw	a5,-192(s0)
   10a2c:	02f707bb          	mulw	a5,a4,a5
   10a30:	0007861b          	sext.w	a2,a5
   10a34:	000135b7          	lui	a1,0x13
   10a38:	f5442503          	lw	a0,-172(s0)
   10a3c:	fd842803          	lw	a6,-40(s0)
   10a40:	f5842703          	lw	a4,-168(s0)
   10a44:	7e900793          	li	a5,2025
   10a48:	02f80833          	mul	a6,a6,a5
   10a4c:	00070793          	mv	a5,a4
   10a50:	00179793          	slli	a5,a5,0x1
   10a54:	00e787b3          	add	a5,a5,a4
   10a58:	00479713          	slli	a4,a5,0x4
   10a5c:	40f70733          	sub	a4,a4,a5
   10a60:	00e807b3          	add	a5,a6,a4
   10a64:	00a787b3          	add	a5,a5,a0
   10a68:	00179713          	slli	a4,a5,0x1
   10a6c:	01858793          	addi	a5,a1,24 # 13018 <h264_dec_list_imgUV>
   10a70:	00f707b3          	add	a5,a4,a5
   10a74:	00079783          	lh	a5,0(a5)
   10a78:	0007879b          	sext.w	a5,a5
   10a7c:	02f607bb          	mulw	a5,a2,a5
   10a80:	0007879b          	sext.w	a5,a5
   10a84:	00f687bb          	addw	a5,a3,a5
   10a88:	0007869b          	sext.w	a3,a5
   10a8c:	f4442703          	lw	a4,-188(s0)
   10a90:	f4842783          	lw	a5,-184(s0)
   10a94:	02f707bb          	mulw	a5,a4,a5
   10a98:	0007861b          	sext.w	a2,a5
   10a9c:	000135b7          	lui	a1,0x13
   10aa0:	f5c42503          	lw	a0,-164(s0)
   10aa4:	fd842803          	lw	a6,-40(s0)
   10aa8:	f5042703          	lw	a4,-176(s0)
   10aac:	7e900793          	li	a5,2025
   10ab0:	02f80833          	mul	a6,a6,a5
   10ab4:	00070793          	mv	a5,a4
   10ab8:	00179793          	slli	a5,a5,0x1
   10abc:	00e787b3          	add	a5,a5,a4
   10ac0:	00479713          	slli	a4,a5,0x4
   10ac4:	40f70733          	sub	a4,a4,a5
   10ac8:	00e807b3          	add	a5,a6,a4
   10acc:	00a787b3          	add	a5,a5,a0
   10ad0:	00179713          	slli	a4,a5,0x1
   10ad4:	01858793          	addi	a5,a1,24 # 13018 <h264_dec_list_imgUV>
   10ad8:	00f707b3          	add	a5,a4,a5
   10adc:	00079783          	lh	a5,0(a5)
   10ae0:	0007879b          	sext.w	a5,a5
   10ae4:	02f607bb          	mulw	a5,a2,a5
   10ae8:	0007879b          	sext.w	a5,a5
   10aec:	00f687bb          	addw	a5,a3,a5
   10af0:	0007869b          	sext.w	a3,a5
   10af4:	f4c42703          	lw	a4,-180(s0)
   10af8:	f4842783          	lw	a5,-184(s0)
   10afc:	02f707bb          	mulw	a5,a4,a5
   10b00:	0007861b          	sext.w	a2,a5
   10b04:	000135b7          	lui	a1,0x13
   10b08:	f5442503          	lw	a0,-172(s0)
   10b0c:	fd842803          	lw	a6,-40(s0)
   10b10:	f5042703          	lw	a4,-176(s0)
   10b14:	7e900793          	li	a5,2025
   10b18:	02f80833          	mul	a6,a6,a5
   10b1c:	00070793          	mv	a5,a4
   10b20:	00179793          	slli	a5,a5,0x1
   10b24:	00e787b3          	add	a5,a5,a4
   10b28:	00479713          	slli	a4,a5,0x4
   10b2c:	40f70733          	sub	a4,a4,a5
   10b30:	00e807b3          	add	a5,a6,a4
   10b34:	00a787b3          	add	a5,a5,a0
   10b38:	00179713          	slli	a4,a5,0x1
   10b3c:	01858793          	addi	a5,a1,24 # 13018 <h264_dec_list_imgUV>
   10b40:	00f707b3          	add	a5,a4,a5
   10b44:	00079783          	lh	a5,0(a5)
   10b48:	0007879b          	sext.w	a5,a5
   10b4c:	02f607bb          	mulw	a5,a2,a5
   10b50:	0007879b          	sext.w	a5,a5
   10b54:	00f687bb          	addw	a5,a3,a5
   10b58:	0007879b          	sext.w	a5,a5
   10b5c:	f7c42703          	lw	a4,-132(s0)
   10b60:	00f707bb          	addw	a5,a4,a5
   10b64:	0007871b          	sext.w	a4,a5
   10b68:	f8042783          	lw	a5,-128(s0)
   10b6c:	02f747bb          	divw	a5,a4,a5
   10b70:	0007859b          	sext.w	a1,a5
   10b74:	fe442703          	lw	a4,-28(s0)
   10b78:	f7042783          	lw	a5,-144(s0)
   10b7c:	00f707bb          	addw	a5,a4,a5
   10b80:	0007871b          	sext.w	a4,a5
   10b84:	fe042683          	lw	a3,-32(s0)
   10b88:	f7442783          	lw	a5,-140(s0)
   10b8c:	00f687bb          	addw	a5,a3,a5
   10b90:	0007861b          	sext.w	a2,a5
   10b94:	0ff5f693          	zext.b	a3,a1
   10b98:	000195b7          	lui	a1,0x19
   10b9c:	00070793          	mv	a5,a4
   10ba0:	00379793          	slli	a5,a5,0x3
   10ba4:	40e787b3          	sub	a5,a5,a4
   10ba8:	76058713          	addi	a4,a1,1888 # 19760 <h264_dec_img_mpr>
   10bac:	00e787b3          	add	a5,a5,a4
   10bb0:	00c787b3          	add	a5,a5,a2
   10bb4:	00d78023          	sb	a3,0(a5)
   10bb8:	fe442783          	lw	a5,-28(s0)
   10bbc:	0017879b          	addiw	a5,a5,1
   10bc0:	fef42223          	sw	a5,-28(s0)
   10bc4:	fe442783          	lw	a5,-28(s0)
   10bc8:	0007871b          	sext.w	a4,a5
   10bcc:	00300793          	li	a5,3
   10bd0:	a0e7d8e3          	bge	a5,a4,105e0 <h264_dec_decode_one_macroblock+0x1c4>
   10bd4:	fe042783          	lw	a5,-32(s0)
   10bd8:	0017879b          	addiw	a5,a5,1
   10bdc:	fef42023          	sw	a5,-32(s0)
   10be0:	fe042783          	lw	a5,-32(s0)
   10be4:	0007871b          	sext.w	a4,a5
   10be8:	00300793          	li	a5,3
   10bec:	98e7dee3          	bge	a5,a4,10588 <h264_dec_decode_one_macroblock+0x16c>
   10bf0:	26d0106f          	j	1265c <h264_dec_decode_one_macroblock+0x2240>
   10bf4:	fe042023          	sw	zero,-32(s0)
   10bf8:	2510106f          	j	12648 <h264_dec_decode_one_macroblock+0x222c>
   10bfc:	fb442703          	lw	a4,-76(s0)
   10c00:	fe042783          	lw	a5,-32(s0)
   10c04:	00f707bb          	addw	a5,a4,a5
   10c08:	0007871b          	sext.w	a4,a5
   10c0c:	f2843783          	ld	a5,-216(s0)
   10c10:	2287a783          	lw	a5,552(a5)
   10c14:	41f7d69b          	sraiw	a3,a5,0x1f
   10c18:	01e6d69b          	srliw	a3,a3,0x1e
   10c1c:	00f687bb          	addw	a5,a3,a5
   10c20:	4027d79b          	sraiw	a5,a5,0x2
   10c24:	0007879b          	sext.w	a5,a5
   10c28:	02f747bb          	divw	a5,a4,a5
   10c2c:	f6f42223          	sw	a5,-156(s0)
   10c30:	fe042223          	sw	zero,-28(s0)
   10c34:	1f50106f          	j	12628 <h264_dec_decode_one_macroblock+0x220c>
   10c38:	fb042703          	lw	a4,-80(s0)
   10c3c:	fe442783          	lw	a5,-28(s0)
   10c40:	00f707bb          	addw	a5,a4,a5
   10c44:	0007871b          	sext.w	a4,a5
   10c48:	f2843783          	ld	a5,-216(s0)
   10c4c:	2247a783          	lw	a5,548(a5)
   10c50:	41f7d69b          	sraiw	a3,a5,0x1f
   10c54:	01e6d69b          	srliw	a3,a3,0x1e
   10c58:	00f687bb          	addw	a5,a3,a5
   10c5c:	4027d79b          	sraiw	a5,a5,0x2
   10c60:	0007879b          	sext.w	a5,a5
   10c64:	02f747bb          	divw	a5,a4,a5
   10c68:	f6f42023          	sw	a5,-160(s0)
   10c6c:	00200793          	li	a5,2
   10c70:	fcf42223          	sw	a5,-60(s0)
   10c74:	f6c42783          	lw	a5,-148(s0)
   10c78:	0007879b          	sext.w	a5,a5
   10c7c:	34079ae3          	bnez	a5,117d0 <h264_dec_decode_one_macroblock+0x13b4>
   10c80:	f2843783          	ld	a5,-216(s0)
   10c84:	0007a783          	lw	a5,0(a5)
   10c88:	340784e3          	beqz	a5,117d0 <h264_dec_decode_one_macroblock+0x13b4>
   10c8c:	faa41783          	lh	a5,-86(s0)
   10c90:	0007871b          	sext.w	a4,a5
   10c94:	fff00793          	li	a5,-1
   10c98:	00f70863          	beq	a4,a5,10ca8 <h264_dec_decode_one_macroblock+0x88c>
   10c9c:	fa041723          	sh	zero,-82(s0)
   10ca0:	fae45783          	lhu	a5,-82(s0)
   10ca4:	fcf41723          	sh	a5,-50(s0)
   10ca8:	faa41783          	lh	a5,-86(s0)
   10cac:	0007871b          	sext.w	a4,a5
   10cb0:	fff00793          	li	a5,-1
   10cb4:	00f70863          	beq	a4,a5,10cc4 <h264_dec_decode_one_macroblock+0x8a8>
   10cb8:	fa041623          	sh	zero,-84(s0)
   10cbc:	fac45783          	lhu	a5,-84(s0)
   10cc0:	fcf41623          	sh	a5,-52(s0)
   10cc4:	faa41783          	lh	a5,-86(s0)
   10cc8:	0007871b          	sext.w	a4,a5
   10ccc:	fff00793          	li	a5,-1
   10cd0:	00f71663          	bne	a4,a5,10cdc <h264_dec_decode_one_macroblock+0x8c0>
   10cd4:	fc042223          	sw	zero,-60(s0)
   10cd8:	01c0006f          	j	10cf4 <h264_dec_decode_one_macroblock+0x8d8>
   10cdc:	faa41783          	lh	a5,-86(s0)
   10ce0:	0007871b          	sext.w	a4,a5
   10ce4:	fff00793          	li	a5,-1
   10ce8:	00f71663          	bne	a4,a5,10cf4 <h264_dec_decode_one_macroblock+0x8d8>
   10cec:	00100793          	li	a5,1
   10cf0:	fcf42223          	sw	a5,-60(s0)
   10cf4:	fc442783          	lw	a5,-60(s0)
   10cf8:	0007879b          	sext.w	a5,a5
   10cfc:	00078a63          	beqz	a5,10d10 <h264_dec_decode_one_macroblock+0x8f4>
   10d00:	fc442783          	lw	a5,-60(s0)
   10d04:	0007871b          	sext.w	a4,a5
   10d08:	00200793          	li	a5,2
   10d0c:	54f71863          	bne	a4,a5,1125c <h264_dec_decode_one_macroblock+0xe40>
   10d10:	f2843783          	ld	a5,-216(s0)
   10d14:	0107a783          	lw	a5,16(a5)
   10d18:	fe442703          	lw	a4,-28(s0)
   10d1c:	00f707bb          	addw	a5,a4,a5
   10d20:	0007879b          	sext.w	a5,a5
   10d24:	f7042703          	lw	a4,-144(s0)
   10d28:	00f707bb          	addw	a5,a4,a5
   10d2c:	0007879b          	sext.w	a5,a5
   10d30:	f9042703          	lw	a4,-112(s0)
   10d34:	02f707bb          	mulw	a5,a4,a5
   10d38:	0007869b          	sext.w	a3,a5
   10d3c:	00015637          	lui	a2,0x15
   10d40:	f6042583          	lw	a1,-160(s0)
   10d44:	f6442703          	lw	a4,-156(s0)
   10d48:	00070793          	mv	a5,a4
   10d4c:	00679793          	slli	a5,a5,0x6
   10d50:	00e787b3          	add	a5,a5,a4
   10d54:	00b787b3          	add	a5,a5,a1
   10d58:	00179713          	slli	a4,a5,0x1
   10d5c:	75860793          	addi	a5,a2,1880 # 15758 <h264_dec_mv_array>
   10d60:	00f707b3          	add	a5,a4,a5
   10d64:	00078783          	lb	a5,0(a5)
   10d68:	0007879b          	sext.w	a5,a5
   10d6c:	00f687bb          	addw	a5,a3,a5
   10d70:	faf42c23          	sw	a5,-72(s0)
   10d74:	f9842783          	lw	a5,-104(s0)
   10d78:	0007879b          	sext.w	a5,a5
   10d7c:	06079663          	bnez	a5,10de8 <h264_dec_decode_one_macroblock+0x9cc>
   10d80:	f2843783          	ld	a5,-216(s0)
   10d84:	00c7a783          	lw	a5,12(a5)
   10d88:	fe042703          	lw	a4,-32(s0)
   10d8c:	00f707bb          	addw	a5,a4,a5
   10d90:	0007879b          	sext.w	a5,a5
   10d94:	f7442703          	lw	a4,-140(s0)
   10d98:	00f707bb          	addw	a5,a4,a5
   10d9c:	0007879b          	sext.w	a5,a5
   10da0:	f8842703          	lw	a4,-120(s0)
   10da4:	02f707bb          	mulw	a5,a4,a5
   10da8:	0007869b          	sext.w	a3,a5
   10dac:	00015637          	lui	a2,0x15
   10db0:	f6042583          	lw	a1,-160(s0)
   10db4:	f6442703          	lw	a4,-156(s0)
   10db8:	00070793          	mv	a5,a4
   10dbc:	00679793          	slli	a5,a5,0x6
   10dc0:	00e787b3          	add	a5,a5,a4
   10dc4:	00b787b3          	add	a5,a5,a1
   10dc8:	00179713          	slli	a4,a5,0x1
   10dcc:	75860793          	addi	a5,a2,1880 # 15758 <h264_dec_mv_array>
   10dd0:	00f707b3          	add	a5,a4,a5
   10dd4:	00178783          	lb	a5,1(a5)
   10dd8:	0007879b          	sext.w	a5,a5
   10ddc:	00f687bb          	addw	a5,a3,a5
   10de0:	fcf42e23          	sw	a5,-36(s0)
   10de4:	1100006f          	j	10ef4 <h264_dec_decode_one_macroblock+0xad8>
   10de8:	fc842783          	lw	a5,-56(s0)
   10dec:	0017f793          	andi	a5,a5,1
   10df0:	0007879b          	sext.w	a5,a5
   10df4:	06079e63          	bnez	a5,10e70 <h264_dec_decode_one_macroblock+0xa54>
   10df8:	f2843783          	ld	a5,-216(s0)
   10dfc:	00c7a783          	lw	a5,12(a5)
   10e00:	01f7d71b          	srliw	a4,a5,0x1f
   10e04:	00f707bb          	addw	a5,a4,a5
   10e08:	4017d79b          	sraiw	a5,a5,0x1
   10e0c:	0007879b          	sext.w	a5,a5
   10e10:	fe042703          	lw	a4,-32(s0)
   10e14:	00f707bb          	addw	a5,a4,a5
   10e18:	0007879b          	sext.w	a5,a5
   10e1c:	f7442703          	lw	a4,-140(s0)
   10e20:	00f707bb          	addw	a5,a4,a5
   10e24:	0007879b          	sext.w	a5,a5
   10e28:	f8842703          	lw	a4,-120(s0)
   10e2c:	02f707bb          	mulw	a5,a4,a5
   10e30:	0007869b          	sext.w	a3,a5
   10e34:	00015637          	lui	a2,0x15
   10e38:	f6042583          	lw	a1,-160(s0)
   10e3c:	f6442703          	lw	a4,-156(s0)
   10e40:	00070793          	mv	a5,a4
   10e44:	00679793          	slli	a5,a5,0x6
   10e48:	00e787b3          	add	a5,a5,a4
   10e4c:	00b787b3          	add	a5,a5,a1
   10e50:	00179713          	slli	a4,a5,0x1
   10e54:	75860793          	addi	a5,a2,1880 # 15758 <h264_dec_mv_array>
   10e58:	00f707b3          	add	a5,a4,a5
   10e5c:	00178783          	lb	a5,1(a5)
   10e60:	0007879b          	sext.w	a5,a5
   10e64:	00f687bb          	addw	a5,a3,a5
   10e68:	fcf42e23          	sw	a5,-36(s0)
   10e6c:	0880006f          	j	10ef4 <h264_dec_decode_one_macroblock+0xad8>
   10e70:	f2843783          	ld	a5,-216(s0)
   10e74:	00c7a703          	lw	a4,12(a5)
   10e78:	f2843783          	ld	a5,-216(s0)
   10e7c:	2287a783          	lw	a5,552(a5)
   10e80:	40f707bb          	subw	a5,a4,a5
   10e84:	0007879b          	sext.w	a5,a5
   10e88:	01f7d71b          	srliw	a4,a5,0x1f
   10e8c:	00f707bb          	addw	a5,a4,a5
   10e90:	4017d79b          	sraiw	a5,a5,0x1
   10e94:	0007879b          	sext.w	a5,a5
   10e98:	fe042703          	lw	a4,-32(s0)
   10e9c:	00f707bb          	addw	a5,a4,a5
   10ea0:	0007879b          	sext.w	a5,a5
   10ea4:	f7442703          	lw	a4,-140(s0)
   10ea8:	00f707bb          	addw	a5,a4,a5
   10eac:	0007879b          	sext.w	a5,a5
   10eb0:	f8842703          	lw	a4,-120(s0)
   10eb4:	02f707bb          	mulw	a5,a4,a5
   10eb8:	0007869b          	sext.w	a3,a5
   10ebc:	00015637          	lui	a2,0x15
   10ec0:	f6042583          	lw	a1,-160(s0)
   10ec4:	f6442703          	lw	a4,-156(s0)
   10ec8:	00070793          	mv	a5,a4
   10ecc:	00679793          	slli	a5,a5,0x6
   10ed0:	00e787b3          	add	a5,a5,a4
   10ed4:	00b787b3          	add	a5,a5,a1
   10ed8:	00179713          	slli	a4,a5,0x1
   10edc:	75860793          	addi	a5,a2,1880 # 15758 <h264_dec_mv_array>
   10ee0:	00f707b3          	add	a5,a4,a5
   10ee4:	00178783          	lb	a5,1(a5)
   10ee8:	0007879b          	sext.w	a5,a5
   10eec:	00f687bb          	addw	a5,a3,a5
   10ef0:	fcf42e23          	sw	a5,-36(s0)
   10ef4:	fb842703          	lw	a4,-72(s0)
   10ef8:	f9042783          	lw	a5,-112(s0)
   10efc:	02f747bb          	divw	a5,a4,a5
   10f00:	0007871b          	sext.w	a4,a5
   10f04:	f2843783          	ld	a5,-216(s0)
   10f08:	0087a783          	lw	a5,8(a5)
   10f0c:	fff7879b          	addiw	a5,a5,-1
   10f10:	0007879b          	sext.w	a5,a5
   10f14:	00078613          	mv	a2,a5
   10f18:	00070693          	mv	a3,a4
   10f1c:	0006871b          	sext.w	a4,a3
   10f20:	0006079b          	sext.w	a5,a2
   10f24:	00e7d463          	bge	a5,a4,10f2c <h264_dec_decode_one_macroblock+0xb10>
   10f28:	00060693          	mv	a3,a2
   10f2c:	0006879b          	sext.w	a5,a3
   10f30:	00078713          	mv	a4,a5
   10f34:	0007079b          	sext.w	a5,a4
   10f38:	0007d463          	bgez	a5,10f40 <h264_dec_decode_one_macroblock+0xb24>
   10f3c:	00000713          	li	a4,0
   10f40:	0007079b          	sext.w	a5,a4
   10f44:	00078713          	mv	a4,a5
   10f48:	02d00793          	li	a5,45
   10f4c:	02f767bb          	remw	a5,a4,a5
   10f50:	f4f42e23          	sw	a5,-164(s0)
   10f54:	fdc42703          	lw	a4,-36(s0)
   10f58:	f8842783          	lw	a5,-120(s0)
   10f5c:	02f747bb          	divw	a5,a4,a5
   10f60:	0007879b          	sext.w	a5,a5
   10f64:	00078613          	mv	a2,a5
   10f68:	f9c42783          	lw	a5,-100(s0)
   10f6c:	0007869b          	sext.w	a3,a5
   10f70:	0006071b          	sext.w	a4,a2
   10f74:	00d75463          	bge	a4,a3,10f7c <h264_dec_decode_one_macroblock+0xb60>
   10f78:	00060793          	mv	a5,a2
   10f7c:	0007879b          	sext.w	a5,a5
   10f80:	00078713          	mv	a4,a5
   10f84:	0007079b          	sext.w	a5,a4
   10f88:	0007d463          	bgez	a5,10f90 <h264_dec_decode_one_macroblock+0xb74>
   10f8c:	00000713          	li	a4,0
   10f90:	0007079b          	sext.w	a5,a4
   10f94:	00078713          	mv	a4,a5
   10f98:	02d00793          	li	a5,45
   10f9c:	02f767bb          	remw	a5,a4,a5
   10fa0:	f4f42c23          	sw	a5,-168(s0)
   10fa4:	fb842703          	lw	a4,-72(s0)
   10fa8:	f8c42783          	lw	a5,-116(s0)
   10fac:	00f707bb          	addw	a5,a4,a5
   10fb0:	0007871b          	sext.w	a4,a5
   10fb4:	f9042783          	lw	a5,-112(s0)
   10fb8:	02f747bb          	divw	a5,a4,a5
   10fbc:	0007871b          	sext.w	a4,a5
   10fc0:	f2843783          	ld	a5,-216(s0)
   10fc4:	0087a783          	lw	a5,8(a5)
   10fc8:	fff7879b          	addiw	a5,a5,-1
   10fcc:	0007879b          	sext.w	a5,a5
   10fd0:	00078613          	mv	a2,a5
   10fd4:	00070693          	mv	a3,a4
   10fd8:	0006871b          	sext.w	a4,a3
   10fdc:	0006079b          	sext.w	a5,a2
   10fe0:	00e7d463          	bge	a5,a4,10fe8 <h264_dec_decode_one_macroblock+0xbcc>
   10fe4:	00060693          	mv	a3,a2
   10fe8:	0006879b          	sext.w	a5,a3
   10fec:	00078713          	mv	a4,a5
   10ff0:	0007079b          	sext.w	a5,a4
   10ff4:	0007d463          	bgez	a5,10ffc <h264_dec_decode_one_macroblock+0xbe0>
   10ff8:	00000713          	li	a4,0
   10ffc:	0007079b          	sext.w	a5,a4
   11000:	00078713          	mv	a4,a5
   11004:	02d00793          	li	a5,45
   11008:	02f767bb          	remw	a5,a4,a5
   1100c:	f4f42a23          	sw	a5,-172(s0)
   11010:	fdc42703          	lw	a4,-36(s0)
   11014:	f8442783          	lw	a5,-124(s0)
   11018:	00f707bb          	addw	a5,a4,a5
   1101c:	0007871b          	sext.w	a4,a5
   11020:	f8842783          	lw	a5,-120(s0)
   11024:	02f747bb          	divw	a5,a4,a5
   11028:	0007879b          	sext.w	a5,a5
   1102c:	00078613          	mv	a2,a5
   11030:	f9c42783          	lw	a5,-100(s0)
   11034:	0007869b          	sext.w	a3,a5
   11038:	0006071b          	sext.w	a4,a2
   1103c:	00d75463          	bge	a4,a3,11044 <h264_dec_decode_one_macroblock+0xc28>
   11040:	00060793          	mv	a5,a2
   11044:	0007879b          	sext.w	a5,a5
   11048:	00078713          	mv	a4,a5
   1104c:	0007079b          	sext.w	a5,a4
   11050:	0007d463          	bgez	a5,11058 <h264_dec_decode_one_macroblock+0xc3c>
   11054:	00000713          	li	a4,0
   11058:	0007079b          	sext.w	a5,a4
   1105c:	00078713          	mv	a4,a5
   11060:	02d00793          	li	a5,45
   11064:	02f767bb          	remw	a5,a4,a5
   11068:	f4f42823          	sw	a5,-176(s0)
   1106c:	fb842703          	lw	a4,-72(s0)
   11070:	f8c42783          	lw	a5,-116(s0)
   11074:	00f777b3          	and	a5,a4,a5
   11078:	f4f42623          	sw	a5,-180(s0)
   1107c:	fdc42703          	lw	a4,-36(s0)
   11080:	f8442783          	lw	a5,-124(s0)
   11084:	00f777b3          	and	a5,a4,a5
   11088:	f4f42423          	sw	a5,-184(s0)
   1108c:	f9042703          	lw	a4,-112(s0)
   11090:	f4c42783          	lw	a5,-180(s0)
   11094:	40f707bb          	subw	a5,a4,a5
   11098:	f4f42223          	sw	a5,-188(s0)
   1109c:	f8842703          	lw	a4,-120(s0)
   110a0:	f4842783          	lw	a5,-184(s0)
   110a4:	40f707bb          	subw	a5,a4,a5
   110a8:	f4f42023          	sw	a5,-192(s0)
   110ac:	f4442703          	lw	a4,-188(s0)
   110b0:	f4042783          	lw	a5,-192(s0)
   110b4:	02f707bb          	mulw	a5,a4,a5
   110b8:	0007869b          	sext.w	a3,a5
   110bc:	00013637          	lui	a2,0x13
   110c0:	f5c42583          	lw	a1,-164(s0)
   110c4:	fd842503          	lw	a0,-40(s0)
   110c8:	f5842703          	lw	a4,-168(s0)
   110cc:	7e900793          	li	a5,2025
   110d0:	02f50533          	mul	a0,a0,a5
   110d4:	00070793          	mv	a5,a4
   110d8:	00179793          	slli	a5,a5,0x1
   110dc:	00e787b3          	add	a5,a5,a4
   110e0:	00479713          	slli	a4,a5,0x4
   110e4:	40f70733          	sub	a4,a4,a5
   110e8:	00e507b3          	add	a5,a0,a4
   110ec:	00b787b3          	add	a5,a5,a1
   110f0:	00179713          	slli	a4,a5,0x1
   110f4:	01860793          	addi	a5,a2,24 # 13018 <h264_dec_list_imgUV>
   110f8:	00f707b3          	add	a5,a4,a5
   110fc:	00079783          	lh	a5,0(a5)
   11100:	0007879b          	sext.w	a5,a5
   11104:	02f687bb          	mulw	a5,a3,a5
   11108:	0007869b          	sext.w	a3,a5
   1110c:	f4c42703          	lw	a4,-180(s0)
   11110:	f4042783          	lw	a5,-192(s0)
   11114:	02f707bb          	mulw	a5,a4,a5
   11118:	0007861b          	sext.w	a2,a5
   1111c:	000135b7          	lui	a1,0x13
   11120:	f5442503          	lw	a0,-172(s0)
   11124:	fd842803          	lw	a6,-40(s0)
   11128:	f5842703          	lw	a4,-168(s0)
   1112c:	7e900793          	li	a5,2025
   11130:	02f80833          	mul	a6,a6,a5
   11134:	00070793          	mv	a5,a4
   11138:	00179793          	slli	a5,a5,0x1
   1113c:	00e787b3          	add	a5,a5,a4
   11140:	00479713          	slli	a4,a5,0x4
   11144:	40f70733          	sub	a4,a4,a5
   11148:	00e807b3          	add	a5,a6,a4
   1114c:	00a787b3          	add	a5,a5,a0
   11150:	00179713          	slli	a4,a5,0x1
   11154:	01858793          	addi	a5,a1,24 # 13018 <h264_dec_list_imgUV>
   11158:	00f707b3          	add	a5,a4,a5
   1115c:	00079783          	lh	a5,0(a5)
   11160:	0007879b          	sext.w	a5,a5
   11164:	02f607bb          	mulw	a5,a2,a5
   11168:	0007879b          	sext.w	a5,a5
   1116c:	00f687bb          	addw	a5,a3,a5
   11170:	0007869b          	sext.w	a3,a5
   11174:	f4442703          	lw	a4,-188(s0)
   11178:	f4842783          	lw	a5,-184(s0)
   1117c:	02f707bb          	mulw	a5,a4,a5
   11180:	0007861b          	sext.w	a2,a5
   11184:	000135b7          	lui	a1,0x13
   11188:	f5c42503          	lw	a0,-164(s0)
   1118c:	fd842803          	lw	a6,-40(s0)
   11190:	f5042703          	lw	a4,-176(s0)
   11194:	7e900793          	li	a5,2025
   11198:	02f80833          	mul	a6,a6,a5
   1119c:	00070793          	mv	a5,a4
   111a0:	00179793          	slli	a5,a5,0x1
   111a4:	00e787b3          	add	a5,a5,a4
   111a8:	00479713          	slli	a4,a5,0x4
   111ac:	40f70733          	sub	a4,a4,a5
   111b0:	00e807b3          	add	a5,a6,a4
   111b4:	00a787b3          	add	a5,a5,a0
   111b8:	00179713          	slli	a4,a5,0x1
   111bc:	01858793          	addi	a5,a1,24 # 13018 <h264_dec_list_imgUV>
   111c0:	00f707b3          	add	a5,a4,a5
   111c4:	00079783          	lh	a5,0(a5)
   111c8:	0007879b          	sext.w	a5,a5
   111cc:	02f607bb          	mulw	a5,a2,a5
   111d0:	0007879b          	sext.w	a5,a5
   111d4:	00f687bb          	addw	a5,a3,a5
   111d8:	0007869b          	sext.w	a3,a5
   111dc:	f4c42703          	lw	a4,-180(s0)
   111e0:	f4842783          	lw	a5,-184(s0)
   111e4:	02f707bb          	mulw	a5,a4,a5
   111e8:	0007861b          	sext.w	a2,a5
   111ec:	000135b7          	lui	a1,0x13
   111f0:	f5442503          	lw	a0,-172(s0)
   111f4:	fd842803          	lw	a6,-40(s0)
   111f8:	f5042703          	lw	a4,-176(s0)
   111fc:	7e900793          	li	a5,2025
   11200:	02f80833          	mul	a6,a6,a5
   11204:	00070793          	mv	a5,a4
   11208:	00179793          	slli	a5,a5,0x1
   1120c:	00e787b3          	add	a5,a5,a4
   11210:	00479713          	slli	a4,a5,0x4
   11214:	40f70733          	sub	a4,a4,a5
   11218:	00e807b3          	add	a5,a6,a4
   1121c:	00a787b3          	add	a5,a5,a0
   11220:	00179713          	slli	a4,a5,0x1
   11224:	01858793          	addi	a5,a1,24 # 13018 <h264_dec_list_imgUV>
   11228:	00f707b3          	add	a5,a4,a5
   1122c:	00079783          	lh	a5,0(a5)
   11230:	0007879b          	sext.w	a5,a5
   11234:	02f607bb          	mulw	a5,a2,a5
   11238:	0007879b          	sext.w	a5,a5
   1123c:	00f687bb          	addw	a5,a3,a5
   11240:	0007879b          	sext.w	a5,a5
   11244:	f7c42703          	lw	a4,-132(s0)
   11248:	00f707bb          	addw	a5,a4,a5
   1124c:	0007871b          	sext.w	a4,a5
   11250:	f8042783          	lw	a5,-128(s0)
   11254:	02f747bb          	divw	a5,a4,a5
   11258:	fcf42823          	sw	a5,-48(s0)
   1125c:	fc442783          	lw	a5,-60(s0)
   11260:	0007871b          	sext.w	a4,a5
   11264:	00100793          	li	a5,1
   11268:	00f70c63          	beq	a4,a5,11280 <h264_dec_decode_one_macroblock+0xe64>
   1126c:	fc442783          	lw	a5,-60(s0)
   11270:	0007871b          	sext.w	a4,a5
   11274:	00200793          	li	a5,2
   11278:	00f70463          	beq	a4,a5,11280 <h264_dec_decode_one_macroblock+0xe64>
   1127c:	0080106f          	j	12284 <h264_dec_decode_one_macroblock+0x1e68>
   11280:	f2843783          	ld	a5,-216(s0)
   11284:	0107a783          	lw	a5,16(a5)
   11288:	fe442703          	lw	a4,-28(s0)
   1128c:	00f707bb          	addw	a5,a4,a5
   11290:	0007879b          	sext.w	a5,a5
   11294:	f7042703          	lw	a4,-144(s0)
   11298:	00f707bb          	addw	a5,a4,a5
   1129c:	0007879b          	sext.w	a5,a5
   112a0:	f9042703          	lw	a4,-112(s0)
   112a4:	02f707bb          	mulw	a5,a4,a5
   112a8:	0007869b          	sext.w	a3,a5
   112ac:	00015637          	lui	a2,0x15
   112b0:	f6042583          	lw	a1,-160(s0)
   112b4:	f6442703          	lw	a4,-156(s0)
   112b8:	00070793          	mv	a5,a4
   112bc:	00679793          	slli	a5,a5,0x6
   112c0:	00e787b3          	add	a5,a5,a4
   112c4:	00b787b3          	add	a5,a5,a1
   112c8:	00179713          	slli	a4,a5,0x1
   112cc:	75860793          	addi	a5,a2,1880 # 15758 <h264_dec_mv_array>
   112d0:	00f707b3          	add	a5,a4,a5
   112d4:	00078783          	lb	a5,0(a5)
   112d8:	0007879b          	sext.w	a5,a5
   112dc:	00f687bb          	addw	a5,a3,a5
   112e0:	faf42c23          	sw	a5,-72(s0)
   112e4:	f9842783          	lw	a5,-104(s0)
   112e8:	0007879b          	sext.w	a5,a5
   112ec:	06079663          	bnez	a5,11358 <h264_dec_decode_one_macroblock+0xf3c>
   112f0:	f2843783          	ld	a5,-216(s0)
   112f4:	00c7a783          	lw	a5,12(a5)
   112f8:	fe042703          	lw	a4,-32(s0)
   112fc:	00f707bb          	addw	a5,a4,a5
   11300:	0007879b          	sext.w	a5,a5
   11304:	f7442703          	lw	a4,-140(s0)
   11308:	00f707bb          	addw	a5,a4,a5
   1130c:	0007879b          	sext.w	a5,a5
   11310:	f8842703          	lw	a4,-120(s0)
   11314:	02f707bb          	mulw	a5,a4,a5
   11318:	0007869b          	sext.w	a3,a5
   1131c:	00015637          	lui	a2,0x15
   11320:	f6042583          	lw	a1,-160(s0)
   11324:	f6442703          	lw	a4,-156(s0)
   11328:	00070793          	mv	a5,a4
   1132c:	00679793          	slli	a5,a5,0x6
   11330:	00e787b3          	add	a5,a5,a4
   11334:	00b787b3          	add	a5,a5,a1
   11338:	00179713          	slli	a4,a5,0x1
   1133c:	75860793          	addi	a5,a2,1880 # 15758 <h264_dec_mv_array>
   11340:	00f707b3          	add	a5,a4,a5
   11344:	00178783          	lb	a5,1(a5)
   11348:	0007879b          	sext.w	a5,a5
   1134c:	00f687bb          	addw	a5,a3,a5
   11350:	fcf42e23          	sw	a5,-36(s0)
   11354:	1100006f          	j	11464 <h264_dec_decode_one_macroblock+0x1048>
   11358:	fc842783          	lw	a5,-56(s0)
   1135c:	0017f793          	andi	a5,a5,1
   11360:	0007879b          	sext.w	a5,a5
   11364:	06079e63          	bnez	a5,113e0 <h264_dec_decode_one_macroblock+0xfc4>
   11368:	f2843783          	ld	a5,-216(s0)
   1136c:	00c7a783          	lw	a5,12(a5)
   11370:	01f7d71b          	srliw	a4,a5,0x1f
   11374:	00f707bb          	addw	a5,a4,a5
   11378:	4017d79b          	sraiw	a5,a5,0x1
   1137c:	0007879b          	sext.w	a5,a5
   11380:	fe042703          	lw	a4,-32(s0)
   11384:	00f707bb          	addw	a5,a4,a5
   11388:	0007879b          	sext.w	a5,a5
   1138c:	f7442703          	lw	a4,-140(s0)
   11390:	00f707bb          	addw	a5,a4,a5
   11394:	0007879b          	sext.w	a5,a5
   11398:	f8842703          	lw	a4,-120(s0)
   1139c:	02f707bb          	mulw	a5,a4,a5
   113a0:	0007869b          	sext.w	a3,a5
   113a4:	00015637          	lui	a2,0x15
   113a8:	f6042583          	lw	a1,-160(s0)
   113ac:	f6442703          	lw	a4,-156(s0)
   113b0:	00070793          	mv	a5,a4
   113b4:	00679793          	slli	a5,a5,0x6
   113b8:	00e787b3          	add	a5,a5,a4
   113bc:	00b787b3          	add	a5,a5,a1
   113c0:	00179713          	slli	a4,a5,0x1
   113c4:	75860793          	addi	a5,a2,1880 # 15758 <h264_dec_mv_array>
   113c8:	00f707b3          	add	a5,a4,a5
   113cc:	00178783          	lb	a5,1(a5)
   113d0:	0007879b          	sext.w	a5,a5
   113d4:	00f687bb          	addw	a5,a3,a5
   113d8:	fcf42e23          	sw	a5,-36(s0)
   113dc:	0880006f          	j	11464 <h264_dec_decode_one_macroblock+0x1048>
   113e0:	f2843783          	ld	a5,-216(s0)
   113e4:	00c7a703          	lw	a4,12(a5)
   113e8:	f2843783          	ld	a5,-216(s0)
   113ec:	2287a783          	lw	a5,552(a5)
   113f0:	40f707bb          	subw	a5,a4,a5
   113f4:	0007879b          	sext.w	a5,a5
   113f8:	01f7d71b          	srliw	a4,a5,0x1f
   113fc:	00f707bb          	addw	a5,a4,a5
   11400:	4017d79b          	sraiw	a5,a5,0x1
   11404:	0007879b          	sext.w	a5,a5
   11408:	fe042703          	lw	a4,-32(s0)
   1140c:	00f707bb          	addw	a5,a4,a5
   11410:	0007879b          	sext.w	a5,a5
   11414:	f7442703          	lw	a4,-140(s0)
   11418:	00f707bb          	addw	a5,a4,a5
   1141c:	0007879b          	sext.w	a5,a5
   11420:	f8842703          	lw	a4,-120(s0)
   11424:	02f707bb          	mulw	a5,a4,a5
   11428:	0007869b          	sext.w	a3,a5
   1142c:	00015637          	lui	a2,0x15
   11430:	f6042583          	lw	a1,-160(s0)
   11434:	f6442703          	lw	a4,-156(s0)
   11438:	00070793          	mv	a5,a4
   1143c:	00679793          	slli	a5,a5,0x6
   11440:	00e787b3          	add	a5,a5,a4
   11444:	00b787b3          	add	a5,a5,a1
   11448:	00179713          	slli	a4,a5,0x1
   1144c:	75860793          	addi	a5,a2,1880 # 15758 <h264_dec_mv_array>
   11450:	00f707b3          	add	a5,a4,a5
   11454:	00178783          	lb	a5,1(a5)
   11458:	0007879b          	sext.w	a5,a5
   1145c:	00f687bb          	addw	a5,a3,a5
   11460:	fcf42e23          	sw	a5,-36(s0)
   11464:	fb842703          	lw	a4,-72(s0)
   11468:	f9042783          	lw	a5,-112(s0)
   1146c:	02f747bb          	divw	a5,a4,a5
   11470:	0007871b          	sext.w	a4,a5
   11474:	f2843783          	ld	a5,-216(s0)
   11478:	0087a783          	lw	a5,8(a5)
   1147c:	fff7879b          	addiw	a5,a5,-1
   11480:	0007879b          	sext.w	a5,a5
   11484:	00078613          	mv	a2,a5
   11488:	00070693          	mv	a3,a4
   1148c:	0006871b          	sext.w	a4,a3
   11490:	0006079b          	sext.w	a5,a2
   11494:	00e7d463          	bge	a5,a4,1149c <h264_dec_decode_one_macroblock+0x1080>
   11498:	00060693          	mv	a3,a2
   1149c:	0006879b          	sext.w	a5,a3
   114a0:	00078713          	mv	a4,a5
   114a4:	0007079b          	sext.w	a5,a4
   114a8:	0007d463          	bgez	a5,114b0 <h264_dec_decode_one_macroblock+0x1094>
   114ac:	00000713          	li	a4,0
   114b0:	0007079b          	sext.w	a5,a4
   114b4:	00078713          	mv	a4,a5
   114b8:	02d00793          	li	a5,45
   114bc:	02f767bb          	remw	a5,a4,a5
   114c0:	f4f42e23          	sw	a5,-164(s0)
   114c4:	fdc42703          	lw	a4,-36(s0)
   114c8:	f8842783          	lw	a5,-120(s0)
   114cc:	02f747bb          	divw	a5,a4,a5
   114d0:	0007879b          	sext.w	a5,a5
   114d4:	00078613          	mv	a2,a5
   114d8:	f9c42783          	lw	a5,-100(s0)
   114dc:	0007869b          	sext.w	a3,a5
   114e0:	0006071b          	sext.w	a4,a2
   114e4:	00d75463          	bge	a4,a3,114ec <h264_dec_decode_one_macroblock+0x10d0>
   114e8:	00060793          	mv	a5,a2
   114ec:	0007879b          	sext.w	a5,a5
   114f0:	00078713          	mv	a4,a5
   114f4:	0007079b          	sext.w	a5,a4
   114f8:	0007d463          	bgez	a5,11500 <h264_dec_decode_one_macroblock+0x10e4>
   114fc:	00000713          	li	a4,0
   11500:	0007079b          	sext.w	a5,a4
   11504:	00078713          	mv	a4,a5
   11508:	02d00793          	li	a5,45
   1150c:	02f767bb          	remw	a5,a4,a5
   11510:	f4f42c23          	sw	a5,-168(s0)
   11514:	fb842703          	lw	a4,-72(s0)
   11518:	f8c42783          	lw	a5,-116(s0)
   1151c:	00f707bb          	addw	a5,a4,a5
   11520:	0007871b          	sext.w	a4,a5
   11524:	f9042783          	lw	a5,-112(s0)
   11528:	02f747bb          	divw	a5,a4,a5
   1152c:	0007871b          	sext.w	a4,a5
   11530:	f2843783          	ld	a5,-216(s0)
   11534:	0087a783          	lw	a5,8(a5)
   11538:	fff7879b          	addiw	a5,a5,-1
   1153c:	0007879b          	sext.w	a5,a5
   11540:	00078613          	mv	a2,a5
   11544:	00070693          	mv	a3,a4
   11548:	0006871b          	sext.w	a4,a3
   1154c:	0006079b          	sext.w	a5,a2
   11550:	00e7d463          	bge	a5,a4,11558 <h264_dec_decode_one_macroblock+0x113c>
   11554:	00060693          	mv	a3,a2
   11558:	0006879b          	sext.w	a5,a3
   1155c:	00078713          	mv	a4,a5
   11560:	0007079b          	sext.w	a5,a4
   11564:	0007d463          	bgez	a5,1156c <h264_dec_decode_one_macroblock+0x1150>
   11568:	00000713          	li	a4,0
   1156c:	0007079b          	sext.w	a5,a4
   11570:	00078713          	mv	a4,a5
   11574:	02d00793          	li	a5,45
   11578:	02f767bb          	remw	a5,a4,a5
   1157c:	f4f42a23          	sw	a5,-172(s0)
   11580:	fdc42703          	lw	a4,-36(s0)
   11584:	f8442783          	lw	a5,-124(s0)
   11588:	00f707bb          	addw	a5,a4,a5
   1158c:	0007871b          	sext.w	a4,a5
   11590:	f8842783          	lw	a5,-120(s0)
   11594:	02f747bb          	divw	a5,a4,a5
   11598:	0007879b          	sext.w	a5,a5
   1159c:	00078613          	mv	a2,a5
   115a0:	f9c42783          	lw	a5,-100(s0)
   115a4:	0007869b          	sext.w	a3,a5
   115a8:	0006071b          	sext.w	a4,a2
   115ac:	00d75463          	bge	a4,a3,115b4 <h264_dec_decode_one_macroblock+0x1198>
   115b0:	00060793          	mv	a5,a2
   115b4:	0007879b          	sext.w	a5,a5
   115b8:	00078713          	mv	a4,a5
   115bc:	0007079b          	sext.w	a5,a4
   115c0:	0007d463          	bgez	a5,115c8 <h264_dec_decode_one_macroblock+0x11ac>
   115c4:	00000713          	li	a4,0
   115c8:	0007079b          	sext.w	a5,a4
   115cc:	00078713          	mv	a4,a5
   115d0:	02d00793          	li	a5,45
   115d4:	02f767bb          	remw	a5,a4,a5
   115d8:	f4f42823          	sw	a5,-176(s0)
   115dc:	fb842703          	lw	a4,-72(s0)
   115e0:	f8c42783          	lw	a5,-116(s0)
   115e4:	00f777b3          	and	a5,a4,a5
   115e8:	f4f42623          	sw	a5,-180(s0)
   115ec:	fdc42703          	lw	a4,-36(s0)
   115f0:	f8442783          	lw	a5,-124(s0)
   115f4:	00f777b3          	and	a5,a4,a5
   115f8:	f4f42423          	sw	a5,-184(s0)
   115fc:	f9042703          	lw	a4,-112(s0)
   11600:	f4c42783          	lw	a5,-180(s0)
   11604:	40f707bb          	subw	a5,a4,a5
   11608:	f4f42223          	sw	a5,-188(s0)
   1160c:	f8842703          	lw	a4,-120(s0)
   11610:	f4842783          	lw	a5,-184(s0)
   11614:	40f707bb          	subw	a5,a4,a5
   11618:	f4f42023          	sw	a5,-192(s0)
   1161c:	f4442703          	lw	a4,-188(s0)
   11620:	f4042783          	lw	a5,-192(s0)
   11624:	02f707bb          	mulw	a5,a4,a5
   11628:	0007869b          	sext.w	a3,a5
   1162c:	00013637          	lui	a2,0x13
   11630:	f5c42583          	lw	a1,-164(s0)
   11634:	fd842503          	lw	a0,-40(s0)
   11638:	f5842703          	lw	a4,-168(s0)
   1163c:	7e900793          	li	a5,2025
   11640:	02f50533          	mul	a0,a0,a5
   11644:	00070793          	mv	a5,a4
   11648:	00179793          	slli	a5,a5,0x1
   1164c:	00e787b3          	add	a5,a5,a4
   11650:	00479713          	slli	a4,a5,0x4
   11654:	40f70733          	sub	a4,a4,a5
   11658:	00e507b3          	add	a5,a0,a4
   1165c:	00b787b3          	add	a5,a5,a1
   11660:	00179713          	slli	a4,a5,0x1
   11664:	01860793          	addi	a5,a2,24 # 13018 <h264_dec_list_imgUV>
   11668:	00f707b3          	add	a5,a4,a5
   1166c:	00079783          	lh	a5,0(a5)
   11670:	0007879b          	sext.w	a5,a5
   11674:	02f687bb          	mulw	a5,a3,a5
   11678:	0007869b          	sext.w	a3,a5
   1167c:	f4c42703          	lw	a4,-180(s0)
   11680:	f4042783          	lw	a5,-192(s0)
   11684:	02f707bb          	mulw	a5,a4,a5
   11688:	0007861b          	sext.w	a2,a5
   1168c:	000135b7          	lui	a1,0x13
   11690:	f5442503          	lw	a0,-172(s0)
   11694:	fd842803          	lw	a6,-40(s0)
   11698:	f5842703          	lw	a4,-168(s0)
   1169c:	7e900793          	li	a5,2025
   116a0:	02f80833          	mul	a6,a6,a5
   116a4:	00070793          	mv	a5,a4
   116a8:	00179793          	slli	a5,a5,0x1
   116ac:	00e787b3          	add	a5,a5,a4
   116b0:	00479713          	slli	a4,a5,0x4
   116b4:	40f70733          	sub	a4,a4,a5
   116b8:	00e807b3          	add	a5,a6,a4
   116bc:	00a787b3          	add	a5,a5,a0
   116c0:	00179713          	slli	a4,a5,0x1
   116c4:	01858793          	addi	a5,a1,24 # 13018 <h264_dec_list_imgUV>
   116c8:	00f707b3          	add	a5,a4,a5
   116cc:	00079783          	lh	a5,0(a5)
   116d0:	0007879b          	sext.w	a5,a5
   116d4:	02f607bb          	mulw	a5,a2,a5
   116d8:	0007879b          	sext.w	a5,a5
   116dc:	00f687bb          	addw	a5,a3,a5
   116e0:	0007869b          	sext.w	a3,a5
   116e4:	f4442703          	lw	a4,-188(s0)
   116e8:	f4842783          	lw	a5,-184(s0)
   116ec:	02f707bb          	mulw	a5,a4,a5
   116f0:	0007861b          	sext.w	a2,a5
   116f4:	000135b7          	lui	a1,0x13
   116f8:	f5c42503          	lw	a0,-164(s0)
   116fc:	fd842803          	lw	a6,-40(s0)
   11700:	f5042703          	lw	a4,-176(s0)
   11704:	7e900793          	li	a5,2025
   11708:	02f80833          	mul	a6,a6,a5
   1170c:	00070793          	mv	a5,a4
   11710:	00179793          	slli	a5,a5,0x1
   11714:	00e787b3          	add	a5,a5,a4
   11718:	00479713          	slli	a4,a5,0x4
   1171c:	40f70733          	sub	a4,a4,a5
   11720:	00e807b3          	add	a5,a6,a4
   11724:	00a787b3          	add	a5,a5,a0
   11728:	00179713          	slli	a4,a5,0x1
   1172c:	01858793          	addi	a5,a1,24 # 13018 <h264_dec_list_imgUV>
   11730:	00f707b3          	add	a5,a4,a5
   11734:	00079783          	lh	a5,0(a5)
   11738:	0007879b          	sext.w	a5,a5
   1173c:	02f607bb          	mulw	a5,a2,a5
   11740:	0007879b          	sext.w	a5,a5
   11744:	00f687bb          	addw	a5,a3,a5
   11748:	0007869b          	sext.w	a3,a5
   1174c:	f4c42703          	lw	a4,-180(s0)
   11750:	f4842783          	lw	a5,-184(s0)
   11754:	02f707bb          	mulw	a5,a4,a5
   11758:	0007861b          	sext.w	a2,a5
   1175c:	000135b7          	lui	a1,0x13
   11760:	f5442503          	lw	a0,-172(s0)
   11764:	fd842803          	lw	a6,-40(s0)
   11768:	f5042703          	lw	a4,-176(s0)
   1176c:	7e900793          	li	a5,2025
   11770:	02f80833          	mul	a6,a6,a5
   11774:	00070793          	mv	a5,a4
   11778:	00179793          	slli	a5,a5,0x1
   1177c:	00e787b3          	add	a5,a5,a4
   11780:	00479713          	slli	a4,a5,0x4
   11784:	40f70733          	sub	a4,a4,a5
   11788:	00e807b3          	add	a5,a6,a4
   1178c:	00a787b3          	add	a5,a5,a0
   11790:	00179713          	slli	a4,a5,0x1
   11794:	01858793          	addi	a5,a1,24 # 13018 <h264_dec_list_imgUV>
   11798:	00f707b3          	add	a5,a4,a5
   1179c:	00079783          	lh	a5,0(a5)
   117a0:	0007879b          	sext.w	a5,a5
   117a4:	02f607bb          	mulw	a5,a2,a5
   117a8:	0007879b          	sext.w	a5,a5
   117ac:	00f687bb          	addw	a5,a3,a5
   117b0:	0007879b          	sext.w	a5,a5
   117b4:	f7c42703          	lw	a4,-132(s0)
   117b8:	00f707bb          	addw	a5,a4,a5
   117bc:	0007871b          	sext.w	a4,a5
   117c0:	f8042783          	lw	a5,-128(s0)
   117c4:	02f747bb          	divw	a5,a4,a5
   117c8:	fcf42a23          	sw	a5,-44(s0)
   117cc:	2b90006f          	j	12284 <h264_dec_decode_one_macroblock+0x1e68>
   117d0:	fa041723          	sh	zero,-82(s0)
   117d4:	fa041623          	sh	zero,-84(s0)
   117d8:	fae45783          	lhu	a5,-82(s0)
   117dc:	fcf41723          	sh	a5,-50(s0)
   117e0:	fac45783          	lhu	a5,-84(s0)
   117e4:	fcf41623          	sh	a5,-52(s0)
   117e8:	f2843783          	ld	a5,-216(s0)
   117ec:	0107a783          	lw	a5,16(a5)
   117f0:	fe442703          	lw	a4,-28(s0)
   117f4:	00f707bb          	addw	a5,a4,a5
   117f8:	0007879b          	sext.w	a5,a5
   117fc:	f7042703          	lw	a4,-144(s0)
   11800:	00f707bb          	addw	a5,a4,a5
   11804:	0007879b          	sext.w	a5,a5
   11808:	f9042703          	lw	a4,-112(s0)
   1180c:	02f707bb          	mulw	a5,a4,a5
   11810:	0007869b          	sext.w	a3,a5
   11814:	00015637          	lui	a2,0x15
   11818:	f6042583          	lw	a1,-160(s0)
   1181c:	f6442703          	lw	a4,-156(s0)
   11820:	00070793          	mv	a5,a4
   11824:	00679793          	slli	a5,a5,0x6
   11828:	00e787b3          	add	a5,a5,a4
   1182c:	00b787b3          	add	a5,a5,a1
   11830:	00179713          	slli	a4,a5,0x1
   11834:	75860793          	addi	a5,a2,1880 # 15758 <h264_dec_mv_array>
   11838:	00f707b3          	add	a5,a4,a5
   1183c:	00078783          	lb	a5,0(a5)
   11840:	0007879b          	sext.w	a5,a5
   11844:	00f687bb          	addw	a5,a3,a5
   11848:	faf42c23          	sw	a5,-72(s0)
   1184c:	f9842783          	lw	a5,-104(s0)
   11850:	0007879b          	sext.w	a5,a5
   11854:	06079663          	bnez	a5,118c0 <h264_dec_decode_one_macroblock+0x14a4>
   11858:	f2843783          	ld	a5,-216(s0)
   1185c:	00c7a783          	lw	a5,12(a5)
   11860:	fe042703          	lw	a4,-32(s0)
   11864:	00f707bb          	addw	a5,a4,a5
   11868:	0007879b          	sext.w	a5,a5
   1186c:	f7442703          	lw	a4,-140(s0)
   11870:	00f707bb          	addw	a5,a4,a5
   11874:	0007879b          	sext.w	a5,a5
   11878:	f8842703          	lw	a4,-120(s0)
   1187c:	02f707bb          	mulw	a5,a4,a5
   11880:	0007869b          	sext.w	a3,a5
   11884:	00015637          	lui	a2,0x15
   11888:	f6042583          	lw	a1,-160(s0)
   1188c:	f6442703          	lw	a4,-156(s0)
   11890:	00070793          	mv	a5,a4
   11894:	00679793          	slli	a5,a5,0x6
   11898:	00e787b3          	add	a5,a5,a4
   1189c:	00b787b3          	add	a5,a5,a1
   118a0:	00179713          	slli	a4,a5,0x1
   118a4:	75860793          	addi	a5,a2,1880 # 15758 <h264_dec_mv_array>
   118a8:	00f707b3          	add	a5,a4,a5
   118ac:	00178783          	lb	a5,1(a5)
   118b0:	0007879b          	sext.w	a5,a5
   118b4:	00f687bb          	addw	a5,a3,a5
   118b8:	fcf42e23          	sw	a5,-36(s0)
   118bc:	1100006f          	j	119cc <h264_dec_decode_one_macroblock+0x15b0>
   118c0:	fc842783          	lw	a5,-56(s0)
   118c4:	0017f793          	andi	a5,a5,1
   118c8:	0007879b          	sext.w	a5,a5
   118cc:	06079e63          	bnez	a5,11948 <h264_dec_decode_one_macroblock+0x152c>
   118d0:	f2843783          	ld	a5,-216(s0)
   118d4:	00c7a783          	lw	a5,12(a5)
   118d8:	01f7d71b          	srliw	a4,a5,0x1f
   118dc:	00f707bb          	addw	a5,a4,a5
   118e0:	4017d79b          	sraiw	a5,a5,0x1
   118e4:	0007879b          	sext.w	a5,a5
   118e8:	fe042703          	lw	a4,-32(s0)
   118ec:	00f707bb          	addw	a5,a4,a5
   118f0:	0007879b          	sext.w	a5,a5
   118f4:	f7442703          	lw	a4,-140(s0)
   118f8:	00f707bb          	addw	a5,a4,a5
   118fc:	0007879b          	sext.w	a5,a5
   11900:	f8842703          	lw	a4,-120(s0)
   11904:	02f707bb          	mulw	a5,a4,a5
   11908:	0007869b          	sext.w	a3,a5
   1190c:	00015637          	lui	a2,0x15
   11910:	f6042583          	lw	a1,-160(s0)
   11914:	f6442703          	lw	a4,-156(s0)
   11918:	00070793          	mv	a5,a4
   1191c:	00679793          	slli	a5,a5,0x6
   11920:	00e787b3          	add	a5,a5,a4
   11924:	00b787b3          	add	a5,a5,a1
   11928:	00179713          	slli	a4,a5,0x1
   1192c:	75860793          	addi	a5,a2,1880 # 15758 <h264_dec_mv_array>
   11930:	00f707b3          	add	a5,a4,a5
   11934:	00178783          	lb	a5,1(a5)
   11938:	0007879b          	sext.w	a5,a5
   1193c:	00f687bb          	addw	a5,a3,a5
   11940:	fcf42e23          	sw	a5,-36(s0)
   11944:	0880006f          	j	119cc <h264_dec_decode_one_macroblock+0x15b0>
   11948:	f2843783          	ld	a5,-216(s0)
   1194c:	00c7a703          	lw	a4,12(a5)
   11950:	f2843783          	ld	a5,-216(s0)
   11954:	2287a783          	lw	a5,552(a5)
   11958:	40f707bb          	subw	a5,a4,a5
   1195c:	0007879b          	sext.w	a5,a5
   11960:	01f7d71b          	srliw	a4,a5,0x1f
   11964:	00f707bb          	addw	a5,a4,a5
   11968:	4017d79b          	sraiw	a5,a5,0x1
   1196c:	0007879b          	sext.w	a5,a5
   11970:	fe042703          	lw	a4,-32(s0)
   11974:	00f707bb          	addw	a5,a4,a5
   11978:	0007879b          	sext.w	a5,a5
   1197c:	f7442703          	lw	a4,-140(s0)
   11980:	00f707bb          	addw	a5,a4,a5
   11984:	0007879b          	sext.w	a5,a5
   11988:	f8842703          	lw	a4,-120(s0)
   1198c:	02f707bb          	mulw	a5,a4,a5
   11990:	0007869b          	sext.w	a3,a5
   11994:	00015637          	lui	a2,0x15
   11998:	f6042583          	lw	a1,-160(s0)
   1199c:	f6442703          	lw	a4,-156(s0)
   119a0:	00070793          	mv	a5,a4
   119a4:	00679793          	slli	a5,a5,0x6
   119a8:	00e787b3          	add	a5,a5,a4
   119ac:	00b787b3          	add	a5,a5,a1
   119b0:	00179713          	slli	a4,a5,0x1
   119b4:	75860793          	addi	a5,a2,1880 # 15758 <h264_dec_mv_array>
   119b8:	00f707b3          	add	a5,a4,a5
   119bc:	00178783          	lb	a5,1(a5)
   119c0:	0007879b          	sext.w	a5,a5
   119c4:	00f687bb          	addw	a5,a3,a5
   119c8:	fcf42e23          	sw	a5,-36(s0)
   119cc:	fb842703          	lw	a4,-72(s0)
   119d0:	f9042783          	lw	a5,-112(s0)
   119d4:	02f747bb          	divw	a5,a4,a5
   119d8:	0007871b          	sext.w	a4,a5
   119dc:	f2843783          	ld	a5,-216(s0)
   119e0:	0087a783          	lw	a5,8(a5)
   119e4:	fff7879b          	addiw	a5,a5,-1
   119e8:	0007879b          	sext.w	a5,a5
   119ec:	00078613          	mv	a2,a5
   119f0:	00070693          	mv	a3,a4
   119f4:	0006871b          	sext.w	a4,a3
   119f8:	0006079b          	sext.w	a5,a2
   119fc:	00e7d463          	bge	a5,a4,11a04 <h264_dec_decode_one_macroblock+0x15e8>
   11a00:	00060693          	mv	a3,a2
   11a04:	0006879b          	sext.w	a5,a3
   11a08:	00078713          	mv	a4,a5
   11a0c:	0007079b          	sext.w	a5,a4
   11a10:	0007d463          	bgez	a5,11a18 <h264_dec_decode_one_macroblock+0x15fc>
   11a14:	00000713          	li	a4,0
   11a18:	0007079b          	sext.w	a5,a4
   11a1c:	00078713          	mv	a4,a5
   11a20:	02d00793          	li	a5,45
   11a24:	02f767bb          	remw	a5,a4,a5
   11a28:	f4f42e23          	sw	a5,-164(s0)
   11a2c:	fdc42703          	lw	a4,-36(s0)
   11a30:	f8842783          	lw	a5,-120(s0)
   11a34:	02f747bb          	divw	a5,a4,a5
   11a38:	0007879b          	sext.w	a5,a5
   11a3c:	00078613          	mv	a2,a5
   11a40:	f9c42783          	lw	a5,-100(s0)
   11a44:	0007869b          	sext.w	a3,a5
   11a48:	0006071b          	sext.w	a4,a2
   11a4c:	00d75463          	bge	a4,a3,11a54 <h264_dec_decode_one_macroblock+0x1638>
   11a50:	00060793          	mv	a5,a2
   11a54:	0007879b          	sext.w	a5,a5
   11a58:	00078713          	mv	a4,a5
   11a5c:	0007079b          	sext.w	a5,a4
   11a60:	0007d463          	bgez	a5,11a68 <h264_dec_decode_one_macroblock+0x164c>
   11a64:	00000713          	li	a4,0
   11a68:	0007079b          	sext.w	a5,a4
   11a6c:	00078713          	mv	a4,a5
   11a70:	02d00793          	li	a5,45
   11a74:	02f767bb          	remw	a5,a4,a5
   11a78:	f4f42c23          	sw	a5,-168(s0)
   11a7c:	fb842703          	lw	a4,-72(s0)
   11a80:	f8c42783          	lw	a5,-116(s0)
   11a84:	00f707bb          	addw	a5,a4,a5
   11a88:	0007871b          	sext.w	a4,a5
   11a8c:	f9042783          	lw	a5,-112(s0)
   11a90:	02f747bb          	divw	a5,a4,a5
   11a94:	0007871b          	sext.w	a4,a5
   11a98:	f2843783          	ld	a5,-216(s0)
   11a9c:	0087a783          	lw	a5,8(a5)
   11aa0:	fff7879b          	addiw	a5,a5,-1
   11aa4:	0007879b          	sext.w	a5,a5
   11aa8:	00078613          	mv	a2,a5
   11aac:	00070693          	mv	a3,a4
   11ab0:	0006871b          	sext.w	a4,a3
   11ab4:	0006079b          	sext.w	a5,a2
   11ab8:	00e7d463          	bge	a5,a4,11ac0 <h264_dec_decode_one_macroblock+0x16a4>
   11abc:	00060693          	mv	a3,a2
   11ac0:	0006879b          	sext.w	a5,a3
   11ac4:	00078713          	mv	a4,a5
   11ac8:	0007079b          	sext.w	a5,a4
   11acc:	0007d463          	bgez	a5,11ad4 <h264_dec_decode_one_macroblock+0x16b8>
   11ad0:	00000713          	li	a4,0
   11ad4:	0007079b          	sext.w	a5,a4
   11ad8:	00078713          	mv	a4,a5
   11adc:	02d00793          	li	a5,45
   11ae0:	02f767bb          	remw	a5,a4,a5
   11ae4:	f4f42a23          	sw	a5,-172(s0)
   11ae8:	fdc42703          	lw	a4,-36(s0)
   11aec:	f8442783          	lw	a5,-124(s0)
   11af0:	00f707bb          	addw	a5,a4,a5
   11af4:	0007871b          	sext.w	a4,a5
   11af8:	f8842783          	lw	a5,-120(s0)
   11afc:	02f747bb          	divw	a5,a4,a5
   11b00:	0007879b          	sext.w	a5,a5
   11b04:	00078613          	mv	a2,a5
   11b08:	f9c42783          	lw	a5,-100(s0)
   11b0c:	0007869b          	sext.w	a3,a5
   11b10:	0006071b          	sext.w	a4,a2
   11b14:	00d75463          	bge	a4,a3,11b1c <h264_dec_decode_one_macroblock+0x1700>
   11b18:	00060793          	mv	a5,a2
   11b1c:	0007879b          	sext.w	a5,a5
   11b20:	00078713          	mv	a4,a5
   11b24:	0007079b          	sext.w	a5,a4
   11b28:	0007d463          	bgez	a5,11b30 <h264_dec_decode_one_macroblock+0x1714>
   11b2c:	00000713          	li	a4,0
   11b30:	0007079b          	sext.w	a5,a4
   11b34:	00078713          	mv	a4,a5
   11b38:	02d00793          	li	a5,45
   11b3c:	02f767bb          	remw	a5,a4,a5
   11b40:	f4f42823          	sw	a5,-176(s0)
   11b44:	fb842703          	lw	a4,-72(s0)
   11b48:	f8c42783          	lw	a5,-116(s0)
   11b4c:	00f777b3          	and	a5,a4,a5
   11b50:	f4f42623          	sw	a5,-180(s0)
   11b54:	fdc42703          	lw	a4,-36(s0)
   11b58:	f8442783          	lw	a5,-124(s0)
   11b5c:	00f777b3          	and	a5,a4,a5
   11b60:	f4f42423          	sw	a5,-184(s0)
   11b64:	f9042703          	lw	a4,-112(s0)
   11b68:	f4c42783          	lw	a5,-180(s0)
   11b6c:	40f707bb          	subw	a5,a4,a5
   11b70:	f4f42223          	sw	a5,-188(s0)
   11b74:	f8842703          	lw	a4,-120(s0)
   11b78:	f4842783          	lw	a5,-184(s0)
   11b7c:	40f707bb          	subw	a5,a4,a5
   11b80:	f4f42023          	sw	a5,-192(s0)
   11b84:	f4442703          	lw	a4,-188(s0)
   11b88:	f4042783          	lw	a5,-192(s0)
   11b8c:	02f707bb          	mulw	a5,a4,a5
   11b90:	0007869b          	sext.w	a3,a5
   11b94:	00013637          	lui	a2,0x13
   11b98:	f5c42583          	lw	a1,-164(s0)
   11b9c:	fd842503          	lw	a0,-40(s0)
   11ba0:	f5842703          	lw	a4,-168(s0)
   11ba4:	7e900793          	li	a5,2025
   11ba8:	02f50533          	mul	a0,a0,a5
   11bac:	00070793          	mv	a5,a4
   11bb0:	00179793          	slli	a5,a5,0x1
   11bb4:	00e787b3          	add	a5,a5,a4
   11bb8:	00479713          	slli	a4,a5,0x4
   11bbc:	40f70733          	sub	a4,a4,a5
   11bc0:	00e507b3          	add	a5,a0,a4
   11bc4:	00b787b3          	add	a5,a5,a1
   11bc8:	00179713          	slli	a4,a5,0x1
   11bcc:	01860793          	addi	a5,a2,24 # 13018 <h264_dec_list_imgUV>
   11bd0:	00f707b3          	add	a5,a4,a5
   11bd4:	00079783          	lh	a5,0(a5)
   11bd8:	0007879b          	sext.w	a5,a5
   11bdc:	02f687bb          	mulw	a5,a3,a5
   11be0:	0007869b          	sext.w	a3,a5
   11be4:	f4c42703          	lw	a4,-180(s0)
   11be8:	f4042783          	lw	a5,-192(s0)
   11bec:	02f707bb          	mulw	a5,a4,a5
   11bf0:	0007861b          	sext.w	a2,a5
   11bf4:	000135b7          	lui	a1,0x13
   11bf8:	f5442503          	lw	a0,-172(s0)
   11bfc:	fd842803          	lw	a6,-40(s0)
   11c00:	f5842703          	lw	a4,-168(s0)
   11c04:	7e900793          	li	a5,2025
   11c08:	02f80833          	mul	a6,a6,a5
   11c0c:	00070793          	mv	a5,a4
   11c10:	00179793          	slli	a5,a5,0x1
   11c14:	00e787b3          	add	a5,a5,a4
   11c18:	00479713          	slli	a4,a5,0x4
   11c1c:	40f70733          	sub	a4,a4,a5
   11c20:	00e807b3          	add	a5,a6,a4
   11c24:	00a787b3          	add	a5,a5,a0
   11c28:	00179713          	slli	a4,a5,0x1
   11c2c:	01858793          	addi	a5,a1,24 # 13018 <h264_dec_list_imgUV>
   11c30:	00f707b3          	add	a5,a4,a5
   11c34:	00079783          	lh	a5,0(a5)
   11c38:	0007879b          	sext.w	a5,a5
   11c3c:	02f607bb          	mulw	a5,a2,a5
   11c40:	0007879b          	sext.w	a5,a5
   11c44:	00f687bb          	addw	a5,a3,a5
   11c48:	0007869b          	sext.w	a3,a5
   11c4c:	f4442703          	lw	a4,-188(s0)
   11c50:	f4842783          	lw	a5,-184(s0)
   11c54:	02f707bb          	mulw	a5,a4,a5
   11c58:	0007861b          	sext.w	a2,a5
   11c5c:	000135b7          	lui	a1,0x13
   11c60:	f5c42503          	lw	a0,-164(s0)
   11c64:	fd842803          	lw	a6,-40(s0)
   11c68:	f5042703          	lw	a4,-176(s0)
   11c6c:	7e900793          	li	a5,2025
   11c70:	02f80833          	mul	a6,a6,a5
   11c74:	00070793          	mv	a5,a4
   11c78:	00179793          	slli	a5,a5,0x1
   11c7c:	00e787b3          	add	a5,a5,a4
   11c80:	00479713          	slli	a4,a5,0x4
   11c84:	40f70733          	sub	a4,a4,a5
   11c88:	00e807b3          	add	a5,a6,a4
   11c8c:	00a787b3          	add	a5,a5,a0
   11c90:	00179713          	slli	a4,a5,0x1
   11c94:	01858793          	addi	a5,a1,24 # 13018 <h264_dec_list_imgUV>
   11c98:	00f707b3          	add	a5,a4,a5
   11c9c:	00079783          	lh	a5,0(a5)
   11ca0:	0007879b          	sext.w	a5,a5
   11ca4:	02f607bb          	mulw	a5,a2,a5
   11ca8:	0007879b          	sext.w	a5,a5
   11cac:	00f687bb          	addw	a5,a3,a5
   11cb0:	0007869b          	sext.w	a3,a5
   11cb4:	f4c42703          	lw	a4,-180(s0)
   11cb8:	f4842783          	lw	a5,-184(s0)
   11cbc:	02f707bb          	mulw	a5,a4,a5
   11cc0:	0007861b          	sext.w	a2,a5
   11cc4:	000135b7          	lui	a1,0x13
   11cc8:	f5442503          	lw	a0,-172(s0)
   11ccc:	fd842803          	lw	a6,-40(s0)
   11cd0:	f5042703          	lw	a4,-176(s0)
   11cd4:	7e900793          	li	a5,2025
   11cd8:	02f80833          	mul	a6,a6,a5
   11cdc:	00070793          	mv	a5,a4
   11ce0:	00179793          	slli	a5,a5,0x1
   11ce4:	00e787b3          	add	a5,a5,a4
   11ce8:	00479713          	slli	a4,a5,0x4
   11cec:	40f70733          	sub	a4,a4,a5
   11cf0:	00e807b3          	add	a5,a6,a4
   11cf4:	00a787b3          	add	a5,a5,a0
   11cf8:	00179713          	slli	a4,a5,0x1
   11cfc:	01858793          	addi	a5,a1,24 # 13018 <h264_dec_list_imgUV>
   11d00:	00f707b3          	add	a5,a4,a5
   11d04:	00079783          	lh	a5,0(a5)
   11d08:	0007879b          	sext.w	a5,a5
   11d0c:	02f607bb          	mulw	a5,a2,a5
   11d10:	0007879b          	sext.w	a5,a5
   11d14:	00f687bb          	addw	a5,a3,a5
   11d18:	0007879b          	sext.w	a5,a5
   11d1c:	f7c42703          	lw	a4,-132(s0)
   11d20:	00f707bb          	addw	a5,a4,a5
   11d24:	0007871b          	sext.w	a4,a5
   11d28:	f8042783          	lw	a5,-128(s0)
   11d2c:	02f747bb          	divw	a5,a4,a5
   11d30:	fcf42823          	sw	a5,-48(s0)
   11d34:	f2843783          	ld	a5,-216(s0)
   11d38:	0107a783          	lw	a5,16(a5)
   11d3c:	fe442703          	lw	a4,-28(s0)
   11d40:	00f707bb          	addw	a5,a4,a5
   11d44:	0007879b          	sext.w	a5,a5
   11d48:	f7042703          	lw	a4,-144(s0)
   11d4c:	00f707bb          	addw	a5,a4,a5
   11d50:	0007879b          	sext.w	a5,a5
   11d54:	f9042703          	lw	a4,-112(s0)
   11d58:	02f707bb          	mulw	a5,a4,a5
   11d5c:	0007869b          	sext.w	a3,a5
   11d60:	00015637          	lui	a2,0x15
   11d64:	f6042583          	lw	a1,-160(s0)
   11d68:	f6442703          	lw	a4,-156(s0)
   11d6c:	00070793          	mv	a5,a4
   11d70:	00679793          	slli	a5,a5,0x6
   11d74:	00e787b3          	add	a5,a5,a4
   11d78:	00b787b3          	add	a5,a5,a1
   11d7c:	00179713          	slli	a4,a5,0x1
   11d80:	75860793          	addi	a5,a2,1880 # 15758 <h264_dec_mv_array>
   11d84:	00f707b3          	add	a5,a4,a5
   11d88:	00078783          	lb	a5,0(a5)
   11d8c:	0007879b          	sext.w	a5,a5
   11d90:	00f687bb          	addw	a5,a3,a5
   11d94:	faf42c23          	sw	a5,-72(s0)
   11d98:	f9842783          	lw	a5,-104(s0)
   11d9c:	0007879b          	sext.w	a5,a5
   11da0:	06079663          	bnez	a5,11e0c <h264_dec_decode_one_macroblock+0x19f0>
   11da4:	f2843783          	ld	a5,-216(s0)
   11da8:	00c7a783          	lw	a5,12(a5)
   11dac:	fe042703          	lw	a4,-32(s0)
   11db0:	00f707bb          	addw	a5,a4,a5
   11db4:	0007879b          	sext.w	a5,a5
   11db8:	f7442703          	lw	a4,-140(s0)
   11dbc:	00f707bb          	addw	a5,a4,a5
   11dc0:	0007879b          	sext.w	a5,a5
   11dc4:	f8842703          	lw	a4,-120(s0)
   11dc8:	02f707bb          	mulw	a5,a4,a5
   11dcc:	0007869b          	sext.w	a3,a5
   11dd0:	00015637          	lui	a2,0x15
   11dd4:	f6042583          	lw	a1,-160(s0)
   11dd8:	f6442703          	lw	a4,-156(s0)
   11ddc:	00070793          	mv	a5,a4
   11de0:	00679793          	slli	a5,a5,0x6
   11de4:	00e787b3          	add	a5,a5,a4
   11de8:	00b787b3          	add	a5,a5,a1
   11dec:	00179713          	slli	a4,a5,0x1
   11df0:	75860793          	addi	a5,a2,1880 # 15758 <h264_dec_mv_array>
   11df4:	00f707b3          	add	a5,a4,a5
   11df8:	00178783          	lb	a5,1(a5)
   11dfc:	0007879b          	sext.w	a5,a5
   11e00:	00f687bb          	addw	a5,a3,a5
   11e04:	fcf42e23          	sw	a5,-36(s0)
   11e08:	1100006f          	j	11f18 <h264_dec_decode_one_macroblock+0x1afc>
   11e0c:	fc842783          	lw	a5,-56(s0)
   11e10:	0017f793          	andi	a5,a5,1
   11e14:	0007879b          	sext.w	a5,a5
   11e18:	06079e63          	bnez	a5,11e94 <h264_dec_decode_one_macroblock+0x1a78>
   11e1c:	f2843783          	ld	a5,-216(s0)
   11e20:	00c7a783          	lw	a5,12(a5)
   11e24:	01f7d71b          	srliw	a4,a5,0x1f
   11e28:	00f707bb          	addw	a5,a4,a5
   11e2c:	4017d79b          	sraiw	a5,a5,0x1
   11e30:	0007879b          	sext.w	a5,a5
   11e34:	fe042703          	lw	a4,-32(s0)
   11e38:	00f707bb          	addw	a5,a4,a5
   11e3c:	0007879b          	sext.w	a5,a5
   11e40:	f7442703          	lw	a4,-140(s0)
   11e44:	00f707bb          	addw	a5,a4,a5
   11e48:	0007879b          	sext.w	a5,a5
   11e4c:	f8842703          	lw	a4,-120(s0)
   11e50:	02f707bb          	mulw	a5,a4,a5
   11e54:	0007869b          	sext.w	a3,a5
   11e58:	00015637          	lui	a2,0x15
   11e5c:	f6042583          	lw	a1,-160(s0)
   11e60:	f6442703          	lw	a4,-156(s0)
   11e64:	00070793          	mv	a5,a4
   11e68:	00679793          	slli	a5,a5,0x6
   11e6c:	00e787b3          	add	a5,a5,a4
   11e70:	00b787b3          	add	a5,a5,a1
   11e74:	00179713          	slli	a4,a5,0x1
   11e78:	75860793          	addi	a5,a2,1880 # 15758 <h264_dec_mv_array>
   11e7c:	00f707b3          	add	a5,a4,a5
   11e80:	00178783          	lb	a5,1(a5)
   11e84:	0007879b          	sext.w	a5,a5
   11e88:	00f687bb          	addw	a5,a3,a5
   11e8c:	fcf42e23          	sw	a5,-36(s0)
   11e90:	0880006f          	j	11f18 <h264_dec_decode_one_macroblock+0x1afc>
   11e94:	f2843783          	ld	a5,-216(s0)
   11e98:	00c7a703          	lw	a4,12(a5)
   11e9c:	f2843783          	ld	a5,-216(s0)
   11ea0:	2287a783          	lw	a5,552(a5)
   11ea4:	40f707bb          	subw	a5,a4,a5
   11ea8:	0007879b          	sext.w	a5,a5
   11eac:	01f7d71b          	srliw	a4,a5,0x1f
   11eb0:	00f707bb          	addw	a5,a4,a5
   11eb4:	4017d79b          	sraiw	a5,a5,0x1
   11eb8:	0007879b          	sext.w	a5,a5
   11ebc:	fe042703          	lw	a4,-32(s0)
   11ec0:	00f707bb          	addw	a5,a4,a5
   11ec4:	0007879b          	sext.w	a5,a5
   11ec8:	f7442703          	lw	a4,-140(s0)
   11ecc:	00f707bb          	addw	a5,a4,a5
   11ed0:	0007879b          	sext.w	a5,a5
   11ed4:	f8842703          	lw	a4,-120(s0)
   11ed8:	02f707bb          	mulw	a5,a4,a5
   11edc:	0007869b          	sext.w	a3,a5
   11ee0:	00015637          	lui	a2,0x15
   11ee4:	f6042583          	lw	a1,-160(s0)
   11ee8:	f6442703          	lw	a4,-156(s0)
   11eec:	00070793          	mv	a5,a4
   11ef0:	00679793          	slli	a5,a5,0x6
   11ef4:	00e787b3          	add	a5,a5,a4
   11ef8:	00b787b3          	add	a5,a5,a1
   11efc:	00179713          	slli	a4,a5,0x1
   11f00:	75860793          	addi	a5,a2,1880 # 15758 <h264_dec_mv_array>
   11f04:	00f707b3          	add	a5,a4,a5
   11f08:	00178783          	lb	a5,1(a5)
   11f0c:	0007879b          	sext.w	a5,a5
   11f10:	00f687bb          	addw	a5,a3,a5
   11f14:	fcf42e23          	sw	a5,-36(s0)
   11f18:	fb842703          	lw	a4,-72(s0)
   11f1c:	f9042783          	lw	a5,-112(s0)
   11f20:	02f747bb          	divw	a5,a4,a5
   11f24:	0007871b          	sext.w	a4,a5
   11f28:	f2843783          	ld	a5,-216(s0)
   11f2c:	0087a783          	lw	a5,8(a5)
   11f30:	fff7879b          	addiw	a5,a5,-1
   11f34:	0007879b          	sext.w	a5,a5
   11f38:	00078613          	mv	a2,a5
   11f3c:	00070693          	mv	a3,a4
   11f40:	0006871b          	sext.w	a4,a3
   11f44:	0006079b          	sext.w	a5,a2
   11f48:	00e7d463          	bge	a5,a4,11f50 <h264_dec_decode_one_macroblock+0x1b34>
   11f4c:	00060693          	mv	a3,a2
   11f50:	0006879b          	sext.w	a5,a3
   11f54:	00078713          	mv	a4,a5
   11f58:	0007079b          	sext.w	a5,a4
   11f5c:	0007d463          	bgez	a5,11f64 <h264_dec_decode_one_macroblock+0x1b48>
   11f60:	00000713          	li	a4,0
   11f64:	0007079b          	sext.w	a5,a4
   11f68:	00078713          	mv	a4,a5
   11f6c:	02d00793          	li	a5,45
   11f70:	02f767bb          	remw	a5,a4,a5
   11f74:	f4f42e23          	sw	a5,-164(s0)
   11f78:	fdc42703          	lw	a4,-36(s0)
   11f7c:	f8842783          	lw	a5,-120(s0)
   11f80:	02f747bb          	divw	a5,a4,a5
   11f84:	0007879b          	sext.w	a5,a5
   11f88:	00078613          	mv	a2,a5
   11f8c:	f9c42783          	lw	a5,-100(s0)
   11f90:	0007869b          	sext.w	a3,a5
   11f94:	0006071b          	sext.w	a4,a2
   11f98:	00d75463          	bge	a4,a3,11fa0 <h264_dec_decode_one_macroblock+0x1b84>
   11f9c:	00060793          	mv	a5,a2
   11fa0:	0007879b          	sext.w	a5,a5
   11fa4:	00078713          	mv	a4,a5
   11fa8:	0007079b          	sext.w	a5,a4
   11fac:	0007d463          	bgez	a5,11fb4 <h264_dec_decode_one_macroblock+0x1b98>
   11fb0:	00000713          	li	a4,0
   11fb4:	0007079b          	sext.w	a5,a4
   11fb8:	00078713          	mv	a4,a5
   11fbc:	02d00793          	li	a5,45
   11fc0:	02f767bb          	remw	a5,a4,a5
   11fc4:	f4f42c23          	sw	a5,-168(s0)
   11fc8:	fb842703          	lw	a4,-72(s0)
   11fcc:	f8c42783          	lw	a5,-116(s0)
   11fd0:	00f707bb          	addw	a5,a4,a5
   11fd4:	0007871b          	sext.w	a4,a5
   11fd8:	f9042783          	lw	a5,-112(s0)
   11fdc:	02f747bb          	divw	a5,a4,a5
   11fe0:	0007871b          	sext.w	a4,a5
   11fe4:	f2843783          	ld	a5,-216(s0)
   11fe8:	0087a783          	lw	a5,8(a5)
   11fec:	fff7879b          	addiw	a5,a5,-1
   11ff0:	0007879b          	sext.w	a5,a5
   11ff4:	00078613          	mv	a2,a5
   11ff8:	00070693          	mv	a3,a4
   11ffc:	0006871b          	sext.w	a4,a3
   12000:	0006079b          	sext.w	a5,a2
   12004:	00e7d463          	bge	a5,a4,1200c <h264_dec_decode_one_macroblock+0x1bf0>
   12008:	00060693          	mv	a3,a2
   1200c:	0006879b          	sext.w	a5,a3
   12010:	00078713          	mv	a4,a5
   12014:	0007079b          	sext.w	a5,a4
   12018:	0007d463          	bgez	a5,12020 <h264_dec_decode_one_macroblock+0x1c04>
   1201c:	00000713          	li	a4,0
   12020:	0007079b          	sext.w	a5,a4
   12024:	00078713          	mv	a4,a5
   12028:	02d00793          	li	a5,45
   1202c:	02f767bb          	remw	a5,a4,a5
   12030:	f4f42a23          	sw	a5,-172(s0)
   12034:	fdc42703          	lw	a4,-36(s0)
   12038:	f8442783          	lw	a5,-124(s0)
   1203c:	00f707bb          	addw	a5,a4,a5
   12040:	0007871b          	sext.w	a4,a5
   12044:	f8842783          	lw	a5,-120(s0)
   12048:	02f747bb          	divw	a5,a4,a5
   1204c:	0007879b          	sext.w	a5,a5
   12050:	00078613          	mv	a2,a5
   12054:	f9c42783          	lw	a5,-100(s0)
   12058:	0007869b          	sext.w	a3,a5
   1205c:	0006071b          	sext.w	a4,a2
   12060:	00d75463          	bge	a4,a3,12068 <h264_dec_decode_one_macroblock+0x1c4c>
   12064:	00060793          	mv	a5,a2
   12068:	0007879b          	sext.w	a5,a5
   1206c:	00078713          	mv	a4,a5
   12070:	0007079b          	sext.w	a5,a4
   12074:	0007d463          	bgez	a5,1207c <h264_dec_decode_one_macroblock+0x1c60>
   12078:	00000713          	li	a4,0
   1207c:	0007079b          	sext.w	a5,a4
   12080:	00078713          	mv	a4,a5
   12084:	02d00793          	li	a5,45
   12088:	02f767bb          	remw	a5,a4,a5
   1208c:	f4f42823          	sw	a5,-176(s0)
   12090:	fb842703          	lw	a4,-72(s0)
   12094:	f8c42783          	lw	a5,-116(s0)
   12098:	00f777b3          	and	a5,a4,a5
   1209c:	f4f42623          	sw	a5,-180(s0)
   120a0:	fdc42703          	lw	a4,-36(s0)
   120a4:	f8442783          	lw	a5,-124(s0)
   120a8:	00f777b3          	and	a5,a4,a5
   120ac:	f4f42423          	sw	a5,-184(s0)
   120b0:	f9042703          	lw	a4,-112(s0)
   120b4:	f4c42783          	lw	a5,-180(s0)
   120b8:	40f707bb          	subw	a5,a4,a5
   120bc:	f4f42223          	sw	a5,-188(s0)
   120c0:	f8842703          	lw	a4,-120(s0)
   120c4:	f4842783          	lw	a5,-184(s0)
   120c8:	40f707bb          	subw	a5,a4,a5
   120cc:	f4f42023          	sw	a5,-192(s0)
   120d0:	f4442703          	lw	a4,-188(s0)
   120d4:	f4042783          	lw	a5,-192(s0)
   120d8:	02f707bb          	mulw	a5,a4,a5
   120dc:	0007869b          	sext.w	a3,a5
   120e0:	00013637          	lui	a2,0x13
   120e4:	f5c42583          	lw	a1,-164(s0)
   120e8:	fd842503          	lw	a0,-40(s0)
   120ec:	f5842703          	lw	a4,-168(s0)
   120f0:	7e900793          	li	a5,2025
   120f4:	02f50533          	mul	a0,a0,a5
   120f8:	00070793          	mv	a5,a4
   120fc:	00179793          	slli	a5,a5,0x1
   12100:	00e787b3          	add	a5,a5,a4
   12104:	00479713          	slli	a4,a5,0x4
   12108:	40f70733          	sub	a4,a4,a5
   1210c:	00e507b3          	add	a5,a0,a4
   12110:	00b787b3          	add	a5,a5,a1
   12114:	00179713          	slli	a4,a5,0x1
   12118:	01860793          	addi	a5,a2,24 # 13018 <h264_dec_list_imgUV>
   1211c:	00f707b3          	add	a5,a4,a5
   12120:	00079783          	lh	a5,0(a5)
   12124:	0007879b          	sext.w	a5,a5
   12128:	02f687bb          	mulw	a5,a3,a5
   1212c:	0007869b          	sext.w	a3,a5
   12130:	f4c42703          	lw	a4,-180(s0)
   12134:	f4042783          	lw	a5,-192(s0)
   12138:	02f707bb          	mulw	a5,a4,a5
   1213c:	0007861b          	sext.w	a2,a5
   12140:	000135b7          	lui	a1,0x13
   12144:	f5442503          	lw	a0,-172(s0)
   12148:	fd842803          	lw	a6,-40(s0)
   1214c:	f5842703          	lw	a4,-168(s0)
   12150:	7e900793          	li	a5,2025
   12154:	02f80833          	mul	a6,a6,a5
   12158:	00070793          	mv	a5,a4
   1215c:	00179793          	slli	a5,a5,0x1
   12160:	00e787b3          	add	a5,a5,a4
   12164:	00479713          	slli	a4,a5,0x4
   12168:	40f70733          	sub	a4,a4,a5
   1216c:	00e807b3          	add	a5,a6,a4
   12170:	00a787b3          	add	a5,a5,a0
   12174:	00179713          	slli	a4,a5,0x1
   12178:	01858793          	addi	a5,a1,24 # 13018 <h264_dec_list_imgUV>
   1217c:	00f707b3          	add	a5,a4,a5
   12180:	00079783          	lh	a5,0(a5)
   12184:	0007879b          	sext.w	a5,a5
   12188:	02f607bb          	mulw	a5,a2,a5
   1218c:	0007879b          	sext.w	a5,a5
   12190:	00f687bb          	addw	a5,a3,a5
   12194:	0007869b          	sext.w	a3,a5
   12198:	f4442703          	lw	a4,-188(s0)
   1219c:	f4842783          	lw	a5,-184(s0)
   121a0:	02f707bb          	mulw	a5,a4,a5
   121a4:	0007861b          	sext.w	a2,a5
   121a8:	000135b7          	lui	a1,0x13
   121ac:	f5c42503          	lw	a0,-164(s0)
   121b0:	fd842803          	lw	a6,-40(s0)
   121b4:	f5042703          	lw	a4,-176(s0)
   121b8:	7e900793          	li	a5,2025
   121bc:	02f80833          	mul	a6,a6,a5
   121c0:	00070793          	mv	a5,a4
   121c4:	00179793          	slli	a5,a5,0x1
   121c8:	00e787b3          	add	a5,a5,a4
   121cc:	00479713          	slli	a4,a5,0x4
   121d0:	40f70733          	sub	a4,a4,a5
   121d4:	00e807b3          	add	a5,a6,a4
   121d8:	00a787b3          	add	a5,a5,a0
   121dc:	00179713          	slli	a4,a5,0x1
   121e0:	01858793          	addi	a5,a1,24 # 13018 <h264_dec_list_imgUV>
   121e4:	00f707b3          	add	a5,a4,a5
   121e8:	00079783          	lh	a5,0(a5)
   121ec:	0007879b          	sext.w	a5,a5
   121f0:	02f607bb          	mulw	a5,a2,a5
   121f4:	0007879b          	sext.w	a5,a5
   121f8:	00f687bb          	addw	a5,a3,a5
   121fc:	0007869b          	sext.w	a3,a5
   12200:	f4c42703          	lw	a4,-180(s0)
   12204:	f4842783          	lw	a5,-184(s0)
   12208:	02f707bb          	mulw	a5,a4,a5
   1220c:	0007861b          	sext.w	a2,a5
   12210:	000135b7          	lui	a1,0x13
   12214:	f5442503          	lw	a0,-172(s0)
   12218:	fd842803          	lw	a6,-40(s0)
   1221c:	f5042703          	lw	a4,-176(s0)
   12220:	7e900793          	li	a5,2025
   12224:	02f80833          	mul	a6,a6,a5
   12228:	00070793          	mv	a5,a4
   1222c:	00179793          	slli	a5,a5,0x1
   12230:	00e787b3          	add	a5,a5,a4
   12234:	00479713          	slli	a4,a5,0x4
   12238:	40f70733          	sub	a4,a4,a5
   1223c:	00e807b3          	add	a5,a6,a4
   12240:	00a787b3          	add	a5,a5,a0
   12244:	00179713          	slli	a4,a5,0x1
   12248:	01858793          	addi	a5,a1,24 # 13018 <h264_dec_list_imgUV>
   1224c:	00f707b3          	add	a5,a4,a5
   12250:	00079783          	lh	a5,0(a5)
   12254:	0007879b          	sext.w	a5,a5
   12258:	02f607bb          	mulw	a5,a2,a5
   1225c:	0007879b          	sext.w	a5,a5
   12260:	00f687bb          	addw	a5,a3,a5
   12264:	0007879b          	sext.w	a5,a5
   12268:	f7c42703          	lw	a4,-132(s0)
   1226c:	00f707bb          	addw	a5,a4,a5
   12270:	0007871b          	sext.w	a4,a5
   12274:	f8042783          	lw	a5,-128(s0)
   12278:	02f747bb          	divw	a5,a4,a5
   1227c:	fcf42a23          	sw	a5,-44(s0)
   12280:	0080006f          	j	12288 <h264_dec_decode_one_macroblock+0x1e6c>
   12284:	00000013          	nop
   12288:	f2843783          	ld	a5,-216(s0)
   1228c:	21c7a783          	lw	a5,540(a5)
   12290:	24078a63          	beqz	a5,124e4 <h264_dec_decode_one_macroblock+0x20c8>
   12294:	fa641783          	lh	a5,-90(s0)
   12298:	0007879b          	sext.w	a5,a5
   1229c:	02078263          	beqz	a5,122c0 <h264_dec_decode_one_macroblock+0x1ea4>
   122a0:	f2843783          	ld	a5,-216(s0)
   122a4:	0047a783          	lw	a5,4(a5)
   122a8:	02078e63          	beqz	a5,122e4 <h264_dec_decode_one_macroblock+0x1ec8>
   122ac:	f2843783          	ld	a5,-216(s0)
   122b0:	0047a783          	lw	a5,4(a5)
   122b4:	00078713          	mv	a4,a5
   122b8:	00300793          	li	a5,3
   122bc:	02f70463          	beq	a4,a5,122e4 <h264_dec_decode_one_macroblock+0x1ec8>
   122c0:	fa441783          	lh	a5,-92(s0)
   122c4:	0007871b          	sext.w	a4,a5
   122c8:	00100793          	li	a5,1
   122cc:	02f71e63          	bne	a4,a5,12308 <h264_dec_decode_one_macroblock+0x1eec>
   122d0:	f2843783          	ld	a5,-216(s0)
   122d4:	0047a783          	lw	a5,4(a5)
   122d8:	00078713          	mv	a4,a5
   122dc:	00100793          	li	a5,1
   122e0:	02f71463          	bne	a4,a5,12308 <h264_dec_decode_one_macroblock+0x1eec>
   122e4:	f9842783          	lw	a5,-104(s0)
   122e8:	0007879b          	sext.w	a5,a5
   122ec:	00078e63          	beqz	a5,12308 <h264_dec_decode_one_macroblock+0x1eec>
   122f0:	fce41783          	lh	a5,-50(s0)
   122f4:	4017d79b          	sraiw	a5,a5,0x1
   122f8:	fcf41723          	sh	a5,-50(s0)
   122fc:	fcc41783          	lh	a5,-52(s0)
   12300:	4017d79b          	sraiw	a5,a5,0x1
   12304:	fcf41623          	sh	a5,-52(s0)
   12308:	f2843783          	ld	a5,-216(s0)
   1230c:	0007a783          	lw	a5,0(a5)
   12310:	08078463          	beqz	a5,12398 <h264_dec_decode_one_macroblock+0x1f7c>
   12314:	fc442783          	lw	a5,-60(s0)
   12318:	0007871b          	sext.w	a4,a5
   1231c:	00100793          	li	a5,1
   12320:	06f71c63          	bne	a4,a5,12398 <h264_dec_decode_one_macroblock+0x1f7c>
   12324:	f2843783          	ld	a5,-216(s0)
   12328:	2187a703          	lw	a4,536(a5)
   1232c:	f2843783          	ld	a5,-216(s0)
   12330:	2147a783          	lw	a5,532(a5)
   12334:	40f757bb          	sraw	a5,a4,a5
   12338:	0007879b          	sext.w	a5,a5
   1233c:	00078713          	mv	a4,a5
   12340:	0007079b          	sext.w	a5,a4
   12344:	0007d463          	bgez	a5,1234c <h264_dec_decode_one_macroblock+0x1f30>
   12348:	00000713          	li	a4,0
   1234c:	0007069b          	sext.w	a3,a4
   12350:	fe442703          	lw	a4,-28(s0)
   12354:	f7042783          	lw	a5,-144(s0)
   12358:	00f707bb          	addw	a5,a4,a5
   1235c:	0007861b          	sext.w	a2,a5
   12360:	fe042703          	lw	a4,-32(s0)
   12364:	f7442783          	lw	a5,-140(s0)
   12368:	00f707bb          	addw	a5,a4,a5
   1236c:	0007879b          	sext.w	a5,a5
   12370:	03069713          	slli	a4,a3,0x30
   12374:	03075713          	srli	a4,a4,0x30
   12378:	f2843683          	ld	a3,-216(s0)
   1237c:	00461613          	slli	a2,a2,0x4
   12380:	00f607b3          	add	a5,a2,a5
   12384:	00878793          	addi	a5,a5,8
   12388:	00179793          	slli	a5,a5,0x1
   1238c:	00f687b3          	add	a5,a3,a5
   12390:	00e79223          	sh	a4,4(a5)
   12394:	2880006f          	j	1261c <h264_dec_decode_one_macroblock+0x2200>
   12398:	f2843783          	ld	a5,-216(s0)
   1239c:	0007a783          	lw	a5,0(a5)
   123a0:	08078263          	beqz	a5,12424 <h264_dec_decode_one_macroblock+0x2008>
   123a4:	fc442783          	lw	a5,-60(s0)
   123a8:	0007879b          	sext.w	a5,a5
   123ac:	06079c63          	bnez	a5,12424 <h264_dec_decode_one_macroblock+0x2008>
   123b0:	f2843783          	ld	a5,-216(s0)
   123b4:	2187a703          	lw	a4,536(a5)
   123b8:	f2843783          	ld	a5,-216(s0)
   123bc:	2147a783          	lw	a5,532(a5)
   123c0:	40f757bb          	sraw	a5,a4,a5
   123c4:	0007879b          	sext.w	a5,a5
   123c8:	00078713          	mv	a4,a5
   123cc:	0007079b          	sext.w	a5,a4
   123d0:	0007d463          	bgez	a5,123d8 <h264_dec_decode_one_macroblock+0x1fbc>
   123d4:	00000713          	li	a4,0
   123d8:	0007069b          	sext.w	a3,a4
   123dc:	fe442703          	lw	a4,-28(s0)
   123e0:	f7042783          	lw	a5,-144(s0)
   123e4:	00f707bb          	addw	a5,a4,a5
   123e8:	0007861b          	sext.w	a2,a5
   123ec:	fe042703          	lw	a4,-32(s0)
   123f0:	f7442783          	lw	a5,-140(s0)
   123f4:	00f707bb          	addw	a5,a4,a5
   123f8:	0007879b          	sext.w	a5,a5
   123fc:	03069713          	slli	a4,a3,0x30
   12400:	03075713          	srli	a4,a4,0x30
   12404:	f2843683          	ld	a3,-216(s0)
   12408:	00461613          	slli	a2,a2,0x4
   1240c:	00f607b3          	add	a5,a2,a5
   12410:	00878793          	addi	a5,a5,8
   12414:	00179793          	slli	a5,a5,0x1
   12418:	00f687b3          	add	a5,a3,a5
   1241c:	00e79223          	sh	a4,4(a5)
   12420:	1fc0006f          	j	1261c <h264_dec_decode_one_macroblock+0x2200>
   12424:	f2042e23          	sw	zero,-196(s0)
   12428:	f2042c23          	sw	zero,-200(s0)
   1242c:	f3c42703          	lw	a4,-196(s0)
   12430:	fd042783          	lw	a5,-48(s0)
   12434:	02f707bb          	mulw	a5,a4,a5
   12438:	0007871b          	sext.w	a4,a5
   1243c:	f3842683          	lw	a3,-200(s0)
   12440:	fd442783          	lw	a5,-44(s0)
   12444:	02f687bb          	mulw	a5,a3,a5
   12448:	0007879b          	sext.w	a5,a5
   1244c:	00f707bb          	addw	a5,a4,a5
   12450:	0007871b          	sext.w	a4,a5
   12454:	f2843783          	ld	a5,-216(s0)
   12458:	2147a783          	lw	a5,532(a5)
   1245c:	00100693          	li	a3,1
   12460:	00f697bb          	sllw	a5,a3,a5
   12464:	0007879b          	sext.w	a5,a5
   12468:	00f707bb          	addw	a5,a4,a5
   1246c:	0007871b          	sext.w	a4,a5
   12470:	f2843783          	ld	a5,-216(s0)
   12474:	2147a783          	lw	a5,532(a5)
   12478:	0017879b          	addiw	a5,a5,1
   1247c:	0007879b          	sext.w	a5,a5
   12480:	40f757bb          	sraw	a5,a4,a5
   12484:	0007879b          	sext.w	a5,a5
   12488:	00078713          	mv	a4,a5
   1248c:	0007079b          	sext.w	a5,a4
   12490:	0007d463          	bgez	a5,12498 <h264_dec_decode_one_macroblock+0x207c>
   12494:	00000713          	li	a4,0
   12498:	0007069b          	sext.w	a3,a4
   1249c:	fe442703          	lw	a4,-28(s0)
   124a0:	f7042783          	lw	a5,-144(s0)
   124a4:	00f707bb          	addw	a5,a4,a5
   124a8:	0007861b          	sext.w	a2,a5
   124ac:	fe042703          	lw	a4,-32(s0)
   124b0:	f7442783          	lw	a5,-140(s0)
   124b4:	00f707bb          	addw	a5,a4,a5
   124b8:	0007879b          	sext.w	a5,a5
   124bc:	03069713          	slli	a4,a3,0x30
   124c0:	03075713          	srli	a4,a4,0x30
   124c4:	f2843683          	ld	a3,-216(s0)
   124c8:	00461613          	slli	a2,a2,0x4
   124cc:	00f607b3          	add	a5,a2,a5
   124d0:	00878793          	addi	a5,a5,8
   124d4:	00179793          	slli	a5,a5,0x1
   124d8:	00f687b3          	add	a5,a3,a5
   124dc:	00e79223          	sh	a4,4(a5)
   124e0:	13c0006f          	j	1261c <h264_dec_decode_one_macroblock+0x2200>
   124e4:	f2843783          	ld	a5,-216(s0)
   124e8:	0007a783          	lw	a5,0(a5)
   124ec:	06078063          	beqz	a5,1254c <h264_dec_decode_one_macroblock+0x2130>
   124f0:	fc442783          	lw	a5,-60(s0)
   124f4:	0007871b          	sext.w	a4,a5
   124f8:	00100793          	li	a5,1
   124fc:	04f71863          	bne	a4,a5,1254c <h264_dec_decode_one_macroblock+0x2130>
   12500:	fe442703          	lw	a4,-28(s0)
   12504:	f7042783          	lw	a5,-144(s0)
   12508:	00f707bb          	addw	a5,a4,a5
   1250c:	0007861b          	sext.w	a2,a5
   12510:	fe042703          	lw	a4,-32(s0)
   12514:	f7442783          	lw	a5,-140(s0)
   12518:	00f707bb          	addw	a5,a4,a5
   1251c:	0007879b          	sext.w	a5,a5
   12520:	fd442703          	lw	a4,-44(s0)
   12524:	03071713          	slli	a4,a4,0x30
   12528:	03075713          	srli	a4,a4,0x30
   1252c:	f2843683          	ld	a3,-216(s0)
   12530:	00461613          	slli	a2,a2,0x4
   12534:	00f607b3          	add	a5,a2,a5
   12538:	00878793          	addi	a5,a5,8
   1253c:	00179793          	slli	a5,a5,0x1
   12540:	00f687b3          	add	a5,a3,a5
   12544:	00e79223          	sh	a4,4(a5)
   12548:	0d40006f          	j	1261c <h264_dec_decode_one_macroblock+0x2200>
   1254c:	f2843783          	ld	a5,-216(s0)
   12550:	0007a783          	lw	a5,0(a5)
   12554:	04078e63          	beqz	a5,125b0 <h264_dec_decode_one_macroblock+0x2194>
   12558:	fc442783          	lw	a5,-60(s0)
   1255c:	0007879b          	sext.w	a5,a5
   12560:	04079863          	bnez	a5,125b0 <h264_dec_decode_one_macroblock+0x2194>
   12564:	fe442703          	lw	a4,-28(s0)
   12568:	f7042783          	lw	a5,-144(s0)
   1256c:	00f707bb          	addw	a5,a4,a5
   12570:	0007861b          	sext.w	a2,a5
   12574:	fe042703          	lw	a4,-32(s0)
   12578:	f7442783          	lw	a5,-140(s0)
   1257c:	00f707bb          	addw	a5,a4,a5
   12580:	0007879b          	sext.w	a5,a5
   12584:	fd042703          	lw	a4,-48(s0)
   12588:	03071713          	slli	a4,a4,0x30
   1258c:	03075713          	srli	a4,a4,0x30
   12590:	f2843683          	ld	a3,-216(s0)
   12594:	00461613          	slli	a2,a2,0x4
   12598:	00f607b3          	add	a5,a2,a5
   1259c:	00878793          	addi	a5,a5,8
   125a0:	00179793          	slli	a5,a5,0x1
   125a4:	00f687b3          	add	a5,a3,a5
   125a8:	00e79223          	sh	a4,4(a5)
   125ac:	0700006f          	j	1261c <h264_dec_decode_one_macroblock+0x2200>
   125b0:	fd042703          	lw	a4,-48(s0)
   125b4:	fd442783          	lw	a5,-44(s0)
   125b8:	00f707bb          	addw	a5,a4,a5
   125bc:	0007879b          	sext.w	a5,a5
   125c0:	0017879b          	addiw	a5,a5,1
   125c4:	0007879b          	sext.w	a5,a5
   125c8:	01f7d71b          	srliw	a4,a5,0x1f
   125cc:	00f707bb          	addw	a5,a4,a5
   125d0:	4017d79b          	sraiw	a5,a5,0x1
   125d4:	0007869b          	sext.w	a3,a5
   125d8:	fe442703          	lw	a4,-28(s0)
   125dc:	f7042783          	lw	a5,-144(s0)
   125e0:	00f707bb          	addw	a5,a4,a5
   125e4:	0007861b          	sext.w	a2,a5
   125e8:	fe042703          	lw	a4,-32(s0)
   125ec:	f7442783          	lw	a5,-140(s0)
   125f0:	00f707bb          	addw	a5,a4,a5
   125f4:	0007879b          	sext.w	a5,a5
   125f8:	03069713          	slli	a4,a3,0x30
   125fc:	03075713          	srli	a4,a4,0x30
   12600:	f2843683          	ld	a3,-216(s0)
   12604:	00461613          	slli	a2,a2,0x4
   12608:	00f607b3          	add	a5,a2,a5
   1260c:	00878793          	addi	a5,a5,8
   12610:	00179793          	slli	a5,a5,0x1
   12614:	00f687b3          	add	a5,a3,a5
   12618:	00e79223          	sh	a4,4(a5)
   1261c:	fe442783          	lw	a5,-28(s0)
   12620:	0017879b          	addiw	a5,a5,1
   12624:	fef42223          	sw	a5,-28(s0)
   12628:	fe442783          	lw	a5,-28(s0)
   1262c:	0007871b          	sext.w	a4,a5
   12630:	00300793          	li	a5,3
   12634:	00e7c463          	blt	a5,a4,1263c <h264_dec_decode_one_macroblock+0x2220>
   12638:	e00fe06f          	j	10c38 <h264_dec_decode_one_macroblock+0x81c>
   1263c:	fe042783          	lw	a5,-32(s0)
   12640:	0017879b          	addiw	a5,a5,1
   12644:	fef42023          	sw	a5,-32(s0)
   12648:	fe042783          	lw	a5,-32(s0)
   1264c:	0007871b          	sext.w	a4,a5
   12650:	00300793          	li	a5,3
   12654:	00e7c463          	blt	a5,a4,1265c <h264_dec_decode_one_macroblock+0x2240>
   12658:	da4fe06f          	j	10bfc <h264_dec_decode_one_macroblock+0x7e0>
   1265c:	fa042783          	lw	a5,-96(s0)
   12660:	0007879b          	sext.w	a5,a5
   12664:	0e079e63          	bnez	a5,12760 <h264_dec_decode_one_macroblock+0x2344>
   12668:	fe042223          	sw	zero,-28(s0)
   1266c:	0e40006f          	j	12750 <h264_dec_decode_one_macroblock+0x2334>
   12670:	fe042023          	sw	zero,-32(s0)
   12674:	0c00006f          	j	12734 <h264_dec_decode_one_macroblock+0x2318>
   12678:	f9442783          	lw	a5,-108(s0)
   1267c:	0007879b          	sext.w	a5,a5
   12680:	0a079463          	bnez	a5,12728 <h264_dec_decode_one_macroblock+0x230c>
   12684:	000187b7          	lui	a5,0x18
   12688:	fe042703          	lw	a4,-32(s0)
   1268c:	fe442683          	lw	a3,-28(s0)
   12690:	00469693          	slli	a3,a3,0x4
   12694:	00e68733          	add	a4,a3,a4
   12698:	00271713          	slli	a4,a4,0x2
   1269c:	86078793          	addi	a5,a5,-1952 # 17860 <h264_dec_img_m7>
   126a0:	00f707b3          	add	a5,a4,a5
   126a4:	0007a683          	lw	a3,0(a5)
   126a8:	fb442703          	lw	a4,-76(s0)
   126ac:	fe042783          	lw	a5,-32(s0)
   126b0:	00f707bb          	addw	a5,a4,a5
   126b4:	0007879b          	sext.w	a5,a5
   126b8:	00078713          	mv	a4,a5
   126bc:	41f7579b          	sraiw	a5,a4,0x1f
   126c0:	01a7d79b          	srliw	a5,a5,0x1a
   126c4:	00f7073b          	addw	a4,a4,a5
   126c8:	03f77713          	andi	a4,a4,63
   126cc:	40f707bb          	subw	a5,a4,a5
   126d0:	0007851b          	sext.w	a0,a5
   126d4:	fb042703          	lw	a4,-80(s0)
   126d8:	fe442783          	lw	a5,-28(s0)
   126dc:	00f707bb          	addw	a5,a4,a5
   126e0:	0007879b          	sext.w	a5,a5
   126e4:	00078713          	mv	a4,a5
   126e8:	03600793          	li	a5,54
   126ec:	02f767bb          	remw	a5,a4,a5
   126f0:	0007879b          	sext.w	a5,a5
   126f4:	0ff6f713          	zext.b	a4,a3
   126f8:	000186b7          	lui	a3,0x18
   126fc:	fd842583          	lw	a1,-40(s0)
   12700:	00001637          	lui	a2,0x1
   12704:	d8060613          	addi	a2,a2,-640 # d80 <_start-0xf330>
   12708:	02c585b3          	mul	a1,a1,a2
   1270c:	03600613          	li	a2,54
   12710:	02c50633          	mul	a2,a0,a2
   12714:	00c58633          	add	a2,a1,a2
   12718:	c6068693          	addi	a3,a3,-928 # 17c60 <h264_dec_dec_picture_imgUV>
   1271c:	00d606b3          	add	a3,a2,a3
   12720:	00f687b3          	add	a5,a3,a5
   12724:	00e78023          	sb	a4,0(a5)
   12728:	fe042783          	lw	a5,-32(s0)
   1272c:	0017879b          	addiw	a5,a5,1
   12730:	fef42023          	sw	a5,-32(s0)
   12734:	fe042783          	lw	a5,-32(s0)
   12738:	0007871b          	sext.w	a4,a5
   1273c:	00300793          	li	a5,3
   12740:	f2e7dce3          	bge	a5,a4,12678 <h264_dec_decode_one_macroblock+0x225c>
   12744:	fe442783          	lw	a5,-28(s0)
   12748:	0017879b          	addiw	a5,a5,1
   1274c:	fef42223          	sw	a5,-28(s0)
   12750:	fe442783          	lw	a5,-28(s0)
   12754:	0007871b          	sext.w	a4,a5
   12758:	00300793          	li	a5,3
   1275c:	f0e7dae3          	bge	a5,a4,12670 <h264_dec_decode_one_macroblock+0x2254>
   12760:	fbc42783          	lw	a5,-68(s0)
   12764:	0017879b          	addiw	a5,a5,1
   12768:	faf42e23          	sw	a5,-68(s0)
   1276c:	fbc42783          	lw	a5,-68(s0)
   12770:	0007871b          	sext.w	a4,a5
   12774:	00300793          	li	a5,3
   12778:	00e7c463          	blt	a5,a4,12780 <h264_dec_decode_one_macroblock+0x2364>
   1277c:	da5fd06f          	j	10520 <h264_dec_decode_one_macroblock+0x104>
   12780:	fc042783          	lw	a5,-64(s0)
   12784:	0017879b          	addiw	a5,a5,1
   12788:	fcf42023          	sw	a5,-64(s0)
   1278c:	f2843783          	ld	a5,-216(s0)
   12790:	2207a783          	lw	a5,544(a5)
   12794:	01f7d71b          	srliw	a4,a5,0x1f
   12798:	00f707bb          	addw	a5,a4,a5
   1279c:	4017d79b          	sraiw	a5,a5,0x1
   127a0:	0007871b          	sext.w	a4,a5
   127a4:	fc042783          	lw	a5,-64(s0)
   127a8:	0007879b          	sext.w	a5,a5
   127ac:	00e7d463          	bge	a5,a4,127b4 <h264_dec_decode_one_macroblock+0x2398>
   127b0:	d69fd06f          	j	10518 <h264_dec_decode_one_macroblock+0xfc>
   127b4:	fa042783          	lw	a5,-96(s0)
   127b8:	0007879b          	sext.w	a5,a5
   127bc:	18078263          	beqz	a5,12940 <h264_dec_decode_one_macroblock+0x2524>
   127c0:	00400793          	li	a5,4
   127c4:	fef42423          	sw	a5,-24(s0)
   127c8:	1680006f          	j	12930 <h264_dec_decode_one_macroblock+0x2514>
   127cc:	fe842783          	lw	a5,-24(s0)
   127d0:	ffc7879b          	addiw	a5,a5,-4
   127d4:	0007879b          	sext.w	a5,a5
   127d8:	0027979b          	slliw	a5,a5,0x2
   127dc:	f6f42a23          	sw	a5,-140(s0)
   127e0:	f2843783          	ld	a5,-216(s0)
   127e4:	00c7a783          	lw	a5,12(a5)
   127e8:	f7442703          	lw	a4,-140(s0)
   127ec:	00f707bb          	addw	a5,a4,a5
   127f0:	faf42a23          	sw	a5,-76(s0)
   127f4:	fe042623          	sw	zero,-20(s0)
   127f8:	11c0006f          	j	12914 <h264_dec_decode_one_macroblock+0x24f8>
   127fc:	fec42783          	lw	a5,-20(s0)
   12800:	0027979b          	slliw	a5,a5,0x2
   12804:	f6f42823          	sw	a5,-144(s0)
   12808:	f2843783          	ld	a5,-216(s0)
   1280c:	0107a783          	lw	a5,16(a5)
   12810:	f7042703          	lw	a4,-144(s0)
   12814:	00f707bb          	addw	a5,a4,a5
   12818:	faf42823          	sw	a5,-80(s0)
   1281c:	fe042223          	sw	zero,-28(s0)
   12820:	0d80006f          	j	128f8 <h264_dec_decode_one_macroblock+0x24dc>
   12824:	fe042023          	sw	zero,-32(s0)
   12828:	0b40006f          	j	128dc <h264_dec_decode_one_macroblock+0x24c0>
   1282c:	000187b7          	lui	a5,0x18
   12830:	fe042703          	lw	a4,-32(s0)
   12834:	fe442683          	lw	a3,-28(s0)
   12838:	00469693          	slli	a3,a3,0x4
   1283c:	00e68733          	add	a4,a3,a4
   12840:	00271713          	slli	a4,a4,0x2
   12844:	86078793          	addi	a5,a5,-1952 # 17860 <h264_dec_img_m7>
   12848:	00f707b3          	add	a5,a4,a5
   1284c:	0007a683          	lw	a3,0(a5)
   12850:	fb442703          	lw	a4,-76(s0)
   12854:	fe042783          	lw	a5,-32(s0)
   12858:	00f707bb          	addw	a5,a4,a5
   1285c:	0007879b          	sext.w	a5,a5
   12860:	00078713          	mv	a4,a5
   12864:	41f7579b          	sraiw	a5,a4,0x1f
   12868:	01a7d79b          	srliw	a5,a5,0x1a
   1286c:	00f7073b          	addw	a4,a4,a5
   12870:	03f77713          	andi	a4,a4,63
   12874:	40f707bb          	subw	a5,a4,a5
   12878:	0007851b          	sext.w	a0,a5
   1287c:	fb042703          	lw	a4,-80(s0)
   12880:	fe442783          	lw	a5,-28(s0)
   12884:	00f707bb          	addw	a5,a4,a5
   12888:	0007879b          	sext.w	a5,a5
   1288c:	00078713          	mv	a4,a5
   12890:	03600793          	li	a5,54
   12894:	02f767bb          	remw	a5,a4,a5
   12898:	0007879b          	sext.w	a5,a5
   1289c:	0ff6f713          	zext.b	a4,a3
   128a0:	000186b7          	lui	a3,0x18
   128a4:	fd842583          	lw	a1,-40(s0)
   128a8:	00001637          	lui	a2,0x1
   128ac:	d8060613          	addi	a2,a2,-640 # d80 <_start-0xf330>
   128b0:	02c585b3          	mul	a1,a1,a2
   128b4:	03600613          	li	a2,54
   128b8:	02c50633          	mul	a2,a0,a2
   128bc:	00c58633          	add	a2,a1,a2
   128c0:	c6068693          	addi	a3,a3,-928 # 17c60 <h264_dec_dec_picture_imgUV>
   128c4:	00d606b3          	add	a3,a2,a3
   128c8:	00f687b3          	add	a5,a3,a5
   128cc:	00e78023          	sb	a4,0(a5)
   128d0:	fe042783          	lw	a5,-32(s0)
   128d4:	0017879b          	addiw	a5,a5,1
   128d8:	fef42023          	sw	a5,-32(s0)
   128dc:	fe042783          	lw	a5,-32(s0)
   128e0:	0007871b          	sext.w	a4,a5
   128e4:	00300793          	li	a5,3
   128e8:	f4e7d2e3          	bge	a5,a4,1282c <h264_dec_decode_one_macroblock+0x2410>
   128ec:	fe442783          	lw	a5,-28(s0)
   128f0:	0017879b          	addiw	a5,a5,1
   128f4:	fef42223          	sw	a5,-28(s0)
   128f8:	fe442783          	lw	a5,-28(s0)
   128fc:	0007871b          	sext.w	a4,a5
   12900:	00300793          	li	a5,3
   12904:	f2e7d0e3          	bge	a5,a4,12824 <h264_dec_decode_one_macroblock+0x2408>
   12908:	fec42783          	lw	a5,-20(s0)
   1290c:	0017879b          	addiw	a5,a5,1
   12910:	fef42623          	sw	a5,-20(s0)
   12914:	fec42783          	lw	a5,-20(s0)
   12918:	0007871b          	sext.w	a4,a5
   1291c:	00100793          	li	a5,1
   12920:	ece7dee3          	bge	a5,a4,127fc <h264_dec_decode_one_macroblock+0x23e0>
   12924:	fe842783          	lw	a5,-24(s0)
   12928:	0017879b          	addiw	a5,a5,1
   1292c:	fef42423          	sw	a5,-24(s0)
   12930:	fe842783          	lw	a5,-24(s0)
   12934:	0007871b          	sext.w	a4,a5
   12938:	00500793          	li	a5,5
   1293c:	e8e7d8e3          	bge	a5,a4,127cc <h264_dec_decode_one_macroblock+0x23b0>
   12940:	fd842783          	lw	a5,-40(s0)
   12944:	0017879b          	addiw	a5,a5,1
   12948:	fcf42c23          	sw	a5,-40(s0)
   1294c:	fd842783          	lw	a5,-40(s0)
   12950:	0007871b          	sext.w	a4,a5
   12954:	00100793          	li	a5,1
   12958:	00e7c463          	blt	a5,a4,12960 <h264_dec_decode_one_macroblock+0x2544>
   1295c:	bb1fd06f          	j	1050c <h264_dec_decode_one_macroblock+0xf0>
   12960:	00000013          	nop
   12964:	0d813403          	ld	s0,216(sp)
   12968:	0e010113          	addi	sp,sp,224
   1296c:	00008067          	ret

0000000000012970 <h264_dec_main>:
   12970:	ff010113          	addi	sp,sp,-16
   12974:	00113423          	sd	ra,8(sp)
   12978:	00813023          	sd	s0,0(sp)
   1297c:	01010413          	addi	s0,sp,16
   12980:	000197b7          	lui	a5,0x19
   12984:	79878513          	addi	a0,a5,1944 # 19798 <h264_dec_img>
   12988:	a95fd0ef          	jal	ra,1041c <h264_dec_decode_one_macroblock>
   1298c:	00000013          	nop
   12990:	00813083          	ld	ra,8(sp)
   12994:	00013403          	ld	s0,0(sp)
   12998:	01010113          	addi	sp,sp,16
   1299c:	00008067          	ret

00000000000129a0 <main>:
   129a0:	ff010113          	addi	sp,sp,-16
   129a4:	00113423          	sd	ra,8(sp)
   129a8:	00813023          	sd	s0,0(sp)
   129ac:	01010413          	addi	s0,sp,16
   129b0:	891fd0ef          	jal	ra,10240 <h264_dec_init>
   129b4:	fbdff0ef          	jal	ra,12970 <h264_dec_main>
   129b8:	835fd0ef          	jal	ra,101ec <h264_dec_return>
   129bc:	00050793          	mv	a5,a0
   129c0:	00078513          	mv	a0,a5
   129c4:	00813083          	ld	ra,8(sp)
   129c8:	00013403          	ld	s0,0(sp)
   129cc:	01010113          	addi	sp,sp,16
   129d0:	00008067          	ret

00000000000129d4 <atexit>:
   129d4:	00050593          	mv	a1,a0
   129d8:	00000693          	li	a3,0
   129dc:	00000613          	li	a2,0
   129e0:	00000513          	li	a0,0
   129e4:	2280006f          	j	12c0c <__register_exitproc>

00000000000129e8 <exit>:
   129e8:	ff010113          	addi	sp,sp,-16
   129ec:	00000593          	li	a1,0
   129f0:	00813023          	sd	s0,0(sp)
   129f4:	00113423          	sd	ra,8(sp)
   129f8:	00050413          	mv	s0,a0
   129fc:	298000ef          	jal	ra,12c94 <__call_exitprocs>
   12a00:	000157b7          	lui	a5,0x15
   12a04:	7107b503          	ld	a0,1808(a5) # 15710 <_global_impure_ptr>
   12a08:	05853783          	ld	a5,88(a0) # 13058 <h264_dec_list_imgUV+0x40>
   12a0c:	00078463          	beqz	a5,12a14 <exit+0x2c>
   12a10:	000780e7          	jalr	a5
   12a14:	00040513          	mv	a0,s0
   12a18:	394000ef          	jal	ra,12dac <_exit>

0000000000012a1c <__libc_fini_array>:
   12a1c:	fd010113          	addi	sp,sp,-48
   12a20:	000137b7          	lui	a5,0x13
   12a24:	00013737          	lui	a4,0x13
   12a28:	02813023          	sd	s0,32(sp)
   12a2c:	01070713          	addi	a4,a4,16 # 13010 <__do_global_dtors_aux_fini_array_entry>
   12a30:	01878413          	addi	s0,a5,24 # 13018 <h264_dec_list_imgUV>
   12a34:	40e40433          	sub	s0,s0,a4
   12a38:	00913c23          	sd	s1,24(sp)
   12a3c:	01213823          	sd	s2,16(sp)
   12a40:	01313423          	sd	s3,8(sp)
   12a44:	02113423          	sd	ra,40(sp)
   12a48:	40345413          	srai	s0,s0,0x3
   12a4c:	00000493          	li	s1,0
   12a50:	01878913          	addi	s2,a5,24
   12a54:	ff800993          	li	s3,-8
   12a58:	02941063          	bne	s0,s1,12a78 <__libc_fini_array+0x5c>
   12a5c:	02013403          	ld	s0,32(sp)
   12a60:	02813083          	ld	ra,40(sp)
   12a64:	01813483          	ld	s1,24(sp)
   12a68:	01013903          	ld	s2,16(sp)
   12a6c:	00813983          	ld	s3,8(sp)
   12a70:	03010113          	addi	sp,sp,48
   12a74:	e80fd06f          	j	100f4 <_fini>
   12a78:	033487b3          	mul	a5,s1,s3
   12a7c:	00148493          	addi	s1,s1,1
   12a80:	00f907b3          	add	a5,s2,a5
   12a84:	ff87b783          	ld	a5,-8(a5)
   12a88:	000780e7          	jalr	a5
   12a8c:	fcdff06f          	j	12a58 <__libc_fini_array+0x3c>

0000000000012a90 <__libc_init_array>:
   12a90:	fe010113          	addi	sp,sp,-32
   12a94:	00813823          	sd	s0,16(sp)
   12a98:	00913423          	sd	s1,8(sp)
   12a9c:	00013437          	lui	s0,0x13
   12aa0:	000134b7          	lui	s1,0x13
   12aa4:	00448793          	addi	a5,s1,4 # 13004 <__preinit_array_end>
   12aa8:	00440413          	addi	s0,s0,4 # 13004 <__preinit_array_end>
   12aac:	40f40433          	sub	s0,s0,a5
   12ab0:	01213023          	sd	s2,0(sp)
   12ab4:	00113c23          	sd	ra,24(sp)
   12ab8:	40345413          	srai	s0,s0,0x3
   12abc:	00448493          	addi	s1,s1,4
   12ac0:	00000913          	li	s2,0
   12ac4:	04891263          	bne	s2,s0,12b08 <__libc_init_array+0x78>
   12ac8:	000134b7          	lui	s1,0x13
   12acc:	e28fd0ef          	jal	ra,100f4 <_fini>
   12ad0:	00013437          	lui	s0,0x13
   12ad4:	00848793          	addi	a5,s1,8 # 13008 <__frame_dummy_init_array_entry>
   12ad8:	01040413          	addi	s0,s0,16 # 13010 <__do_global_dtors_aux_fini_array_entry>
   12adc:	40f40433          	sub	s0,s0,a5
   12ae0:	40345413          	srai	s0,s0,0x3
   12ae4:	00848493          	addi	s1,s1,8
   12ae8:	00000913          	li	s2,0
   12aec:	02891863          	bne	s2,s0,12b1c <__libc_init_array+0x8c>
   12af0:	01813083          	ld	ra,24(sp)
   12af4:	01013403          	ld	s0,16(sp)
   12af8:	00813483          	ld	s1,8(sp)
   12afc:	00013903          	ld	s2,0(sp)
   12b00:	02010113          	addi	sp,sp,32
   12b04:	00008067          	ret
   12b08:	0004b783          	ld	a5,0(s1)
   12b0c:	00190913          	addi	s2,s2,1
   12b10:	00848493          	addi	s1,s1,8
   12b14:	000780e7          	jalr	a5
   12b18:	fadff06f          	j	12ac4 <__libc_init_array+0x34>
   12b1c:	0004b783          	ld	a5,0(s1)
   12b20:	00190913          	addi	s2,s2,1
   12b24:	00848493          	addi	s1,s1,8
   12b28:	000780e7          	jalr	a5
   12b2c:	fc1ff06f          	j	12aec <__libc_init_array+0x5c>

0000000000012b30 <memset>:
   12b30:	00f00313          	li	t1,15
   12b34:	00050713          	mv	a4,a0
   12b38:	02c37a63          	bgeu	t1,a2,12b6c <memset+0x3c>
   12b3c:	00f77793          	andi	a5,a4,15
   12b40:	0a079063          	bnez	a5,12be0 <memset+0xb0>
   12b44:	06059e63          	bnez	a1,12bc0 <memset+0x90>
   12b48:	ff067693          	andi	a3,a2,-16
   12b4c:	00f67613          	andi	a2,a2,15
   12b50:	00e686b3          	add	a3,a3,a4
   12b54:	00b73023          	sd	a1,0(a4)
   12b58:	00b73423          	sd	a1,8(a4)
   12b5c:	01070713          	addi	a4,a4,16
   12b60:	fed76ae3          	bltu	a4,a3,12b54 <memset+0x24>
   12b64:	00061463          	bnez	a2,12b6c <memset+0x3c>
   12b68:	00008067          	ret
   12b6c:	40c306b3          	sub	a3,t1,a2
   12b70:	00269693          	slli	a3,a3,0x2
   12b74:	00000297          	auipc	t0,0x0
   12b78:	005686b3          	add	a3,a3,t0
   12b7c:	00c68067          	jr	12(a3)
   12b80:	00b70723          	sb	a1,14(a4)
   12b84:	00b706a3          	sb	a1,13(a4)
   12b88:	00b70623          	sb	a1,12(a4)
   12b8c:	00b705a3          	sb	a1,11(a4)
   12b90:	00b70523          	sb	a1,10(a4)
   12b94:	00b704a3          	sb	a1,9(a4)
   12b98:	00b70423          	sb	a1,8(a4)
   12b9c:	00b703a3          	sb	a1,7(a4)
   12ba0:	00b70323          	sb	a1,6(a4)
   12ba4:	00b702a3          	sb	a1,5(a4)
   12ba8:	00b70223          	sb	a1,4(a4)
   12bac:	00b701a3          	sb	a1,3(a4)
   12bb0:	00b70123          	sb	a1,2(a4)
   12bb4:	00b700a3          	sb	a1,1(a4)
   12bb8:	00b70023          	sb	a1,0(a4)
   12bbc:	00008067          	ret
   12bc0:	0ff5f593          	zext.b	a1,a1
   12bc4:	00859693          	slli	a3,a1,0x8
   12bc8:	00d5e5b3          	or	a1,a1,a3
   12bcc:	01059693          	slli	a3,a1,0x10
   12bd0:	00d5e5b3          	or	a1,a1,a3
   12bd4:	02059693          	slli	a3,a1,0x20
   12bd8:	00d5e5b3          	or	a1,a1,a3
   12bdc:	f6dff06f          	j	12b48 <memset+0x18>
   12be0:	00279693          	slli	a3,a5,0x2
   12be4:	00000297          	auipc	t0,0x0
   12be8:	005686b3          	add	a3,a3,t0
   12bec:	00008293          	mv	t0,ra
   12bf0:	f98680e7          	jalr	-104(a3)
   12bf4:	00028093          	mv	ra,t0
   12bf8:	ff078793          	addi	a5,a5,-16
   12bfc:	40f70733          	sub	a4,a4,a5
   12c00:	00f60633          	add	a2,a2,a5
   12c04:	f6c374e3          	bgeu	t1,a2,12b6c <memset+0x3c>
   12c08:	f3dff06f          	j	12b44 <memset+0x14>

0000000000012c0c <__register_exitproc>:
   12c0c:	000157b7          	lui	a5,0x15
   12c10:	7107b703          	ld	a4,1808(a5) # 15710 <_global_impure_ptr>
   12c14:	00050313          	mv	t1,a0
   12c18:	1f873783          	ld	a5,504(a4)
   12c1c:	00079663          	bnez	a5,12c28 <__register_exitproc+0x1c>
   12c20:	20070793          	addi	a5,a4,512
   12c24:	1ef73c23          	sd	a5,504(a4)
   12c28:	0087a703          	lw	a4,8(a5)
   12c2c:	01f00813          	li	a6,31
   12c30:	fff00513          	li	a0,-1
   12c34:	04e84e63          	blt	a6,a4,12c90 <__register_exitproc+0x84>
   12c38:	02030e63          	beqz	t1,12c74 <__register_exitproc+0x68>
   12c3c:	00371813          	slli	a6,a4,0x3
   12c40:	01078833          	add	a6,a5,a6
   12c44:	10c83823          	sd	a2,272(a6)
   12c48:	3107a883          	lw	a7,784(a5)
   12c4c:	00100613          	li	a2,1
   12c50:	00e6163b          	sllw	a2,a2,a4
   12c54:	00c8e8b3          	or	a7,a7,a2
   12c58:	3117a823          	sw	a7,784(a5)
   12c5c:	20d83823          	sd	a3,528(a6)
   12c60:	00200693          	li	a3,2
   12c64:	00d31863          	bne	t1,a3,12c74 <__register_exitproc+0x68>
   12c68:	3147a683          	lw	a3,788(a5)
   12c6c:	00c6e633          	or	a2,a3,a2
   12c70:	30c7aa23          	sw	a2,788(a5)
   12c74:	0017069b          	addiw	a3,a4,1
   12c78:	00270713          	addi	a4,a4,2
   12c7c:	00371713          	slli	a4,a4,0x3
   12c80:	00d7a423          	sw	a3,8(a5)
   12c84:	00e787b3          	add	a5,a5,a4
   12c88:	00b7b023          	sd	a1,0(a5)
   12c8c:	00000513          	li	a0,0
   12c90:	00008067          	ret

0000000000012c94 <__call_exitprocs>:
   12c94:	fb010113          	addi	sp,sp,-80
   12c98:	000157b7          	lui	a5,0x15
   12c9c:	03313423          	sd	s3,40(sp)
   12ca0:	7107b983          	ld	s3,1808(a5) # 15710 <_global_impure_ptr>
   12ca4:	03413023          	sd	s4,32(sp)
   12ca8:	01513c23          	sd	s5,24(sp)
   12cac:	01613823          	sd	s6,16(sp)
   12cb0:	04113423          	sd	ra,72(sp)
   12cb4:	04813023          	sd	s0,64(sp)
   12cb8:	02913c23          	sd	s1,56(sp)
   12cbc:	03213823          	sd	s2,48(sp)
   12cc0:	01713423          	sd	s7,8(sp)
   12cc4:	00050a93          	mv	s5,a0
   12cc8:	00058a13          	mv	s4,a1
   12ccc:	00100b13          	li	s6,1
   12cd0:	1f89b403          	ld	s0,504(s3)
   12cd4:	00040c63          	beqz	s0,12cec <__call_exitprocs+0x58>
   12cd8:	00842483          	lw	s1,8(s0)
   12cdc:	fff4849b          	addiw	s1,s1,-1
   12ce0:	00349913          	slli	s2,s1,0x3
   12ce4:	01240933          	add	s2,s0,s2
   12ce8:	0204d863          	bgez	s1,12d18 <__call_exitprocs+0x84>
   12cec:	04813083          	ld	ra,72(sp)
   12cf0:	04013403          	ld	s0,64(sp)
   12cf4:	03813483          	ld	s1,56(sp)
   12cf8:	03013903          	ld	s2,48(sp)
   12cfc:	02813983          	ld	s3,40(sp)
   12d00:	02013a03          	ld	s4,32(sp)
   12d04:	01813a83          	ld	s5,24(sp)
   12d08:	01013b03          	ld	s6,16(sp)
   12d0c:	00813b83          	ld	s7,8(sp)
   12d10:	05010113          	addi	sp,sp,80
   12d14:	00008067          	ret
   12d18:	000a0c63          	beqz	s4,12d30 <__call_exitprocs+0x9c>
   12d1c:	21093783          	ld	a5,528(s2)
   12d20:	01478863          	beq	a5,s4,12d30 <__call_exitprocs+0x9c>
   12d24:	fff4849b          	addiw	s1,s1,-1
   12d28:	ff890913          	addi	s2,s2,-8
   12d2c:	fbdff06f          	j	12ce8 <__call_exitprocs+0x54>
   12d30:	00842783          	lw	a5,8(s0)
   12d34:	01093683          	ld	a3,16(s2)
   12d38:	fff7879b          	addiw	a5,a5,-1
   12d3c:	02979e63          	bne	a5,s1,12d78 <__call_exitprocs+0xe4>
   12d40:	00942423          	sw	s1,8(s0)
   12d44:	fe0680e3          	beqz	a3,12d24 <__call_exitprocs+0x90>
   12d48:	31042703          	lw	a4,784(s0)
   12d4c:	009b163b          	sllw	a2,s6,s1
   12d50:	00842b83          	lw	s7,8(s0)
   12d54:	00c77733          	and	a4,a4,a2
   12d58:	0007071b          	sext.w	a4,a4
   12d5c:	02071263          	bnez	a4,12d80 <__call_exitprocs+0xec>
   12d60:	000680e7          	jalr	a3
   12d64:	00842703          	lw	a4,8(s0)
   12d68:	1f89b783          	ld	a5,504(s3)
   12d6c:	f77712e3          	bne	a4,s7,12cd0 <__call_exitprocs+0x3c>
   12d70:	faf40ae3          	beq	s0,a5,12d24 <__call_exitprocs+0x90>
   12d74:	f5dff06f          	j	12cd0 <__call_exitprocs+0x3c>
   12d78:	00093823          	sd	zero,16(s2)
   12d7c:	fc9ff06f          	j	12d44 <__call_exitprocs+0xb0>
   12d80:	31442783          	lw	a5,788(s0)
   12d84:	11093583          	ld	a1,272(s2)
   12d88:	00c7f7b3          	and	a5,a5,a2
   12d8c:	0007879b          	sext.w	a5,a5
   12d90:	00079863          	bnez	a5,12da0 <__call_exitprocs+0x10c>
   12d94:	000a8513          	mv	a0,s5
   12d98:	000680e7          	jalr	a3
   12d9c:	fc9ff06f          	j	12d64 <__call_exitprocs+0xd0>
   12da0:	00058513          	mv	a0,a1
   12da4:	000680e7          	jalr	a3
   12da8:	fbdff06f          	j	12d64 <__call_exitprocs+0xd0>

0000000000012dac <_exit>:
   12dac:	00000593          	li	a1,0
   12db0:	00000613          	li	a2,0
   12db4:	00000693          	li	a3,0
   12db8:	00000713          	li	a4,0
   12dbc:	00000793          	li	a5,0
   12dc0:	05d00893          	li	a7,93
   12dc4:	00000073          	ecall
   12dc8:	02055263          	bgez	a0,12dec <_exit+0x40>
   12dcc:	ff010113          	addi	sp,sp,-16
   12dd0:	00813023          	sd	s0,0(sp)
   12dd4:	00050413          	mv	s0,a0
   12dd8:	00113423          	sd	ra,8(sp)
   12ddc:	4080043b          	negw	s0,s0
   12de0:	010000ef          	jal	ra,12df0 <__errno>
   12de4:	00852023          	sw	s0,0(a0)
   12de8:	0000006f          	j	12de8 <_exit+0x3c>
   12dec:	0000006f          	j	12dec <_exit+0x40>

0000000000012df0 <__errno>:
   12df0:	8101b503          	ld	a0,-2032(gp) # 15718 <_impure_ptr>
   12df4:	00008067          	ret
