
supp/levenshtein.riscv:     file format elf64-littleriscv


Disassembly of section .text:

00000000000100b0 <_start>:
   100b0:	00002197          	auipc	gp,0x2
   100b4:	ed818193          	addi	gp,gp,-296 # 11f88 <__global_pointer$>
   100b8:	81818513          	addi	a0,gp,-2024 # 117a0 <completed.5212>
   100bc:	85018613          	addi	a2,gp,-1968 # 117d8 <_end>
   100c0:	40a60633          	sub	a2,a2,a0
   100c4:	00000593          	li	a1,0
   100c8:	7fc000ef          	jal	ra,108c4 <memset>
   100cc:	00000517          	auipc	a0,0x0
   100d0:	6e450513          	addi	a0,a0,1764 # 107b0 <__libc_fini_array>
   100d4:	694000ef          	jal	ra,10768 <atexit>
   100d8:	74c000ef          	jal	ra,10824 <__libc_init_array>
   100dc:	00012503          	lw	a0,0(sp)
   100e0:	00810593          	addi	a1,sp,8
   100e4:	00000613          	li	a2,0
   100e8:	5ec000ef          	jal	ra,106d4 <main>
   100ec:	6900006f          	j	1077c <exit>

00000000000100f0 <_fini>:
   100f0:	00008067          	ret

00000000000100f4 <deregister_tm_clones>:
   100f4:	00011537          	lui	a0,0x11
   100f8:	000117b7          	lui	a5,0x11
   100fc:	78850713          	addi	a4,a0,1928 # 11788 <__TMC_END__>
   10100:	78878793          	addi	a5,a5,1928 # 11788 <__TMC_END__>
   10104:	00e78c63          	beq	a5,a4,1011c <deregister_tm_clones+0x28>
   10108:	00000337          	lui	t1,0x0
   1010c:	00030313          	mv	t1,t1
   10110:	00030663          	beqz	t1,1011c <deregister_tm_clones+0x28>
   10114:	78850513          	addi	a0,a0,1928
   10118:	00030067          	jr	t1 # 0 <_start-0x100b0>
   1011c:	00008067          	ret

0000000000010120 <register_tm_clones>:
   10120:	000117b7          	lui	a5,0x11
   10124:	00011537          	lui	a0,0x11
   10128:	78878593          	addi	a1,a5,1928 # 11788 <__TMC_END__>
   1012c:	78850793          	addi	a5,a0,1928 # 11788 <__TMC_END__>
   10130:	40f585b3          	sub	a1,a1,a5
   10134:	4035d593          	srai	a1,a1,0x3
   10138:	00200793          	li	a5,2
   1013c:	02f5c5b3          	div	a1,a1,a5
   10140:	00058c63          	beqz	a1,10158 <register_tm_clones+0x38>
   10144:	00000337          	lui	t1,0x0
   10148:	00030313          	mv	t1,t1
   1014c:	00030663          	beqz	t1,10158 <register_tm_clones+0x38>
   10150:	78850513          	addi	a0,a0,1928
   10154:	00030067          	jr	t1 # 0 <_start-0x100b0>
   10158:	00008067          	ret

000000000001015c <__do_global_dtors_aux>:
   1015c:	8181c703          	lbu	a4,-2024(gp) # 117a0 <completed.5212>
   10160:	04071663          	bnez	a4,101ac <__do_global_dtors_aux+0x50>
   10164:	ff010113          	addi	sp,sp,-16
   10168:	00813023          	sd	s0,0(sp)
   1016c:	00113423          	sd	ra,8(sp)
   10170:	00078413          	mv	s0,a5
   10174:	f81ff0ef          	jal	ra,100f4 <deregister_tm_clones>
   10178:	000007b7          	lui	a5,0x0
   1017c:	00078793          	mv	a5,a5
   10180:	00078a63          	beqz	a5,10194 <__do_global_dtors_aux+0x38>
   10184:	00011537          	lui	a0,0x11
   10188:	00050513          	mv	a0,a0
   1018c:	ffff0097          	auipc	ra,0xffff0
   10190:	e74080e7          	jalr	-396(ra) # 0 <_start-0x100b0>
   10194:	00100793          	li	a5,1
   10198:	80f18c23          	sb	a5,-2024(gp) # 117a0 <completed.5212>
   1019c:	00813083          	ld	ra,8(sp)
   101a0:	00013403          	ld	s0,0(sp)
   101a4:	01010113          	addi	sp,sp,16
   101a8:	00008067          	ret
   101ac:	00008067          	ret

00000000000101b0 <frame_dummy>:
   101b0:	000007b7          	lui	a5,0x0
   101b4:	00078793          	mv	a5,a5
   101b8:	02078663          	beqz	a5,101e4 <frame_dummy+0x34>
   101bc:	000115b7          	lui	a1,0x11
   101c0:	00011537          	lui	a0,0x11
   101c4:	ff010113          	addi	sp,sp,-16
   101c8:	7a858593          	addi	a1,a1,1960 # 117a8 <object.5217>
   101cc:	00050513          	mv	a0,a0
   101d0:	00113423          	sd	ra,8(sp)
   101d4:	ffff0097          	auipc	ra,0xffff0
   101d8:	e2c080e7          	jalr	-468(ra) # 0 <_start-0x100b0>
   101dc:	00813083          	ld	ra,8(sp)
   101e0:	01010113          	addi	sp,sp,16
   101e4:	f3dff06f          	j	10120 <register_tm_clones>

00000000000101e8 <min>:
   101e8:	fe010113          	addi	sp,sp,-32
   101ec:	00813c23          	sd	s0,24(sp)
   101f0:	02010413          	addi	s0,sp,32
   101f4:	00050793          	mv	a5,a0
   101f8:	00058713          	mv	a4,a1
   101fc:	fef42623          	sw	a5,-20(s0)
   10200:	00070793          	mv	a5,a4
   10204:	fef42423          	sw	a5,-24(s0)
   10208:	fec42603          	lw	a2,-20(s0)
   1020c:	fe842783          	lw	a5,-24(s0)
   10210:	0007869b          	sext.w	a3,a5
   10214:	0006071b          	sext.w	a4,a2
   10218:	00d75463          	bge	a4,a3,10220 <min+0x38>
   1021c:	00060793          	mv	a5,a2
   10220:	0007879b          	sext.w	a5,a5
   10224:	00078513          	mv	a0,a5
   10228:	01813403          	ld	s0,24(sp)
   1022c:	02010113          	addi	sp,sp,32
   10230:	00008067          	ret

0000000000010234 <levenshtein_distance>:
   10234:	f9010113          	addi	sp,sp,-112
   10238:	06113423          	sd	ra,104(sp)
   1023c:	06813023          	sd	s0,96(sp)
   10240:	04913c23          	sd	s1,88(sp)
   10244:	05213823          	sd	s2,80(sp)
   10248:	05313423          	sd	s3,72(sp)
   1024c:	05413023          	sd	s4,64(sp)
   10250:	07010413          	addi	s0,sp,112
   10254:	f8a43c23          	sd	a0,-104(s0)
   10258:	f8b43823          	sd	a1,-112(s0)
   1025c:	00010793          	mv	a5,sp
   10260:	00078a13          	mv	s4,a5
   10264:	f9843503          	ld	a0,-104(s0)
   10268:	738000ef          	jal	ra,109a0 <strlen>
   1026c:	00050793          	mv	a5,a0
   10270:	fcf42223          	sw	a5,-60(s0)
   10274:	f9043503          	ld	a0,-112(s0)
   10278:	728000ef          	jal	ra,109a0 <strlen>
   1027c:	00050793          	mv	a5,a0
   10280:	fcf42023          	sw	a5,-64(s0)
   10284:	fc042783          	lw	a5,-64(s0)
   10288:	0017879b          	addiw	a5,a5,1
   1028c:	0007879b          	sext.w	a5,a5
   10290:	fc442703          	lw	a4,-60(s0)
   10294:	0017071b          	addiw	a4,a4,1
   10298:	0007069b          	sext.w	a3,a4
   1029c:	00078713          	mv	a4,a5
   102a0:	fff70713          	addi	a4,a4,-1
   102a4:	fae43c23          	sd	a4,-72(s0)
   102a8:	00078713          	mv	a4,a5
   102ac:	00271493          	slli	s1,a4,0x2
   102b0:	00068713          	mv	a4,a3
   102b4:	fff70713          	addi	a4,a4,-1
   102b8:	fae43823          	sd	a4,-80(s0)
   102bc:	00078713          	mv	a4,a5
   102c0:	00068793          	mv	a5,a3
   102c4:	02f707b3          	mul	a5,a4,a5
   102c8:	00279793          	slli	a5,a5,0x2
   102cc:	00378793          	addi	a5,a5,3 # 3 <_start-0x100ad>
   102d0:	00f78793          	addi	a5,a5,15
   102d4:	0047d793          	srli	a5,a5,0x4
   102d8:	00479793          	slli	a5,a5,0x4
   102dc:	40f10133          	sub	sp,sp,a5
   102e0:	00010793          	mv	a5,sp
   102e4:	00378793          	addi	a5,a5,3
   102e8:	0027d793          	srli	a5,a5,0x2
   102ec:	00279793          	slli	a5,a5,0x2
   102f0:	faf43423          	sd	a5,-88(s0)
   102f4:	fc042423          	sw	zero,-56(s0)
   102f8:	0300006f          	j	10328 <levenshtein_distance+0xf4>
   102fc:	0024d793          	srli	a5,s1,0x2
   10300:	fa843703          	ld	a4,-88(s0)
   10304:	fc842683          	lw	a3,-56(s0)
   10308:	02f687b3          	mul	a5,a3,a5
   1030c:	00279793          	slli	a5,a5,0x2
   10310:	00f707b3          	add	a5,a4,a5
   10314:	fc842703          	lw	a4,-56(s0)
   10318:	00e7a023          	sw	a4,0(a5)
   1031c:	fc842783          	lw	a5,-56(s0)
   10320:	0017879b          	addiw	a5,a5,1
   10324:	fcf42423          	sw	a5,-56(s0)
   10328:	fc842703          	lw	a4,-56(s0)
   1032c:	fc442783          	lw	a5,-60(s0)
   10330:	0007071b          	sext.w	a4,a4
   10334:	0007879b          	sext.w	a5,a5
   10338:	fce7d2e3          	bge	a5,a4,102fc <levenshtein_distance+0xc8>
   1033c:	fc042623          	sw	zero,-52(s0)
   10340:	0280006f          	j	10368 <levenshtein_distance+0x134>
   10344:	fa843703          	ld	a4,-88(s0)
   10348:	fcc42783          	lw	a5,-52(s0)
   1034c:	00279793          	slli	a5,a5,0x2
   10350:	00f707b3          	add	a5,a4,a5
   10354:	fcc42703          	lw	a4,-52(s0)
   10358:	00e7a023          	sw	a4,0(a5)
   1035c:	fcc42783          	lw	a5,-52(s0)
   10360:	0017879b          	addiw	a5,a5,1
   10364:	fcf42623          	sw	a5,-52(s0)
   10368:	fcc42703          	lw	a4,-52(s0)
   1036c:	fc042783          	lw	a5,-64(s0)
   10370:	0007071b          	sext.w	a4,a4
   10374:	0007879b          	sext.w	a5,a5
   10378:	fce7d6e3          	bge	a5,a4,10344 <levenshtein_distance+0x110>
   1037c:	00100793          	li	a5,1
   10380:	fcf42623          	sw	a5,-52(s0)
   10384:	1b00006f          	j	10534 <levenshtein_distance+0x300>
   10388:	00100793          	li	a5,1
   1038c:	fcf42423          	sw	a5,-56(s0)
   10390:	1840006f          	j	10514 <levenshtein_distance+0x2e0>
   10394:	fc842783          	lw	a5,-56(s0)
   10398:	fff78793          	addi	a5,a5,-1
   1039c:	f9843703          	ld	a4,-104(s0)
   103a0:	00f707b3          	add	a5,a4,a5
   103a4:	0007c683          	lbu	a3,0(a5)
   103a8:	fcc42783          	lw	a5,-52(s0)
   103ac:	fff78793          	addi	a5,a5,-1
   103b0:	f9043703          	ld	a4,-112(s0)
   103b4:	00f707b3          	add	a5,a4,a5
   103b8:	0007c783          	lbu	a5,0(a5)
   103bc:	00068713          	mv	a4,a3
   103c0:	06f71063          	bne	a4,a5,10420 <levenshtein_distance+0x1ec>
   103c4:	0024d713          	srli	a4,s1,0x2
   103c8:	fc842783          	lw	a5,-56(s0)
   103cc:	fff7879b          	addiw	a5,a5,-1
   103d0:	0007859b          	sext.w	a1,a5
   103d4:	fcc42783          	lw	a5,-52(s0)
   103d8:	fff7879b          	addiw	a5,a5,-1
   103dc:	0007861b          	sext.w	a2,a5
   103e0:	0024d793          	srli	a5,s1,0x2
   103e4:	fa843683          	ld	a3,-88(s0)
   103e8:	02e58733          	mul	a4,a1,a4
   103ec:	00e60733          	add	a4,a2,a4
   103f0:	00271713          	slli	a4,a4,0x2
   103f4:	00e68733          	add	a4,a3,a4
   103f8:	00072703          	lw	a4,0(a4)
   103fc:	fa843683          	ld	a3,-88(s0)
   10400:	fcc42603          	lw	a2,-52(s0)
   10404:	fc842583          	lw	a1,-56(s0)
   10408:	02f587b3          	mul	a5,a1,a5
   1040c:	00f607b3          	add	a5,a2,a5
   10410:	00279793          	slli	a5,a5,0x2
   10414:	00f687b3          	add	a5,a3,a5
   10418:	00e7a023          	sw	a4,0(a5)
   1041c:	0ec0006f          	j	10508 <levenshtein_distance+0x2d4>
   10420:	0024d793          	srli	a5,s1,0x2
   10424:	fc842703          	lw	a4,-56(s0)
   10428:	fff7071b          	addiw	a4,a4,-1
   1042c:	0007061b          	sext.w	a2,a4
   10430:	fa843703          	ld	a4,-88(s0)
   10434:	fcc42683          	lw	a3,-52(s0)
   10438:	02f607b3          	mul	a5,a2,a5
   1043c:	00f687b3          	add	a5,a3,a5
   10440:	00279793          	slli	a5,a5,0x2
   10444:	00f707b3          	add	a5,a4,a5
   10448:	0007a783          	lw	a5,0(a5)
   1044c:	0017879b          	addiw	a5,a5,1
   10450:	0007899b          	sext.w	s3,a5
   10454:	0024d793          	srli	a5,s1,0x2
   10458:	fcc42703          	lw	a4,-52(s0)
   1045c:	fff7071b          	addiw	a4,a4,-1
   10460:	0007069b          	sext.w	a3,a4
   10464:	fa843703          	ld	a4,-88(s0)
   10468:	fc842603          	lw	a2,-56(s0)
   1046c:	02f607b3          	mul	a5,a2,a5
   10470:	00f687b3          	add	a5,a3,a5
   10474:	00279793          	slli	a5,a5,0x2
   10478:	00f707b3          	add	a5,a4,a5
   1047c:	0007a783          	lw	a5,0(a5)
   10480:	0017879b          	addiw	a5,a5,1
   10484:	0007851b          	sext.w	a0,a5
   10488:	0024d793          	srli	a5,s1,0x2
   1048c:	fc842703          	lw	a4,-56(s0)
   10490:	fff7071b          	addiw	a4,a4,-1
   10494:	0007061b          	sext.w	a2,a4
   10498:	fcc42703          	lw	a4,-52(s0)
   1049c:	fff7071b          	addiw	a4,a4,-1
   104a0:	0007069b          	sext.w	a3,a4
   104a4:	fa843703          	ld	a4,-88(s0)
   104a8:	02f607b3          	mul	a5,a2,a5
   104ac:	00f687b3          	add	a5,a3,a5
   104b0:	00279793          	slli	a5,a5,0x2
   104b4:	00f707b3          	add	a5,a4,a5
   104b8:	0007a783          	lw	a5,0(a5)
   104bc:	0017879b          	addiw	a5,a5,1
   104c0:	0007879b          	sext.w	a5,a5
   104c4:	00078593          	mv	a1,a5
   104c8:	d21ff0ef          	jal	ra,101e8 <min>
   104cc:	00050793          	mv	a5,a0
   104d0:	0024d913          	srli	s2,s1,0x2
   104d4:	00078593          	mv	a1,a5
   104d8:	00098513          	mv	a0,s3
   104dc:	d0dff0ef          	jal	ra,101e8 <min>
   104e0:	00050793          	mv	a5,a0
   104e4:	00078613          	mv	a2,a5
   104e8:	fa843703          	ld	a4,-88(s0)
   104ec:	fcc42683          	lw	a3,-52(s0)
   104f0:	fc842783          	lw	a5,-56(s0)
   104f4:	032787b3          	mul	a5,a5,s2
   104f8:	00f687b3          	add	a5,a3,a5
   104fc:	00279793          	slli	a5,a5,0x2
   10500:	00f707b3          	add	a5,a4,a5
   10504:	00c7a023          	sw	a2,0(a5)
   10508:	fc842783          	lw	a5,-56(s0)
   1050c:	0017879b          	addiw	a5,a5,1
   10510:	fcf42423          	sw	a5,-56(s0)
   10514:	fc842703          	lw	a4,-56(s0)
   10518:	fc442783          	lw	a5,-60(s0)
   1051c:	0007071b          	sext.w	a4,a4
   10520:	0007879b          	sext.w	a5,a5
   10524:	e6e7d8e3          	bge	a5,a4,10394 <levenshtein_distance+0x160>
   10528:	fcc42783          	lw	a5,-52(s0)
   1052c:	0017879b          	addiw	a5,a5,1
   10530:	fcf42623          	sw	a5,-52(s0)
   10534:	fcc42703          	lw	a4,-52(s0)
   10538:	fc042783          	lw	a5,-64(s0)
   1053c:	0007071b          	sext.w	a4,a4
   10540:	0007879b          	sext.w	a5,a5
   10544:	e4e7d2e3          	bge	a5,a4,10388 <levenshtein_distance+0x154>
   10548:	0024d793          	srli	a5,s1,0x2
   1054c:	fa843703          	ld	a4,-88(s0)
   10550:	fc042683          	lw	a3,-64(s0)
   10554:	fc442603          	lw	a2,-60(s0)
   10558:	02f607b3          	mul	a5,a2,a5
   1055c:	00f687b3          	add	a5,a3,a5
   10560:	00279793          	slli	a5,a5,0x2
   10564:	00f707b3          	add	a5,a4,a5
   10568:	0007a783          	lw	a5,0(a5)
   1056c:	000a0113          	mv	sp,s4
   10570:	00078513          	mv	a0,a5
   10574:	f9040113          	addi	sp,s0,-112
   10578:	06813083          	ld	ra,104(sp)
   1057c:	06013403          	ld	s0,96(sp)
   10580:	05813483          	ld	s1,88(sp)
   10584:	05013903          	ld	s2,80(sp)
   10588:	04813983          	ld	s3,72(sp)
   1058c:	04013a03          	ld	s4,64(sp)
   10590:	07010113          	addi	sp,sp,112
   10594:	00008067          	ret

0000000000010598 <initialise_benchmark>:
   10598:	ff010113          	addi	sp,sp,-16
   1059c:	00813423          	sd	s0,8(sp)
   105a0:	01010413          	addi	s0,sp,16
   105a4:	00000013          	nop
   105a8:	00813403          	ld	s0,8(sp)
   105ac:	01010113          	addi	sp,sp,16
   105b0:	00008067          	ret

00000000000105b4 <benchmark>:
   105b4:	fe010113          	addi	sp,sp,-32
   105b8:	00113c23          	sd	ra,24(sp)
   105bc:	00813823          	sd	s0,16(sp)
   105c0:	02010413          	addi	s0,sp,32
   105c4:	fe042223          	sw	zero,-28(s0)
   105c8:	fe042623          	sw	zero,-20(s0)
   105cc:	08c0006f          	j	10658 <benchmark+0xa4>
   105d0:	fe042423          	sw	zero,-24(s0)
   105d4:	0680006f          	j	1063c <benchmark+0x88>
   105d8:	000117b7          	lui	a5,0x11
   105dc:	fec42703          	lw	a4,-20(s0)
   105e0:	00371713          	slli	a4,a4,0x3
   105e4:	01878793          	addi	a5,a5,24 # 11018 <strings>
   105e8:	00f707b3          	add	a5,a4,a5
   105ec:	0007b683          	ld	a3,0(a5)
   105f0:	000117b7          	lui	a5,0x11
   105f4:	fe842703          	lw	a4,-24(s0)
   105f8:	00371713          	slli	a4,a4,0x3
   105fc:	01878793          	addi	a5,a5,24 # 11018 <strings>
   10600:	00f707b3          	add	a5,a4,a5
   10604:	0007b783          	ld	a5,0(a5)
   10608:	00078593          	mv	a1,a5
   1060c:	00068513          	mv	a0,a3
   10610:	c25ff0ef          	jal	ra,10234 <levenshtein_distance>
   10614:	00050793          	mv	a5,a0
   10618:	0007871b          	sext.w	a4,a5
   1061c:	fe442783          	lw	a5,-28(s0)
   10620:	0007879b          	sext.w	a5,a5
   10624:	00f707bb          	addw	a5,a4,a5
   10628:	0007879b          	sext.w	a5,a5
   1062c:	fef42223          	sw	a5,-28(s0)
   10630:	fe842783          	lw	a5,-24(s0)
   10634:	0017879b          	addiw	a5,a5,1
   10638:	fef42423          	sw	a5,-24(s0)
   1063c:	fe842783          	lw	a5,-24(s0)
   10640:	0007871b          	sext.w	a4,a5
   10644:	00400793          	li	a5,4
   10648:	f8e7d8e3          	bge	a5,a4,105d8 <benchmark+0x24>
   1064c:	fec42783          	lw	a5,-20(s0)
   10650:	0017879b          	addiw	a5,a5,1
   10654:	fef42623          	sw	a5,-20(s0)
   10658:	fec42783          	lw	a5,-20(s0)
   1065c:	0007871b          	sext.w	a4,a5
   10660:	00400793          	li	a5,4
   10664:	f6e7d6e3          	bge	a5,a4,105d0 <benchmark+0x1c>
   10668:	fe442783          	lw	a5,-28(s0)
   1066c:	0007879b          	sext.w	a5,a5
   10670:	0007879b          	sext.w	a5,a5
   10674:	00078513          	mv	a0,a5
   10678:	01813083          	ld	ra,24(sp)
   1067c:	01013403          	ld	s0,16(sp)
   10680:	02010113          	addi	sp,sp,32
   10684:	00008067          	ret

0000000000010688 <verify_benchmark>:
   10688:	fd010113          	addi	sp,sp,-48
   1068c:	02813423          	sd	s0,40(sp)
   10690:	03010413          	addi	s0,sp,48
   10694:	00050793          	mv	a5,a0
   10698:	fcf42e23          	sw	a5,-36(s0)
   1069c:	07a00793          	li	a5,122
   106a0:	fef42623          	sw	a5,-20(s0)
   106a4:	fdc42703          	lw	a4,-36(s0)
   106a8:	fec42783          	lw	a5,-20(s0)
   106ac:	0007071b          	sext.w	a4,a4
   106b0:	0007879b          	sext.w	a5,a5
   106b4:	00f70663          	beq	a4,a5,106c0 <verify_benchmark+0x38>
   106b8:	00000793          	li	a5,0
   106bc:	0080006f          	j	106c4 <verify_benchmark+0x3c>
   106c0:	00100793          	li	a5,1
   106c4:	00078513          	mv	a0,a5
   106c8:	02813403          	ld	s0,40(sp)
   106cc:	03010113          	addi	sp,sp,48
   106d0:	00008067          	ret

00000000000106d4 <main>:
   106d4:	fd010113          	addi	sp,sp,-48
   106d8:	02113423          	sd	ra,40(sp)
   106dc:	02813023          	sd	s0,32(sp)
   106e0:	03010413          	addi	s0,sp,48
   106e4:	00050793          	mv	a5,a0
   106e8:	fcb43823          	sd	a1,-48(s0)
   106ec:	fcf42e23          	sw	a5,-36(s0)
   106f0:	ea9ff0ef          	jal	ra,10598 <initialise_benchmark>
   106f4:	fe042623          	sw	zero,-20(s0)
   106f8:	0200006f          	j	10718 <main+0x44>
   106fc:	e9dff0ef          	jal	ra,10598 <initialise_benchmark>
   10700:	eb5ff0ef          	jal	ra,105b4 <benchmark>
   10704:	00050793          	mv	a5,a0
   10708:	fef42223          	sw	a5,-28(s0)
   1070c:	fec42783          	lw	a5,-20(s0)
   10710:	0017879b          	addiw	a5,a5,1
   10714:	fef42623          	sw	a5,-20(s0)
   10718:	fec42783          	lw	a5,-20(s0)
   1071c:	0007871b          	sext.w	a4,a5
   10720:	00100793          	li	a5,1
   10724:	fce7dce3          	bge	a5,a4,106fc <main+0x28>
   10728:	fe442783          	lw	a5,-28(s0)
   1072c:	0007879b          	sext.w	a5,a5
   10730:	00078513          	mv	a0,a5
   10734:	f55ff0ef          	jal	ra,10688 <verify_benchmark>
   10738:	00050793          	mv	a5,a0
   1073c:	fef42423          	sw	a5,-24(s0)
   10740:	fe842783          	lw	a5,-24(s0)
   10744:	0007879b          	sext.w	a5,a5
   10748:	0017b793          	seqz	a5,a5
   1074c:	0ff7f793          	zext.b	a5,a5
   10750:	0007879b          	sext.w	a5,a5
   10754:	00078513          	mv	a0,a5
   10758:	02813083          	ld	ra,40(sp)
   1075c:	02013403          	ld	s0,32(sp)
   10760:	03010113          	addi	sp,sp,48
   10764:	00008067          	ret

0000000000010768 <atexit>:
   10768:	00050593          	mv	a1,a0
   1076c:	00000693          	li	a3,0
   10770:	00000613          	li	a2,0
   10774:	00000513          	li	a0,0
   10778:	2440006f          	j	109bc <__register_exitproc>

000000000001077c <exit>:
   1077c:	ff010113          	addi	sp,sp,-16
   10780:	00000593          	li	a1,0
   10784:	00813023          	sd	s0,0(sp)
   10788:	00113423          	sd	ra,8(sp)
   1078c:	00050413          	mv	s0,a0
   10790:	2b4000ef          	jal	ra,10a44 <__call_exitprocs>
   10794:	000117b7          	lui	a5,0x11
   10798:	7907b503          	ld	a0,1936(a5) # 11790 <_global_impure_ptr>
   1079c:	05853783          	ld	a5,88(a0) # 11058 <impure_data+0x18>
   107a0:	00078463          	beqz	a5,107a8 <exit+0x2c>
   107a4:	000780e7          	jalr	a5
   107a8:	00040513          	mv	a0,s0
   107ac:	3b0000ef          	jal	ra,10b5c <_exit>

00000000000107b0 <__libc_fini_array>:
   107b0:	fd010113          	addi	sp,sp,-48
   107b4:	000117b7          	lui	a5,0x11
   107b8:	00011737          	lui	a4,0x11
   107bc:	02813023          	sd	s0,32(sp)
   107c0:	01070713          	addi	a4,a4,16 # 11010 <__do_global_dtors_aux_fini_array_entry>
   107c4:	01878413          	addi	s0,a5,24 # 11018 <strings>
   107c8:	40e40433          	sub	s0,s0,a4
   107cc:	00913c23          	sd	s1,24(sp)
   107d0:	01213823          	sd	s2,16(sp)
   107d4:	01313423          	sd	s3,8(sp)
   107d8:	02113423          	sd	ra,40(sp)
   107dc:	40345413          	srai	s0,s0,0x3
   107e0:	00000493          	li	s1,0
   107e4:	01878913          	addi	s2,a5,24
   107e8:	ff800993          	li	s3,-8
   107ec:	02941063          	bne	s0,s1,1080c <__libc_fini_array+0x5c>
   107f0:	02013403          	ld	s0,32(sp)
   107f4:	02813083          	ld	ra,40(sp)
   107f8:	01813483          	ld	s1,24(sp)
   107fc:	01013903          	ld	s2,16(sp)
   10800:	00813983          	ld	s3,8(sp)
   10804:	03010113          	addi	sp,sp,48
   10808:	8e9ff06f          	j	100f0 <_fini>
   1080c:	033487b3          	mul	a5,s1,s3
   10810:	00148493          	addi	s1,s1,1
   10814:	00f907b3          	add	a5,s2,a5
   10818:	ff87b783          	ld	a5,-8(a5)
   1081c:	000780e7          	jalr	a5
   10820:	fcdff06f          	j	107ec <__libc_fini_array+0x3c>

0000000000010824 <__libc_init_array>:
   10824:	fe010113          	addi	sp,sp,-32
   10828:	00813823          	sd	s0,16(sp)
   1082c:	00913423          	sd	s1,8(sp)
   10830:	00011437          	lui	s0,0x11
   10834:	000114b7          	lui	s1,0x11
   10838:	00448793          	addi	a5,s1,4 # 11004 <__preinit_array_end>
   1083c:	00440413          	addi	s0,s0,4 # 11004 <__preinit_array_end>
   10840:	40f40433          	sub	s0,s0,a5
   10844:	01213023          	sd	s2,0(sp)
   10848:	00113c23          	sd	ra,24(sp)
   1084c:	40345413          	srai	s0,s0,0x3
   10850:	00448493          	addi	s1,s1,4
   10854:	00000913          	li	s2,0
   10858:	04891263          	bne	s2,s0,1089c <__libc_init_array+0x78>
   1085c:	000114b7          	lui	s1,0x11
   10860:	891ff0ef          	jal	ra,100f0 <_fini>
   10864:	00011437          	lui	s0,0x11
   10868:	00848793          	addi	a5,s1,8 # 11008 <__frame_dummy_init_array_entry>
   1086c:	01040413          	addi	s0,s0,16 # 11010 <__do_global_dtors_aux_fini_array_entry>
   10870:	40f40433          	sub	s0,s0,a5
   10874:	40345413          	srai	s0,s0,0x3
   10878:	00848493          	addi	s1,s1,8
   1087c:	00000913          	li	s2,0
   10880:	02891863          	bne	s2,s0,108b0 <__libc_init_array+0x8c>
   10884:	01813083          	ld	ra,24(sp)
   10888:	01013403          	ld	s0,16(sp)
   1088c:	00813483          	ld	s1,8(sp)
   10890:	00013903          	ld	s2,0(sp)
   10894:	02010113          	addi	sp,sp,32
   10898:	00008067          	ret
   1089c:	0004b783          	ld	a5,0(s1)
   108a0:	00190913          	addi	s2,s2,1
   108a4:	00848493          	addi	s1,s1,8
   108a8:	000780e7          	jalr	a5
   108ac:	fadff06f          	j	10858 <__libc_init_array+0x34>
   108b0:	0004b783          	ld	a5,0(s1)
   108b4:	00190913          	addi	s2,s2,1
   108b8:	00848493          	addi	s1,s1,8
   108bc:	000780e7          	jalr	a5
   108c0:	fc1ff06f          	j	10880 <__libc_init_array+0x5c>

00000000000108c4 <memset>:
   108c4:	00f00313          	li	t1,15
   108c8:	00050713          	mv	a4,a0
   108cc:	02c37a63          	bgeu	t1,a2,10900 <memset+0x3c>
   108d0:	00f77793          	andi	a5,a4,15
   108d4:	0a079063          	bnez	a5,10974 <memset+0xb0>
   108d8:	06059e63          	bnez	a1,10954 <memset+0x90>
   108dc:	ff067693          	andi	a3,a2,-16
   108e0:	00f67613          	andi	a2,a2,15
   108e4:	00e686b3          	add	a3,a3,a4
   108e8:	00b73023          	sd	a1,0(a4)
   108ec:	00b73423          	sd	a1,8(a4)
   108f0:	01070713          	addi	a4,a4,16
   108f4:	fed76ae3          	bltu	a4,a3,108e8 <memset+0x24>
   108f8:	00061463          	bnez	a2,10900 <memset+0x3c>
   108fc:	00008067          	ret
   10900:	40c306b3          	sub	a3,t1,a2
   10904:	00269693          	slli	a3,a3,0x2
   10908:	00000297          	auipc	t0,0x0
   1090c:	005686b3          	add	a3,a3,t0
   10910:	00c68067          	jr	12(a3)
   10914:	00b70723          	sb	a1,14(a4)
   10918:	00b706a3          	sb	a1,13(a4)
   1091c:	00b70623          	sb	a1,12(a4)
   10920:	00b705a3          	sb	a1,11(a4)
   10924:	00b70523          	sb	a1,10(a4)
   10928:	00b704a3          	sb	a1,9(a4)
   1092c:	00b70423          	sb	a1,8(a4)
   10930:	00b703a3          	sb	a1,7(a4)
   10934:	00b70323          	sb	a1,6(a4)
   10938:	00b702a3          	sb	a1,5(a4)
   1093c:	00b70223          	sb	a1,4(a4)
   10940:	00b701a3          	sb	a1,3(a4)
   10944:	00b70123          	sb	a1,2(a4)
   10948:	00b700a3          	sb	a1,1(a4)
   1094c:	00b70023          	sb	a1,0(a4)
   10950:	00008067          	ret
   10954:	0ff5f593          	zext.b	a1,a1
   10958:	00859693          	slli	a3,a1,0x8
   1095c:	00d5e5b3          	or	a1,a1,a3
   10960:	01059693          	slli	a3,a1,0x10
   10964:	00d5e5b3          	or	a1,a1,a3
   10968:	02059693          	slli	a3,a1,0x20
   1096c:	00d5e5b3          	or	a1,a1,a3
   10970:	f6dff06f          	j	108dc <memset+0x18>
   10974:	00279693          	slli	a3,a5,0x2
   10978:	00000297          	auipc	t0,0x0
   1097c:	005686b3          	add	a3,a3,t0
   10980:	00008293          	mv	t0,ra
   10984:	f98680e7          	jalr	-104(a3)
   10988:	00028093          	mv	ra,t0
   1098c:	ff078793          	addi	a5,a5,-16
   10990:	40f70733          	sub	a4,a4,a5
   10994:	00f60633          	add	a2,a2,a5
   10998:	f6c374e3          	bgeu	t1,a2,10900 <memset+0x3c>
   1099c:	f3dff06f          	j	108d8 <memset+0x14>

00000000000109a0 <strlen>:
   109a0:	00050793          	mv	a5,a0
   109a4:	00178793          	addi	a5,a5,1
   109a8:	fff7c703          	lbu	a4,-1(a5)
   109ac:	fe071ce3          	bnez	a4,109a4 <strlen+0x4>
   109b0:	40a78533          	sub	a0,a5,a0
   109b4:	fff50513          	addi	a0,a0,-1
   109b8:	00008067          	ret

00000000000109bc <__register_exitproc>:
   109bc:	000117b7          	lui	a5,0x11
   109c0:	7907b703          	ld	a4,1936(a5) # 11790 <_global_impure_ptr>
   109c4:	00050313          	mv	t1,a0
   109c8:	1f873783          	ld	a5,504(a4)
   109cc:	00079663          	bnez	a5,109d8 <__register_exitproc+0x1c>
   109d0:	20070793          	addi	a5,a4,512
   109d4:	1ef73c23          	sd	a5,504(a4)
   109d8:	0087a703          	lw	a4,8(a5)
   109dc:	01f00813          	li	a6,31
   109e0:	fff00513          	li	a0,-1
   109e4:	04e84e63          	blt	a6,a4,10a40 <__register_exitproc+0x84>
   109e8:	02030e63          	beqz	t1,10a24 <__register_exitproc+0x68>
   109ec:	00371813          	slli	a6,a4,0x3
   109f0:	01078833          	add	a6,a5,a6
   109f4:	10c83823          	sd	a2,272(a6)
   109f8:	3107a883          	lw	a7,784(a5)
   109fc:	00100613          	li	a2,1
   10a00:	00e6163b          	sllw	a2,a2,a4
   10a04:	00c8e8b3          	or	a7,a7,a2
   10a08:	3117a823          	sw	a7,784(a5)
   10a0c:	20d83823          	sd	a3,528(a6)
   10a10:	00200693          	li	a3,2
   10a14:	00d31863          	bne	t1,a3,10a24 <__register_exitproc+0x68>
   10a18:	3147a683          	lw	a3,788(a5)
   10a1c:	00c6e633          	or	a2,a3,a2
   10a20:	30c7aa23          	sw	a2,788(a5)
   10a24:	0017069b          	addiw	a3,a4,1
   10a28:	00270713          	addi	a4,a4,2
   10a2c:	00371713          	slli	a4,a4,0x3
   10a30:	00d7a423          	sw	a3,8(a5)
   10a34:	00e787b3          	add	a5,a5,a4
   10a38:	00b7b023          	sd	a1,0(a5)
   10a3c:	00000513          	li	a0,0
   10a40:	00008067          	ret

0000000000010a44 <__call_exitprocs>:
   10a44:	fb010113          	addi	sp,sp,-80
   10a48:	000117b7          	lui	a5,0x11
   10a4c:	03313423          	sd	s3,40(sp)
   10a50:	7907b983          	ld	s3,1936(a5) # 11790 <_global_impure_ptr>
   10a54:	03413023          	sd	s4,32(sp)
   10a58:	01513c23          	sd	s5,24(sp)
   10a5c:	01613823          	sd	s6,16(sp)
   10a60:	04113423          	sd	ra,72(sp)
   10a64:	04813023          	sd	s0,64(sp)
   10a68:	02913c23          	sd	s1,56(sp)
   10a6c:	03213823          	sd	s2,48(sp)
   10a70:	01713423          	sd	s7,8(sp)
   10a74:	00050a93          	mv	s5,a0
   10a78:	00058a13          	mv	s4,a1
   10a7c:	00100b13          	li	s6,1
   10a80:	1f89b403          	ld	s0,504(s3)
   10a84:	00040c63          	beqz	s0,10a9c <__call_exitprocs+0x58>
   10a88:	00842483          	lw	s1,8(s0)
   10a8c:	fff4849b          	addiw	s1,s1,-1
   10a90:	00349913          	slli	s2,s1,0x3
   10a94:	01240933          	add	s2,s0,s2
   10a98:	0204d863          	bgez	s1,10ac8 <__call_exitprocs+0x84>
   10a9c:	04813083          	ld	ra,72(sp)
   10aa0:	04013403          	ld	s0,64(sp)
   10aa4:	03813483          	ld	s1,56(sp)
   10aa8:	03013903          	ld	s2,48(sp)
   10aac:	02813983          	ld	s3,40(sp)
   10ab0:	02013a03          	ld	s4,32(sp)
   10ab4:	01813a83          	ld	s5,24(sp)
   10ab8:	01013b03          	ld	s6,16(sp)
   10abc:	00813b83          	ld	s7,8(sp)
   10ac0:	05010113          	addi	sp,sp,80
   10ac4:	00008067          	ret
   10ac8:	000a0c63          	beqz	s4,10ae0 <__call_exitprocs+0x9c>
   10acc:	21093783          	ld	a5,528(s2)
   10ad0:	01478863          	beq	a5,s4,10ae0 <__call_exitprocs+0x9c>
   10ad4:	fff4849b          	addiw	s1,s1,-1
   10ad8:	ff890913          	addi	s2,s2,-8
   10adc:	fbdff06f          	j	10a98 <__call_exitprocs+0x54>
   10ae0:	00842783          	lw	a5,8(s0)
   10ae4:	01093683          	ld	a3,16(s2)
   10ae8:	fff7879b          	addiw	a5,a5,-1
   10aec:	02979e63          	bne	a5,s1,10b28 <__call_exitprocs+0xe4>
   10af0:	00942423          	sw	s1,8(s0)
   10af4:	fe0680e3          	beqz	a3,10ad4 <__call_exitprocs+0x90>
   10af8:	31042703          	lw	a4,784(s0)
   10afc:	009b163b          	sllw	a2,s6,s1
   10b00:	00842b83          	lw	s7,8(s0)
   10b04:	00c77733          	and	a4,a4,a2
   10b08:	0007071b          	sext.w	a4,a4
   10b0c:	02071263          	bnez	a4,10b30 <__call_exitprocs+0xec>
   10b10:	000680e7          	jalr	a3
   10b14:	00842703          	lw	a4,8(s0)
   10b18:	1f89b783          	ld	a5,504(s3)
   10b1c:	f77712e3          	bne	a4,s7,10a80 <__call_exitprocs+0x3c>
   10b20:	faf40ae3          	beq	s0,a5,10ad4 <__call_exitprocs+0x90>
   10b24:	f5dff06f          	j	10a80 <__call_exitprocs+0x3c>
   10b28:	00093823          	sd	zero,16(s2)
   10b2c:	fc9ff06f          	j	10af4 <__call_exitprocs+0xb0>
   10b30:	31442783          	lw	a5,788(s0)
   10b34:	11093583          	ld	a1,272(s2)
   10b38:	00c7f7b3          	and	a5,a5,a2
   10b3c:	0007879b          	sext.w	a5,a5
   10b40:	00079863          	bnez	a5,10b50 <__call_exitprocs+0x10c>
   10b44:	000a8513          	mv	a0,s5
   10b48:	000680e7          	jalr	a3
   10b4c:	fc9ff06f          	j	10b14 <__call_exitprocs+0xd0>
   10b50:	00058513          	mv	a0,a1
   10b54:	000680e7          	jalr	a3
   10b58:	fbdff06f          	j	10b14 <__call_exitprocs+0xd0>

0000000000010b5c <_exit>:
   10b5c:	00000593          	li	a1,0
   10b60:	00000613          	li	a2,0
   10b64:	00000693          	li	a3,0
   10b68:	00000713          	li	a4,0
   10b6c:	00000793          	li	a5,0
   10b70:	05d00893          	li	a7,93
   10b74:	00000073          	ecall
   10b78:	02055263          	bgez	a0,10b9c <_exit+0x40>
   10b7c:	ff010113          	addi	sp,sp,-16
   10b80:	00813023          	sd	s0,0(sp)
   10b84:	00050413          	mv	s0,a0
   10b88:	00113423          	sd	ra,8(sp)
   10b8c:	4080043b          	negw	s0,s0
   10b90:	010000ef          	jal	ra,10ba0 <__errno>
   10b94:	00852023          	sw	s0,0(a0)
   10b98:	0000006f          	j	10b98 <_exit+0x3c>
   10b9c:	0000006f          	j	10b9c <_exit+0x40>

0000000000010ba0 <__errno>:
   10ba0:	8101b503          	ld	a0,-2032(gp) # 11798 <_impure_ptr>
   10ba4:	00008067          	ret
