
supp/prime.riscv:     file format elf64-littleriscv


Disassembly of section .text:

00000000000100b0 <_start>:
   100b0:	00002197          	auipc	gp,0x2
   100b4:	eb018193          	addi	gp,gp,-336 # 11f60 <__global_pointer$>
   100b8:	81818513          	addi	a0,gp,-2024 # 11778 <completed.5212>
   100bc:	86018613          	addi	a2,gp,-1952 # 117c0 <_end>
   100c0:	40a60633          	sub	a2,a2,a0
   100c4:	00000593          	li	a1,0
   100c8:	5cc000ef          	jal	ra,10694 <memset>
   100cc:	00000517          	auipc	a0,0x0
   100d0:	4b450513          	addi	a0,a0,1204 # 10580 <__libc_fini_array>
   100d4:	464000ef          	jal	ra,10538 <atexit>
   100d8:	51c000ef          	jal	ra,105f4 <__libc_init_array>
   100dc:	00012503          	lw	a0,0(sp)
   100e0:	00810593          	addi	a1,sp,8
   100e4:	00000613          	li	a2,0
   100e8:	3f8000ef          	jal	ra,104e0 <main>
   100ec:	4600006f          	j	1054c <exit>

00000000000100f0 <_fini>:
   100f0:	00008067          	ret

00000000000100f4 <deregister_tm_clones>:
   100f4:	00011537          	lui	a0,0x11
   100f8:	000117b7          	lui	a5,0x11
   100fc:	76050713          	addi	a4,a0,1888 # 11760 <__TMC_END__>
   10100:	76078793          	addi	a5,a5,1888 # 11760 <__TMC_END__>
   10104:	00e78c63          	beq	a5,a4,1011c <deregister_tm_clones+0x28>
   10108:	00000337          	lui	t1,0x0
   1010c:	00030313          	mv	t1,t1
   10110:	00030663          	beqz	t1,1011c <deregister_tm_clones+0x28>
   10114:	76050513          	addi	a0,a0,1888
   10118:	00030067          	jr	t1 # 0 <_start-0x100b0>
   1011c:	00008067          	ret

0000000000010120 <register_tm_clones>:
   10120:	000117b7          	lui	a5,0x11
   10124:	00011537          	lui	a0,0x11
   10128:	76078593          	addi	a1,a5,1888 # 11760 <__TMC_END__>
   1012c:	76050793          	addi	a5,a0,1888 # 11760 <__TMC_END__>
   10130:	40f585b3          	sub	a1,a1,a5
   10134:	4035d593          	srai	a1,a1,0x3
   10138:	00200793          	li	a5,2
   1013c:	02f5c5b3          	div	a1,a1,a5
   10140:	00058c63          	beqz	a1,10158 <register_tm_clones+0x38>
   10144:	00000337          	lui	t1,0x0
   10148:	00030313          	mv	t1,t1
   1014c:	00030663          	beqz	t1,10158 <register_tm_clones+0x38>
   10150:	76050513          	addi	a0,a0,1888
   10154:	00030067          	jr	t1 # 0 <_start-0x100b0>
   10158:	00008067          	ret

000000000001015c <__do_global_dtors_aux>:
   1015c:	8181c703          	lbu	a4,-2024(gp) # 11778 <completed.5212>
   10160:	04071663          	bnez	a4,101ac <__do_global_dtors_aux+0x50>
   10164:	ff010113          	addi	sp,sp,-16
   10168:	00813023          	sd	s0,0(sp)
   1016c:	00113423          	sd	ra,8(sp)
   10170:	00078413          	mv	s0,a5
   10174:	f81ff0ef          	jal	ra,100f4 <deregister_tm_clones>
   10178:	000007b7          	lui	a5,0x0
   1017c:	00078793          	mv	a5,a5
   10180:	00078a63          	beqz	a5,10194 <__do_global_dtors_aux+0x38>
   10184:	00011537          	lui	a0,0x11
   10188:	00050513          	mv	a0,a0
   1018c:	ffff0097          	auipc	ra,0xffff0
   10190:	e74080e7          	jalr	-396(ra) # 0 <_start-0x100b0>
   10194:	00100793          	li	a5,1
   10198:	80f18c23          	sb	a5,-2024(gp) # 11778 <completed.5212>
   1019c:	00813083          	ld	ra,8(sp)
   101a0:	00013403          	ld	s0,0(sp)
   101a4:	01010113          	addi	sp,sp,16
   101a8:	00008067          	ret
   101ac:	00008067          	ret

00000000000101b0 <frame_dummy>:
   101b0:	000007b7          	lui	a5,0x0
   101b4:	00078793          	mv	a5,a5
   101b8:	02078663          	beqz	a5,101e4 <frame_dummy+0x34>
   101bc:	000115b7          	lui	a1,0x11
   101c0:	00011537          	lui	a0,0x11
   101c4:	ff010113          	addi	sp,sp,-16
   101c8:	78058593          	addi	a1,a1,1920 # 11780 <object.5217>
   101cc:	00050513          	mv	a0,a0
   101d0:	00113423          	sd	ra,8(sp)
   101d4:	ffff0097          	auipc	ra,0xffff0
   101d8:	e2c080e7          	jalr	-468(ra) # 0 <_start-0x100b0>
   101dc:	00813083          	ld	ra,8(sp)
   101e0:	01010113          	addi	sp,sp,16
   101e4:	f3dff06f          	j	10120 <register_tm_clones>

00000000000101e8 <prime_initSeed>:
   101e8:	ff010113          	addi	sp,sp,-16
   101ec:	00813423          	sd	s0,8(sp)
   101f0:	01010413          	addi	s0,sp,16
   101f4:	8401aa23          	sw	zero,-1964(gp) # 117b4 <prime_seed>
   101f8:	00000013          	nop
   101fc:	00813403          	ld	s0,8(sp)
   10200:	01010113          	addi	sp,sp,16
   10204:	00008067          	ret

0000000000010208 <prime_randomInteger>:
   10208:	ff010113          	addi	sp,sp,-16
   1020c:	00813423          	sd	s0,8(sp)
   10210:	01010413          	addi	s0,sp,16
   10214:	8541a783          	lw	a5,-1964(gp) # 117b4 <prime_seed>
   10218:	0007879b          	sext.w	a5,a5
   1021c:	00078713          	mv	a4,a5
   10220:	00070793          	mv	a5,a4
   10224:	0057979b          	slliw	a5,a5,0x5
   10228:	00e787bb          	addw	a5,a5,a4
   1022c:	0027979b          	slliw	a5,a5,0x2
   10230:	00e787bb          	addw	a5,a5,a4
   10234:	0007879b          	sext.w	a5,a5
   10238:	0517879b          	addiw	a5,a5,81
   1023c:	0007879b          	sext.w	a5,a5
   10240:	00078713          	mv	a4,a5
   10244:	000027b7          	lui	a5,0x2
   10248:	f9f7879b          	addiw	a5,a5,-97
   1024c:	02f767bb          	remw	a5,a4,a5
   10250:	0007871b          	sext.w	a4,a5
   10254:	84e1aa23          	sw	a4,-1964(gp) # 117b4 <prime_seed>
   10258:	8541a783          	lw	a5,-1964(gp) # 117b4 <prime_seed>
   1025c:	0007879b          	sext.w	a5,a5
   10260:	0007879b          	sext.w	a5,a5
   10264:	00078513          	mv	a0,a5
   10268:	00813403          	ld	s0,8(sp)
   1026c:	01010113          	addi	sp,sp,16
   10270:	00008067          	ret

0000000000010274 <prime_init>:
   10274:	ff010113          	addi	sp,sp,-16
   10278:	00113423          	sd	ra,8(sp)
   1027c:	00813023          	sd	s0,0(sp)
   10280:	01010413          	addi	s0,sp,16
   10284:	f65ff0ef          	jal	ra,101e8 <prime_initSeed>
   10288:	f81ff0ef          	jal	ra,10208 <prime_randomInteger>
   1028c:	00050793          	mv	a5,a0
   10290:	0007871b          	sext.w	a4,a5
   10294:	84e1ac23          	sw	a4,-1960(gp) # 117b8 <prime_x>
   10298:	f71ff0ef          	jal	ra,10208 <prime_randomInteger>
   1029c:	00050793          	mv	a5,a0
   102a0:	0007871b          	sext.w	a4,a5
   102a4:	84e1ae23          	sw	a4,-1956(gp) # 117bc <prime_y>
   102a8:	00000013          	nop
   102ac:	00813083          	ld	ra,8(sp)
   102b0:	00013403          	ld	s0,0(sp)
   102b4:	01010113          	addi	sp,sp,16
   102b8:	00008067          	ret

00000000000102bc <prime_return>:
   102bc:	ff010113          	addi	sp,sp,-16
   102c0:	00813423          	sd	s0,8(sp)
   102c4:	01010413          	addi	s0,sp,16
   102c8:	8501a783          	lw	a5,-1968(gp) # 117b0 <prime_result>
   102cc:	00078513          	mv	a0,a5
   102d0:	00813403          	ld	s0,8(sp)
   102d4:	01010113          	addi	sp,sp,16
   102d8:	00008067          	ret

00000000000102dc <prime_divides>:
   102dc:	fe010113          	addi	sp,sp,-32
   102e0:	00813c23          	sd	s0,24(sp)
   102e4:	02010413          	addi	s0,sp,32
   102e8:	00050793          	mv	a5,a0
   102ec:	00058713          	mv	a4,a1
   102f0:	fef42623          	sw	a5,-20(s0)
   102f4:	00070793          	mv	a5,a4
   102f8:	fef42423          	sw	a5,-24(s0)
   102fc:	fe842703          	lw	a4,-24(s0)
   10300:	fec42783          	lw	a5,-20(s0)
   10304:	02f777bb          	remuw	a5,a4,a5
   10308:	0007879b          	sext.w	a5,a5
   1030c:	0017b793          	seqz	a5,a5
   10310:	0ff7f793          	zext.b	a5,a5
   10314:	00078513          	mv	a0,a5
   10318:	01813403          	ld	s0,24(sp)
   1031c:	02010113          	addi	sp,sp,32
   10320:	00008067          	ret

0000000000010324 <prime_even>:
   10324:	fe010113          	addi	sp,sp,-32
   10328:	00113c23          	sd	ra,24(sp)
   1032c:	00813823          	sd	s0,16(sp)
   10330:	02010413          	addi	s0,sp,32
   10334:	00050793          	mv	a5,a0
   10338:	fef42623          	sw	a5,-20(s0)
   1033c:	fec42783          	lw	a5,-20(s0)
   10340:	00078593          	mv	a1,a5
   10344:	00200513          	li	a0,2
   10348:	f95ff0ef          	jal	ra,102dc <prime_divides>
   1034c:	00050793          	mv	a5,a0
   10350:	00078513          	mv	a0,a5
   10354:	01813083          	ld	ra,24(sp)
   10358:	01013403          	ld	s0,16(sp)
   1035c:	02010113          	addi	sp,sp,32
   10360:	00008067          	ret

0000000000010364 <prime_prime>:
   10364:	fd010113          	addi	sp,sp,-48
   10368:	02113423          	sd	ra,40(sp)
   1036c:	02813023          	sd	s0,32(sp)
   10370:	03010413          	addi	s0,sp,48
   10374:	00050793          	mv	a5,a0
   10378:	fcf42e23          	sw	a5,-36(s0)
   1037c:	fdc42783          	lw	a5,-36(s0)
   10380:	00078513          	mv	a0,a5
   10384:	fa1ff0ef          	jal	ra,10324 <prime_even>
   10388:	00050793          	mv	a5,a0
   1038c:	02078063          	beqz	a5,103ac <prime_prime+0x48>
   10390:	fdc42783          	lw	a5,-36(s0)
   10394:	0007871b          	sext.w	a4,a5
   10398:	00200793          	li	a5,2
   1039c:	40f707b3          	sub	a5,a4,a5
   103a0:	0017b793          	seqz	a5,a5
   103a4:	0ff7f793          	zext.b	a5,a5
   103a8:	0700006f          	j	10418 <prime_prime+0xb4>
   103ac:	00300793          	li	a5,3
   103b0:	fef42623          	sw	a5,-20(s0)
   103b4:	0340006f          	j	103e8 <prime_prime+0x84>
   103b8:	fdc42703          	lw	a4,-36(s0)
   103bc:	fec42783          	lw	a5,-20(s0)
   103c0:	00070593          	mv	a1,a4
   103c4:	00078513          	mv	a0,a5
   103c8:	f15ff0ef          	jal	ra,102dc <prime_divides>
   103cc:	00050793          	mv	a5,a0
   103d0:	00078663          	beqz	a5,103dc <prime_prime+0x78>
   103d4:	00000793          	li	a5,0
   103d8:	0400006f          	j	10418 <prime_prime+0xb4>
   103dc:	fec42783          	lw	a5,-20(s0)
   103e0:	0027879b          	addiw	a5,a5,2
   103e4:	fef42623          	sw	a5,-20(s0)
   103e8:	fec42703          	lw	a4,-20(s0)
   103ec:	fec42783          	lw	a5,-20(s0)
   103f0:	02f707bb          	mulw	a5,a4,a5
   103f4:	0007871b          	sext.w	a4,a5
   103f8:	fdc42783          	lw	a5,-36(s0)
   103fc:	0007879b          	sext.w	a5,a5
   10400:	fae7fce3          	bgeu	a5,a4,103b8 <prime_prime+0x54>
   10404:	fdc42783          	lw	a5,-36(s0)
   10408:	0007871b          	sext.w	a4,a5
   1040c:	00100793          	li	a5,1
   10410:	00e7b7b3          	sltu	a5,a5,a4
   10414:	0ff7f793          	zext.b	a5,a5
   10418:	00078513          	mv	a0,a5
   1041c:	02813083          	ld	ra,40(sp)
   10420:	02013403          	ld	s0,32(sp)
   10424:	03010113          	addi	sp,sp,48
   10428:	00008067          	ret

000000000001042c <prime_swap>:
   1042c:	fd010113          	addi	sp,sp,-48
   10430:	02813423          	sd	s0,40(sp)
   10434:	03010413          	addi	s0,sp,48
   10438:	fca43c23          	sd	a0,-40(s0)
   1043c:	fcb43823          	sd	a1,-48(s0)
   10440:	fd843783          	ld	a5,-40(s0)
   10444:	0007a783          	lw	a5,0(a5) # 2000 <_start-0xe0b0>
   10448:	fef42623          	sw	a5,-20(s0)
   1044c:	fd043783          	ld	a5,-48(s0)
   10450:	0007a703          	lw	a4,0(a5)
   10454:	fd843783          	ld	a5,-40(s0)
   10458:	00e7a023          	sw	a4,0(a5)
   1045c:	fd043783          	ld	a5,-48(s0)
   10460:	fec42703          	lw	a4,-20(s0)
   10464:	00e7a023          	sw	a4,0(a5)
   10468:	00000013          	nop
   1046c:	02813403          	ld	s0,40(sp)
   10470:	03010113          	addi	sp,sp,48
   10474:	00008067          	ret

0000000000010478 <prime_main>:
   10478:	ff010113          	addi	sp,sp,-16
   1047c:	00113423          	sd	ra,8(sp)
   10480:	00813023          	sd	s0,0(sp)
   10484:	01010413          	addi	s0,sp,16
   10488:	85c18593          	addi	a1,gp,-1956 # 117bc <prime_y>
   1048c:	85818513          	addi	a0,gp,-1960 # 117b8 <prime_x>
   10490:	f9dff0ef          	jal	ra,1042c <prime_swap>
   10494:	8581a783          	lw	a5,-1960(gp) # 117b8 <prime_x>
   10498:	00078513          	mv	a0,a5
   1049c:	ec9ff0ef          	jal	ra,10364 <prime_prime>
   104a0:	00050793          	mv	a5,a0
   104a4:	00079c63          	bnez	a5,104bc <prime_main+0x44>
   104a8:	85c1a783          	lw	a5,-1956(gp) # 117bc <prime_y>
   104ac:	00078513          	mv	a0,a5
   104b0:	eb5ff0ef          	jal	ra,10364 <prime_prime>
   104b4:	00050793          	mv	a5,a0
   104b8:	00078663          	beqz	a5,104c4 <prime_main+0x4c>
   104bc:	00100793          	li	a5,1
   104c0:	0080006f          	j	104c8 <prime_main+0x50>
   104c4:	00000793          	li	a5,0
   104c8:	84f1a823          	sw	a5,-1968(gp) # 117b0 <prime_result>
   104cc:	00000013          	nop
   104d0:	00813083          	ld	ra,8(sp)
   104d4:	00013403          	ld	s0,0(sp)
   104d8:	01010113          	addi	sp,sp,16
   104dc:	00008067          	ret

00000000000104e0 <main>:
   104e0:	fe010113          	addi	sp,sp,-32
   104e4:	00113c23          	sd	ra,24(sp)
   104e8:	00813823          	sd	s0,16(sp)
   104ec:	02010413          	addi	s0,sp,32
   104f0:	fe042623          	sw	zero,-20(s0)
   104f4:	0180006f          	j	1050c <main+0x2c>
   104f8:	d7dff0ef          	jal	ra,10274 <prime_init>
   104fc:	f7dff0ef          	jal	ra,10478 <prime_main>
   10500:	fec42783          	lw	a5,-20(s0)
   10504:	0017879b          	addiw	a5,a5,1
   10508:	fef42623          	sw	a5,-20(s0)
   1050c:	fec42783          	lw	a5,-20(s0)
   10510:	0007871b          	sext.w	a4,a5
   10514:	01300793          	li	a5,19
   10518:	fee7d0e3          	bge	a5,a4,104f8 <main+0x18>
   1051c:	da1ff0ef          	jal	ra,102bc <prime_return>
   10520:	00050793          	mv	a5,a0
   10524:	00078513          	mv	a0,a5
   10528:	01813083          	ld	ra,24(sp)
   1052c:	01013403          	ld	s0,16(sp)
   10530:	02010113          	addi	sp,sp,32
   10534:	00008067          	ret

0000000000010538 <atexit>:
   10538:	00050593          	mv	a1,a0
   1053c:	00000693          	li	a3,0
   10540:	00000613          	li	a2,0
   10544:	00000513          	li	a0,0
   10548:	2280006f          	j	10770 <__register_exitproc>

000000000001054c <exit>:
   1054c:	ff010113          	addi	sp,sp,-16
   10550:	00000593          	li	a1,0
   10554:	00813023          	sd	s0,0(sp)
   10558:	00113423          	sd	ra,8(sp)
   1055c:	00050413          	mv	s0,a0
   10560:	298000ef          	jal	ra,107f8 <__call_exitprocs>
   10564:	000117b7          	lui	a5,0x11
   10568:	7687b503          	ld	a0,1896(a5) # 11768 <_global_impure_ptr>
   1056c:	05853783          	ld	a5,88(a0) # 11058 <impure_data+0x40>
   10570:	00078463          	beqz	a5,10578 <exit+0x2c>
   10574:	000780e7          	jalr	a5
   10578:	00040513          	mv	a0,s0
   1057c:	394000ef          	jal	ra,10910 <_exit>

0000000000010580 <__libc_fini_array>:
   10580:	fd010113          	addi	sp,sp,-48
   10584:	000117b7          	lui	a5,0x11
   10588:	00011737          	lui	a4,0x11
   1058c:	02813023          	sd	s0,32(sp)
   10590:	01070713          	addi	a4,a4,16 # 11010 <__do_global_dtors_aux_fini_array_entry>
   10594:	01878413          	addi	s0,a5,24 # 11018 <impure_data>
   10598:	40e40433          	sub	s0,s0,a4
   1059c:	00913c23          	sd	s1,24(sp)
   105a0:	01213823          	sd	s2,16(sp)
   105a4:	01313423          	sd	s3,8(sp)
   105a8:	02113423          	sd	ra,40(sp)
   105ac:	40345413          	srai	s0,s0,0x3
   105b0:	00000493          	li	s1,0
   105b4:	01878913          	addi	s2,a5,24
   105b8:	ff800993          	li	s3,-8
   105bc:	02941063          	bne	s0,s1,105dc <__libc_fini_array+0x5c>
   105c0:	02013403          	ld	s0,32(sp)
   105c4:	02813083          	ld	ra,40(sp)
   105c8:	01813483          	ld	s1,24(sp)
   105cc:	01013903          	ld	s2,16(sp)
   105d0:	00813983          	ld	s3,8(sp)
   105d4:	03010113          	addi	sp,sp,48
   105d8:	b19ff06f          	j	100f0 <_fini>
   105dc:	033487b3          	mul	a5,s1,s3
   105e0:	00148493          	addi	s1,s1,1
   105e4:	00f907b3          	add	a5,s2,a5
   105e8:	ff87b783          	ld	a5,-8(a5)
   105ec:	000780e7          	jalr	a5
   105f0:	fcdff06f          	j	105bc <__libc_fini_array+0x3c>

00000000000105f4 <__libc_init_array>:
   105f4:	fe010113          	addi	sp,sp,-32
   105f8:	00813823          	sd	s0,16(sp)
   105fc:	00913423          	sd	s1,8(sp)
   10600:	00011437          	lui	s0,0x11
   10604:	000114b7          	lui	s1,0x11
   10608:	00448793          	addi	a5,s1,4 # 11004 <__preinit_array_end>
   1060c:	00440413          	addi	s0,s0,4 # 11004 <__preinit_array_end>
   10610:	40f40433          	sub	s0,s0,a5
   10614:	01213023          	sd	s2,0(sp)
   10618:	00113c23          	sd	ra,24(sp)
   1061c:	40345413          	srai	s0,s0,0x3
   10620:	00448493          	addi	s1,s1,4
   10624:	00000913          	li	s2,0
   10628:	04891263          	bne	s2,s0,1066c <__libc_init_array+0x78>
   1062c:	000114b7          	lui	s1,0x11
   10630:	ac1ff0ef          	jal	ra,100f0 <_fini>
   10634:	00011437          	lui	s0,0x11
   10638:	00848793          	addi	a5,s1,8 # 11008 <__frame_dummy_init_array_entry>
   1063c:	01040413          	addi	s0,s0,16 # 11010 <__do_global_dtors_aux_fini_array_entry>
   10640:	40f40433          	sub	s0,s0,a5
   10644:	40345413          	srai	s0,s0,0x3
   10648:	00848493          	addi	s1,s1,8
   1064c:	00000913          	li	s2,0
   10650:	02891863          	bne	s2,s0,10680 <__libc_init_array+0x8c>
   10654:	01813083          	ld	ra,24(sp)
   10658:	01013403          	ld	s0,16(sp)
   1065c:	00813483          	ld	s1,8(sp)
   10660:	00013903          	ld	s2,0(sp)
   10664:	02010113          	addi	sp,sp,32
   10668:	00008067          	ret
   1066c:	0004b783          	ld	a5,0(s1)
   10670:	00190913          	addi	s2,s2,1
   10674:	00848493          	addi	s1,s1,8
   10678:	000780e7          	jalr	a5
   1067c:	fadff06f          	j	10628 <__libc_init_array+0x34>
   10680:	0004b783          	ld	a5,0(s1)
   10684:	00190913          	addi	s2,s2,1
   10688:	00848493          	addi	s1,s1,8
   1068c:	000780e7          	jalr	a5
   10690:	fc1ff06f          	j	10650 <__libc_init_array+0x5c>

0000000000010694 <memset>:
   10694:	00f00313          	li	t1,15
   10698:	00050713          	mv	a4,a0
   1069c:	02c37a63          	bgeu	t1,a2,106d0 <memset+0x3c>
   106a0:	00f77793          	andi	a5,a4,15
   106a4:	0a079063          	bnez	a5,10744 <memset+0xb0>
   106a8:	06059e63          	bnez	a1,10724 <memset+0x90>
   106ac:	ff067693          	andi	a3,a2,-16
   106b0:	00f67613          	andi	a2,a2,15
   106b4:	00e686b3          	add	a3,a3,a4
   106b8:	00b73023          	sd	a1,0(a4)
   106bc:	00b73423          	sd	a1,8(a4)
   106c0:	01070713          	addi	a4,a4,16
   106c4:	fed76ae3          	bltu	a4,a3,106b8 <memset+0x24>
   106c8:	00061463          	bnez	a2,106d0 <memset+0x3c>
   106cc:	00008067          	ret
   106d0:	40c306b3          	sub	a3,t1,a2
   106d4:	00269693          	slli	a3,a3,0x2
   106d8:	00000297          	auipc	t0,0x0
   106dc:	005686b3          	add	a3,a3,t0
   106e0:	00c68067          	jr	12(a3)
   106e4:	00b70723          	sb	a1,14(a4)
   106e8:	00b706a3          	sb	a1,13(a4)
   106ec:	00b70623          	sb	a1,12(a4)
   106f0:	00b705a3          	sb	a1,11(a4)
   106f4:	00b70523          	sb	a1,10(a4)
   106f8:	00b704a3          	sb	a1,9(a4)
   106fc:	00b70423          	sb	a1,8(a4)
   10700:	00b703a3          	sb	a1,7(a4)
   10704:	00b70323          	sb	a1,6(a4)
   10708:	00b702a3          	sb	a1,5(a4)
   1070c:	00b70223          	sb	a1,4(a4)
   10710:	00b701a3          	sb	a1,3(a4)
   10714:	00b70123          	sb	a1,2(a4)
   10718:	00b700a3          	sb	a1,1(a4)
   1071c:	00b70023          	sb	a1,0(a4)
   10720:	00008067          	ret
   10724:	0ff5f593          	zext.b	a1,a1
   10728:	00859693          	slli	a3,a1,0x8
   1072c:	00d5e5b3          	or	a1,a1,a3
   10730:	01059693          	slli	a3,a1,0x10
   10734:	00d5e5b3          	or	a1,a1,a3
   10738:	02059693          	slli	a3,a1,0x20
   1073c:	00d5e5b3          	or	a1,a1,a3
   10740:	f6dff06f          	j	106ac <memset+0x18>
   10744:	00279693          	slli	a3,a5,0x2
   10748:	00000297          	auipc	t0,0x0
   1074c:	005686b3          	add	a3,a3,t0
   10750:	00008293          	mv	t0,ra
   10754:	f98680e7          	jalr	-104(a3)
   10758:	00028093          	mv	ra,t0
   1075c:	ff078793          	addi	a5,a5,-16
   10760:	40f70733          	sub	a4,a4,a5
   10764:	00f60633          	add	a2,a2,a5
   10768:	f6c374e3          	bgeu	t1,a2,106d0 <memset+0x3c>
   1076c:	f3dff06f          	j	106a8 <memset+0x14>

0000000000010770 <__register_exitproc>:
   10770:	000117b7          	lui	a5,0x11
   10774:	7687b703          	ld	a4,1896(a5) # 11768 <_global_impure_ptr>
   10778:	00050313          	mv	t1,a0
   1077c:	1f873783          	ld	a5,504(a4)
   10780:	00079663          	bnez	a5,1078c <__register_exitproc+0x1c>
   10784:	20070793          	addi	a5,a4,512
   10788:	1ef73c23          	sd	a5,504(a4)
   1078c:	0087a703          	lw	a4,8(a5)
   10790:	01f00813          	li	a6,31
   10794:	fff00513          	li	a0,-1
   10798:	04e84e63          	blt	a6,a4,107f4 <__register_exitproc+0x84>
   1079c:	02030e63          	beqz	t1,107d8 <__register_exitproc+0x68>
   107a0:	00371813          	slli	a6,a4,0x3
   107a4:	01078833          	add	a6,a5,a6
   107a8:	10c83823          	sd	a2,272(a6)
   107ac:	3107a883          	lw	a7,784(a5)
   107b0:	00100613          	li	a2,1
   107b4:	00e6163b          	sllw	a2,a2,a4
   107b8:	00c8e8b3          	or	a7,a7,a2
   107bc:	3117a823          	sw	a7,784(a5)
   107c0:	20d83823          	sd	a3,528(a6)
   107c4:	00200693          	li	a3,2
   107c8:	00d31863          	bne	t1,a3,107d8 <__register_exitproc+0x68>
   107cc:	3147a683          	lw	a3,788(a5)
   107d0:	00c6e633          	or	a2,a3,a2
   107d4:	30c7aa23          	sw	a2,788(a5)
   107d8:	0017069b          	addiw	a3,a4,1
   107dc:	00270713          	addi	a4,a4,2
   107e0:	00371713          	slli	a4,a4,0x3
   107e4:	00d7a423          	sw	a3,8(a5)
   107e8:	00e787b3          	add	a5,a5,a4
   107ec:	00b7b023          	sd	a1,0(a5)
   107f0:	00000513          	li	a0,0
   107f4:	00008067          	ret

00000000000107f8 <__call_exitprocs>:
   107f8:	fb010113          	addi	sp,sp,-80
   107fc:	000117b7          	lui	a5,0x11
   10800:	03313423          	sd	s3,40(sp)
   10804:	7687b983          	ld	s3,1896(a5) # 11768 <_global_impure_ptr>
   10808:	03413023          	sd	s4,32(sp)
   1080c:	01513c23          	sd	s5,24(sp)
   10810:	01613823          	sd	s6,16(sp)
   10814:	04113423          	sd	ra,72(sp)
   10818:	04813023          	sd	s0,64(sp)
   1081c:	02913c23          	sd	s1,56(sp)
   10820:	03213823          	sd	s2,48(sp)
   10824:	01713423          	sd	s7,8(sp)
   10828:	00050a93          	mv	s5,a0
   1082c:	00058a13          	mv	s4,a1
   10830:	00100b13          	li	s6,1
   10834:	1f89b403          	ld	s0,504(s3)
   10838:	00040c63          	beqz	s0,10850 <__call_exitprocs+0x58>
   1083c:	00842483          	lw	s1,8(s0)
   10840:	fff4849b          	addiw	s1,s1,-1
   10844:	00349913          	slli	s2,s1,0x3
   10848:	01240933          	add	s2,s0,s2
   1084c:	0204d863          	bgez	s1,1087c <__call_exitprocs+0x84>
   10850:	04813083          	ld	ra,72(sp)
   10854:	04013403          	ld	s0,64(sp)
   10858:	03813483          	ld	s1,56(sp)
   1085c:	03013903          	ld	s2,48(sp)
   10860:	02813983          	ld	s3,40(sp)
   10864:	02013a03          	ld	s4,32(sp)
   10868:	01813a83          	ld	s5,24(sp)
   1086c:	01013b03          	ld	s6,16(sp)
   10870:	00813b83          	ld	s7,8(sp)
   10874:	05010113          	addi	sp,sp,80
   10878:	00008067          	ret
   1087c:	000a0c63          	beqz	s4,10894 <__call_exitprocs+0x9c>
   10880:	21093783          	ld	a5,528(s2)
   10884:	01478863          	beq	a5,s4,10894 <__call_exitprocs+0x9c>
   10888:	fff4849b          	addiw	s1,s1,-1
   1088c:	ff890913          	addi	s2,s2,-8
   10890:	fbdff06f          	j	1084c <__call_exitprocs+0x54>
   10894:	00842783          	lw	a5,8(s0)
   10898:	01093683          	ld	a3,16(s2)
   1089c:	fff7879b          	addiw	a5,a5,-1
   108a0:	02979e63          	bne	a5,s1,108dc <__call_exitprocs+0xe4>
   108a4:	00942423          	sw	s1,8(s0)
   108a8:	fe0680e3          	beqz	a3,10888 <__call_exitprocs+0x90>
   108ac:	31042703          	lw	a4,784(s0)
   108b0:	009b163b          	sllw	a2,s6,s1
   108b4:	00842b83          	lw	s7,8(s0)
   108b8:	00c77733          	and	a4,a4,a2
   108bc:	0007071b          	sext.w	a4,a4
   108c0:	02071263          	bnez	a4,108e4 <__call_exitprocs+0xec>
   108c4:	000680e7          	jalr	a3
   108c8:	00842703          	lw	a4,8(s0)
   108cc:	1f89b783          	ld	a5,504(s3)
   108d0:	f77712e3          	bne	a4,s7,10834 <__call_exitprocs+0x3c>
   108d4:	faf40ae3          	beq	s0,a5,10888 <__call_exitprocs+0x90>
   108d8:	f5dff06f          	j	10834 <__call_exitprocs+0x3c>
   108dc:	00093823          	sd	zero,16(s2)
   108e0:	fc9ff06f          	j	108a8 <__call_exitprocs+0xb0>
   108e4:	31442783          	lw	a5,788(s0)
   108e8:	11093583          	ld	a1,272(s2)
   108ec:	00c7f7b3          	and	a5,a5,a2
   108f0:	0007879b          	sext.w	a5,a5
   108f4:	00079863          	bnez	a5,10904 <__call_exitprocs+0x10c>
   108f8:	000a8513          	mv	a0,s5
   108fc:	000680e7          	jalr	a3
   10900:	fc9ff06f          	j	108c8 <__call_exitprocs+0xd0>
   10904:	00058513          	mv	a0,a1
   10908:	000680e7          	jalr	a3
   1090c:	fbdff06f          	j	108c8 <__call_exitprocs+0xd0>

0000000000010910 <_exit>:
   10910:	00000593          	li	a1,0
   10914:	00000613          	li	a2,0
   10918:	00000693          	li	a3,0
   1091c:	00000713          	li	a4,0
   10920:	00000793          	li	a5,0
   10924:	05d00893          	li	a7,93
   10928:	00000073          	ecall
   1092c:	02055263          	bgez	a0,10950 <_exit+0x40>
   10930:	ff010113          	addi	sp,sp,-16
   10934:	00813023          	sd	s0,0(sp)
   10938:	00050413          	mv	s0,a0
   1093c:	00113423          	sd	ra,8(sp)
   10940:	4080043b          	negw	s0,s0
   10944:	010000ef          	jal	ra,10954 <__errno>
   10948:	00852023          	sw	s0,0(a0)
   1094c:	0000006f          	j	1094c <_exit+0x3c>
   10950:	0000006f          	j	10950 <_exit+0x40>

0000000000010954 <__errno>:
   10954:	8101b503          	ld	a0,-2032(gp) # 11770 <_impure_ptr>
   10958:	00008067          	ret
