
supp/select.riscv:     file format elf64-littleriscv


Disassembly of section .text:

00000000000100b0 <_start>:
   100b0:	00002197          	auipc	gp,0x2
   100b4:	f0018193          	addi	gp,gp,-256 # 11fb0 <__global_pointer$>
   100b8:	81818513          	addi	a0,gp,-2024 # 117c8 <completed.5212>
   100bc:	85818613          	addi	a2,gp,-1960 # 11808 <_end>
   100c0:	40a60633          	sub	a2,a2,a0
   100c4:	00000593          	li	a1,0
   100c8:	121000ef          	jal	ra,109e8 <memset>
   100cc:	00001517          	auipc	a0,0x1
   100d0:	80850513          	addi	a0,a0,-2040 # 108d4 <__libc_fini_array>
   100d4:	7b8000ef          	jal	ra,1088c <atexit>
   100d8:	071000ef          	jal	ra,10948 <__libc_init_array>
   100dc:	00012503          	lw	a0,0(sp)
   100e0:	00810593          	addi	a1,sp,8
   100e4:	00000613          	li	a2,0
   100e8:	710000ef          	jal	ra,107f8 <main>
   100ec:	7b40006f          	j	108a0 <exit>

00000000000100f0 <_fini>:
   100f0:	00008067          	ret

00000000000100f4 <deregister_tm_clones>:
   100f4:	00011537          	lui	a0,0x11
   100f8:	000117b7          	lui	a5,0x11
   100fc:	7b050713          	addi	a4,a0,1968 # 117b0 <__TMC_END__>
   10100:	7b078793          	addi	a5,a5,1968 # 117b0 <__TMC_END__>
   10104:	00e78c63          	beq	a5,a4,1011c <deregister_tm_clones+0x28>
   10108:	00000337          	lui	t1,0x0
   1010c:	00030313          	mv	t1,t1
   10110:	00030663          	beqz	t1,1011c <deregister_tm_clones+0x28>
   10114:	7b050513          	addi	a0,a0,1968
   10118:	00030067          	jr	t1 # 0 <_start-0x100b0>
   1011c:	00008067          	ret

0000000000010120 <register_tm_clones>:
   10120:	000117b7          	lui	a5,0x11
   10124:	00011537          	lui	a0,0x11
   10128:	7b078593          	addi	a1,a5,1968 # 117b0 <__TMC_END__>
   1012c:	7b050793          	addi	a5,a0,1968 # 117b0 <__TMC_END__>
   10130:	40f585b3          	sub	a1,a1,a5
   10134:	4035d593          	srai	a1,a1,0x3
   10138:	00200793          	li	a5,2
   1013c:	02f5c5b3          	div	a1,a1,a5
   10140:	00058c63          	beqz	a1,10158 <register_tm_clones+0x38>
   10144:	00000337          	lui	t1,0x0
   10148:	00030313          	mv	t1,t1
   1014c:	00030663          	beqz	t1,10158 <register_tm_clones+0x38>
   10150:	7b050513          	addi	a0,a0,1968
   10154:	00030067          	jr	t1 # 0 <_start-0x100b0>
   10158:	00008067          	ret

000000000001015c <__do_global_dtors_aux>:
   1015c:	8181c703          	lbu	a4,-2024(gp) # 117c8 <completed.5212>
   10160:	04071663          	bnez	a4,101ac <__do_global_dtors_aux+0x50>
   10164:	ff010113          	addi	sp,sp,-16
   10168:	00813023          	sd	s0,0(sp)
   1016c:	00113423          	sd	ra,8(sp)
   10170:	00078413          	mv	s0,a5
   10174:	f81ff0ef          	jal	ra,100f4 <deregister_tm_clones>
   10178:	000007b7          	lui	a5,0x0
   1017c:	00078793          	mv	a5,a5
   10180:	00078a63          	beqz	a5,10194 <__do_global_dtors_aux+0x38>
   10184:	00011537          	lui	a0,0x11
   10188:	00050513          	mv	a0,a0
   1018c:	ffff0097          	auipc	ra,0xffff0
   10190:	e74080e7          	jalr	-396(ra) # 0 <_start-0x100b0>
   10194:	00100793          	li	a5,1
   10198:	80f18c23          	sb	a5,-2024(gp) # 117c8 <completed.5212>
   1019c:	00813083          	ld	ra,8(sp)
   101a0:	00013403          	ld	s0,0(sp)
   101a4:	01010113          	addi	sp,sp,16
   101a8:	00008067          	ret
   101ac:	00008067          	ret

00000000000101b0 <frame_dummy>:
   101b0:	000007b7          	lui	a5,0x0
   101b4:	00078793          	mv	a5,a5
   101b8:	02078663          	beqz	a5,101e4 <frame_dummy+0x34>
   101bc:	000115b7          	lui	a1,0x11
   101c0:	00011537          	lui	a0,0x11
   101c4:	ff010113          	addi	sp,sp,-16
   101c8:	7d058593          	addi	a1,a1,2000 # 117d0 <object.5217>
   101cc:	00050513          	mv	a0,a0
   101d0:	00113423          	sd	ra,8(sp)
   101d4:	ffff0097          	auipc	ra,0xffff0
   101d8:	e2c080e7          	jalr	-468(ra) # 0 <_start-0x100b0>
   101dc:	00813083          	ld	ra,8(sp)
   101e0:	01010113          	addi	sp,sp,16
   101e4:	f3dff06f          	j	10120 <register_tm_clones>

00000000000101e8 <select>:
   101e8:	fa010113          	addi	sp,sp,-96
   101ec:	04813c23          	sd	s0,88(sp)
   101f0:	06010413          	addi	s0,sp,96
   101f4:	faa43423          	sd	a0,-88(s0)
   101f8:	fab43023          	sd	a1,-96(s0)
   101fc:	00100793          	li	a5,1
   10200:	fcf43823          	sd	a5,-48(s0)
   10204:	fa043783          	ld	a5,-96(s0)
   10208:	fef43023          	sd	a5,-32(s0)
   1020c:	fc042423          	sw	zero,-56(s0)
   10210:	fc842783          	lw	a5,-56(s0)
   10214:	fcf42623          	sw	a5,-52(s0)
   10218:	5180006f          	j	10730 <select+0x548>
   1021c:	fd043783          	ld	a5,-48(s0)
   10220:	00178793          	addi	a5,a5,1 # 1 <_start-0x100af>
   10224:	fe043703          	ld	a4,-32(s0)
   10228:	0ce7e063          	bltu	a5,a4,102e8 <select+0x100>
   1022c:	fd043783          	ld	a5,-48(s0)
   10230:	00178793          	addi	a5,a5,1
   10234:	fe043703          	ld	a4,-32(s0)
   10238:	0af71263          	bne	a4,a5,102dc <select+0xf4>
   1023c:	000117b7          	lui	a5,0x11
   10240:	fe043703          	ld	a4,-32(s0)
   10244:	00271713          	slli	a4,a4,0x2
   10248:	01878793          	addi	a5,a5,24 # 11018 <arr>
   1024c:	00f707b3          	add	a5,a4,a5
   10250:	0007a707          	flw	fa4,0(a5)
   10254:	000117b7          	lui	a5,0x11
   10258:	fd043703          	ld	a4,-48(s0)
   1025c:	00271713          	slli	a4,a4,0x2
   10260:	01878793          	addi	a5,a5,24 # 11018 <arr>
   10264:	00f707b3          	add	a5,a4,a5
   10268:	0007a787          	flw	fa5,0(a5)
   1026c:	a0f717d3          	flt.s	a5,fa4,fa5
   10270:	06078663          	beqz	a5,102dc <select+0xf4>
   10274:	000117b7          	lui	a5,0x11
   10278:	fd043703          	ld	a4,-48(s0)
   1027c:	00271713          	slli	a4,a4,0x2
   10280:	01878793          	addi	a5,a5,24 # 11018 <arr>
   10284:	00f707b3          	add	a5,a4,a5
   10288:	0007a787          	flw	fa5,0(a5)
   1028c:	faf42e27          	fsw	fa5,-68(s0)
   10290:	000117b7          	lui	a5,0x11
   10294:	fe043703          	ld	a4,-32(s0)
   10298:	00271713          	slli	a4,a4,0x2
   1029c:	01878793          	addi	a5,a5,24 # 11018 <arr>
   102a0:	00f707b3          	add	a5,a4,a5
   102a4:	0007a787          	flw	fa5,0(a5)
   102a8:	000117b7          	lui	a5,0x11
   102ac:	fd043703          	ld	a4,-48(s0)
   102b0:	00271713          	slli	a4,a4,0x2
   102b4:	01878793          	addi	a5,a5,24 # 11018 <arr>
   102b8:	00f707b3          	add	a5,a4,a5
   102bc:	00f7a027          	fsw	fa5,0(a5)
   102c0:	000117b7          	lui	a5,0x11
   102c4:	fe043703          	ld	a4,-32(s0)
   102c8:	00271713          	slli	a4,a4,0x2
   102cc:	01878793          	addi	a5,a5,24 # 11018 <arr>
   102d0:	00f707b3          	add	a5,a4,a5
   102d4:	fbc42787          	flw	fa5,-68(s0)
   102d8:	00f7a027          	fsw	fa5,0(a5)
   102dc:	00100793          	li	a5,1
   102e0:	fcf42623          	sw	a5,-52(s0)
   102e4:	44c0006f          	j	10730 <select+0x548>
   102e8:	fcc42783          	lw	a5,-52(s0)
   102ec:	0007879b          	sext.w	a5,a5
   102f0:	44079063          	bnez	a5,10730 <select+0x548>
   102f4:	fd043703          	ld	a4,-48(s0)
   102f8:	fe043783          	ld	a5,-32(s0)
   102fc:	00f707b3          	add	a5,a4,a5
   10300:	0017d793          	srli	a5,a5,0x1
   10304:	fcf43023          	sd	a5,-64(s0)
   10308:	000117b7          	lui	a5,0x11
   1030c:	fc043703          	ld	a4,-64(s0)
   10310:	00271713          	slli	a4,a4,0x2
   10314:	01878793          	addi	a5,a5,24 # 11018 <arr>
   10318:	00f707b3          	add	a5,a4,a5
   1031c:	0007a787          	flw	fa5,0(a5)
   10320:	faf42e27          	fsw	fa5,-68(s0)
   10324:	fd043783          	ld	a5,-48(s0)
   10328:	00178713          	addi	a4,a5,1
   1032c:	000117b7          	lui	a5,0x11
   10330:	00271713          	slli	a4,a4,0x2
   10334:	01878793          	addi	a5,a5,24 # 11018 <arr>
   10338:	00f707b3          	add	a5,a4,a5
   1033c:	0007a787          	flw	fa5,0(a5)
   10340:	000117b7          	lui	a5,0x11
   10344:	fc043703          	ld	a4,-64(s0)
   10348:	00271713          	slli	a4,a4,0x2
   1034c:	01878793          	addi	a5,a5,24 # 11018 <arr>
   10350:	00f707b3          	add	a5,a4,a5
   10354:	00f7a027          	fsw	fa5,0(a5)
   10358:	fd043783          	ld	a5,-48(s0)
   1035c:	00178713          	addi	a4,a5,1
   10360:	000117b7          	lui	a5,0x11
   10364:	00271713          	slli	a4,a4,0x2
   10368:	01878793          	addi	a5,a5,24 # 11018 <arr>
   1036c:	00f707b3          	add	a5,a4,a5
   10370:	fbc42787          	flw	fa5,-68(s0)
   10374:	00f7a027          	fsw	fa5,0(a5)
   10378:	fd043783          	ld	a5,-48(s0)
   1037c:	00178713          	addi	a4,a5,1
   10380:	000117b7          	lui	a5,0x11
   10384:	00271713          	slli	a4,a4,0x2
   10388:	01878793          	addi	a5,a5,24 # 11018 <arr>
   1038c:	00f707b3          	add	a5,a4,a5
   10390:	0007a707          	flw	fa4,0(a5)
   10394:	000117b7          	lui	a5,0x11
   10398:	fe043703          	ld	a4,-32(s0)
   1039c:	00271713          	slli	a4,a4,0x2
   103a0:	01878793          	addi	a5,a5,24 # 11018 <arr>
   103a4:	00f707b3          	add	a5,a4,a5
   103a8:	0007a787          	flw	fa5,0(a5)
   103ac:	a0e797d3          	flt.s	a5,fa5,fa4
   103b0:	06078a63          	beqz	a5,10424 <select+0x23c>
   103b4:	fd043783          	ld	a5,-48(s0)
   103b8:	00178713          	addi	a4,a5,1
   103bc:	000117b7          	lui	a5,0x11
   103c0:	00271713          	slli	a4,a4,0x2
   103c4:	01878793          	addi	a5,a5,24 # 11018 <arr>
   103c8:	00f707b3          	add	a5,a4,a5
   103cc:	0007a787          	flw	fa5,0(a5)
   103d0:	faf42e27          	fsw	fa5,-68(s0)
   103d4:	fd043783          	ld	a5,-48(s0)
   103d8:	00178713          	addi	a4,a5,1
   103dc:	000117b7          	lui	a5,0x11
   103e0:	fe043683          	ld	a3,-32(s0)
   103e4:	00269693          	slli	a3,a3,0x2
   103e8:	01878793          	addi	a5,a5,24 # 11018 <arr>
   103ec:	00f687b3          	add	a5,a3,a5
   103f0:	0007a787          	flw	fa5,0(a5)
   103f4:	000117b7          	lui	a5,0x11
   103f8:	00271713          	slli	a4,a4,0x2
   103fc:	01878793          	addi	a5,a5,24 # 11018 <arr>
   10400:	00f707b3          	add	a5,a4,a5
   10404:	00f7a027          	fsw	fa5,0(a5)
   10408:	000117b7          	lui	a5,0x11
   1040c:	fe043703          	ld	a4,-32(s0)
   10410:	00271713          	slli	a4,a4,0x2
   10414:	01878793          	addi	a5,a5,24 # 11018 <arr>
   10418:	00f707b3          	add	a5,a4,a5
   1041c:	fbc42787          	flw	fa5,-68(s0)
   10420:	00f7a027          	fsw	fa5,0(a5)
   10424:	000117b7          	lui	a5,0x11
   10428:	fd043703          	ld	a4,-48(s0)
   1042c:	00271713          	slli	a4,a4,0x2
   10430:	01878793          	addi	a5,a5,24 # 11018 <arr>
   10434:	00f707b3          	add	a5,a4,a5
   10438:	0007a707          	flw	fa4,0(a5)
   1043c:	000117b7          	lui	a5,0x11
   10440:	fe043703          	ld	a4,-32(s0)
   10444:	00271713          	slli	a4,a4,0x2
   10448:	01878793          	addi	a5,a5,24 # 11018 <arr>
   1044c:	00f707b3          	add	a5,a4,a5
   10450:	0007a787          	flw	fa5,0(a5)
   10454:	a0e797d3          	flt.s	a5,fa5,fa4
   10458:	06078663          	beqz	a5,104c4 <select+0x2dc>
   1045c:	000117b7          	lui	a5,0x11
   10460:	fd043703          	ld	a4,-48(s0)
   10464:	00271713          	slli	a4,a4,0x2
   10468:	01878793          	addi	a5,a5,24 # 11018 <arr>
   1046c:	00f707b3          	add	a5,a4,a5
   10470:	0007a787          	flw	fa5,0(a5)
   10474:	faf42e27          	fsw	fa5,-68(s0)
   10478:	000117b7          	lui	a5,0x11
   1047c:	fe043703          	ld	a4,-32(s0)
   10480:	00271713          	slli	a4,a4,0x2
   10484:	01878793          	addi	a5,a5,24 # 11018 <arr>
   10488:	00f707b3          	add	a5,a4,a5
   1048c:	0007a787          	flw	fa5,0(a5)
   10490:	000117b7          	lui	a5,0x11
   10494:	fd043703          	ld	a4,-48(s0)
   10498:	00271713          	slli	a4,a4,0x2
   1049c:	01878793          	addi	a5,a5,24 # 11018 <arr>
   104a0:	00f707b3          	add	a5,a4,a5
   104a4:	00f7a027          	fsw	fa5,0(a5)
   104a8:	000117b7          	lui	a5,0x11
   104ac:	fe043703          	ld	a4,-32(s0)
   104b0:	00271713          	slli	a4,a4,0x2
   104b4:	01878793          	addi	a5,a5,24 # 11018 <arr>
   104b8:	00f707b3          	add	a5,a4,a5
   104bc:	fbc42787          	flw	fa5,-68(s0)
   104c0:	00f7a027          	fsw	fa5,0(a5)
   104c4:	fd043783          	ld	a5,-48(s0)
   104c8:	00178713          	addi	a4,a5,1
   104cc:	000117b7          	lui	a5,0x11
   104d0:	00271713          	slli	a4,a4,0x2
   104d4:	01878793          	addi	a5,a5,24 # 11018 <arr>
   104d8:	00f707b3          	add	a5,a4,a5
   104dc:	0007a707          	flw	fa4,0(a5)
   104e0:	000117b7          	lui	a5,0x11
   104e4:	fd043703          	ld	a4,-48(s0)
   104e8:	00271713          	slli	a4,a4,0x2
   104ec:	01878793          	addi	a5,a5,24 # 11018 <arr>
   104f0:	00f707b3          	add	a5,a4,a5
   104f4:	0007a787          	flw	fa5,0(a5)
   104f8:	a0e797d3          	flt.s	a5,fa5,fa4
   104fc:	06078a63          	beqz	a5,10570 <select+0x388>
   10500:	fd043783          	ld	a5,-48(s0)
   10504:	00178713          	addi	a4,a5,1
   10508:	000117b7          	lui	a5,0x11
   1050c:	00271713          	slli	a4,a4,0x2
   10510:	01878793          	addi	a5,a5,24 # 11018 <arr>
   10514:	00f707b3          	add	a5,a4,a5
   10518:	0007a787          	flw	fa5,0(a5)
   1051c:	faf42e27          	fsw	fa5,-68(s0)
   10520:	fd043783          	ld	a5,-48(s0)
   10524:	00178713          	addi	a4,a5,1
   10528:	000117b7          	lui	a5,0x11
   1052c:	fd043683          	ld	a3,-48(s0)
   10530:	00269693          	slli	a3,a3,0x2
   10534:	01878793          	addi	a5,a5,24 # 11018 <arr>
   10538:	00f687b3          	add	a5,a3,a5
   1053c:	0007a787          	flw	fa5,0(a5)
   10540:	000117b7          	lui	a5,0x11
   10544:	00271713          	slli	a4,a4,0x2
   10548:	01878793          	addi	a5,a5,24 # 11018 <arr>
   1054c:	00f707b3          	add	a5,a4,a5
   10550:	00f7a027          	fsw	fa5,0(a5)
   10554:	000117b7          	lui	a5,0x11
   10558:	fd043703          	ld	a4,-48(s0)
   1055c:	00271713          	slli	a4,a4,0x2
   10560:	01878793          	addi	a5,a5,24 # 11018 <arr>
   10564:	00f707b3          	add	a5,a4,a5
   10568:	fbc42787          	flw	fa5,-68(s0)
   1056c:	00f7a027          	fsw	fa5,0(a5)
   10570:	fd043783          	ld	a5,-48(s0)
   10574:	00178793          	addi	a5,a5,1
   10578:	fef43423          	sd	a5,-24(s0)
   1057c:	fe043783          	ld	a5,-32(s0)
   10580:	fcf43c23          	sd	a5,-40(s0)
   10584:	000117b7          	lui	a5,0x11
   10588:	fd043703          	ld	a4,-48(s0)
   1058c:	00271713          	slli	a4,a4,0x2
   10590:	01878793          	addi	a5,a5,24 # 11018 <arr>
   10594:	00f707b3          	add	a5,a4,a5
   10598:	0007a787          	flw	fa5,0(a5)
   1059c:	faf42c27          	fsw	fa5,-72(s0)
   105a0:	10c0006f          	j	106ac <select+0x4c4>
   105a4:	fe843783          	ld	a5,-24(s0)
   105a8:	00178793          	addi	a5,a5,1
   105ac:	fef43423          	sd	a5,-24(s0)
   105b0:	0100006f          	j	105c0 <select+0x3d8>
   105b4:	fe843783          	ld	a5,-24(s0)
   105b8:	00178793          	addi	a5,a5,1
   105bc:	fef43423          	sd	a5,-24(s0)
   105c0:	000117b7          	lui	a5,0x11
   105c4:	fe843703          	ld	a4,-24(s0)
   105c8:	00271713          	slli	a4,a4,0x2
   105cc:	01878793          	addi	a5,a5,24 # 11018 <arr>
   105d0:	00f707b3          	add	a5,a4,a5
   105d4:	0007a787          	flw	fa5,0(a5)
   105d8:	fb842707          	flw	fa4,-72(s0)
   105dc:	a0e797d3          	flt.s	a5,fa5,fa4
   105e0:	fc079ae3          	bnez	a5,105b4 <select+0x3cc>
   105e4:	fd843783          	ld	a5,-40(s0)
   105e8:	fff78793          	addi	a5,a5,-1
   105ec:	fcf43c23          	sd	a5,-40(s0)
   105f0:	0100006f          	j	10600 <select+0x418>
   105f4:	fd843783          	ld	a5,-40(s0)
   105f8:	fff78793          	addi	a5,a5,-1
   105fc:	fcf43c23          	sd	a5,-40(s0)
   10600:	000117b7          	lui	a5,0x11
   10604:	fd843703          	ld	a4,-40(s0)
   10608:	00271713          	slli	a4,a4,0x2
   1060c:	01878793          	addi	a5,a5,24 # 11018 <arr>
   10610:	00f707b3          	add	a5,a4,a5
   10614:	0007a787          	flw	fa5,0(a5)
   10618:	fb842707          	flw	fa4,-72(s0)
   1061c:	a0f717d3          	flt.s	a5,fa4,fa5
   10620:	fc079ae3          	bnez	a5,105f4 <select+0x40c>
   10624:	fd843703          	ld	a4,-40(s0)
   10628:	fe843783          	ld	a5,-24(s0)
   1062c:	00f77663          	bgeu	a4,a5,10638 <select+0x450>
   10630:	00100793          	li	a5,1
   10634:	fcf42423          	sw	a5,-56(s0)
   10638:	fc842783          	lw	a5,-56(s0)
   1063c:	0007879b          	sext.w	a5,a5
   10640:	06079663          	bnez	a5,106ac <select+0x4c4>
   10644:	000117b7          	lui	a5,0x11
   10648:	fe843703          	ld	a4,-24(s0)
   1064c:	00271713          	slli	a4,a4,0x2
   10650:	01878793          	addi	a5,a5,24 # 11018 <arr>
   10654:	00f707b3          	add	a5,a4,a5
   10658:	0007a787          	flw	fa5,0(a5)
   1065c:	faf42e27          	fsw	fa5,-68(s0)
   10660:	000117b7          	lui	a5,0x11
   10664:	fd843703          	ld	a4,-40(s0)
   10668:	00271713          	slli	a4,a4,0x2
   1066c:	01878793          	addi	a5,a5,24 # 11018 <arr>
   10670:	00f707b3          	add	a5,a4,a5
   10674:	0007a787          	flw	fa5,0(a5)
   10678:	000117b7          	lui	a5,0x11
   1067c:	fe843703          	ld	a4,-24(s0)
   10680:	00271713          	slli	a4,a4,0x2
   10684:	01878793          	addi	a5,a5,24 # 11018 <arr>
   10688:	00f707b3          	add	a5,a4,a5
   1068c:	00f7a027          	fsw	fa5,0(a5)
   10690:	000117b7          	lui	a5,0x11
   10694:	fd843703          	ld	a4,-40(s0)
   10698:	00271713          	slli	a4,a4,0x2
   1069c:	01878793          	addi	a5,a5,24 # 11018 <arr>
   106a0:	00f707b3          	add	a5,a4,a5
   106a4:	fbc42787          	flw	fa5,-68(s0)
   106a8:	00f7a027          	fsw	fa5,0(a5)
   106ac:	fc842783          	lw	a5,-56(s0)
   106b0:	0007879b          	sext.w	a5,a5
   106b4:	ee0788e3          	beqz	a5,105a4 <select+0x3bc>
   106b8:	000117b7          	lui	a5,0x11
   106bc:	fd843703          	ld	a4,-40(s0)
   106c0:	00271713          	slli	a4,a4,0x2
   106c4:	01878793          	addi	a5,a5,24 # 11018 <arr>
   106c8:	00f707b3          	add	a5,a4,a5
   106cc:	0007a787          	flw	fa5,0(a5)
   106d0:	000117b7          	lui	a5,0x11
   106d4:	fd043703          	ld	a4,-48(s0)
   106d8:	00271713          	slli	a4,a4,0x2
   106dc:	01878793          	addi	a5,a5,24 # 11018 <arr>
   106e0:	00f707b3          	add	a5,a4,a5
   106e4:	00f7a027          	fsw	fa5,0(a5)
   106e8:	000117b7          	lui	a5,0x11
   106ec:	fd843703          	ld	a4,-40(s0)
   106f0:	00271713          	slli	a4,a4,0x2
   106f4:	01878793          	addi	a5,a5,24 # 11018 <arr>
   106f8:	00f707b3          	add	a5,a4,a5
   106fc:	fb842787          	flw	fa5,-72(s0)
   10700:	00f7a027          	fsw	fa5,0(a5)
   10704:	fd843703          	ld	a4,-40(s0)
   10708:	fa843783          	ld	a5,-88(s0)
   1070c:	00f76863          	bltu	a4,a5,1071c <select+0x534>
   10710:	fd843783          	ld	a5,-40(s0)
   10714:	fff78793          	addi	a5,a5,-1
   10718:	fef43023          	sd	a5,-32(s0)
   1071c:	fd843703          	ld	a4,-40(s0)
   10720:	fa843783          	ld	a5,-88(s0)
   10724:	00e7e663          	bltu	a5,a4,10730 <select+0x548>
   10728:	fe843783          	ld	a5,-24(s0)
   1072c:	fcf43823          	sd	a5,-48(s0)
   10730:	fcc42783          	lw	a5,-52(s0)
   10734:	0007879b          	sext.w	a5,a5
   10738:	ae0782e3          	beqz	a5,1021c <select+0x34>
   1073c:	000117b7          	lui	a5,0x11
   10740:	fa843703          	ld	a4,-88(s0)
   10744:	00271713          	slli	a4,a4,0x2
   10748:	01878793          	addi	a5,a5,24 # 11018 <arr>
   1074c:	00f707b3          	add	a5,a4,a5
   10750:	0007a787          	flw	fa5,0(a5)
   10754:	20f78553          	fmv.s	fa0,fa5
   10758:	05813403          	ld	s0,88(sp)
   1075c:	06010113          	addi	sp,sp,96
   10760:	00008067          	ret

0000000000010764 <benchmark>:
   10764:	ff010113          	addi	sp,sp,-16
   10768:	00113423          	sd	ra,8(sp)
   1076c:	00813023          	sd	s0,0(sp)
   10770:	01010413          	addi	s0,sp,16
   10774:	8501a783          	lw	a5,-1968(gp) # 11800 <x>
   10778:	00078713          	mv	a4,a5
   1077c:	8541a783          	lw	a5,-1964(gp) # 11804 <y>
   10780:	00078593          	mv	a1,a5
   10784:	00070513          	mv	a0,a4
   10788:	a61ff0ef          	jal	ra,101e8 <select>
   1078c:	00000793          	li	a5,0
   10790:	00078513          	mv	a0,a5
   10794:	00813083          	ld	ra,8(sp)
   10798:	00013403          	ld	s0,0(sp)
   1079c:	01010113          	addi	sp,sp,16
   107a0:	00008067          	ret

00000000000107a4 <initialise_benchmark>:
   107a4:	ff010113          	addi	sp,sp,-16
   107a8:	00813423          	sd	s0,8(sp)
   107ac:	01010413          	addi	s0,sp,16
   107b0:	00a00713          	li	a4,10
   107b4:	84e1a823          	sw	a4,-1968(gp) # 11800 <x>
   107b8:	01400713          	li	a4,20
   107bc:	84e1aa23          	sw	a4,-1964(gp) # 11804 <y>
   107c0:	00000013          	nop
   107c4:	00813403          	ld	s0,8(sp)
   107c8:	01010113          	addi	sp,sp,16
   107cc:	00008067          	ret

00000000000107d0 <verify_benchmark>:
   107d0:	fe010113          	addi	sp,sp,-32
   107d4:	00813c23          	sd	s0,24(sp)
   107d8:	02010413          	addi	s0,sp,32
   107dc:	00050793          	mv	a5,a0
   107e0:	fef42623          	sw	a5,-20(s0)
   107e4:	fff00793          	li	a5,-1
   107e8:	00078513          	mv	a0,a5
   107ec:	01813403          	ld	s0,24(sp)
   107f0:	02010113          	addi	sp,sp,32
   107f4:	00008067          	ret

00000000000107f8 <main>:
   107f8:	fd010113          	addi	sp,sp,-48
   107fc:	02113423          	sd	ra,40(sp)
   10800:	02813023          	sd	s0,32(sp)
   10804:	03010413          	addi	s0,sp,48
   10808:	00050793          	mv	a5,a0
   1080c:	fcb43823          	sd	a1,-48(s0)
   10810:	fcf42e23          	sw	a5,-36(s0)
   10814:	f91ff0ef          	jal	ra,107a4 <initialise_benchmark>
   10818:	fe042623          	sw	zero,-20(s0)
   1081c:	0200006f          	j	1083c <main+0x44>
   10820:	f85ff0ef          	jal	ra,107a4 <initialise_benchmark>
   10824:	f41ff0ef          	jal	ra,10764 <benchmark>
   10828:	00050793          	mv	a5,a0
   1082c:	fef42223          	sw	a5,-28(s0)
   10830:	fec42783          	lw	a5,-20(s0)
   10834:	0017879b          	addiw	a5,a5,1
   10838:	fef42623          	sw	a5,-20(s0)
   1083c:	fec42783          	lw	a5,-20(s0)
   10840:	0007871b          	sext.w	a4,a5
   10844:	00100793          	li	a5,1
   10848:	fce7dce3          	bge	a5,a4,10820 <main+0x28>
   1084c:	fe442783          	lw	a5,-28(s0)
   10850:	0007879b          	sext.w	a5,a5
   10854:	00078513          	mv	a0,a5
   10858:	f79ff0ef          	jal	ra,107d0 <verify_benchmark>
   1085c:	00050793          	mv	a5,a0
   10860:	fef42423          	sw	a5,-24(s0)
   10864:	fe842783          	lw	a5,-24(s0)
   10868:	0007879b          	sext.w	a5,a5
   1086c:	0017b793          	seqz	a5,a5
   10870:	0ff7f793          	zext.b	a5,a5
   10874:	0007879b          	sext.w	a5,a5
   10878:	00078513          	mv	a0,a5
   1087c:	02813083          	ld	ra,40(sp)
   10880:	02013403          	ld	s0,32(sp)
   10884:	03010113          	addi	sp,sp,48
   10888:	00008067          	ret

000000000001088c <atexit>:
   1088c:	00050593          	mv	a1,a0
   10890:	00000693          	li	a3,0
   10894:	00000613          	li	a2,0
   10898:	00000513          	li	a0,0
   1089c:	2280006f          	j	10ac4 <__register_exitproc>

00000000000108a0 <exit>:
   108a0:	ff010113          	addi	sp,sp,-16
   108a4:	00000593          	li	a1,0
   108a8:	00813023          	sd	s0,0(sp)
   108ac:	00113423          	sd	ra,8(sp)
   108b0:	00050413          	mv	s0,a0
   108b4:	298000ef          	jal	ra,10b4c <__call_exitprocs>
   108b8:	000117b7          	lui	a5,0x11
   108bc:	7b87b503          	ld	a0,1976(a5) # 117b8 <_global_impure_ptr>
   108c0:	05853783          	ld	a5,88(a0) # 11058 <arr+0x40>
   108c4:	00078463          	beqz	a5,108cc <exit+0x2c>
   108c8:	000780e7          	jalr	a5
   108cc:	00040513          	mv	a0,s0
   108d0:	394000ef          	jal	ra,10c64 <_exit>

00000000000108d4 <__libc_fini_array>:
   108d4:	fd010113          	addi	sp,sp,-48
   108d8:	000117b7          	lui	a5,0x11
   108dc:	00011737          	lui	a4,0x11
   108e0:	02813023          	sd	s0,32(sp)
   108e4:	01070713          	addi	a4,a4,16 # 11010 <__do_global_dtors_aux_fini_array_entry>
   108e8:	01878413          	addi	s0,a5,24 # 11018 <arr>
   108ec:	40e40433          	sub	s0,s0,a4
   108f0:	00913c23          	sd	s1,24(sp)
   108f4:	01213823          	sd	s2,16(sp)
   108f8:	01313423          	sd	s3,8(sp)
   108fc:	02113423          	sd	ra,40(sp)
   10900:	40345413          	srai	s0,s0,0x3
   10904:	00000493          	li	s1,0
   10908:	01878913          	addi	s2,a5,24
   1090c:	ff800993          	li	s3,-8
   10910:	02941063          	bne	s0,s1,10930 <__libc_fini_array+0x5c>
   10914:	02013403          	ld	s0,32(sp)
   10918:	02813083          	ld	ra,40(sp)
   1091c:	01813483          	ld	s1,24(sp)
   10920:	01013903          	ld	s2,16(sp)
   10924:	00813983          	ld	s3,8(sp)
   10928:	03010113          	addi	sp,sp,48
   1092c:	fc4ff06f          	j	100f0 <_fini>
   10930:	033487b3          	mul	a5,s1,s3
   10934:	00148493          	addi	s1,s1,1
   10938:	00f907b3          	add	a5,s2,a5
   1093c:	ff87b783          	ld	a5,-8(a5)
   10940:	000780e7          	jalr	a5
   10944:	fcdff06f          	j	10910 <__libc_fini_array+0x3c>

0000000000010948 <__libc_init_array>:
   10948:	fe010113          	addi	sp,sp,-32
   1094c:	00813823          	sd	s0,16(sp)
   10950:	00913423          	sd	s1,8(sp)
   10954:	00011437          	lui	s0,0x11
   10958:	000114b7          	lui	s1,0x11
   1095c:	00448793          	addi	a5,s1,4 # 11004 <__preinit_array_end>
   10960:	00440413          	addi	s0,s0,4 # 11004 <__preinit_array_end>
   10964:	40f40433          	sub	s0,s0,a5
   10968:	01213023          	sd	s2,0(sp)
   1096c:	00113c23          	sd	ra,24(sp)
   10970:	40345413          	srai	s0,s0,0x3
   10974:	00448493          	addi	s1,s1,4
   10978:	00000913          	li	s2,0
   1097c:	04891263          	bne	s2,s0,109c0 <__libc_init_array+0x78>
   10980:	000114b7          	lui	s1,0x11
   10984:	f6cff0ef          	jal	ra,100f0 <_fini>
   10988:	00011437          	lui	s0,0x11
   1098c:	00848793          	addi	a5,s1,8 # 11008 <__frame_dummy_init_array_entry>
   10990:	01040413          	addi	s0,s0,16 # 11010 <__do_global_dtors_aux_fini_array_entry>
   10994:	40f40433          	sub	s0,s0,a5
   10998:	40345413          	srai	s0,s0,0x3
   1099c:	00848493          	addi	s1,s1,8
   109a0:	00000913          	li	s2,0
   109a4:	02891863          	bne	s2,s0,109d4 <__libc_init_array+0x8c>
   109a8:	01813083          	ld	ra,24(sp)
   109ac:	01013403          	ld	s0,16(sp)
   109b0:	00813483          	ld	s1,8(sp)
   109b4:	00013903          	ld	s2,0(sp)
   109b8:	02010113          	addi	sp,sp,32
   109bc:	00008067          	ret
   109c0:	0004b783          	ld	a5,0(s1)
   109c4:	00190913          	addi	s2,s2,1
   109c8:	00848493          	addi	s1,s1,8
   109cc:	000780e7          	jalr	a5
   109d0:	fadff06f          	j	1097c <__libc_init_array+0x34>
   109d4:	0004b783          	ld	a5,0(s1)
   109d8:	00190913          	addi	s2,s2,1
   109dc:	00848493          	addi	s1,s1,8
   109e0:	000780e7          	jalr	a5
   109e4:	fc1ff06f          	j	109a4 <__libc_init_array+0x5c>

00000000000109e8 <memset>:
   109e8:	00f00313          	li	t1,15
   109ec:	00050713          	mv	a4,a0
   109f0:	02c37a63          	bgeu	t1,a2,10a24 <memset+0x3c>
   109f4:	00f77793          	andi	a5,a4,15
   109f8:	0a079063          	bnez	a5,10a98 <memset+0xb0>
   109fc:	06059e63          	bnez	a1,10a78 <memset+0x90>
   10a00:	ff067693          	andi	a3,a2,-16
   10a04:	00f67613          	andi	a2,a2,15
   10a08:	00e686b3          	add	a3,a3,a4
   10a0c:	00b73023          	sd	a1,0(a4)
   10a10:	00b73423          	sd	a1,8(a4)
   10a14:	01070713          	addi	a4,a4,16
   10a18:	fed76ae3          	bltu	a4,a3,10a0c <memset+0x24>
   10a1c:	00061463          	bnez	a2,10a24 <memset+0x3c>
   10a20:	00008067          	ret
   10a24:	40c306b3          	sub	a3,t1,a2
   10a28:	00269693          	slli	a3,a3,0x2
   10a2c:	00000297          	auipc	t0,0x0
   10a30:	005686b3          	add	a3,a3,t0
   10a34:	00c68067          	jr	12(a3)
   10a38:	00b70723          	sb	a1,14(a4)
   10a3c:	00b706a3          	sb	a1,13(a4)
   10a40:	00b70623          	sb	a1,12(a4)
   10a44:	00b705a3          	sb	a1,11(a4)
   10a48:	00b70523          	sb	a1,10(a4)
   10a4c:	00b704a3          	sb	a1,9(a4)
   10a50:	00b70423          	sb	a1,8(a4)
   10a54:	00b703a3          	sb	a1,7(a4)
   10a58:	00b70323          	sb	a1,6(a4)
   10a5c:	00b702a3          	sb	a1,5(a4)
   10a60:	00b70223          	sb	a1,4(a4)
   10a64:	00b701a3          	sb	a1,3(a4)
   10a68:	00b70123          	sb	a1,2(a4)
   10a6c:	00b700a3          	sb	a1,1(a4)
   10a70:	00b70023          	sb	a1,0(a4)
   10a74:	00008067          	ret
   10a78:	0ff5f593          	zext.b	a1,a1
   10a7c:	00859693          	slli	a3,a1,0x8
   10a80:	00d5e5b3          	or	a1,a1,a3
   10a84:	01059693          	slli	a3,a1,0x10
   10a88:	00d5e5b3          	or	a1,a1,a3
   10a8c:	02059693          	slli	a3,a1,0x20
   10a90:	00d5e5b3          	or	a1,a1,a3
   10a94:	f6dff06f          	j	10a00 <memset+0x18>
   10a98:	00279693          	slli	a3,a5,0x2
   10a9c:	00000297          	auipc	t0,0x0
   10aa0:	005686b3          	add	a3,a3,t0
   10aa4:	00008293          	mv	t0,ra
   10aa8:	f98680e7          	jalr	-104(a3)
   10aac:	00028093          	mv	ra,t0
   10ab0:	ff078793          	addi	a5,a5,-16
   10ab4:	40f70733          	sub	a4,a4,a5
   10ab8:	00f60633          	add	a2,a2,a5
   10abc:	f6c374e3          	bgeu	t1,a2,10a24 <memset+0x3c>
   10ac0:	f3dff06f          	j	109fc <memset+0x14>

0000000000010ac4 <__register_exitproc>:
   10ac4:	000117b7          	lui	a5,0x11
   10ac8:	7b87b703          	ld	a4,1976(a5) # 117b8 <_global_impure_ptr>
   10acc:	00050313          	mv	t1,a0
   10ad0:	1f873783          	ld	a5,504(a4)
   10ad4:	00079663          	bnez	a5,10ae0 <__register_exitproc+0x1c>
   10ad8:	20070793          	addi	a5,a4,512
   10adc:	1ef73c23          	sd	a5,504(a4)
   10ae0:	0087a703          	lw	a4,8(a5)
   10ae4:	01f00813          	li	a6,31
   10ae8:	fff00513          	li	a0,-1
   10aec:	04e84e63          	blt	a6,a4,10b48 <__register_exitproc+0x84>
   10af0:	02030e63          	beqz	t1,10b2c <__register_exitproc+0x68>
   10af4:	00371813          	slli	a6,a4,0x3
   10af8:	01078833          	add	a6,a5,a6
   10afc:	10c83823          	sd	a2,272(a6)
   10b00:	3107a883          	lw	a7,784(a5)
   10b04:	00100613          	li	a2,1
   10b08:	00e6163b          	sllw	a2,a2,a4
   10b0c:	00c8e8b3          	or	a7,a7,a2
   10b10:	3117a823          	sw	a7,784(a5)
   10b14:	20d83823          	sd	a3,528(a6)
   10b18:	00200693          	li	a3,2
   10b1c:	00d31863          	bne	t1,a3,10b2c <__register_exitproc+0x68>
   10b20:	3147a683          	lw	a3,788(a5)
   10b24:	00c6e633          	or	a2,a3,a2
   10b28:	30c7aa23          	sw	a2,788(a5)
   10b2c:	0017069b          	addiw	a3,a4,1
   10b30:	00270713          	addi	a4,a4,2
   10b34:	00371713          	slli	a4,a4,0x3
   10b38:	00d7a423          	sw	a3,8(a5)
   10b3c:	00e787b3          	add	a5,a5,a4
   10b40:	00b7b023          	sd	a1,0(a5)
   10b44:	00000513          	li	a0,0
   10b48:	00008067          	ret

0000000000010b4c <__call_exitprocs>:
   10b4c:	fb010113          	addi	sp,sp,-80
   10b50:	000117b7          	lui	a5,0x11
   10b54:	03313423          	sd	s3,40(sp)
   10b58:	7b87b983          	ld	s3,1976(a5) # 117b8 <_global_impure_ptr>
   10b5c:	03413023          	sd	s4,32(sp)
   10b60:	01513c23          	sd	s5,24(sp)
   10b64:	01613823          	sd	s6,16(sp)
   10b68:	04113423          	sd	ra,72(sp)
   10b6c:	04813023          	sd	s0,64(sp)
   10b70:	02913c23          	sd	s1,56(sp)
   10b74:	03213823          	sd	s2,48(sp)
   10b78:	01713423          	sd	s7,8(sp)
   10b7c:	00050a93          	mv	s5,a0
   10b80:	00058a13          	mv	s4,a1
   10b84:	00100b13          	li	s6,1
   10b88:	1f89b403          	ld	s0,504(s3)
   10b8c:	00040c63          	beqz	s0,10ba4 <__call_exitprocs+0x58>
   10b90:	00842483          	lw	s1,8(s0)
   10b94:	fff4849b          	addiw	s1,s1,-1
   10b98:	00349913          	slli	s2,s1,0x3
   10b9c:	01240933          	add	s2,s0,s2
   10ba0:	0204d863          	bgez	s1,10bd0 <__call_exitprocs+0x84>
   10ba4:	04813083          	ld	ra,72(sp)
   10ba8:	04013403          	ld	s0,64(sp)
   10bac:	03813483          	ld	s1,56(sp)
   10bb0:	03013903          	ld	s2,48(sp)
   10bb4:	02813983          	ld	s3,40(sp)
   10bb8:	02013a03          	ld	s4,32(sp)
   10bbc:	01813a83          	ld	s5,24(sp)
   10bc0:	01013b03          	ld	s6,16(sp)
   10bc4:	00813b83          	ld	s7,8(sp)
   10bc8:	05010113          	addi	sp,sp,80
   10bcc:	00008067          	ret
   10bd0:	000a0c63          	beqz	s4,10be8 <__call_exitprocs+0x9c>
   10bd4:	21093783          	ld	a5,528(s2)
   10bd8:	01478863          	beq	a5,s4,10be8 <__call_exitprocs+0x9c>
   10bdc:	fff4849b          	addiw	s1,s1,-1
   10be0:	ff890913          	addi	s2,s2,-8
   10be4:	fbdff06f          	j	10ba0 <__call_exitprocs+0x54>
   10be8:	00842783          	lw	a5,8(s0)
   10bec:	01093683          	ld	a3,16(s2)
   10bf0:	fff7879b          	addiw	a5,a5,-1
   10bf4:	02979e63          	bne	a5,s1,10c30 <__call_exitprocs+0xe4>
   10bf8:	00942423          	sw	s1,8(s0)
   10bfc:	fe0680e3          	beqz	a3,10bdc <__call_exitprocs+0x90>
   10c00:	31042703          	lw	a4,784(s0)
   10c04:	009b163b          	sllw	a2,s6,s1
   10c08:	00842b83          	lw	s7,8(s0)
   10c0c:	00c77733          	and	a4,a4,a2
   10c10:	0007071b          	sext.w	a4,a4
   10c14:	02071263          	bnez	a4,10c38 <__call_exitprocs+0xec>
   10c18:	000680e7          	jalr	a3
   10c1c:	00842703          	lw	a4,8(s0)
   10c20:	1f89b783          	ld	a5,504(s3)
   10c24:	f77712e3          	bne	a4,s7,10b88 <__call_exitprocs+0x3c>
   10c28:	faf40ae3          	beq	s0,a5,10bdc <__call_exitprocs+0x90>
   10c2c:	f5dff06f          	j	10b88 <__call_exitprocs+0x3c>
   10c30:	00093823          	sd	zero,16(s2)
   10c34:	fc9ff06f          	j	10bfc <__call_exitprocs+0xb0>
   10c38:	31442783          	lw	a5,788(s0)
   10c3c:	11093583          	ld	a1,272(s2)
   10c40:	00c7f7b3          	and	a5,a5,a2
   10c44:	0007879b          	sext.w	a5,a5
   10c48:	00079863          	bnez	a5,10c58 <__call_exitprocs+0x10c>
   10c4c:	000a8513          	mv	a0,s5
   10c50:	000680e7          	jalr	a3
   10c54:	fc9ff06f          	j	10c1c <__call_exitprocs+0xd0>
   10c58:	00058513          	mv	a0,a1
   10c5c:	000680e7          	jalr	a3
   10c60:	fbdff06f          	j	10c1c <__call_exitprocs+0xd0>

0000000000010c64 <_exit>:
   10c64:	00000593          	li	a1,0
   10c68:	00000613          	li	a2,0
   10c6c:	00000693          	li	a3,0
   10c70:	00000713          	li	a4,0
   10c74:	00000793          	li	a5,0
   10c78:	05d00893          	li	a7,93
   10c7c:	00000073          	ecall
   10c80:	02055263          	bgez	a0,10ca4 <_exit+0x40>
   10c84:	ff010113          	addi	sp,sp,-16
   10c88:	00813023          	sd	s0,0(sp)
   10c8c:	00050413          	mv	s0,a0
   10c90:	00113423          	sd	ra,8(sp)
   10c94:	4080043b          	negw	s0,s0
   10c98:	010000ef          	jal	ra,10ca8 <__errno>
   10c9c:	00852023          	sw	s0,0(a0)
   10ca0:	0000006f          	j	10ca0 <_exit+0x3c>
   10ca4:	0000006f          	j	10ca4 <_exit+0x40>

0000000000010ca8 <__errno>:
   10ca8:	8101b503          	ld	a0,-2032(gp) # 117c0 <_impure_ptr>
   10cac:	00008067          	ret
