
supp/sqrt.riscv:     file format elf64-littleriscv


Disassembly of section .text:

00000000000100b0 <_start>:
   100b0:	00002197          	auipc	gp,0x2
   100b4:	eb018193          	addi	gp,gp,-336 # 11f60 <__global_pointer$>
   100b8:	81818513          	addi	a0,gp,-2024 # 11778 <completed.5212>
   100bc:	85018613          	addi	a2,gp,-1968 # 117b0 <_end>
   100c0:	40a60633          	sub	a2,a2,a0
   100c4:	00000593          	li	a1,0
   100c8:	56c000ef          	jal	ra,10634 <memset>
   100cc:	00000517          	auipc	a0,0x0
   100d0:	45450513          	addi	a0,a0,1108 # 10520 <__libc_fini_array>
   100d4:	404000ef          	jal	ra,104d8 <atexit>
   100d8:	4bc000ef          	jal	ra,10594 <__libc_init_array>
   100dc:	00012503          	lw	a0,0(sp)
   100e0:	00810593          	addi	a1,sp,8
   100e4:	00000613          	li	a2,0
   100e8:	35c000ef          	jal	ra,10444 <main>
   100ec:	4000006f          	j	104ec <exit>

00000000000100f0 <_fini>:
   100f0:	00008067          	ret

00000000000100f4 <deregister_tm_clones>:
   100f4:	00011537          	lui	a0,0x11
   100f8:	000117b7          	lui	a5,0x11
   100fc:	76050713          	addi	a4,a0,1888 # 11760 <__TMC_END__>
   10100:	76078793          	addi	a5,a5,1888 # 11760 <__TMC_END__>
   10104:	00e78c63          	beq	a5,a4,1011c <deregister_tm_clones+0x28>
   10108:	00000337          	lui	t1,0x0
   1010c:	00030313          	mv	t1,t1
   10110:	00030663          	beqz	t1,1011c <deregister_tm_clones+0x28>
   10114:	76050513          	addi	a0,a0,1888
   10118:	00030067          	jr	t1 # 0 <_start-0x100b0>
   1011c:	00008067          	ret

0000000000010120 <register_tm_clones>:
   10120:	000117b7          	lui	a5,0x11
   10124:	00011537          	lui	a0,0x11
   10128:	76078593          	addi	a1,a5,1888 # 11760 <__TMC_END__>
   1012c:	76050793          	addi	a5,a0,1888 # 11760 <__TMC_END__>
   10130:	40f585b3          	sub	a1,a1,a5
   10134:	4035d593          	srai	a1,a1,0x3
   10138:	00200793          	li	a5,2
   1013c:	02f5c5b3          	div	a1,a1,a5
   10140:	00058c63          	beqz	a1,10158 <register_tm_clones+0x38>
   10144:	00000337          	lui	t1,0x0
   10148:	00030313          	mv	t1,t1
   1014c:	00030663          	beqz	t1,10158 <register_tm_clones+0x38>
   10150:	76050513          	addi	a0,a0,1888
   10154:	00030067          	jr	t1 # 0 <_start-0x100b0>
   10158:	00008067          	ret

000000000001015c <__do_global_dtors_aux>:
   1015c:	8181c703          	lbu	a4,-2024(gp) # 11778 <completed.5212>
   10160:	04071663          	bnez	a4,101ac <__do_global_dtors_aux+0x50>
   10164:	ff010113          	addi	sp,sp,-16
   10168:	00813023          	sd	s0,0(sp)
   1016c:	00113423          	sd	ra,8(sp)
   10170:	00078413          	mv	s0,a5
   10174:	f81ff0ef          	jal	ra,100f4 <deregister_tm_clones>
   10178:	000007b7          	lui	a5,0x0
   1017c:	00078793          	mv	a5,a5
   10180:	00078a63          	beqz	a5,10194 <__do_global_dtors_aux+0x38>
   10184:	00011537          	lui	a0,0x11
   10188:	00050513          	mv	a0,a0
   1018c:	ffff0097          	auipc	ra,0xffff0
   10190:	e74080e7          	jalr	-396(ra) # 0 <_start-0x100b0>
   10194:	00100793          	li	a5,1
   10198:	80f18c23          	sb	a5,-2024(gp) # 11778 <completed.5212>
   1019c:	00813083          	ld	ra,8(sp)
   101a0:	00013403          	ld	s0,0(sp)
   101a4:	01010113          	addi	sp,sp,16
   101a8:	00008067          	ret
   101ac:	00008067          	ret

00000000000101b0 <frame_dummy>:
   101b0:	000007b7          	lui	a5,0x0
   101b4:	00078793          	mv	a5,a5
   101b8:	02078663          	beqz	a5,101e4 <frame_dummy+0x34>
   101bc:	000115b7          	lui	a1,0x11
   101c0:	00011537          	lui	a0,0x11
   101c4:	ff010113          	addi	sp,sp,-16
   101c8:	78058593          	addi	a1,a1,1920 # 11780 <object.5217>
   101cc:	00050513          	mv	a0,a0
   101d0:	00113423          	sd	ra,8(sp)
   101d4:	ffff0097          	auipc	ra,0xffff0
   101d8:	e2c080e7          	jalr	-468(ra) # 0 <_start-0x100b0>
   101dc:	00813083          	ld	ra,8(sp)
   101e0:	01010113          	addi	sp,sp,16
   101e4:	f3dff06f          	j	10120 <register_tm_clones>

00000000000101e8 <fabs_float>:
   101e8:	fe010113          	addi	sp,sp,-32
   101ec:	00813c23          	sd	s0,24(sp)
   101f0:	02010413          	addi	s0,sp,32
   101f4:	fea42627          	fsw	fa0,-20(s0)
   101f8:	fec42787          	flw	fa5,-20(s0)
   101fc:	f0000753          	fmv.w.x	fa4,zero
   10200:	a0e797d3          	flt.s	a5,fa5,fa4
   10204:	00078863          	beqz	a5,10214 <fabs_float+0x2c>
   10208:	fec42787          	flw	fa5,-20(s0)
   1020c:	20f797d3          	fneg.s	fa5,fa5
   10210:	0080006f          	j	10218 <fabs_float+0x30>
   10214:	fec42787          	flw	fa5,-20(s0)
   10218:	20f78553          	fmv.s	fa0,fa5
   1021c:	01813403          	ld	s0,24(sp)
   10220:	02010113          	addi	sp,sp,32
   10224:	00008067          	ret

0000000000010228 <sqrtfcn>:
   10228:	fb010113          	addi	sp,sp,-80
   1022c:	04113423          	sd	ra,72(sp)
   10230:	04813023          	sd	s0,64(sp)
   10234:	05010413          	addi	s0,sp,80
   10238:	faa42e27          	fsw	fa0,-68(s0)
   1023c:	fbc42707          	flw	fa4,-68(s0)
   10240:	000117b7          	lui	a5,0x11
   10244:	9007a787          	flw	fa5,-1792(a5) # 10900 <__errno+0xc>
   10248:	18f777d3          	fdiv.s	fa5,fa4,fa5
   1024c:	fef42627          	fsw	fa5,-20(s0)
   10250:	000117b7          	lui	a5,0x11
   10254:	9087b787          	fld	fa5,-1784(a5) # 10908 <__errno+0x14>
   10258:	fcf43c27          	fsd	fa5,-40(s0)
   1025c:	fe042223          	sw	zero,-28(s0)
   10260:	fbc42787          	flw	fa5,-68(s0)
   10264:	f0000753          	fmv.w.x	fa4,zero
   10268:	a0e7a7d3          	feq.s	a5,fa5,fa4
   1026c:	00078663          	beqz	a5,10278 <sqrtfcn+0x50>
   10270:	fe042623          	sw	zero,-20(s0)
   10274:	0c00006f          	j	10334 <sqrtfcn+0x10c>
   10278:	00100793          	li	a5,1
   1027c:	fef42423          	sw	a5,-24(s0)
   10280:	0a40006f          	j	10324 <sqrtfcn+0xfc>
   10284:	fe442783          	lw	a5,-28(s0)
   10288:	0007879b          	sext.w	a5,a5
   1028c:	08079663          	bnez	a5,10318 <sqrtfcn+0xf0>
   10290:	fec42707          	flw	fa4,-20(s0)
   10294:	fec42787          	flw	fa5,-20(s0)
   10298:	10f777d3          	fmul.s	fa5,fa4,fa5
   1029c:	fbc42707          	flw	fa4,-68(s0)
   102a0:	08f777d3          	fsub.s	fa5,fa4,fa5
   102a4:	42078753          	fcvt.d.s	fa4,fa5
   102a8:	fec42787          	flw	fa5,-20(s0)
   102ac:	420787d3          	fcvt.d.s	fa5,fa5
   102b0:	02f7f7d3          	fadd.d	fa5,fa5,fa5
   102b4:	1af777d3          	fdiv.d	fa5,fa4,fa5
   102b8:	4017f7d3          	fcvt.s.d	fa5,fa5
   102bc:	fcf42a27          	fsw	fa5,-44(s0)
   102c0:	fec42707          	flw	fa4,-20(s0)
   102c4:	fd442787          	flw	fa5,-44(s0)
   102c8:	00f777d3          	fadd.s	fa5,fa4,fa5
   102cc:	fef42627          	fsw	fa5,-20(s0)
   102d0:	fec42707          	flw	fa4,-20(s0)
   102d4:	fec42787          	flw	fa5,-20(s0)
   102d8:	10f777d3          	fmul.s	fa5,fa4,fa5
   102dc:	fbc42707          	flw	fa4,-68(s0)
   102e0:	08f777d3          	fsub.s	fa5,fa4,fa5
   102e4:	420787d3          	fcvt.d.s	fa5,fa5
   102e8:	fcf43427          	fsd	fa5,-56(s0)
   102ec:	fc843787          	fld	fa5,-56(s0)
   102f0:	4017f7d3          	fcvt.s.d	fa5,fa5
   102f4:	20f78553          	fmv.s	fa0,fa5
   102f8:	ef1ff0ef          	jal	ra,101e8 <fabs_float>
   102fc:	20a507d3          	fmv.s	fa5,fa0
   10300:	420787d3          	fcvt.d.s	fa5,fa5
   10304:	fd843707          	fld	fa4,-40(s0)
   10308:	a2e787d3          	fle.d	a5,fa5,fa4
   1030c:	00078663          	beqz	a5,10318 <sqrtfcn+0xf0>
   10310:	00100793          	li	a5,1
   10314:	fef42223          	sw	a5,-28(s0)
   10318:	fe842783          	lw	a5,-24(s0)
   1031c:	0017879b          	addiw	a5,a5,1
   10320:	fef42423          	sw	a5,-24(s0)
   10324:	fe842783          	lw	a5,-24(s0)
   10328:	0007871b          	sext.w	a4,a5
   1032c:	01300793          	li	a5,19
   10330:	f4e7dae3          	bge	a5,a4,10284 <sqrtfcn+0x5c>
   10334:	fec42787          	flw	fa5,-20(s0)
   10338:	20f78553          	fmv.s	fa0,fa5
   1033c:	04813083          	ld	ra,72(sp)
   10340:	04013403          	ld	s0,64(sp)
   10344:	05010113          	addi	sp,sp,80
   10348:	00008067          	ret

000000000001034c <initialise_benchmark>:
   1034c:	ff010113          	addi	sp,sp,-16
   10350:	00813423          	sd	s0,8(sp)
   10354:	01010413          	addi	s0,sp,16
   10358:	00000013          	nop
   1035c:	00813403          	ld	s0,8(sp)
   10360:	01010113          	addi	sp,sp,16
   10364:	00008067          	ret

0000000000010368 <benchmark>:
   10368:	fe010113          	addi	sp,sp,-32
   1036c:	00113c23          	sd	ra,24(sp)
   10370:	00813823          	sd	s0,16(sp)
   10374:	02010413          	addi	s0,sp,32
   10378:	fe042623          	sw	zero,-20(s0)
   1037c:	fe042423          	sw	zero,-24(s0)
   10380:	fe042623          	sw	zero,-20(s0)
   10384:	0300006f          	j	103b4 <benchmark+0x4c>
   10388:	fec42507          	flw	fa0,-20(s0)
   1038c:	e9dff0ef          	jal	ra,10228 <sqrtfcn>
   10390:	20a50753          	fmv.s	fa4,fa0
   10394:	fe842787          	flw	fa5,-24(s0)
   10398:	00f777d3          	fadd.s	fa5,fa4,fa5
   1039c:	fef42427          	fsw	fa5,-24(s0)
   103a0:	fec42707          	flw	fa4,-20(s0)
   103a4:	000117b7          	lui	a5,0x11
   103a8:	9107a787          	flw	fa5,-1776(a5) # 10910 <__errno+0x1c>
   103ac:	00f777d3          	fadd.s	fa5,fa4,fa5
   103b0:	fef42627          	fsw	fa5,-20(s0)
   103b4:	fec42707          	flw	fa4,-20(s0)
   103b8:	000117b7          	lui	a5,0x11
   103bc:	9147a787          	flw	fa5,-1772(a5) # 10914 <__errno+0x20>
   103c0:	a0f717d3          	flt.s	a5,fa4,fa5
   103c4:	fc0792e3          	bnez	a5,10388 <benchmark+0x20>
   103c8:	fe842707          	flw	fa4,-24(s0)
   103cc:	000117b7          	lui	a5,0x11
   103d0:	9187a787          	flw	fa5,-1768(a5) # 10918 <__errno+0x24>
   103d4:	10f777d3          	fmul.s	fa5,fa4,fa5
   103d8:	c00797d3          	fcvt.w.s	a5,fa5,rtz
   103dc:	0007879b          	sext.w	a5,a5
   103e0:	00078513          	mv	a0,a5
   103e4:	01813083          	ld	ra,24(sp)
   103e8:	01013403          	ld	s0,16(sp)
   103ec:	02010113          	addi	sp,sp,32
   103f0:	00008067          	ret

00000000000103f4 <verify_benchmark>:
   103f4:	fd010113          	addi	sp,sp,-48
   103f8:	02813423          	sd	s0,40(sp)
   103fc:	03010413          	addi	s0,sp,48
   10400:	00050793          	mv	a5,a0
   10404:	fcf42e23          	sw	a5,-36(s0)
   10408:	276d27b7          	lui	a5,0x276d2
   1040c:	f807879b          	addiw	a5,a5,-128
   10410:	fef42623          	sw	a5,-20(s0)
   10414:	fdc42703          	lw	a4,-36(s0)
   10418:	fec42783          	lw	a5,-20(s0)
   1041c:	0007071b          	sext.w	a4,a4
   10420:	0007879b          	sext.w	a5,a5
   10424:	00f70663          	beq	a4,a5,10430 <verify_benchmark+0x3c>
   10428:	00000793          	li	a5,0
   1042c:	0080006f          	j	10434 <verify_benchmark+0x40>
   10430:	00100793          	li	a5,1
   10434:	00078513          	mv	a0,a5
   10438:	02813403          	ld	s0,40(sp)
   1043c:	03010113          	addi	sp,sp,48
   10440:	00008067          	ret

0000000000010444 <main>:
   10444:	fd010113          	addi	sp,sp,-48
   10448:	02113423          	sd	ra,40(sp)
   1044c:	02813023          	sd	s0,32(sp)
   10450:	03010413          	addi	s0,sp,48
   10454:	00050793          	mv	a5,a0
   10458:	fcb43823          	sd	a1,-48(s0)
   1045c:	fcf42e23          	sw	a5,-36(s0)
   10460:	eedff0ef          	jal	ra,1034c <initialise_benchmark>
   10464:	fe042623          	sw	zero,-20(s0)
   10468:	0200006f          	j	10488 <main+0x44>
   1046c:	ee1ff0ef          	jal	ra,1034c <initialise_benchmark>
   10470:	ef9ff0ef          	jal	ra,10368 <benchmark>
   10474:	00050793          	mv	a5,a0
   10478:	fef42223          	sw	a5,-28(s0)
   1047c:	fec42783          	lw	a5,-20(s0)
   10480:	0017879b          	addiw	a5,a5,1
   10484:	fef42623          	sw	a5,-20(s0)
   10488:	fec42783          	lw	a5,-20(s0)
   1048c:	0007871b          	sext.w	a4,a5
   10490:	00100793          	li	a5,1
   10494:	fce7dce3          	bge	a5,a4,1046c <main+0x28>
   10498:	fe442783          	lw	a5,-28(s0)
   1049c:	0007879b          	sext.w	a5,a5
   104a0:	00078513          	mv	a0,a5
   104a4:	f51ff0ef          	jal	ra,103f4 <verify_benchmark>
   104a8:	00050793          	mv	a5,a0
   104ac:	fef42423          	sw	a5,-24(s0)
   104b0:	fe842783          	lw	a5,-24(s0)
   104b4:	0007879b          	sext.w	a5,a5
   104b8:	0017b793          	seqz	a5,a5
   104bc:	0ff7f793          	zext.b	a5,a5
   104c0:	0007879b          	sext.w	a5,a5
   104c4:	00078513          	mv	a0,a5
   104c8:	02813083          	ld	ra,40(sp)
   104cc:	02013403          	ld	s0,32(sp)
   104d0:	03010113          	addi	sp,sp,48
   104d4:	00008067          	ret

00000000000104d8 <atexit>:
   104d8:	00050593          	mv	a1,a0
   104dc:	00000693          	li	a3,0
   104e0:	00000613          	li	a2,0
   104e4:	00000513          	li	a0,0
   104e8:	2280006f          	j	10710 <__register_exitproc>

00000000000104ec <exit>:
   104ec:	ff010113          	addi	sp,sp,-16
   104f0:	00000593          	li	a1,0
   104f4:	00813023          	sd	s0,0(sp)
   104f8:	00113423          	sd	ra,8(sp)
   104fc:	00050413          	mv	s0,a0
   10500:	298000ef          	jal	ra,10798 <__call_exitprocs>
   10504:	000117b7          	lui	a5,0x11
   10508:	7687b503          	ld	a0,1896(a5) # 11768 <_global_impure_ptr>
   1050c:	05853783          	ld	a5,88(a0) # 11058 <impure_data+0x40>
   10510:	00078463          	beqz	a5,10518 <exit+0x2c>
   10514:	000780e7          	jalr	a5
   10518:	00040513          	mv	a0,s0
   1051c:	394000ef          	jal	ra,108b0 <_exit>

0000000000010520 <__libc_fini_array>:
   10520:	fd010113          	addi	sp,sp,-48
   10524:	000117b7          	lui	a5,0x11
   10528:	00011737          	lui	a4,0x11
   1052c:	02813023          	sd	s0,32(sp)
   10530:	01070713          	addi	a4,a4,16 # 11010 <__do_global_dtors_aux_fini_array_entry>
   10534:	01878413          	addi	s0,a5,24 # 11018 <impure_data>
   10538:	40e40433          	sub	s0,s0,a4
   1053c:	00913c23          	sd	s1,24(sp)
   10540:	01213823          	sd	s2,16(sp)
   10544:	01313423          	sd	s3,8(sp)
   10548:	02113423          	sd	ra,40(sp)
   1054c:	40345413          	srai	s0,s0,0x3
   10550:	00000493          	li	s1,0
   10554:	01878913          	addi	s2,a5,24
   10558:	ff800993          	li	s3,-8
   1055c:	02941063          	bne	s0,s1,1057c <__libc_fini_array+0x5c>
   10560:	02013403          	ld	s0,32(sp)
   10564:	02813083          	ld	ra,40(sp)
   10568:	01813483          	ld	s1,24(sp)
   1056c:	01013903          	ld	s2,16(sp)
   10570:	00813983          	ld	s3,8(sp)
   10574:	03010113          	addi	sp,sp,48
   10578:	b79ff06f          	j	100f0 <_fini>
   1057c:	033487b3          	mul	a5,s1,s3
   10580:	00148493          	addi	s1,s1,1
   10584:	00f907b3          	add	a5,s2,a5
   10588:	ff87b783          	ld	a5,-8(a5)
   1058c:	000780e7          	jalr	a5
   10590:	fcdff06f          	j	1055c <__libc_fini_array+0x3c>

0000000000010594 <__libc_init_array>:
   10594:	fe010113          	addi	sp,sp,-32
   10598:	00813823          	sd	s0,16(sp)
   1059c:	00913423          	sd	s1,8(sp)
   105a0:	00011437          	lui	s0,0x11
   105a4:	000114b7          	lui	s1,0x11
   105a8:	00448793          	addi	a5,s1,4 # 11004 <__preinit_array_end>
   105ac:	00440413          	addi	s0,s0,4 # 11004 <__preinit_array_end>
   105b0:	40f40433          	sub	s0,s0,a5
   105b4:	01213023          	sd	s2,0(sp)
   105b8:	00113c23          	sd	ra,24(sp)
   105bc:	40345413          	srai	s0,s0,0x3
   105c0:	00448493          	addi	s1,s1,4
   105c4:	00000913          	li	s2,0
   105c8:	04891263          	bne	s2,s0,1060c <__libc_init_array+0x78>
   105cc:	000114b7          	lui	s1,0x11
   105d0:	b21ff0ef          	jal	ra,100f0 <_fini>
   105d4:	00011437          	lui	s0,0x11
   105d8:	00848793          	addi	a5,s1,8 # 11008 <__frame_dummy_init_array_entry>
   105dc:	01040413          	addi	s0,s0,16 # 11010 <__do_global_dtors_aux_fini_array_entry>
   105e0:	40f40433          	sub	s0,s0,a5
   105e4:	40345413          	srai	s0,s0,0x3
   105e8:	00848493          	addi	s1,s1,8
   105ec:	00000913          	li	s2,0
   105f0:	02891863          	bne	s2,s0,10620 <__libc_init_array+0x8c>
   105f4:	01813083          	ld	ra,24(sp)
   105f8:	01013403          	ld	s0,16(sp)
   105fc:	00813483          	ld	s1,8(sp)
   10600:	00013903          	ld	s2,0(sp)
   10604:	02010113          	addi	sp,sp,32
   10608:	00008067          	ret
   1060c:	0004b783          	ld	a5,0(s1)
   10610:	00190913          	addi	s2,s2,1
   10614:	00848493          	addi	s1,s1,8
   10618:	000780e7          	jalr	a5
   1061c:	fadff06f          	j	105c8 <__libc_init_array+0x34>
   10620:	0004b783          	ld	a5,0(s1)
   10624:	00190913          	addi	s2,s2,1
   10628:	00848493          	addi	s1,s1,8
   1062c:	000780e7          	jalr	a5
   10630:	fc1ff06f          	j	105f0 <__libc_init_array+0x5c>

0000000000010634 <memset>:
   10634:	00f00313          	li	t1,15
   10638:	00050713          	mv	a4,a0
   1063c:	02c37a63          	bgeu	t1,a2,10670 <memset+0x3c>
   10640:	00f77793          	andi	a5,a4,15
   10644:	0a079063          	bnez	a5,106e4 <memset+0xb0>
   10648:	06059e63          	bnez	a1,106c4 <memset+0x90>
   1064c:	ff067693          	andi	a3,a2,-16
   10650:	00f67613          	andi	a2,a2,15
   10654:	00e686b3          	add	a3,a3,a4
   10658:	00b73023          	sd	a1,0(a4)
   1065c:	00b73423          	sd	a1,8(a4)
   10660:	01070713          	addi	a4,a4,16
   10664:	fed76ae3          	bltu	a4,a3,10658 <memset+0x24>
   10668:	00061463          	bnez	a2,10670 <memset+0x3c>
   1066c:	00008067          	ret
   10670:	40c306b3          	sub	a3,t1,a2
   10674:	00269693          	slli	a3,a3,0x2
   10678:	00000297          	auipc	t0,0x0
   1067c:	005686b3          	add	a3,a3,t0
   10680:	00c68067          	jr	12(a3)
   10684:	00b70723          	sb	a1,14(a4)
   10688:	00b706a3          	sb	a1,13(a4)
   1068c:	00b70623          	sb	a1,12(a4)
   10690:	00b705a3          	sb	a1,11(a4)
   10694:	00b70523          	sb	a1,10(a4)
   10698:	00b704a3          	sb	a1,9(a4)
   1069c:	00b70423          	sb	a1,8(a4)
   106a0:	00b703a3          	sb	a1,7(a4)
   106a4:	00b70323          	sb	a1,6(a4)
   106a8:	00b702a3          	sb	a1,5(a4)
   106ac:	00b70223          	sb	a1,4(a4)
   106b0:	00b701a3          	sb	a1,3(a4)
   106b4:	00b70123          	sb	a1,2(a4)
   106b8:	00b700a3          	sb	a1,1(a4)
   106bc:	00b70023          	sb	a1,0(a4)
   106c0:	00008067          	ret
   106c4:	0ff5f593          	zext.b	a1,a1
   106c8:	00859693          	slli	a3,a1,0x8
   106cc:	00d5e5b3          	or	a1,a1,a3
   106d0:	01059693          	slli	a3,a1,0x10
   106d4:	00d5e5b3          	or	a1,a1,a3
   106d8:	02059693          	slli	a3,a1,0x20
   106dc:	00d5e5b3          	or	a1,a1,a3
   106e0:	f6dff06f          	j	1064c <memset+0x18>
   106e4:	00279693          	slli	a3,a5,0x2
   106e8:	00000297          	auipc	t0,0x0
   106ec:	005686b3          	add	a3,a3,t0
   106f0:	00008293          	mv	t0,ra
   106f4:	f98680e7          	jalr	-104(a3)
   106f8:	00028093          	mv	ra,t0
   106fc:	ff078793          	addi	a5,a5,-16
   10700:	40f70733          	sub	a4,a4,a5
   10704:	00f60633          	add	a2,a2,a5
   10708:	f6c374e3          	bgeu	t1,a2,10670 <memset+0x3c>
   1070c:	f3dff06f          	j	10648 <memset+0x14>

0000000000010710 <__register_exitproc>:
   10710:	000117b7          	lui	a5,0x11
   10714:	7687b703          	ld	a4,1896(a5) # 11768 <_global_impure_ptr>
   10718:	00050313          	mv	t1,a0
   1071c:	1f873783          	ld	a5,504(a4)
   10720:	00079663          	bnez	a5,1072c <__register_exitproc+0x1c>
   10724:	20070793          	addi	a5,a4,512
   10728:	1ef73c23          	sd	a5,504(a4)
   1072c:	0087a703          	lw	a4,8(a5)
   10730:	01f00813          	li	a6,31
   10734:	fff00513          	li	a0,-1
   10738:	04e84e63          	blt	a6,a4,10794 <__register_exitproc+0x84>
   1073c:	02030e63          	beqz	t1,10778 <__register_exitproc+0x68>
   10740:	00371813          	slli	a6,a4,0x3
   10744:	01078833          	add	a6,a5,a6
   10748:	10c83823          	sd	a2,272(a6)
   1074c:	3107a883          	lw	a7,784(a5)
   10750:	00100613          	li	a2,1
   10754:	00e6163b          	sllw	a2,a2,a4
   10758:	00c8e8b3          	or	a7,a7,a2
   1075c:	3117a823          	sw	a7,784(a5)
   10760:	20d83823          	sd	a3,528(a6)
   10764:	00200693          	li	a3,2
   10768:	00d31863          	bne	t1,a3,10778 <__register_exitproc+0x68>
   1076c:	3147a683          	lw	a3,788(a5)
   10770:	00c6e633          	or	a2,a3,a2
   10774:	30c7aa23          	sw	a2,788(a5)
   10778:	0017069b          	addiw	a3,a4,1
   1077c:	00270713          	addi	a4,a4,2
   10780:	00371713          	slli	a4,a4,0x3
   10784:	00d7a423          	sw	a3,8(a5)
   10788:	00e787b3          	add	a5,a5,a4
   1078c:	00b7b023          	sd	a1,0(a5)
   10790:	00000513          	li	a0,0
   10794:	00008067          	ret

0000000000010798 <__call_exitprocs>:
   10798:	fb010113          	addi	sp,sp,-80
   1079c:	000117b7          	lui	a5,0x11
   107a0:	03313423          	sd	s3,40(sp)
   107a4:	7687b983          	ld	s3,1896(a5) # 11768 <_global_impure_ptr>
   107a8:	03413023          	sd	s4,32(sp)
   107ac:	01513c23          	sd	s5,24(sp)
   107b0:	01613823          	sd	s6,16(sp)
   107b4:	04113423          	sd	ra,72(sp)
   107b8:	04813023          	sd	s0,64(sp)
   107bc:	02913c23          	sd	s1,56(sp)
   107c0:	03213823          	sd	s2,48(sp)
   107c4:	01713423          	sd	s7,8(sp)
   107c8:	00050a93          	mv	s5,a0
   107cc:	00058a13          	mv	s4,a1
   107d0:	00100b13          	li	s6,1
   107d4:	1f89b403          	ld	s0,504(s3)
   107d8:	00040c63          	beqz	s0,107f0 <__call_exitprocs+0x58>
   107dc:	00842483          	lw	s1,8(s0)
   107e0:	fff4849b          	addiw	s1,s1,-1
   107e4:	00349913          	slli	s2,s1,0x3
   107e8:	01240933          	add	s2,s0,s2
   107ec:	0204d863          	bgez	s1,1081c <__call_exitprocs+0x84>
   107f0:	04813083          	ld	ra,72(sp)
   107f4:	04013403          	ld	s0,64(sp)
   107f8:	03813483          	ld	s1,56(sp)
   107fc:	03013903          	ld	s2,48(sp)
   10800:	02813983          	ld	s3,40(sp)
   10804:	02013a03          	ld	s4,32(sp)
   10808:	01813a83          	ld	s5,24(sp)
   1080c:	01013b03          	ld	s6,16(sp)
   10810:	00813b83          	ld	s7,8(sp)
   10814:	05010113          	addi	sp,sp,80
   10818:	00008067          	ret
   1081c:	000a0c63          	beqz	s4,10834 <__call_exitprocs+0x9c>
   10820:	21093783          	ld	a5,528(s2)
   10824:	01478863          	beq	a5,s4,10834 <__call_exitprocs+0x9c>
   10828:	fff4849b          	addiw	s1,s1,-1
   1082c:	ff890913          	addi	s2,s2,-8
   10830:	fbdff06f          	j	107ec <__call_exitprocs+0x54>
   10834:	00842783          	lw	a5,8(s0)
   10838:	01093683          	ld	a3,16(s2)
   1083c:	fff7879b          	addiw	a5,a5,-1
   10840:	02979e63          	bne	a5,s1,1087c <__call_exitprocs+0xe4>
   10844:	00942423          	sw	s1,8(s0)
   10848:	fe0680e3          	beqz	a3,10828 <__call_exitprocs+0x90>
   1084c:	31042703          	lw	a4,784(s0)
   10850:	009b163b          	sllw	a2,s6,s1
   10854:	00842b83          	lw	s7,8(s0)
   10858:	00c77733          	and	a4,a4,a2
   1085c:	0007071b          	sext.w	a4,a4
   10860:	02071263          	bnez	a4,10884 <__call_exitprocs+0xec>
   10864:	000680e7          	jalr	a3
   10868:	00842703          	lw	a4,8(s0)
   1086c:	1f89b783          	ld	a5,504(s3)
   10870:	f77712e3          	bne	a4,s7,107d4 <__call_exitprocs+0x3c>
   10874:	faf40ae3          	beq	s0,a5,10828 <__call_exitprocs+0x90>
   10878:	f5dff06f          	j	107d4 <__call_exitprocs+0x3c>
   1087c:	00093823          	sd	zero,16(s2)
   10880:	fc9ff06f          	j	10848 <__call_exitprocs+0xb0>
   10884:	31442783          	lw	a5,788(s0)
   10888:	11093583          	ld	a1,272(s2)
   1088c:	00c7f7b3          	and	a5,a5,a2
   10890:	0007879b          	sext.w	a5,a5
   10894:	00079863          	bnez	a5,108a4 <__call_exitprocs+0x10c>
   10898:	000a8513          	mv	a0,s5
   1089c:	000680e7          	jalr	a3
   108a0:	fc9ff06f          	j	10868 <__call_exitprocs+0xd0>
   108a4:	00058513          	mv	a0,a1
   108a8:	000680e7          	jalr	a3
   108ac:	fbdff06f          	j	10868 <__call_exitprocs+0xd0>

00000000000108b0 <_exit>:
   108b0:	00000593          	li	a1,0
   108b4:	00000613          	li	a2,0
   108b8:	00000693          	li	a3,0
   108bc:	00000713          	li	a4,0
   108c0:	00000793          	li	a5,0
   108c4:	05d00893          	li	a7,93
   108c8:	00000073          	ecall
   108cc:	02055263          	bgez	a0,108f0 <_exit+0x40>
   108d0:	ff010113          	addi	sp,sp,-16
   108d4:	00813023          	sd	s0,0(sp)
   108d8:	00050413          	mv	s0,a0
   108dc:	00113423          	sd	ra,8(sp)
   108e0:	4080043b          	negw	s0,s0
   108e4:	010000ef          	jal	ra,108f4 <__errno>
   108e8:	00852023          	sw	s0,0(a0)
   108ec:	0000006f          	j	108ec <_exit+0x3c>
   108f0:	0000006f          	j	108f0 <_exit+0x40>

00000000000108f4 <__errno>:
   108f4:	8101b503          	ld	a0,-2032(gp) # 11770 <_impure_ptr>
   108f8:	00008067          	ret
