
supp/st.riscv:     file format elf64-littleriscv


Disassembly of section .text:

00000000000100b0 <_start>:
   100b0:	00002197          	auipc	gp,0x2
   100b4:	eb018193          	addi	gp,gp,-336 # 11f60 <__global_pointer$>
   100b8:	81818513          	addi	a0,gp,-2024 # 11778 <completed.5212>
   100bc:	00003617          	auipc	a2,0x3
   100c0:	66460613          	addi	a2,a2,1636 # 13720 <_end>
   100c4:	40a60633          	sub	a2,a2,a0
   100c8:	00000593          	li	a1,0
   100cc:	18d000ef          	jal	ra,10a58 <memset>
   100d0:	00001517          	auipc	a0,0x1
   100d4:	87450513          	addi	a0,a0,-1932 # 10944 <__libc_fini_array>
   100d8:	025000ef          	jal	ra,108fc <atexit>
   100dc:	0dd000ef          	jal	ra,109b8 <__libc_init_array>
   100e0:	00012503          	lw	a0,0(sp)
   100e4:	00810593          	addi	a1,sp,8
   100e8:	00000613          	li	a2,0
   100ec:	7dc000ef          	jal	ra,108c8 <main>
   100f0:	0210006f          	j	10910 <exit>

00000000000100f4 <_fini>:
   100f4:	00008067          	ret

00000000000100f8 <deregister_tm_clones>:
   100f8:	00011537          	lui	a0,0x11
   100fc:	000117b7          	lui	a5,0x11
   10100:	76050713          	addi	a4,a0,1888 # 11760 <__TMC_END__>
   10104:	76078793          	addi	a5,a5,1888 # 11760 <__TMC_END__>
   10108:	00e78c63          	beq	a5,a4,10120 <deregister_tm_clones+0x28>
   1010c:	00000337          	lui	t1,0x0
   10110:	00030313          	mv	t1,t1
   10114:	00030663          	beqz	t1,10120 <deregister_tm_clones+0x28>
   10118:	76050513          	addi	a0,a0,1888
   1011c:	00030067          	jr	t1 # 0 <_start-0x100b0>
   10120:	00008067          	ret

0000000000010124 <register_tm_clones>:
   10124:	000117b7          	lui	a5,0x11
   10128:	00011537          	lui	a0,0x11
   1012c:	76078593          	addi	a1,a5,1888 # 11760 <__TMC_END__>
   10130:	76050793          	addi	a5,a0,1888 # 11760 <__TMC_END__>
   10134:	40f585b3          	sub	a1,a1,a5
   10138:	4035d593          	srai	a1,a1,0x3
   1013c:	00200793          	li	a5,2
   10140:	02f5c5b3          	div	a1,a1,a5
   10144:	00058c63          	beqz	a1,1015c <register_tm_clones+0x38>
   10148:	00000337          	lui	t1,0x0
   1014c:	00030313          	mv	t1,t1
   10150:	00030663          	beqz	t1,1015c <register_tm_clones+0x38>
   10154:	76050513          	addi	a0,a0,1888
   10158:	00030067          	jr	t1 # 0 <_start-0x100b0>
   1015c:	00008067          	ret

0000000000010160 <__do_global_dtors_aux>:
   10160:	8181c703          	lbu	a4,-2024(gp) # 11778 <completed.5212>
   10164:	04071663          	bnez	a4,101b0 <__do_global_dtors_aux+0x50>
   10168:	ff010113          	addi	sp,sp,-16
   1016c:	00813023          	sd	s0,0(sp)
   10170:	00113423          	sd	ra,8(sp)
   10174:	00078413          	mv	s0,a5
   10178:	f81ff0ef          	jal	ra,100f8 <deregister_tm_clones>
   1017c:	000007b7          	lui	a5,0x0
   10180:	00078793          	mv	a5,a5
   10184:	00078a63          	beqz	a5,10198 <__do_global_dtors_aux+0x38>
   10188:	00011537          	lui	a0,0x11
   1018c:	00050513          	mv	a0,a0
   10190:	ffff0097          	auipc	ra,0xffff0
   10194:	e70080e7          	jalr	-400(ra) # 0 <_start-0x100b0>
   10198:	00100793          	li	a5,1
   1019c:	80f18c23          	sb	a5,-2024(gp) # 11778 <completed.5212>
   101a0:	00813083          	ld	ra,8(sp)
   101a4:	00013403          	ld	s0,0(sp)
   101a8:	01010113          	addi	sp,sp,16
   101ac:	00008067          	ret
   101b0:	00008067          	ret

00000000000101b4 <frame_dummy>:
   101b4:	000007b7          	lui	a5,0x0
   101b8:	00078793          	mv	a5,a5
   101bc:	02078663          	beqz	a5,101e8 <frame_dummy+0x34>
   101c0:	000115b7          	lui	a1,0x11
   101c4:	00011537          	lui	a0,0x11
   101c8:	ff010113          	addi	sp,sp,-16
   101cc:	78058593          	addi	a1,a1,1920 # 11780 <object.5217>
   101d0:	00050513          	mv	a0,a0
   101d4:	00113423          	sd	ra,8(sp)
   101d8:	ffff0097          	auipc	ra,0xffff0
   101dc:	e28080e7          	jalr	-472(ra) # 0 <_start-0x100b0>
   101e0:	00813083          	ld	ra,8(sp)
   101e4:	01010113          	addi	sp,sp,16
   101e8:	f3dff06f          	j	10124 <register_tm_clones>

00000000000101ec <st_initSeed>:
   101ec:	ff010113          	addi	sp,sp,-16
   101f0:	00813423          	sd	s0,8(sp)
   101f4:	01010413          	addi	s0,sp,16
   101f8:	8401aa23          	sw	zero,-1964(gp) # 117b4 <st_seed>
   101fc:	00000013          	nop
   10200:	00813403          	ld	s0,8(sp)
   10204:	01010113          	addi	sp,sp,16
   10208:	00008067          	ret

000000000001020c <st_randomInteger>:
   1020c:	ff010113          	addi	sp,sp,-16
   10210:	00813423          	sd	s0,8(sp)
   10214:	01010413          	addi	s0,sp,16
   10218:	8541a783          	lw	a5,-1964(gp) # 117b4 <st_seed>
   1021c:	0007879b          	sext.w	a5,a5
   10220:	00078713          	mv	a4,a5
   10224:	00070793          	mv	a5,a4
   10228:	0057979b          	slliw	a5,a5,0x5
   1022c:	00e787bb          	addw	a5,a5,a4
   10230:	0027979b          	slliw	a5,a5,0x2
   10234:	00e787bb          	addw	a5,a5,a4
   10238:	0007879b          	sext.w	a5,a5
   1023c:	0517879b          	addiw	a5,a5,81
   10240:	0007879b          	sext.w	a5,a5
   10244:	00078713          	mv	a4,a5
   10248:	000027b7          	lui	a5,0x2
   1024c:	f9f7879b          	addiw	a5,a5,-97
   10250:	02f767bb          	remw	a5,a4,a5
   10254:	0007871b          	sext.w	a4,a5
   10258:	84e1aa23          	sw	a4,-1964(gp) # 117b4 <st_seed>
   1025c:	8541a783          	lw	a5,-1964(gp) # 117b4 <st_seed>
   10260:	0007879b          	sext.w	a5,a5
   10264:	00078513          	mv	a0,a5
   10268:	00813403          	ld	s0,8(sp)
   1026c:	01010113          	addi	sp,sp,16
   10270:	00008067          	ret

0000000000010274 <st_initialize>:
   10274:	fd010113          	addi	sp,sp,-48
   10278:	02113423          	sd	ra,40(sp)
   1027c:	02813023          	sd	s0,32(sp)
   10280:	00913c23          	sd	s1,24(sp)
   10284:	01213823          	sd	s2,16(sp)
   10288:	03010413          	addi	s0,sp,48
   1028c:	fca43c23          	sd	a0,-40(s0)
   10290:	00000493          	li	s1,0
   10294:	0340006f          	j	102c8 <st_initialize+0x54>
   10298:	00048913          	mv	s2,s1
   1029c:	f71ff0ef          	jal	ra,1020c <st_randomInteger>
   102a0:	00050793          	mv	a5,a0
   102a4:	00f90733          	add	a4,s2,a5
   102a8:	00048793          	mv	a5,s1
   102ac:	00279793          	slli	a5,a5,0x2
   102b0:	fd843683          	ld	a3,-40(s0)
   102b4:	00f687b3          	add	a5,a3,a5
   102b8:	d02777d3          	fcvt.s.l	fa5,a4
   102bc:	00f7a027          	fsw	fa5,0(a5) # 2000 <_start-0xe0b0>
   102c0:	0014879b          	addiw	a5,s1,1
   102c4:	0007849b          	sext.w	s1,a5
   102c8:	00048713          	mv	a4,s1
   102cc:	3e700793          	li	a5,999
   102d0:	fce7d4e3          	bge	a5,a4,10298 <st_initialize+0x24>
   102d4:	00000013          	nop
   102d8:	02813083          	ld	ra,40(sp)
   102dc:	02013403          	ld	s0,32(sp)
   102e0:	01813483          	ld	s1,24(sp)
   102e4:	01013903          	ld	s2,16(sp)
   102e8:	03010113          	addi	sp,sp,48
   102ec:	00008067          	ret

00000000000102f0 <st_init>:
   102f0:	ff010113          	addi	sp,sp,-16
   102f4:	00113423          	sd	ra,8(sp)
   102f8:	00813023          	sd	s0,0(sp)
   102fc:	01010413          	addi	s0,sp,16
   10300:	eedff0ef          	jal	ra,101ec <st_initSeed>
   10304:	000127b7          	lui	a5,0x12
   10308:	77878513          	addi	a0,a5,1912 # 12778 <st_arrayA>
   1030c:	f69ff0ef          	jal	ra,10274 <st_initialize>
   10310:	000117b7          	lui	a5,0x11
   10314:	7c878513          	addi	a0,a5,1992 # 117c8 <st_arrayB>
   10318:	f5dff0ef          	jal	ra,10274 <st_initialize>
   1031c:	00000013          	nop
   10320:	00813083          	ld	ra,8(sp)
   10324:	00013403          	ld	s0,0(sp)
   10328:	01010113          	addi	sp,sp,16
   1032c:	00008067          	ret

0000000000010330 <st_return>:
   10330:	fe010113          	addi	sp,sp,-32
   10334:	00813c23          	sd	s0,24(sp)
   10338:	02010413          	addi	s0,sp,32
   1033c:	000127b7          	lui	a5,0x12
   10340:	7687a707          	flw	fa4,1896(a5) # 12768 <st_meanA>
   10344:	85c1a787          	flw	fa5,-1956(gp) # 117bc <st_meanB>
   10348:	00f77753          	fadd.s	fa4,fa4,fa5
   1034c:	000127b7          	lui	a5,0x12
   10350:	76c7a787          	flw	fa5,1900(a5) # 1276c <st_stddevA>
   10354:	00f77753          	fadd.s	fa4,fa4,fa5
   10358:	000137b7          	lui	a5,0x13
   1035c:	7187a787          	flw	fa5,1816(a5) # 13718 <st_stddevB>
   10360:	00f77753          	fadd.s	fa4,fa4,fa5
   10364:	8581a787          	flw	fa5,-1960(gp) # 117b8 <st_coef>
   10368:	00f777d3          	fadd.s	fa5,fa4,fa5
   1036c:	fef42627          	fsw	fa5,-20(s0)
   10370:	fec42787          	flw	fa5,-20(s0)
   10374:	42078753          	fcvt.d.s	fa4,fa5
   10378:	000117b7          	lui	a5,0x11
   1037c:	d207b787          	fld	fa5,-736(a5) # 10d20 <__errno+0x8>
   10380:	0af777d3          	fsub.d	fa5,fa4,fa5
   10384:	4017f7d3          	fcvt.s.d	fa5,fa5
   10388:	fef42627          	fsw	fa5,-20(s0)
   1038c:	fec42787          	flw	fa5,-20(s0)
   10390:	42078753          	fcvt.d.s	fa4,fa5
   10394:	000117b7          	lui	a5,0x11
   10398:	d287b787          	fld	fa5,-728(a5) # 10d28 <__errno+0x10>
   1039c:	a2f717d3          	flt.d	a5,fa4,fa5
   103a0:	02078263          	beqz	a5,103c4 <st_return+0x94>
   103a4:	fec42787          	flw	fa5,-20(s0)
   103a8:	42078753          	fcvt.d.s	fa4,fa5
   103ac:	000117b7          	lui	a5,0x11
   103b0:	d307b787          	fld	fa5,-720(a5) # 10d30 <__errno+0x18>
   103b4:	a2e797d3          	flt.d	a5,fa5,fa4
   103b8:	00078663          	beqz	a5,103c4 <st_return+0x94>
   103bc:	00000793          	li	a5,0
   103c0:	0080006f          	j	103c8 <st_return+0x98>
   103c4:	fff00793          	li	a5,-1
   103c8:	00078513          	mv	a0,a5
   103cc:	01813403          	ld	s0,24(sp)
   103d0:	02010113          	addi	sp,sp,32
   103d4:	00008067          	ret

00000000000103d8 <st_fabs>:
   103d8:	fd010113          	addi	sp,sp,-48
   103dc:	02813423          	sd	s0,40(sp)
   103e0:	03010413          	addi	s0,sp,48
   103e4:	fca42e27          	fsw	fa0,-36(s0)
   103e8:	fdc42787          	flw	fa5,-36(s0)
   103ec:	f0000753          	fmv.w.x	fa4,zero
   103f0:	a0f707d3          	fle.s	a5,fa4,fa5
   103f4:	00078863          	beqz	a5,10404 <st_fabs+0x2c>
   103f8:	fdc42787          	flw	fa5,-36(s0)
   103fc:	fef42627          	fsw	fa5,-20(s0)
   10400:	0100006f          	j	10410 <st_fabs+0x38>
   10404:	fdc42787          	flw	fa5,-36(s0)
   10408:	20f797d3          	fneg.s	fa5,fa5
   1040c:	fef42627          	fsw	fa5,-20(s0)
   10410:	fec42787          	flw	fa5,-20(s0)
   10414:	20f78553          	fmv.s	fa0,fa5
   10418:	02813403          	ld	s0,40(sp)
   1041c:	03010113          	addi	sp,sp,48
   10420:	00008067          	ret

0000000000010424 <st_sqrtf>:
   10424:	fc010113          	addi	sp,sp,-64
   10428:	02113c23          	sd	ra,56(sp)
   1042c:	02813823          	sd	s0,48(sp)
   10430:	04010413          	addi	s0,sp,64
   10434:	fca42627          	fsw	fa0,-52(s0)
   10438:	fcc42707          	flw	fa4,-52(s0)
   1043c:	000117b7          	lui	a5,0x11
   10440:	d387a787          	flw	fa5,-712(a5) # 10d38 <__errno+0x20>
   10444:	18f777d3          	fdiv.s	fa5,fa4,fa5
   10448:	fef42627          	fsw	fa5,-20(s0)
   1044c:	000117b7          	lui	a5,0x11
   10450:	d3c7a787          	flw	fa5,-708(a5) # 10d3c <__errno+0x24>
   10454:	fef42027          	fsw	fa5,-32(s0)
   10458:	fe042223          	sw	zero,-28(s0)
   1045c:	fcc42787          	flw	fa5,-52(s0)
   10460:	f0000753          	fmv.w.x	fa4,zero
   10464:	a0e7a7d3          	feq.s	a5,fa5,fa4
   10468:	00078663          	beqz	a5,10474 <st_sqrtf+0x50>
   1046c:	fe042623          	sw	zero,-20(s0)
   10470:	0a40006f          	j	10514 <st_sqrtf+0xf0>
   10474:	00100793          	li	a5,1
   10478:	fef42423          	sw	a5,-24(s0)
   1047c:	0880006f          	j	10504 <st_sqrtf+0xe0>
   10480:	fe442783          	lw	a5,-28(s0)
   10484:	0007879b          	sext.w	a5,a5
   10488:	06079863          	bnez	a5,104f8 <st_sqrtf+0xd4>
   1048c:	fec42707          	flw	fa4,-20(s0)
   10490:	fec42787          	flw	fa5,-20(s0)
   10494:	10f777d3          	fmul.s	fa5,fa4,fa5
   10498:	fcc42707          	flw	fa4,-52(s0)
   1049c:	08f77753          	fsub.s	fa4,fa4,fa5
   104a0:	fec42787          	flw	fa5,-20(s0)
   104a4:	00f7f7d3          	fadd.s	fa5,fa5,fa5
   104a8:	18f777d3          	fdiv.s	fa5,fa4,fa5
   104ac:	fcf42e27          	fsw	fa5,-36(s0)
   104b0:	fec42707          	flw	fa4,-20(s0)
   104b4:	fdc42787          	flw	fa5,-36(s0)
   104b8:	00f777d3          	fadd.s	fa5,fa4,fa5
   104bc:	fef42627          	fsw	fa5,-20(s0)
   104c0:	fec42707          	flw	fa4,-20(s0)
   104c4:	fec42787          	flw	fa5,-20(s0)
   104c8:	10f777d3          	fmul.s	fa5,fa4,fa5
   104cc:	fcc42707          	flw	fa4,-52(s0)
   104d0:	08f777d3          	fsub.s	fa5,fa4,fa5
   104d4:	fcf42c27          	fsw	fa5,-40(s0)
   104d8:	fd842507          	flw	fa0,-40(s0)
   104dc:	efdff0ef          	jal	ra,103d8 <st_fabs>
   104e0:	20a50753          	fmv.s	fa4,fa0
   104e4:	fe042787          	flw	fa5,-32(s0)
   104e8:	a0f707d3          	fle.s	a5,fa4,fa5
   104ec:	00078663          	beqz	a5,104f8 <st_sqrtf+0xd4>
   104f0:	00100793          	li	a5,1
   104f4:	fef42223          	sw	a5,-28(s0)
   104f8:	fe842783          	lw	a5,-24(s0)
   104fc:	0017879b          	addiw	a5,a5,1
   10500:	fef42423          	sw	a5,-24(s0)
   10504:	fe842783          	lw	a5,-24(s0)
   10508:	0007871b          	sext.w	a4,a5
   1050c:	01300793          	li	a5,19
   10510:	f6e7d8e3          	bge	a5,a4,10480 <st_sqrtf+0x5c>
   10514:	fec42787          	flw	fa5,-20(s0)
   10518:	20f78553          	fmv.s	fa0,fa5
   1051c:	03813083          	ld	ra,56(sp)
   10520:	03013403          	ld	s0,48(sp)
   10524:	04010113          	addi	sp,sp,64
   10528:	00008067          	ret

000000000001052c <st_square>:
   1052c:	fe010113          	addi	sp,sp,-32
   10530:	00813c23          	sd	s0,24(sp)
   10534:	02010413          	addi	s0,sp,32
   10538:	fea42627          	fsw	fa0,-20(s0)
   1053c:	fec42707          	flw	fa4,-20(s0)
   10540:	fec42787          	flw	fa5,-20(s0)
   10544:	10f777d3          	fmul.s	fa5,fa4,fa5
   10548:	20f78553          	fmv.s	fa0,fa5
   1054c:	01813403          	ld	s0,24(sp)
   10550:	02010113          	addi	sp,sp,32
   10554:	00008067          	ret

0000000000010558 <st_calc_Sum_Mean>:
   10558:	fc010113          	addi	sp,sp,-64
   1055c:	02813c23          	sd	s0,56(sp)
   10560:	04010413          	addi	s0,sp,64
   10564:	fca43c23          	sd	a0,-40(s0)
   10568:	fcb43823          	sd	a1,-48(s0)
   1056c:	fcc43423          	sd	a2,-56(s0)
   10570:	fd043783          	ld	a5,-48(s0)
   10574:	0007a023          	sw	zero,0(a5)
   10578:	fe042623          	sw	zero,-20(s0)
   1057c:	0380006f          	j	105b4 <st_calc_Sum_Mean+0x5c>
   10580:	fd043783          	ld	a5,-48(s0)
   10584:	0007a707          	flw	fa4,0(a5)
   10588:	fec42783          	lw	a5,-20(s0)
   1058c:	00279793          	slli	a5,a5,0x2
   10590:	fd843703          	ld	a4,-40(s0)
   10594:	00f707b3          	add	a5,a4,a5
   10598:	0007a787          	flw	fa5,0(a5)
   1059c:	00f777d3          	fadd.s	fa5,fa4,fa5
   105a0:	fd043783          	ld	a5,-48(s0)
   105a4:	00f7a027          	fsw	fa5,0(a5)
   105a8:	fec42783          	lw	a5,-20(s0)
   105ac:	0017879b          	addiw	a5,a5,1
   105b0:	fef42623          	sw	a5,-20(s0)
   105b4:	fec42783          	lw	a5,-20(s0)
   105b8:	0007871b          	sext.w	a4,a5
   105bc:	3e700793          	li	a5,999
   105c0:	fce7d0e3          	bge	a5,a4,10580 <st_calc_Sum_Mean+0x28>
   105c4:	fd043783          	ld	a5,-48(s0)
   105c8:	0007a707          	flw	fa4,0(a5)
   105cc:	000117b7          	lui	a5,0x11
   105d0:	d407a787          	flw	fa5,-704(a5) # 10d40 <__errno+0x28>
   105d4:	18f777d3          	fdiv.s	fa5,fa4,fa5
   105d8:	fc843783          	ld	a5,-56(s0)
   105dc:	00f7a027          	fsw	fa5,0(a5)
   105e0:	00000013          	nop
   105e4:	03813403          	ld	s0,56(sp)
   105e8:	04010113          	addi	sp,sp,64
   105ec:	00008067          	ret

00000000000105f0 <st_calc_Var_Stddev>:
   105f0:	fc010113          	addi	sp,sp,-64
   105f4:	02113c23          	sd	ra,56(sp)
   105f8:	02813823          	sd	s0,48(sp)
   105fc:	04010413          	addi	s0,sp,64
   10600:	fca43c23          	sd	a0,-40(s0)
   10604:	fca42a27          	fsw	fa0,-44(s0)
   10608:	fcb43423          	sd	a1,-56(s0)
   1060c:	fcc43023          	sd	a2,-64(s0)
   10610:	fe042423          	sw	zero,-24(s0)
   10614:	fe042623          	sw	zero,-20(s0)
   10618:	0440006f          	j	1065c <st_calc_Var_Stddev+0x6c>
   1061c:	fec42783          	lw	a5,-20(s0)
   10620:	00279793          	slli	a5,a5,0x2
   10624:	fd843703          	ld	a4,-40(s0)
   10628:	00f707b3          	add	a5,a4,a5
   1062c:	0007a707          	flw	fa4,0(a5)
   10630:	fd442787          	flw	fa5,-44(s0)
   10634:	08f777d3          	fsub.s	fa5,fa4,fa5
   10638:	20f78553          	fmv.s	fa0,fa5
   1063c:	ef1ff0ef          	jal	ra,1052c <st_square>
   10640:	20a50753          	fmv.s	fa4,fa0
   10644:	fe842787          	flw	fa5,-24(s0)
   10648:	00e7f7d3          	fadd.s	fa5,fa5,fa4
   1064c:	fef42427          	fsw	fa5,-24(s0)
   10650:	fec42783          	lw	a5,-20(s0)
   10654:	0017879b          	addiw	a5,a5,1
   10658:	fef42623          	sw	a5,-20(s0)
   1065c:	fec42783          	lw	a5,-20(s0)
   10660:	0007871b          	sext.w	a4,a5
   10664:	3e700793          	li	a5,999
   10668:	fae7dae3          	bge	a5,a4,1061c <st_calc_Var_Stddev+0x2c>
   1066c:	fe842707          	flw	fa4,-24(s0)
   10670:	000117b7          	lui	a5,0x11
   10674:	d407a787          	flw	fa5,-704(a5) # 10d40 <__errno+0x28>
   10678:	18f777d3          	fdiv.s	fa5,fa4,fa5
   1067c:	fc843783          	ld	a5,-56(s0)
   10680:	00f7a027          	fsw	fa5,0(a5)
   10684:	fc843783          	ld	a5,-56(s0)
   10688:	0007a787          	flw	fa5,0(a5)
   1068c:	20f78553          	fmv.s	fa0,fa5
   10690:	d95ff0ef          	jal	ra,10424 <st_sqrtf>
   10694:	20a507d3          	fmv.s	fa5,fa0
   10698:	fc043783          	ld	a5,-64(s0)
   1069c:	00f7a027          	fsw	fa5,0(a5)
   106a0:	00000013          	nop
   106a4:	03813083          	ld	ra,56(sp)
   106a8:	03013403          	ld	s0,48(sp)
   106ac:	04010113          	addi	sp,sp,64
   106b0:	00008067          	ret

00000000000106b4 <st_calc_LinCorrCoef>:
   106b4:	fb010113          	addi	sp,sp,-80
   106b8:	04113423          	sd	ra,72(sp)
   106bc:	04813023          	sd	s0,64(sp)
   106c0:	02813c27          	fsd	fs0,56(sp)
   106c4:	05010413          	addi	s0,sp,80
   106c8:	fca43423          	sd	a0,-56(s0)
   106cc:	fcb43023          	sd	a1,-64(s0)
   106d0:	faa42e27          	fsw	fa0,-68(s0)
   106d4:	fab42c27          	fsw	fa1,-72(s0)
   106d8:	fac43823          	sd	a2,-80(s0)
   106dc:	fc042c23          	sw	zero,-40(s0)
   106e0:	fc042a23          	sw	zero,-44(s0)
   106e4:	fc042823          	sw	zero,-48(s0)
   106e8:	fc042e23          	sw	zero,-36(s0)
   106ec:	0c00006f          	j	107ac <st_calc_LinCorrCoef+0xf8>
   106f0:	fdc42783          	lw	a5,-36(s0)
   106f4:	00279793          	slli	a5,a5,0x2
   106f8:	fc843703          	ld	a4,-56(s0)
   106fc:	00f707b3          	add	a5,a4,a5
   10700:	0007a707          	flw	fa4,0(a5)
   10704:	fbc42787          	flw	fa5,-68(s0)
   10708:	08f77753          	fsub.s	fa4,fa4,fa5
   1070c:	fdc42783          	lw	a5,-36(s0)
   10710:	00279793          	slli	a5,a5,0x2
   10714:	fc043703          	ld	a4,-64(s0)
   10718:	00f707b3          	add	a5,a4,a5
   1071c:	0007a687          	flw	fa3,0(a5)
   10720:	fb842787          	flw	fa5,-72(s0)
   10724:	08f6f7d3          	fsub.s	fa5,fa3,fa5
   10728:	10f777d3          	fmul.s	fa5,fa4,fa5
   1072c:	fd842707          	flw	fa4,-40(s0)
   10730:	00f777d3          	fadd.s	fa5,fa4,fa5
   10734:	fcf42c27          	fsw	fa5,-40(s0)
   10738:	fdc42783          	lw	a5,-36(s0)
   1073c:	00279793          	slli	a5,a5,0x2
   10740:	fc843703          	ld	a4,-56(s0)
   10744:	00f707b3          	add	a5,a4,a5
   10748:	0007a707          	flw	fa4,0(a5)
   1074c:	fbc42787          	flw	fa5,-68(s0)
   10750:	08f777d3          	fsub.s	fa5,fa4,fa5
   10754:	20f78553          	fmv.s	fa0,fa5
   10758:	dd5ff0ef          	jal	ra,1052c <st_square>
   1075c:	20a50753          	fmv.s	fa4,fa0
   10760:	fd442787          	flw	fa5,-44(s0)
   10764:	00e7f7d3          	fadd.s	fa5,fa5,fa4
   10768:	fcf42a27          	fsw	fa5,-44(s0)
   1076c:	fdc42783          	lw	a5,-36(s0)
   10770:	00279793          	slli	a5,a5,0x2
   10774:	fc043703          	ld	a4,-64(s0)
   10778:	00f707b3          	add	a5,a4,a5
   1077c:	0007a707          	flw	fa4,0(a5)
   10780:	fb842787          	flw	fa5,-72(s0)
   10784:	08f777d3          	fsub.s	fa5,fa4,fa5
   10788:	20f78553          	fmv.s	fa0,fa5
   1078c:	da1ff0ef          	jal	ra,1052c <st_square>
   10790:	20a50753          	fmv.s	fa4,fa0
   10794:	fd042787          	flw	fa5,-48(s0)
   10798:	00e7f7d3          	fadd.s	fa5,fa5,fa4
   1079c:	fcf42827          	fsw	fa5,-48(s0)
   107a0:	fdc42783          	lw	a5,-36(s0)
   107a4:	0017879b          	addiw	a5,a5,1
   107a8:	fcf42e23          	sw	a5,-36(s0)
   107ac:	fdc42783          	lw	a5,-36(s0)
   107b0:	0007871b          	sext.w	a4,a5
   107b4:	3e700793          	li	a5,999
   107b8:	f2e7dce3          	bge	a5,a4,106f0 <st_calc_LinCorrCoef+0x3c>
   107bc:	fd442507          	flw	fa0,-44(s0)
   107c0:	c65ff0ef          	jal	ra,10424 <st_sqrtf>
   107c4:	20a50453          	fmv.s	fs0,fa0
   107c8:	fd042507          	flw	fa0,-48(s0)
   107cc:	c59ff0ef          	jal	ra,10424 <st_sqrtf>
   107d0:	20a507d3          	fmv.s	fa5,fa0
   107d4:	10f477d3          	fmul.s	fa5,fs0,fa5
   107d8:	fd842707          	flw	fa4,-40(s0)
   107dc:	18f777d3          	fdiv.s	fa5,fa4,fa5
   107e0:	fb043783          	ld	a5,-80(s0)
   107e4:	00f7a027          	fsw	fa5,0(a5)
   107e8:	00000013          	nop
   107ec:	04813083          	ld	ra,72(sp)
   107f0:	04013403          	ld	s0,64(sp)
   107f4:	03813407          	fld	fs0,56(sp)
   107f8:	05010113          	addi	sp,sp,80
   107fc:	00008067          	ret

0000000000010800 <st_main>:
   10800:	ff010113          	addi	sp,sp,-16
   10804:	00113423          	sd	ra,8(sp)
   10808:	00813023          	sd	s0,0(sp)
   1080c:	01010413          	addi	s0,sp,16
   10810:	000127b7          	lui	a5,0x12
   10814:	76878613          	addi	a2,a5,1896 # 12768 <st_meanA>
   10818:	85018593          	addi	a1,gp,-1968 # 117b0 <st_sumA>
   1081c:	000127b7          	lui	a5,0x12
   10820:	77878513          	addi	a0,a5,1912 # 12778 <st_arrayA>
   10824:	d35ff0ef          	jal	ra,10558 <st_calc_Sum_Mean>
   10828:	000127b7          	lui	a5,0x12
   1082c:	7687a787          	flw	fa5,1896(a5) # 12768 <st_meanA>
   10830:	000127b7          	lui	a5,0x12
   10834:	76c78613          	addi	a2,a5,1900 # 1276c <st_stddevA>
   10838:	000127b7          	lui	a5,0x12
   1083c:	77078593          	addi	a1,a5,1904 # 12770 <st_varA>
   10840:	20f78553          	fmv.s	fa0,fa5
   10844:	000127b7          	lui	a5,0x12
   10848:	77878513          	addi	a0,a5,1912 # 12778 <st_arrayA>
   1084c:	da5ff0ef          	jal	ra,105f0 <st_calc_Var_Stddev>
   10850:	85c18613          	addi	a2,gp,-1956 # 117bc <st_meanB>
   10854:	86018593          	addi	a1,gp,-1952 # 117c0 <st_sumB>
   10858:	000117b7          	lui	a5,0x11
   1085c:	7c878513          	addi	a0,a5,1992 # 117c8 <st_arrayB>
   10860:	cf9ff0ef          	jal	ra,10558 <st_calc_Sum_Mean>
   10864:	85c1a787          	flw	fa5,-1956(gp) # 117bc <st_meanB>
   10868:	000137b7          	lui	a5,0x13
   1086c:	71878613          	addi	a2,a5,1816 # 13718 <st_stddevB>
   10870:	000137b7          	lui	a5,0x13
   10874:	71c78593          	addi	a1,a5,1820 # 1371c <st_varB>
   10878:	20f78553          	fmv.s	fa0,fa5
   1087c:	000117b7          	lui	a5,0x11
   10880:	7c878513          	addi	a0,a5,1992 # 117c8 <st_arrayB>
   10884:	d6dff0ef          	jal	ra,105f0 <st_calc_Var_Stddev>
   10888:	000127b7          	lui	a5,0x12
   1088c:	7687a787          	flw	fa5,1896(a5) # 12768 <st_meanA>
   10890:	85c1a707          	flw	fa4,-1956(gp) # 117bc <st_meanB>
   10894:	85818613          	addi	a2,gp,-1960 # 117b8 <st_coef>
   10898:	20e705d3          	fmv.s	fa1,fa4
   1089c:	20f78553          	fmv.s	fa0,fa5
   108a0:	000117b7          	lui	a5,0x11
   108a4:	7c878593          	addi	a1,a5,1992 # 117c8 <st_arrayB>
   108a8:	000127b7          	lui	a5,0x12
   108ac:	77878513          	addi	a0,a5,1912 # 12778 <st_arrayA>
   108b0:	e05ff0ef          	jal	ra,106b4 <st_calc_LinCorrCoef>
   108b4:	00000013          	nop
   108b8:	00813083          	ld	ra,8(sp)
   108bc:	00013403          	ld	s0,0(sp)
   108c0:	01010113          	addi	sp,sp,16
   108c4:	00008067          	ret

00000000000108c8 <main>:
   108c8:	ff010113          	addi	sp,sp,-16
   108cc:	00113423          	sd	ra,8(sp)
   108d0:	00813023          	sd	s0,0(sp)
   108d4:	01010413          	addi	s0,sp,16
   108d8:	a19ff0ef          	jal	ra,102f0 <st_init>
   108dc:	f25ff0ef          	jal	ra,10800 <st_main>
   108e0:	a51ff0ef          	jal	ra,10330 <st_return>
   108e4:	00050793          	mv	a5,a0
   108e8:	00078513          	mv	a0,a5
   108ec:	00813083          	ld	ra,8(sp)
   108f0:	00013403          	ld	s0,0(sp)
   108f4:	01010113          	addi	sp,sp,16
   108f8:	00008067          	ret

00000000000108fc <atexit>:
   108fc:	00050593          	mv	a1,a0
   10900:	00000693          	li	a3,0
   10904:	00000613          	li	a2,0
   10908:	00000513          	li	a0,0
   1090c:	2280006f          	j	10b34 <__register_exitproc>

0000000000010910 <exit>:
   10910:	ff010113          	addi	sp,sp,-16
   10914:	00000593          	li	a1,0
   10918:	00813023          	sd	s0,0(sp)
   1091c:	00113423          	sd	ra,8(sp)
   10920:	00050413          	mv	s0,a0
   10924:	298000ef          	jal	ra,10bbc <__call_exitprocs>
   10928:	000117b7          	lui	a5,0x11
   1092c:	7687b503          	ld	a0,1896(a5) # 11768 <_global_impure_ptr>
   10930:	05853783          	ld	a5,88(a0) # 11058 <impure_data+0x40>
   10934:	00078463          	beqz	a5,1093c <exit+0x2c>
   10938:	000780e7          	jalr	a5
   1093c:	00040513          	mv	a0,s0
   10940:	394000ef          	jal	ra,10cd4 <_exit>

0000000000010944 <__libc_fini_array>:
   10944:	fd010113          	addi	sp,sp,-48
   10948:	000117b7          	lui	a5,0x11
   1094c:	00011737          	lui	a4,0x11
   10950:	02813023          	sd	s0,32(sp)
   10954:	01070713          	addi	a4,a4,16 # 11010 <__do_global_dtors_aux_fini_array_entry>
   10958:	01878413          	addi	s0,a5,24 # 11018 <impure_data>
   1095c:	40e40433          	sub	s0,s0,a4
   10960:	00913c23          	sd	s1,24(sp)
   10964:	01213823          	sd	s2,16(sp)
   10968:	01313423          	sd	s3,8(sp)
   1096c:	02113423          	sd	ra,40(sp)
   10970:	40345413          	srai	s0,s0,0x3
   10974:	00000493          	li	s1,0
   10978:	01878913          	addi	s2,a5,24
   1097c:	ff800993          	li	s3,-8
   10980:	02941063          	bne	s0,s1,109a0 <__libc_fini_array+0x5c>
   10984:	02013403          	ld	s0,32(sp)
   10988:	02813083          	ld	ra,40(sp)
   1098c:	01813483          	ld	s1,24(sp)
   10990:	01013903          	ld	s2,16(sp)
   10994:	00813983          	ld	s3,8(sp)
   10998:	03010113          	addi	sp,sp,48
   1099c:	f58ff06f          	j	100f4 <_fini>
   109a0:	033487b3          	mul	a5,s1,s3
   109a4:	00148493          	addi	s1,s1,1
   109a8:	00f907b3          	add	a5,s2,a5
   109ac:	ff87b783          	ld	a5,-8(a5)
   109b0:	000780e7          	jalr	a5
   109b4:	fcdff06f          	j	10980 <__libc_fini_array+0x3c>

00000000000109b8 <__libc_init_array>:
   109b8:	fe010113          	addi	sp,sp,-32
   109bc:	00813823          	sd	s0,16(sp)
   109c0:	00913423          	sd	s1,8(sp)
   109c4:	00011437          	lui	s0,0x11
   109c8:	000114b7          	lui	s1,0x11
   109cc:	00448793          	addi	a5,s1,4 # 11004 <__preinit_array_end>
   109d0:	00440413          	addi	s0,s0,4 # 11004 <__preinit_array_end>
   109d4:	40f40433          	sub	s0,s0,a5
   109d8:	01213023          	sd	s2,0(sp)
   109dc:	00113c23          	sd	ra,24(sp)
   109e0:	40345413          	srai	s0,s0,0x3
   109e4:	00448493          	addi	s1,s1,4
   109e8:	00000913          	li	s2,0
   109ec:	04891263          	bne	s2,s0,10a30 <__libc_init_array+0x78>
   109f0:	000114b7          	lui	s1,0x11
   109f4:	f00ff0ef          	jal	ra,100f4 <_fini>
   109f8:	00011437          	lui	s0,0x11
   109fc:	00848793          	addi	a5,s1,8 # 11008 <__frame_dummy_init_array_entry>
   10a00:	01040413          	addi	s0,s0,16 # 11010 <__do_global_dtors_aux_fini_array_entry>
   10a04:	40f40433          	sub	s0,s0,a5
   10a08:	40345413          	srai	s0,s0,0x3
   10a0c:	00848493          	addi	s1,s1,8
   10a10:	00000913          	li	s2,0
   10a14:	02891863          	bne	s2,s0,10a44 <__libc_init_array+0x8c>
   10a18:	01813083          	ld	ra,24(sp)
   10a1c:	01013403          	ld	s0,16(sp)
   10a20:	00813483          	ld	s1,8(sp)
   10a24:	00013903          	ld	s2,0(sp)
   10a28:	02010113          	addi	sp,sp,32
   10a2c:	00008067          	ret
   10a30:	0004b783          	ld	a5,0(s1)
   10a34:	00190913          	addi	s2,s2,1
   10a38:	00848493          	addi	s1,s1,8
   10a3c:	000780e7          	jalr	a5
   10a40:	fadff06f          	j	109ec <__libc_init_array+0x34>
   10a44:	0004b783          	ld	a5,0(s1)
   10a48:	00190913          	addi	s2,s2,1
   10a4c:	00848493          	addi	s1,s1,8
   10a50:	000780e7          	jalr	a5
   10a54:	fc1ff06f          	j	10a14 <__libc_init_array+0x5c>

0000000000010a58 <memset>:
   10a58:	00f00313          	li	t1,15
   10a5c:	00050713          	mv	a4,a0
   10a60:	02c37a63          	bgeu	t1,a2,10a94 <memset+0x3c>
   10a64:	00f77793          	andi	a5,a4,15
   10a68:	0a079063          	bnez	a5,10b08 <memset+0xb0>
   10a6c:	06059e63          	bnez	a1,10ae8 <memset+0x90>
   10a70:	ff067693          	andi	a3,a2,-16
   10a74:	00f67613          	andi	a2,a2,15
   10a78:	00e686b3          	add	a3,a3,a4
   10a7c:	00b73023          	sd	a1,0(a4)
   10a80:	00b73423          	sd	a1,8(a4)
   10a84:	01070713          	addi	a4,a4,16
   10a88:	fed76ae3          	bltu	a4,a3,10a7c <memset+0x24>
   10a8c:	00061463          	bnez	a2,10a94 <memset+0x3c>
   10a90:	00008067          	ret
   10a94:	40c306b3          	sub	a3,t1,a2
   10a98:	00269693          	slli	a3,a3,0x2
   10a9c:	00000297          	auipc	t0,0x0
   10aa0:	005686b3          	add	a3,a3,t0
   10aa4:	00c68067          	jr	12(a3)
   10aa8:	00b70723          	sb	a1,14(a4)
   10aac:	00b706a3          	sb	a1,13(a4)
   10ab0:	00b70623          	sb	a1,12(a4)
   10ab4:	00b705a3          	sb	a1,11(a4)
   10ab8:	00b70523          	sb	a1,10(a4)
   10abc:	00b704a3          	sb	a1,9(a4)
   10ac0:	00b70423          	sb	a1,8(a4)
   10ac4:	00b703a3          	sb	a1,7(a4)
   10ac8:	00b70323          	sb	a1,6(a4)
   10acc:	00b702a3          	sb	a1,5(a4)
   10ad0:	00b70223          	sb	a1,4(a4)
   10ad4:	00b701a3          	sb	a1,3(a4)
   10ad8:	00b70123          	sb	a1,2(a4)
   10adc:	00b700a3          	sb	a1,1(a4)
   10ae0:	00b70023          	sb	a1,0(a4)
   10ae4:	00008067          	ret
   10ae8:	0ff5f593          	zext.b	a1,a1
   10aec:	00859693          	slli	a3,a1,0x8
   10af0:	00d5e5b3          	or	a1,a1,a3
   10af4:	01059693          	slli	a3,a1,0x10
   10af8:	00d5e5b3          	or	a1,a1,a3
   10afc:	02059693          	slli	a3,a1,0x20
   10b00:	00d5e5b3          	or	a1,a1,a3
   10b04:	f6dff06f          	j	10a70 <memset+0x18>
   10b08:	00279693          	slli	a3,a5,0x2
   10b0c:	00000297          	auipc	t0,0x0
   10b10:	005686b3          	add	a3,a3,t0
   10b14:	00008293          	mv	t0,ra
   10b18:	f98680e7          	jalr	-104(a3)
   10b1c:	00028093          	mv	ra,t0
   10b20:	ff078793          	addi	a5,a5,-16
   10b24:	40f70733          	sub	a4,a4,a5
   10b28:	00f60633          	add	a2,a2,a5
   10b2c:	f6c374e3          	bgeu	t1,a2,10a94 <memset+0x3c>
   10b30:	f3dff06f          	j	10a6c <memset+0x14>

0000000000010b34 <__register_exitproc>:
   10b34:	000117b7          	lui	a5,0x11
   10b38:	7687b703          	ld	a4,1896(a5) # 11768 <_global_impure_ptr>
   10b3c:	00050313          	mv	t1,a0
   10b40:	1f873783          	ld	a5,504(a4)
   10b44:	00079663          	bnez	a5,10b50 <__register_exitproc+0x1c>
   10b48:	20070793          	addi	a5,a4,512
   10b4c:	1ef73c23          	sd	a5,504(a4)
   10b50:	0087a703          	lw	a4,8(a5)
   10b54:	01f00813          	li	a6,31
   10b58:	fff00513          	li	a0,-1
   10b5c:	04e84e63          	blt	a6,a4,10bb8 <__register_exitproc+0x84>
   10b60:	02030e63          	beqz	t1,10b9c <__register_exitproc+0x68>
   10b64:	00371813          	slli	a6,a4,0x3
   10b68:	01078833          	add	a6,a5,a6
   10b6c:	10c83823          	sd	a2,272(a6)
   10b70:	3107a883          	lw	a7,784(a5)
   10b74:	00100613          	li	a2,1
   10b78:	00e6163b          	sllw	a2,a2,a4
   10b7c:	00c8e8b3          	or	a7,a7,a2
   10b80:	3117a823          	sw	a7,784(a5)
   10b84:	20d83823          	sd	a3,528(a6)
   10b88:	00200693          	li	a3,2
   10b8c:	00d31863          	bne	t1,a3,10b9c <__register_exitproc+0x68>
   10b90:	3147a683          	lw	a3,788(a5)
   10b94:	00c6e633          	or	a2,a3,a2
   10b98:	30c7aa23          	sw	a2,788(a5)
   10b9c:	0017069b          	addiw	a3,a4,1
   10ba0:	00270713          	addi	a4,a4,2
   10ba4:	00371713          	slli	a4,a4,0x3
   10ba8:	00d7a423          	sw	a3,8(a5)
   10bac:	00e787b3          	add	a5,a5,a4
   10bb0:	00b7b023          	sd	a1,0(a5)
   10bb4:	00000513          	li	a0,0
   10bb8:	00008067          	ret

0000000000010bbc <__call_exitprocs>:
   10bbc:	fb010113          	addi	sp,sp,-80
   10bc0:	000117b7          	lui	a5,0x11
   10bc4:	03313423          	sd	s3,40(sp)
   10bc8:	7687b983          	ld	s3,1896(a5) # 11768 <_global_impure_ptr>
   10bcc:	03413023          	sd	s4,32(sp)
   10bd0:	01513c23          	sd	s5,24(sp)
   10bd4:	01613823          	sd	s6,16(sp)
   10bd8:	04113423          	sd	ra,72(sp)
   10bdc:	04813023          	sd	s0,64(sp)
   10be0:	02913c23          	sd	s1,56(sp)
   10be4:	03213823          	sd	s2,48(sp)
   10be8:	01713423          	sd	s7,8(sp)
   10bec:	00050a93          	mv	s5,a0
   10bf0:	00058a13          	mv	s4,a1
   10bf4:	00100b13          	li	s6,1
   10bf8:	1f89b403          	ld	s0,504(s3)
   10bfc:	00040c63          	beqz	s0,10c14 <__call_exitprocs+0x58>
   10c00:	00842483          	lw	s1,8(s0)
   10c04:	fff4849b          	addiw	s1,s1,-1
   10c08:	00349913          	slli	s2,s1,0x3
   10c0c:	01240933          	add	s2,s0,s2
   10c10:	0204d863          	bgez	s1,10c40 <__call_exitprocs+0x84>
   10c14:	04813083          	ld	ra,72(sp)
   10c18:	04013403          	ld	s0,64(sp)
   10c1c:	03813483          	ld	s1,56(sp)
   10c20:	03013903          	ld	s2,48(sp)
   10c24:	02813983          	ld	s3,40(sp)
   10c28:	02013a03          	ld	s4,32(sp)
   10c2c:	01813a83          	ld	s5,24(sp)
   10c30:	01013b03          	ld	s6,16(sp)
   10c34:	00813b83          	ld	s7,8(sp)
   10c38:	05010113          	addi	sp,sp,80
   10c3c:	00008067          	ret
   10c40:	000a0c63          	beqz	s4,10c58 <__call_exitprocs+0x9c>
   10c44:	21093783          	ld	a5,528(s2)
   10c48:	01478863          	beq	a5,s4,10c58 <__call_exitprocs+0x9c>
   10c4c:	fff4849b          	addiw	s1,s1,-1
   10c50:	ff890913          	addi	s2,s2,-8
   10c54:	fbdff06f          	j	10c10 <__call_exitprocs+0x54>
   10c58:	00842783          	lw	a5,8(s0)
   10c5c:	01093683          	ld	a3,16(s2)
   10c60:	fff7879b          	addiw	a5,a5,-1
   10c64:	02979e63          	bne	a5,s1,10ca0 <__call_exitprocs+0xe4>
   10c68:	00942423          	sw	s1,8(s0)
   10c6c:	fe0680e3          	beqz	a3,10c4c <__call_exitprocs+0x90>
   10c70:	31042703          	lw	a4,784(s0)
   10c74:	009b163b          	sllw	a2,s6,s1
   10c78:	00842b83          	lw	s7,8(s0)
   10c7c:	00c77733          	and	a4,a4,a2
   10c80:	0007071b          	sext.w	a4,a4
   10c84:	02071263          	bnez	a4,10ca8 <__call_exitprocs+0xec>
   10c88:	000680e7          	jalr	a3
   10c8c:	00842703          	lw	a4,8(s0)
   10c90:	1f89b783          	ld	a5,504(s3)
   10c94:	f77712e3          	bne	a4,s7,10bf8 <__call_exitprocs+0x3c>
   10c98:	faf40ae3          	beq	s0,a5,10c4c <__call_exitprocs+0x90>
   10c9c:	f5dff06f          	j	10bf8 <__call_exitprocs+0x3c>
   10ca0:	00093823          	sd	zero,16(s2)
   10ca4:	fc9ff06f          	j	10c6c <__call_exitprocs+0xb0>
   10ca8:	31442783          	lw	a5,788(s0)
   10cac:	11093583          	ld	a1,272(s2)
   10cb0:	00c7f7b3          	and	a5,a5,a2
   10cb4:	0007879b          	sext.w	a5,a5
   10cb8:	00079863          	bnez	a5,10cc8 <__call_exitprocs+0x10c>
   10cbc:	000a8513          	mv	a0,s5
   10cc0:	000680e7          	jalr	a3
   10cc4:	fc9ff06f          	j	10c8c <__call_exitprocs+0xd0>
   10cc8:	00058513          	mv	a0,a1
   10ccc:	000680e7          	jalr	a3
   10cd0:	fbdff06f          	j	10c8c <__call_exitprocs+0xd0>

0000000000010cd4 <_exit>:
   10cd4:	00000593          	li	a1,0
   10cd8:	00000613          	li	a2,0
   10cdc:	00000693          	li	a3,0
   10ce0:	00000713          	li	a4,0
   10ce4:	00000793          	li	a5,0
   10ce8:	05d00893          	li	a7,93
   10cec:	00000073          	ecall
   10cf0:	02055263          	bgez	a0,10d14 <_exit+0x40>
   10cf4:	ff010113          	addi	sp,sp,-16
   10cf8:	00813023          	sd	s0,0(sp)
   10cfc:	00050413          	mv	s0,a0
   10d00:	00113423          	sd	ra,8(sp)
   10d04:	4080043b          	negw	s0,s0
   10d08:	010000ef          	jal	ra,10d18 <__errno>
   10d0c:	00852023          	sw	s0,0(a0)
   10d10:	0000006f          	j	10d10 <_exit+0x3c>
   10d14:	0000006f          	j	10d14 <_exit+0x40>

0000000000010d18 <__errno>:
   10d18:	8101b503          	ld	a0,-2032(gp) # 11770 <_impure_ptr>
   10d1c:	00008067          	ret
